 PhysXCommon_64

 Timestamp is 5ee82d01 (Mon Jun 15 19:22:57 2020)

 Preferred load address is 0000000180000000

 Start         Length     Name                   Class
 0001:00000000 000028c0H .text$di                CODE
 0001:000028c0 0018a170H .text$mn                CODE
 0001:0018ca30 00000040H .text$mn$00             CODE
 0001:0018ca70 000009f0H .text$x                 CODE
 0002:00000000 000002d0H .idata$5                DATA
 0002:000002d0 00000028H .00cfg                  DATA
 0002:000002f8 00000008H .CRT$XCA                DATA
 0002:00000300 00001428H .CRT$XCU                DATA
 0002:00001728 00000008H .CRT$XCZ                DATA
 0002:00001730 00000008H .CRT$XIA                DATA
 0002:00001738 00000018H .CRT$XIC                DATA
 0002:00001750 00000008H .CRT$XIZ                DATA
 0002:00001758 00000008H .CRT$XPA                DATA
 0002:00001760 00000010H .CRT$XPX                DATA
 0002:00001770 00000008H .CRT$XPXA               DATA
 0002:00001778 00000008H .CRT$XPZ                DATA
 0002:00001780 00000008H .CRT$XTA                DATA
 0002:00001788 00000008H .CRT$XTZ                DATA
 0002:00001790 00000000H .gfids$y                DATA
 0002:00001790 0000f1f0H .rdata                  DATA
 0002:00010980 00000464H .rdata$r                DATA
 0002:00010de4 000003dcH .rdata$zzzdbg           DATA
 0002:000111c0 00000008H .rtc$IAA                DATA
 0002:000111c8 00000008H .rtc$IZZ                DATA
 0002:000111d0 00000008H .rtc$TAA                DATA
 0002:000111d8 00000008H .rtc$TZZ                DATA
 0002:000111e0 00013288H .xdata                  DATA
 0002:00024468 00000084H .xdata$x                DATA
 0002:000244ec 00000020H .didat$2                DATA
 0002:0002450c 00000024H .didat$3                DATA
 0002:00024530 00000088H .didat$4                DATA
 0002:000245b8 00000308H .didat$6                DATA
 0002:000248c0 00000090H .didat$7                DATA
 0002:00024950 0000a180H .edata                  DATA
 0002:0002ead0 00000014H .idata$2                DATA
 0002:0002eae4 00000014H .idata$3                DATA
 0002:0002eaf8 000002d0H .idata$4                DATA
 0002:0002edc8 00000694H .idata$6                DATA
 0003:00000000 000014a0H .data                   DATA
 0003:000014a0 000006e0H .data$r                 DATA
 0003:00001b80 00000090H .didat$5                DATA
 0003:00001c10 00004370H .bss                    DATA
 0004:00000000 0000aa94H .pdata                  DATA
 0005:00000000 000022a4H _RDATA                  DATA
 0006:00000000 000000a0H .rsrc$01                DATA
 0006:000000a0 000004b0H .rsrc$02                DATA

  Address         Publics by Value              Rva+Base               Lib:Object

 0000:00000000       __AbsoluteZero             0000000000000000     <absolute>
 0000:00000000       __volatile_metadata        0000000000000000     <absolute>
 0000:00000000       __guard_eh_cont_table      0000000000000000     <absolute>
 0000:00000000       ___safe_se_handler_count   0000000000000000     <absolute>
 0000:00000000       ___safe_se_handler_table   0000000000000000     <absolute>
 0000:00000000       __guard_longjmp_count      0000000000000000     <absolute>
 0000:00000000       __guard_longjmp_table      0000000000000000     <absolute>
 0000:00000000       __guard_fids_count         0000000000000000     <absolute>
 0000:00000000       __guard_iat_count          0000000000000000     <absolute>
 0000:00000000       __x64_code_ranges_to_entry_points 0000000000000000     <absolute>
 0000:00000000       __guard_iat_table          0000000000000000     <absolute>
 0000:00000000       __guard_fids_table         0000000000000000     <absolute>
 0000:00000000       __hybrid_code_map          0000000000000000     <absolute>
 0000:00000000       __arm64x_redirection_metadata 0000000000000000     <absolute>
 0000:00000000       __enclave_config           0000000000000000     <absolute>
 0000:00000000       __hybrid_code_map_count    0000000000000000     <absolute>
 0000:00000000       __arm64x_native_entrypoint 0000000000000000     <absolute>
 0000:00000000       __guard_eh_cont_count      0000000000000000     <absolute>
 0000:00000000       __hybrid_auxiliary_iat     0000000000000000     <absolute>
 0000:00000000       __dynamic_value_reloc_table 0000000000000000     <absolute>
 0000:00000100       __guard_flags              0000000000000100     <absolute>
 0000:00000000       __ImageBase                0000000180000000     <linker-defined>
 0001:000028c0       ?PxCreateCollection@@YAPEAVPxCollection@physx@@XZ 00000001800038c0 f   CmCollection.obj
 0001:000029c0       ?add@Collection@Cm@physx@@UEAAXAEAVPxBase@3@_K@Z 00000001800039c0 f   CmCollection.obj
 0001:00002ab0       ?remove@Collection@Cm@physx@@UEAAXAEAVPxBase@3@@Z 0000000180003ab0 f   CmCollection.obj
 0001:00002ba0       ?contains@Collection@Cm@physx@@UEBA_NAEAVPxBase@3@@Z 0000000180003ba0 f   CmCollection.obj
 0001:00002c50       ?addId@Collection@Cm@physx@@UEAAXAEAVPxBase@3@_K@Z 0000000180003c50 f   CmCollection.obj
 0001:00002d80       ?removeId@Collection@Cm@physx@@UEAAX_K@Z 0000000180003d80 f   CmCollection.obj
 0001:00002e00       ?find@Collection@Cm@physx@@UEBAPEAVPxBase@3@_K@Z 0000000180003e00 f   CmCollection.obj
 0001:00002e30       ?add@Collection@Cm@physx@@UEAAXAEAVPxCollection@3@@Z 0000000180003e30 f   CmCollection.obj
 0001:00002fd0       ?remove@Collection@Cm@physx@@UEAAXAEAVPxCollection@3@@Z 0000000180003fd0 f   CmCollection.obj
 0001:000030f0       ?getNbObjects@Collection@Cm@physx@@UEBAIXZ 00000001800040f0 f   CmCollection.obj
 0001:00003100       ?getObject@Collection@Cm@physx@@UEBAAEAVPxBase@3@I@Z 0000000180004100 f   CmCollection.obj
 0001:00003120       ?getObjects@Collection@Cm@physx@@UEBAIPEAPEAVPxBase@3@II@Z 0000000180004120 f   CmCollection.obj
 0001:00003180       ?getNbIds@Collection@Cm@physx@@UEBAIXZ 0000000180004180 f   CmCollection.obj
 0001:00003190       ?getId@Collection@Cm@physx@@UEBA_KAEBVPxBase@3@@Z 0000000180004190 f   CmCollection.obj
 0001:00003240       ?getIds@Collection@Cm@physx@@UEBAIPEA_KII@Z 0000000180004240 f   CmCollection.obj
 0001:00003300       ??1PxCollection@physx@@MEAA@XZ 0000000180004300 f i CmCollection.obj
 0001:00003310       ??_ECollection@Cm@physx@@UEAAPEAXI@Z 0000000180004310 f i CmCollection.obj
 0001:00003310       ??_GCollection@Cm@physx@@UEAAPEAXI@Z 0000000180004310 f i CmCollection.obj
 0001:000033c0       ??_EPxCollection@physx@@MEAAPEAXI@Z 00000001800043c0 f i CmCollection.obj
 0001:000033c0       ??_GPxCollection@physx@@MEAAPEAXI@Z 00000001800043c0 f i CmCollection.obj
 0001:000033f0       ?__empty_global_delete@@YAXPEAX@Z 00000001800043f0 f i CmCollection.obj
 0001:00003400       ?__empty_global_delete@@YAXPEAX_K@Z 0000000180004400 f i CmCollection.obj
 0001:00003410       ?create@?$HashBase@V?$Pair@$$CB_KPEAVPxBase@physx@@@shdfnd@physx@@_KU?$Hash@_K@23@UGetKey@?$HashMapBase@_KPEAVPxBase@physx@@U?$Hash@_K@shdfnd@2@VNonTrackingAllocator@42@@internal@23@VNonTrackingAllocator@23@$00@internal@shdfnd@physx@@QEAAPEAV?$Pair@$$CB_KPEAVPxBase@physx@@@34@AEB_KAEA_N@Z 0000000180004410 f i CmCollection.obj
 0001:000035b0       ?create@?$HashBase@V?$Pair@QEAVPxBase@physx@@_K@shdfnd@physx@@PEAVPxBase@3@U?$Hash@PEAVPxBase@physx@@@23@UGetKey@?$HashMapBase@PEAVPxBase@physx@@_KU?$Hash@PEAVPxBase@physx@@@shdfnd@2@VNonTrackingAllocator@42@@internal@23@VNonTrackingAllocator@23@$00@internal@shdfnd@physx@@QEAAPEAV?$Pair@QEAVPxBase@physx@@_K@34@AEBQEAVPxBase@4@AEA_N@Z 00000001800045b0 f i CmCollection.obj
 0001:00003750       ?erase@?$HashBase@V?$Pair@$$CB_KPEAVPxBase@physx@@@shdfnd@physx@@_KU?$Hash@_K@23@UGetKey@?$HashMapBase@_KPEAVPxBase@physx@@U?$Hash@_K@shdfnd@2@VNonTrackingAllocator@42@@internal@23@VNonTrackingAllocator@23@$00@internal@shdfnd@physx@@QEAA_NAEB_K@Z 0000000180004750 f i CmCollection.obj
 0001:000038f0       ?erase@?$HashBase@V?$Pair@QEAVPxBase@physx@@_K@shdfnd@physx@@PEAVPxBase@3@U?$Hash@PEAVPxBase@physx@@@23@UGetKey@?$HashMapBase@PEAVPxBase@physx@@_KU?$Hash@PEAVPxBase@physx@@@shdfnd@2@VNonTrackingAllocator@42@@internal@23@VNonTrackingAllocator@23@$00@internal@shdfnd@physx@@QEAA_NAEBQEAVPxBase@4@@Z 00000001800048f0 f i CmCollection.obj
 0001:00003a90       ?find@?$HashMapBase@_KPEAVPxBase@physx@@U?$Hash@_K@shdfnd@2@VNonTrackingAllocator@42@@internal@shdfnd@physx@@QEBAPEBV?$Pair@$$CB_KPEAVPxBase@physx@@@34@AEB_K@Z 0000000180004a90 f i CmCollection.obj
 0001:00003b30       ?release@Collection@Cm@physx@@UEAAXXZ 0000000180004b30 f i CmCollection.obj
 0001:00003b50       ?reserveInternal@?$HashBase@V?$Pair@$$CB_KPEAVPxBase@physx@@@shdfnd@physx@@_KU?$Hash@_K@23@UGetKey@?$HashMapBase@_KPEAVPxBase@physx@@U?$Hash@_K@shdfnd@2@VNonTrackingAllocator@42@@internal@23@VNonTrackingAllocator@23@$00@internal@shdfnd@physx@@AEAAXI@Z 0000000180004b50 f i CmCollection.obj
 0001:00003d40       ?reserveInternal@?$HashBase@V?$Pair@QEAVPxBase@physx@@_K@shdfnd@physx@@PEAVPxBase@3@U?$Hash@PEAVPxBase@physx@@@23@UGetKey@?$HashMapBase@PEAVPxBase@physx@@_KU?$Hash@PEAVPxBase@physx@@@shdfnd@2@VNonTrackingAllocator@42@@internal@23@VNonTrackingAllocator@23@$00@internal@shdfnd@physx@@AEAAXI@Z 0000000180004d40 f i CmCollection.obj
 0001:00003f30       ?PxTransformFromPlaneEquation@physx@@YA?AVPxTransform@1@AEBVPxPlane@1@@Z 0000000180004f30 f   CmMathUtils.obj
 0001:00004100       ?PxTransformFromSegment@physx@@YA?AVPxTransform@1@AEBVPxVec3@1@0PEAM@Z 0000000180005100 f   CmMathUtils.obj
 0001:00004270       ??0PtrTable@Cm@physx@@QEAA@XZ 0000000180005270 f   CmPtrTable.obj
 0001:00004290       ??1PtrTable@Cm@physx@@QEAA@XZ 0000000180005290 f   CmPtrTable.obj
 0001:000042a0       ?add@PtrTable@Cm@physx@@QEAAXPEAXAEAVPtrTableStorageManager@23@@Z 00000001800052a0 f   CmPtrTable.obj
 0001:00004370       ?replaceWithLast@PtrTable@Cm@physx@@QEAAXIAEAVPtrTableStorageManager@23@@Z 0000000180005370 f   CmPtrTable.obj
 0001:00004470       ?clear@PtrTable@Cm@physx@@QEAAXAEAVPtrTableStorageManager@23@@Z 0000000180005470 f   CmPtrTable.obj
 0001:000044f0       ?find@PtrTable@Cm@physx@@QEBAIPEBX@Z 00000001800054f0 f   CmPtrTable.obj
 0001:00004530       ?exportExtraData@PtrTable@Cm@physx@@QEAAXAEAVPxSerializationContext@3@@Z 0000000180005530 f   CmPtrTable.obj
 0001:00004580       ?importExtraData@PtrTable@Cm@physx@@QEAAXAEAVPxDeserializationContext@3@@Z 0000000180005580 f   CmPtrTable.obj
 0001:000045b0       ?getBinaryMetaData@PtrTable@Cm@physx@@SAXAEAVPxOutputStream@3@@Z 00000001800055b0 f   CmPtrTable.obj
 0001:00004770       ?realloc@PtrTable@Cm@physx@@AEAAXIIAEAVPtrTableStorageManager@23@@Z 0000000180005770 f   CmPtrTable.obj
 0001:00004800       ??0PtrTable@Cm@physx@@QEAA@W4PxEMPTY@2@@Z 0000000180005800 f i CmPtrTable.obj
 0001:00004820       ??4PtrTable@Cm@physx@@QEAAAEAU012@AEBU012@@Z 0000000180005820 f i CmPtrTable.obj
 0001:00004830       ?getCount@PtrTable@Cm@physx@@QEBAIXZ 0000000180005830 f i CmPtrTable.obj
 0001:00004840       ?getPtrs@PtrTable@Cm@physx@@QEAAPEAPEAXXZ 0000000180005840 f i CmPtrTable.obj
 0001:00004850       ?getPtrs@PtrTable@Cm@physx@@QEBAPEBQEAXXZ 0000000180005850 f i CmPtrTable.obj
 0001:00004860       ??0RadixSort@Cm@physx@@QEAA@XZ 0000000180005860 f   CmRadixSort.obj
 0001:000048a0       ??1RadixSort@Cm@physx@@UEAA@XZ 00000001800058a0 f   CmRadixSort.obj
 0001:000048c0       ?Sort@RadixSort@Cm@physx@@QEAAAEAV123@PEBIIW4RadixHint@23@@Z 00000001800058c0 f   CmRadixSort.obj
 0001:00004f10       ?Sort@RadixSort@Cm@physx@@QEAAAEAV123@PEBMI@Z 0000000180005f10 f   CmRadixSort.obj
 0001:00005670       ?SetBuffers@RadixSort@Cm@physx@@QEAA_NPEAI00PEAPEAI@Z 0000000180006670 f   CmRadixSort.obj
 0001:000056b0       ??_ERadixSort@Cm@physx@@UEAAPEAXI@Z 00000001800066b0 f i CmRadixSort.obj
 0001:00005740       ??_GRadixSort@Cm@physx@@UEAAPEAXI@Z 0000000180006740 f i CmRadixSort.obj
 0001:00005770       ??_I@YAXPEAX_K1P6AX0@Z@Z   0000000180006770 f i CmRadixSort.obj
 0001:000057d0       ?GetNbHits@RadixSort@Cm@physx@@QEBAIXZ 00000001800067d0 f i CmRadixSort.obj
 0001:000057e0       ?GetNbTotalCalls@RadixSort@Cm@physx@@QEBAIXZ 00000001800067e0 f i CmRadixSort.obj
 0001:000057f0       ?GetRanks@RadixSort@Cm@physx@@QEBAPEBIXZ 00000001800067f0 f i CmRadixSort.obj
 0001:00005800       ?GetRecyclable@RadixSort@Cm@physx@@QEBAPEAIXZ 0000000180006800 f i CmRadixSort.obj
 0001:00005810       ?invalidateRanks@RadixSort@Cm@physx@@QEAAXXZ 0000000180006810 f i CmRadixSort.obj
 0001:00005820       ??0RadixSortBuffered@Cm@physx@@QEAA@XZ 0000000180006820 f   CmRadixSortBuffered.obj
 0001:00005850       ??1RadixSortBuffered@Cm@physx@@UEAA@XZ 0000000180006850 f   CmRadixSortBuffered.obj
 0001:00005880       ?reset@RadixSortBuffered@Cm@physx@@QEAAXXZ 0000000180006880 f   CmRadixSortBuffered.obj
 0001:00005910       ?Sort@RadixSortBuffered@Cm@physx@@QEAAAEAV123@PEBIIW4RadixHint@23@@Z 0000000180006910 f   CmRadixSortBuffered.obj
 0001:000059b0       ?Sort@RadixSortBuffered@Cm@physx@@QEAAAEAV123@PEBMI@Z 00000001800069b0 f   CmRadixSortBuffered.obj
 0001:00005a40       ?Resize@RadixSortBuffered@Cm@physx@@AEAA_NI@Z 0000000180006a40 f   CmRadixSortBuffered.obj
 0001:00005b30       ??_ERadixSortBuffered@Cm@physx@@UEAAPEAXI@Z 0000000180006b30 f i CmRadixSortBuffered.obj
 0001:00005c60       ??_GRadixSortBuffered@Cm@physx@@UEAAPEAXI@Z 0000000180006c60 f i CmRadixSortBuffered.obj
 0001:00005cb0       ?CheckResize@RadixSortBuffered@Cm@physx@@AEAAXI@Z 0000000180006cb0 f i CmRadixSortBuffered.obj
 0001:00005cf0       ??6RenderOutput@Cm@physx@@QEAAAEAV012@W4Primitive@012@@Z 0000000180006cf0 f   CmRenderOutput.obj
 0001:00005d10       ??6RenderOutput@Cm@physx@@QEAAAEAV012@I@Z 0000000180006d10 f   CmRenderOutput.obj
 0001:00005d20       ??6RenderOutput@Cm@physx@@QEAAAEAV012@AEBVPxMat44@2@@Z 0000000180006d20 f   CmRenderOutput.obj
 0001:00005d90       ??6RenderOutput@Cm@physx@@QEAAAEAV012@AEBVPxTransform@2@@Z 0000000180006d90 f   CmRenderOutput.obj
 0001:00005f20       ??6RenderOutput@Cm@physx@@QEAAAEAV012@VPxVec3@2@@Z 0000000180006f20 f   CmRenderOutput.obj
 0001:00006470       ??6RenderOutput@Cm@physx@@QEAAAEAV012@AEBUDebugText@12@@Z 0000000180007470 f   CmRenderOutput.obj
 0001:00006690       ?outputCapsule@RenderOutput@Cm@physx@@QEAAAEAV123@MMAEBVPxMat44@3@@Z 0000000180007690 f   CmRenderOutput.obj
 0001:00007170       ??0DebugText@Cm@physx@@QEAA@AEBVPxVec3@2@MPEBDZZ 0000000180008170 f   CmRenderOutput.obj
 0001:000071d0       ??6Cm@physx@@YAAEAVRenderOutput@01@AEAV201@AEBUDebugBox@01@@Z 00000001800081d0 f   CmRenderOutput.obj
 0001:000076d0       ??6Cm@physx@@YAAEAVRenderOutput@01@AEAV201@AEBUDebugArrow@01@@Z 00000001800086d0 f   CmRenderOutput.obj
 0001:00007ad0       ??6Cm@physx@@YAAEAVRenderOutput@01@AEAV201@AEBUDebugBasis@01@@Z 0000000180008ad0 f   CmRenderOutput.obj
 0001:00007bd0       ??6Cm@physx@@YAAEAVRenderOutput@01@AEAV201@AEBUDebugCircle@01@@Z 0000000180008bd0 f   CmRenderOutput.obj
 0001:00007cc0       ??6Cm@physx@@YAAEAVRenderOutput@01@AEAV201@AEBUDebugArc@01@@Z 0000000180008cc0 f   CmRenderOutput.obj
 0001:00007dc0       ??0DebugText@Cm@physx@@QEAA@$$QEAU012@@Z 0000000180008dc0 f i CmRenderOutput.obj
 0001:00007ea0       ??0DebugText@Cm@physx@@QEAA@AEBU012@@Z 0000000180008ea0 f i CmRenderOutput.obj
 0001:00007f80       ??0RenderOutput@Cm@physx@@QEAA@AEAVRenderBuffer@12@@Z 0000000180008f80 f i CmRenderOutput.obj
 0001:00007fd0       ??0RenderOutput@Cm@physx@@QEAA@AEBV012@@Z 0000000180008fd0 f i CmRenderOutput.obj
 0001:00008070       ??4DebugText@Cm@physx@@QEAAAEAU012@$$QEAU012@@Z 0000000180009070 f i CmRenderOutput.obj
 0001:000081a0       ??4DebugText@Cm@physx@@QEAAAEAU012@AEBU012@@Z 00000001800091a0 f i CmRenderOutput.obj
 0001:000082d0       ?allocate@?$Array@DV?$ReflectionAllocator@D@shdfnd@physx@@@shdfnd@physx@@IEAAPEADI@Z 00000001800092d0 f i CmRenderOutput.obj
 0001:00008360       ?allocate@?$Array@UPxDebugLine@physx@@V?$ReflectionAllocator@UPxDebugLine@physx@@@shdfnd@2@@shdfnd@physx@@IEAAPEAUPxDebugLine@3@I@Z 0000000180009360 f i CmRenderOutput.obj
 0001:00008400       ?allocate@?$Array@UPxDebugPoint@physx@@V?$ReflectionAllocator@UPxDebugPoint@physx@@@shdfnd@2@@shdfnd@physx@@IEAAPEAUPxDebugPoint@3@I@Z 0000000180009400 f i CmRenderOutput.obj
 0001:000084a0       ?allocate@?$Array@UPxDebugText@physx@@V?$ReflectionAllocator@UPxDebugText@physx@@@shdfnd@2@@shdfnd@physx@@IEAAPEAUPxDebugText@3@I@Z 00000001800094a0 f i CmRenderOutput.obj
 0001:00008540       ?allocate@?$Array@UPxDebugTriangle@physx@@V?$ReflectionAllocator@UPxDebugTriangle@physx@@@shdfnd@2@@shdfnd@physx@@IEAAPEAUPxDebugTriangle@3@I@Z 0000000180009540 f i CmRenderOutput.obj
 0001:000085e0       ?copy@?$Array@UPxDebugLine@physx@@V?$ReflectionAllocator@UPxDebugLine@physx@@@shdfnd@2@@shdfnd@physx@@KAXPEAUPxDebugLine@3@0PEBU43@@Z 00000001800095e0 f i CmRenderOutput.obj
 0001:00008790       ?copy@?$Array@UPxDebugPoint@physx@@V?$ReflectionAllocator@UPxDebugPoint@physx@@@shdfnd@2@@shdfnd@physx@@KAXPEAUPxDebugPoint@3@0PEBU43@@Z 0000000180009790 f i CmRenderOutput.obj
 0001:00008890       ?copy@?$Array@UPxDebugText@physx@@V?$ReflectionAllocator@UPxDebugText@physx@@@shdfnd@2@@shdfnd@physx@@KAXPEAUPxDebugText@3@0PEBU43@@Z 0000000180009890 f i CmRenderOutput.obj
 0001:00008a00       ?copy@?$Array@UPxDebugTriangle@physx@@V?$ReflectionAllocator@UPxDebugTriangle@physx@@@shdfnd@2@@shdfnd@physx@@KAXPEAUPxDebugTriangle@3@0PEBU43@@Z 0000000180009a00 f i CmRenderOutput.obj
 0001:00008c00       ?growAndPushBack@?$Array@DV?$ReflectionAllocator@D@shdfnd@physx@@@shdfnd@physx@@IEAAAEADAEBD@Z 0000000180009c00 f i CmRenderOutput.obj
 0001:00008cc0       ?growAndPushBack@?$Array@UPxDebugLine@physx@@V?$ReflectionAllocator@UPxDebugLine@physx@@@shdfnd@2@@shdfnd@physx@@IEAAAEAUPxDebugLine@3@AEBU43@@Z 0000000180009cc0 f i CmRenderOutput.obj
 0001:00008da0       ?growAndPushBack@?$Array@UPxDebugPoint@physx@@V?$ReflectionAllocator@UPxDebugPoint@physx@@@shdfnd@2@@shdfnd@physx@@IEAAAEAUPxDebugPoint@3@AEBU43@@Z 0000000180009da0 f i CmRenderOutput.obj
 0001:00008e60       ?growAndPushBack@?$Array@UPxDebugText@physx@@V?$ReflectionAllocator@UPxDebugText@physx@@@shdfnd@2@@shdfnd@physx@@IEAAAEAUPxDebugText@3@AEBU43@@Z 0000000180009e60 f i CmRenderOutput.obj
 0001:00008f30       ?growAndPushBack@?$Array@UPxDebugTriangle@physx@@V?$ReflectionAllocator@UPxDebugTriangle@physx@@@shdfnd@2@@shdfnd@physx@@IEAAAEAUPxDebugTriangle@3@AEBU43@@Z 0000000180009f30 f i CmRenderOutput.obj
 0001:00009030       ?outputSegment@RenderOutput@Cm@physx@@QEAAXAEBVPxVec3@3@0@Z 000000018000a030 f i CmRenderOutput.obj
 0001:000090f0       ?recreate@?$Array@DV?$ReflectionAllocator@D@shdfnd@physx@@@shdfnd@physx@@IEAAXI@Z 000000018000a0f0 f i CmRenderOutput.obj
 0001:00009190       ?recreate@?$Array@UPxDebugLine@physx@@V?$ReflectionAllocator@UPxDebugLine@physx@@@shdfnd@2@@shdfnd@physx@@IEAAXI@Z 000000018000a190 f i CmRenderOutput.obj
 0001:00009220       ?reserveSegments@RenderOutput@Cm@physx@@QEAAPEAUPxDebugLine@3@I@Z 000000018000a220 f i CmRenderOutput.obj
 0001:00009290       ?visualizeJointFrames@Cm@physx@@YAXAEAVRenderOutput@12@MAEBVPxTransform@2@1@Z 000000018000a290 f   CmVisualization.obj
 0001:00009360       ?visualizeLinearLimit@Cm@physx@@YAXAEAVRenderOutput@12@MAEBVPxTransform@2@1M_N@Z 000000018000a360 f   CmVisualization.obj
 0001:000095f0       ?visualizeAngularLimit@Cm@physx@@YAXAEAVRenderOutput@12@MAEBVPxTransform@2@MM_N@Z 000000018000a5f0 f   CmVisualization.obj
 0001:000097b0       ?visualizeLimitCone@Cm@physx@@YAXAEAVRenderOutput@12@MAEBVPxTransform@2@MM_N@Z 000000018000a7b0 f   CmVisualization.obj
 0001:00009a50       ?visualizeDoubleCone@Cm@physx@@YAXAEAVRenderOutput@12@MAEBVPxTransform@2@M_N@Z 000000018000aa50 f   CmVisualization.obj
 0001:00009cb0       ??DPxQuat@physx@@QEBA?AV01@AEBV01@@Z 000000018000acb0 f i CmVisualization.obj
 0001:00009df0       ??0CmModuleUpdateLoader@Cm@physx@@QEAA@PEBD@Z 000000018000adf0 f   CmWindowsModuleUpdateLoader.obj
 0001:00009e40       ??1CmModuleUpdateLoader@Cm@physx@@QEAA@XZ 000000018000ae40 f   CmWindowsModuleUpdateLoader.obj
 0001:00009e70       ?LoadModule@CmModuleUpdateLoader@Cm@physx@@QEAAPEAUHINSTANCE__@@PEBD0@Z 000000018000ae70 f   CmWindowsModuleUpdateLoader.obj
 0001:00009e90       ??4CmModuleUpdateLoader@Cm@physx@@QEAAAEAV012@AEBV012@@Z 000000018000ae90 f i CmWindowsModuleUpdateLoader.obj
 0001:00009ea0       PxSetPhysXCommonDelayLoadHook 000000018000aea0 f   CmWindowsDelayLoadHook.obj
 0001:00009eb0       ?commonDelayHook@@YAP6A_JXZIPEAUDelayLoadInfo@@@Z 000000018000aeb0 f   CmWindowsDelayLoadHook.obj
 0001:00009f90       ?computeBounds@Gu@physx@@YAXAEAVPxBounds3@2@AEBVPxGeometry@2@AEBVPxTransform@2@MPEIBVCenterExtentsPadded@12@M@Z 000000018000af90 f   GuBounds.obj
 0001:0000a870       ?computeBoundsWithCCDThreshold@Gu@physx@@YAMAEAVVec3p@12@0AEBVPxGeometry@2@AEBVPxTransform@2@PEIBVCenterExtentsPadded@12@@Z 000000018000b870 f   GuBounds.obj
 0001:0000aa50       ??0ShapeData@Gu@physx@@QEAA@AEBVPxGeometry@2@AEBVPxTransform@2@M@Z 000000018000ba50 f   GuBounds.obj
 0001:0000afa0       ??0Box@Gu@physx@@QEAA@AEBV012@@Z 000000018000bfa0 f i GuBounds.obj
 0001:0000b000       ??0Box@Gu@physx@@QEAA@AEBVPxVec3@2@0AEBVPxMat33@2@@Z 000000018000c000 f i GuBounds.obj
 0001:0000b070       ??0Box@Gu@physx@@QEAA@XZ   000000018000c070 f i GuBounds.obj
 0001:0000b080       ??0HeightFieldData@Gu@physx@@QEAA@$$QEAU012@@Z 000000018000c080 f i GuBounds.obj
 0001:0000b0e0       ??0HeightFieldData@Gu@physx@@QEAA@AEBU012@@Z 000000018000c0e0 f i GuBounds.obj
 0001:0000b140       ??0HeightFieldData@Gu@physx@@QEAA@W4PxEMPTY@2@@Z 000000018000c140 f i GuBounds.obj
 0001:0000b150       ??0HeightFieldData@Gu@physx@@QEAA@XZ 000000018000c150 f i GuBounds.obj
 0001:0000b160       ??0PxQuat@physx@@QEAA@AEBVPxMat33@1@@Z 000000018000c160 f i GuBounds.obj
 0001:0000b340       ??0PxVec3@physx@@QEAA@XZ   000000018000c340 f i GuBounds.obj
 0001:0000b350       ??0PxVec4@physx@@QEAA@XZ   000000018000c350 f i GuBounds.obj
 0001:0000b360       ??1Box@Gu@physx@@QEAA@XZ   000000018000c360 f i GuBounds.obj
 0001:0000b370       ??1HeightFieldData@Gu@physx@@QEAA@XZ 000000018000c370 f i GuBounds.obj
 0001:0000b380       ??1PxBase@physx@@MEAA@XZ   000000018000c380 f i GuBounds.obj
 0001:0000b390       ??1PxConvexMesh@physx@@MEAA@XZ 000000018000c390 f i GuBounds.obj
 0001:0000b3a0       ??1PxHeightField@physx@@MEAA@XZ 000000018000c3a0 f i GuBounds.obj
 0001:0000b3b0       ??4Box@Gu@physx@@QEAAAEBV012@AEBV012@@Z 000000018000c3b0 f i GuBounds.obj
 0001:0000b410       ??4HeightFieldData@Gu@physx@@QEAAAEAU012@$$QEAU012@@Z 000000018000c410 f i GuBounds.obj
 0001:0000b470       ??4HeightFieldData@Gu@physx@@QEAAAEAU012@AEBU012@@Z 000000018000c470 f i GuBounds.obj
 0001:0000b4d0       ??_GPxBase@physx@@MEAAPEAXI@Z 000000018000c4d0 f i GuBounds.obj
 0001:0000b4d0       ??_EPxBase@physx@@MEAAPEAXI@Z 000000018000c4d0 f i GuBounds.obj
 0001:0000b500       ??_H@YAXPEAX_K1P6APEAX0@Z@Z 000000018000c500 f i GuBounds.obj
 0001:0000b550       ?computeAABBExtent@Box@Gu@physx@@QEBA?AVPxVec3@3@XZ 000000018000c550 f i GuBounds.obj
 0001:0000b610       ?computeBoxPoints@Box@Gu@physx@@QEBAXPEIAVPxVec3@3@@Z 000000018000c610 f i GuBounds.obj
 0001:0000c5c0       ?getConcreteTypeName@PxConvexMesh@physx@@UEBAPEBDXZ 000000018000d5c0 f i GuBounds.obj
 0001:0000c5d0       ?getConcreteTypeName@PxHeightField@physx@@UEBAPEBDXZ 000000018000d5d0 f i GuBounds.obj
 0001:0000c5e0       ?getConvexEdgeThreshold@HeightField@Gu@physx@@UEBAMXZ 000000018000d5e0 f i GuBounds.obj
 0001:0000c5f0       ?getFlags@HeightField@Gu@physx@@UEBA?AV?$PxFlags@W4Enum@PxHeightFieldFlag@physx@@G@3@XZ 000000018000d5f0 f i GuBounds.obj
 0001:0000c600       ?getFormat@HeightField@Gu@physx@@UEBA?AW4Enum@PxHeightFieldFormat@3@XZ 000000018000d600 f i GuBounds.obj
 0001:0000c610       ?getHeight@HeightField@Gu@physx@@UEBAMMM@Z 000000018000d610 f i GuBounds.obj
 0001:0000c650       ?getHeightInternal2@HeightField@Gu@physx@@QEBAMIMM@Z 000000018000d650 f i GuBounds.obj
 0001:0000c7c0       ?getIndexBuffer@ConvexMesh@Gu@physx@@UEBAPEBEXZ 000000018000d7c0 f i GuBounds.obj
 0001:0000c800       ?getNbColumns@HeightField@Gu@physx@@UEBAIXZ 000000018000d800 f i GuBounds.obj
 0001:0000c810       ?getNbPolygons@ConvexMesh@Gu@physx@@UEBAIXZ 000000018000d810 f i GuBounds.obj
 0001:0000c820       ?getNbRows@HeightField@Gu@physx@@UEBAIXZ 000000018000d820 f i GuBounds.obj
 0001:0000c830       ?getNbVertices@ConvexMesh@Gu@physx@@UEBAIXZ 000000018000d830 f i GuBounds.obj
 0001:0000c840       ?getPaddedBounds@HeightFieldData@Gu@physx@@QEBAAEBVCenterExtentsPadded@23@XZ 000000018000d840 f i GuBounds.obj
 0001:0000c850       ?getSample@HeightField@Gu@physx@@UEBAAEBUPxHeightFieldSample@3@II@Z 000000018000d850 f i GuBounds.obj
 0001:0000c860       ?getSampleStride@HeightField@Gu@physx@@UEBAIXZ 000000018000d860 f i GuBounds.obj
 0001:0000c870       ?getTimestamp@HeightField@Gu@physx@@UEBAIXZ 000000018000d870 f i GuBounds.obj
 0001:0000c880       ?getTransform@Box@Gu@physx@@QEBA?AVPxTransform@3@XZ 000000018000d880 f i GuBounds.obj
 0001:0000c8e0       ?getTriangleMaterialIndex@HeightField@Gu@physx@@UEBAGI@Z 000000018000d8e0 f i GuBounds.obj
 0001:0000c910       ?getTriangleNormal@HeightField@Gu@physx@@UEBA?AVPxVec3@3@I@Z 000000018000d910 f i GuBounds.obj
 0001:0000ca10       ?getVertices@ConvexMesh@Gu@physx@@UEBAPEBVPxVec3@3@XZ 000000018000da10 f i GuBounds.obj
 0001:0000ca30       ?isKindOf@PxBase@physx@@MEBA_NPEBD@Z 000000018000da30 f i GuBounds.obj
 0001:0000ca60       ?isKindOf@PxConvexMesh@physx@@MEBA_NPEBD@Z 000000018000da60 f i GuBounds.obj
 0001:0000cab0       ?isKindOf@PxHeightField@physx@@MEBA_NPEBD@Z 000000018000dab0 f i GuBounds.obj
 0001:0000cb00       ?isReleasable@PxBase@physx@@UEBA_NXZ 000000018000db00 f i GuBounds.obj
 0001:0000cb10       ?isValid@Box@Gu@physx@@QEBA_NXZ 000000018000db10 f i GuBounds.obj
 0001:0000cb30       ?preExportDataReset@ConvexMesh@Gu@physx@@QEAAXXZ 000000018000db30 f i GuBounds.obj
 0001:0000cb40       ?preExportDataReset@HeightField@Gu@physx@@QEAAXXZ 000000018000db40 f i GuBounds.obj
 0001:0000cb50       ?rotate@Box@Gu@physx@@QEBA?AVPxVec3@3@AEBV43@@Z 000000018000db50 f i GuBounds.obj
 0001:0000cbe0       ?rotateInv@Box@Gu@physx@@QEBA?AVPxVec3@3@AEBV43@@Z 000000018000dbe0 f i GuBounds.obj
 0001:0000cc70       ?setAxes@Box@Gu@physx@@QEAAXAEBVPxVec3@3@00@Z 000000018000dc70 f i GuBounds.obj
 0001:0000ccb0       ?setEmpty@Box@Gu@physx@@QEAAXXZ 000000018000dcb0 f i GuBounds.obj
 0001:0000ccf0       ?transform@Box@Gu@physx@@QEBA?AVPxVec3@3@AEBV43@@Z 000000018000dcf0 f i GuBounds.obj
 0001:0000cd90       ?computeOBBPoints@Gu@physx@@YAXPEIAVPxVec3@2@AEBV32@1111@Z 000000018000dd90 f   GuBox.obj
 0001:0000d010       ?create@Box@Gu@physx@@QEAAXAEBVCapsule@23@@Z 000000018000e010 f   GuBox.obj
 0001:0000d250       ?getBoxEdges@Gu@physx@@YAPEBEXZ 000000018000e250 f   GuBox.obj
 0001:0000d260       ?computeBoxAroundCapsule@Gu@physx@@YAXAEBVCapsule@12@AEAVBox@12@@Z 000000018000e260 f   GuCapsule.obj
 0001:0000d3b0       ?computeBasis@shdfnd@physx@@YAXAEBVPxVec3@2@0AEAV32@11@Z 000000018000e3b0 f i GuCapsule.obj
 0001:0000d550       ?sweepBoxTriangles_Precise@Gu@physx@@YA_NIPEBVPxTriangle@2@_NAEBVPxBoxGeometry@2@AEBVPxTransform@2@AEBVPxVec3@2@MAEAUPxSweepHit@2@PEBIMV?$PxFlags@W4Enum@PxHitFlag@physx@@G@2@@Z 000000018000e550 f   GuCCTSweepTests.obj
 0001:0000d690       ?sweepCapsule_BoxGeom_Precise@@YA_NAEBVPxGeometry@physx@@AEBVPxTransform@2@AEBVPxCapsuleGeometry@2@1AEBVCapsule@Gu@2@AEBVPxVec3@2@MAEAUPxSweepHit@2@V?$PxFlags@W4Enum@PxHitFlag@physx@@G@2@M@Z 000000018000e690 f   GuCCTSweepTests.obj
 0001:0000dce0       ?sweepBox_SphereGeom_Precise@@YA_NAEBVPxGeometry@physx@@AEBVPxTransform@2@AEBVPxBoxGeometry@2@1AEBVBox@Gu@2@AEBVPxVec3@2@MAEAUPxSweepHit@2@V?$PxFlags@W4Enum@PxHitFlag@physx@@G@2@M@Z 000000018000ece0 f   GuCCTSweepTests.obj
 0001:0000dfc0       ?sweepBox_CapsuleGeom_Precise@@YA_NAEBVPxGeometry@physx@@AEBVPxTransform@2@AEBVPxBoxGeometry@2@1AEBVBox@Gu@2@AEBVPxVec3@2@MAEAUPxSweepHit@2@V?$PxFlags@W4Enum@PxHitFlag@physx@@G@2@M@Z 000000018000efc0 f   GuCCTSweepTests.obj
 0001:0000e390       ?sweepBox_BoxGeom_Precise@@YA_NAEBVPxGeometry@physx@@AEBVPxTransform@2@AEBVPxBoxGeometry@2@1AEBVBox@Gu@2@AEBVPxVec3@2@MAEAUPxSweepHit@2@V?$PxFlags@W4Enum@PxHitFlag@physx@@G@2@M@Z 000000018000f390 f   GuCCTSweepTests.obj
 0001:0000e550       ?sweepBox_HeightFieldGeom_Precise@@YA_NAEBVPxGeometry@physx@@AEBVPxTransform@2@AEBVPxBoxGeometry@2@1AEBVBox@Gu@2@AEBVPxVec3@2@MAEAUPxSweepHit@2@V?$PxFlags@W4Enum@PxHitFlag@physx@@G@2@M@Z 000000018000f550 f   GuCCTSweepTests.obj
 0001:0000e920       ??0HeightFieldTraceUtil@Gu@physx@@QEAA@AEBVPxHeightFieldGeometry@2@@Z 000000018000f920 f i GuCCTSweepTests.obj
 0001:0000e960       ??0HeightFieldUtil@Gu@physx@@QEAA@AEBVPxHeightFieldGeometry@2@@Z 000000018000f960 f i GuCCTSweepTests.obj
 0001:0000e9a0       ??1?$EntityReport@I@Gu@physx@@UEAA@XZ 000000018000f9a0 f i GuCCTSweepTests.obj
 0001:0000e9b0       ??4HeightFieldTraceUtil@Gu@physx@@QEAAAEAV012@$$QEAV012@@Z 000000018000f9b0 f i GuCCTSweepTests.obj
 0001:0000e9d0       ??4HeightFieldTraceUtil@Gu@physx@@QEAAAEAV012@AEBV012@@Z 000000018000f9d0 f i GuCCTSweepTests.obj
 0001:0000e9f0       ??4HeightFieldUtil@Gu@physx@@QEAAAEAV012@$$QEAV012@@Z 000000018000f9f0 f i GuCCTSweepTests.obj
 0001:0000ea20       ??4HeightFieldUtil@Gu@physx@@QEAAAEAV012@AEBV012@@Z 000000018000fa20 f i GuCCTSweepTests.obj
 0001:0000ea40       ??_E?$EntityReport@I@Gu@physx@@UEAAPEAXI@Z 000000018000fa40 f i GuCCTSweepTests.obj
 0001:0000ea40       ??_G?$EntityReport@I@Gu@physx@@UEAAPEAXI@Z 000000018000fa40 f i GuCCTSweepTests.obj
 0001:0000eaa0       ?ceilUp@HeightFieldTraceUtil@Gu@physx@@SAMM@Z 000000018000faa0 f i GuCCTSweepTests.obj
 0001:0000eae0       ?computePointNormal@HeightFieldUtil@Gu@physx@@QEBA?AVPxVec3@3@IAEBV43@AEBVPxTransform@3@MMMMAEAM@Z 000000018000fae0 f i GuCCTSweepTests.obj
 0001:0000ef00       ?floorDown@HeightFieldTraceUtil@Gu@physx@@SAMM@Z 000000018000ff00 f i GuCCTSweepTests.obj
 0001:0000ef40       ?getFeatureIndex@HeightFieldUtil@Gu@physx@@SAII@Z 000000018000ff40 f i GuCCTSweepTests.obj
 0001:0000ef50       ?getFeatureType@HeightFieldUtil@Gu@physx@@SA?AW4Feature@123@I@Z 000000018000ff50 f i GuCCTSweepTests.obj
 0001:0000ef60       ?getHeightAtShapePoint@HeightFieldUtil@Gu@physx@@QEBAMMM@Z 000000018000ff60 f i GuCCTSweepTests.obj
 0001:0000efc0       ?getHeightField@HeightFieldUtil@Gu@physx@@QEBAAEBVHeightField@23@XZ 000000018000ffc0 f i GuCCTSweepTests.obj
 0001:0000efd0       ?getHeightFieldGeometry@HeightFieldUtil@Gu@physx@@QEBAAEBVPxHeightFieldGeometry@3@XZ 000000018000ffd0 f i GuCCTSweepTests.obj
 0001:0000efe0       ?getNormalAtShapePoint@HeightFieldUtil@Gu@physx@@QEBA?AVPxVec3@3@MM@Z 000000018000ffe0 f i GuCCTSweepTests.obj
 0001:0000f0a0       ?getNormal_2@HeightField@Gu@physx@@QEBA?AVPxVec3@3@IMMMMM@Z 00000001800100a0 f i GuCCTSweepTests.obj
 0001:0000f1c0       ?getOneOverColumnScale@HeightFieldUtil@Gu@physx@@QEBAMXZ 00000001800101c0 f i GuCCTSweepTests.obj
 0001:0000f1d0       ?getOneOverHeightScale@HeightFieldUtil@Gu@physx@@QEBAMXZ 00000001800101d0 f i GuCCTSweepTests.obj
 0001:0000f1e0       ?getOneOverRowScale@HeightFieldUtil@Gu@physx@@QEBAMXZ 00000001800101e0 f i GuCCTSweepTests.obj
 0001:0000f1f0       ?getVertexNormal@HeightFieldUtil@Gu@physx@@QEBA?AVPxVec3@3@I@Z 00000001800101f0 f i GuCCTSweepTests.obj
 0001:0000f230       ?hf2shapen@HeightFieldUtil@Gu@physx@@QEBA?AVPxVec3@3@AEBV43@@Z 0000000180010230 f i GuCCTSweepTests.obj
 0001:0000f270       ?hf2shapep@HeightFieldUtil@Gu@physx@@QEBA?AVPxVec3@3@AEBV43@@Z 0000000180010270 f i GuCCTSweepTests.obj
 0001:0000f2b0       ?hf2worldn@HeightFieldUtil@Gu@physx@@QEBA?AVPxVec3@3@AEBVPxTransform@3@AEBV43@@Z 00000001800102b0 f i GuCCTSweepTests.obj
 0001:0000f420       ?hf2worldp@HeightFieldUtil@Gu@physx@@QEBA?AVPxVec3@3@AEBVPxTransform@3@AEBV43@@Z 0000000180010420 f i GuCCTSweepTests.obj
 0001:0000f5a0       ?isCollisionVertex@HeightFieldUtil@Gu@physx@@QEBA_NIII@Z 00000001800105a0 f i GuCCTSweepTests.obj
 0001:0000f5c0       ?isQueryVertex@HeightFieldUtil@Gu@physx@@QEBA_NIII@Z 00000001800105c0 f i GuCCTSweepTests.obj
 0001:0000f680       ?isShapePointOnHeightField@HeightFieldUtil@Gu@physx@@QEBA_NMM@Z 0000000180010680 f i GuCCTSweepTests.obj
 0001:0000f6d0       ?makeFeatureCode@HeightFieldUtil@Gu@physx@@SAIIW4Feature@123@@Z 00000001800106d0 f i GuCCTSweepTests.obj
 0001:0000f890       ?shape2hfp@HeightFieldUtil@Gu@physx@@QEBA?AVPxVec3@3@AEBV43@@Z 0000000180010890 f i GuCCTSweepTests.obj
 0001:00010510       ?sweep@PxGeometryQuery@physx@@SA_NAEBVPxVec3@2@MAEBVPxGeometry@2@AEBVPxTransform@2@12AEAUPxSweepHit@2@V?$PxFlags@W4Enum@PxHitFlag@physx@@G@2@M@Z 0000000180011510 f   GuGeometryQuery.obj
 0001:00010910       ?overlap@PxGeometryQuery@physx@@SA_NAEBVPxGeometry@2@AEBVPxTransform@2@01@Z 0000000180011910 f   GuGeometryQuery.obj
 0001:000109a0       ?raycast@PxGeometryQuery@physx@@SAIAEBVPxVec3@2@0AEBVPxGeometry@2@AEBVPxTransform@2@MV?$PxFlags@W4Enum@PxHitFlag@physx@@G@2@IPEIAUPxRaycastHit@2@@Z 00000001800119a0 f   GuGeometryQuery.obj
 0001:00010a40       ?computePenetration@PxGeometryQuery@physx@@SA_NAEAVPxVec3@2@AEAMAEBVPxGeometry@2@AEBVPxTransform@2@23@Z 0000000180011a40 f   GuGeometryQuery.obj
 0001:00010b30       ?pointDistance@PxGeometryQuery@physx@@SAMAEBVPxVec3@2@AEBVPxGeometry@2@AEBVPxTransform@2@PEAV32@@Z 0000000180011b30 f   GuGeometryQuery.obj
 0001:000111c0       ?getWorldBounds@PxGeometryQuery@physx@@SA?AVPxBounds3@2@AEBVPxGeometry@2@AEBVPxTransform@2@M@Z 00000001800121c0 f   GuGeometryQuery.obj
 0001:00011230       ?isValid@PxGeometryQuery@physx@@SA_NAEBVPxGeometry@2@@Z 0000000180012230 f   GuGeometryQuery.obj
 0001:00011420       ?isFinite@PxQuat@physx@@QEBA_NXZ 0000000180012420 f i GuGeometryQuery.obj
 0001:00011490       ?set@GeometryUnion@Gu@physx@@QEAAXAEBVPxGeometry@3@@Z 0000000180012490 f   GuGeometryUnion.obj
 0001:00011670       ??0GeometryUnion@Gu@physx@@QEAA@AEBVPxGeometry@2@@Z 0000000180012670 f i GuGeometryUnion.obj
 0001:00011690       ??0GeometryUnion@Gu@physx@@QEAA@W4PxEMPTY@2@@Z 0000000180012690 f i GuGeometryUnion.obj
 0001:000116a0       ??0GeometryUnion@Gu@physx@@QEAA@XZ 00000001800126a0 f i GuGeometryUnion.obj
 0001:000116b0       ??0MaterialIndicesStruct@physx@@QEAA@W4PxEMPTY@1@@Z 00000001800126b0 f i GuGeometryUnion.obj
 0001:000116c0       ??0MaterialIndicesStruct@physx@@QEAA@XZ 00000001800126c0 f i GuGeometryUnion.obj
 0001:000116e0       ??1MaterialIndicesStruct@physx@@QEAA@XZ 00000001800126e0 f i GuGeometryUnion.obj
 0001:000116f0       ??4GeometryUnion@Gu@physx@@QEAAAEAV012@$$QEAV012@@Z 00000001800126f0 f i GuGeometryUnion.obj
 0001:00011720       ??4GeometryUnion@Gu@physx@@QEAAAEAV012@AEBV012@@Z 0000000180012720 f i GuGeometryUnion.obj
 0001:00011750       ??4MaterialIndicesStruct@physx@@QEAAAEAU01@AEBU01@@Z 0000000180012750 f i GuGeometryUnion.obj
 0001:00011760       ?allocate@MaterialIndicesStruct@physx@@QEAAXG@Z 0000000180012760 f i GuGeometryUnion.obj
 0001:000117e0       ?deallocate@MaterialIndicesStruct@physx@@QEAAXXZ 00000001800127e0 f i GuGeometryUnion.obj
 0001:00011830       ?getGeometry@GeometryUnion@Gu@physx@@QEBAAEBVPxGeometry@3@XZ 0000000180012830 f i GuGeometryUnion.obj
 0001:00011840       ?getType@GeometryUnion@Gu@physx@@QEBA?AW4Enum@PxGeometryType@3@XZ 0000000180012840 f i GuGeometryUnion.obj
 0001:00011850       ?computeBoxPoints@Gu@physx@@YAXAEBVPxBounds3@2@PEIAVPxVec3@2@@Z 0000000180012850 f   GuInternal.obj
 0001:000118f0       ?computeBoundsAroundVertices@Gu@physx@@YAXAEAVPxBounds3@2@IPEIBVPxVec3@2@@Z 00000001800128f0 f   GuInternal.obj
 0001:000119a0       ?getPlane@Gu@physx@@YA?AVPxPlane@2@AEBVPxTransform@2@@Z 00000001800129a0 f   GuInternal.obj
 0001:00011a50       ?computeSweptBox@Gu@physx@@YAXAEAVBox@12@AEBVPxVec3@2@1AEBVPxMat33@2@1M@Z 0000000180012a50 f   GuInternal.obj
 0001:00011f80       ??0GuMeshFactory@physx@@QEAA@XZ 0000000180012f80 f   GuMeshFactory.obj
 0001:00012120       ??1GuMeshFactory@physx@@MEAA@XZ 0000000180013120 f   GuMeshFactory.obj
 0001:00012220       ?release@GuMeshFactory@physx@@QEAAXXZ 0000000180013220 f   GuMeshFactory.obj
 0001:000122d0       ?addTriangleMesh@GuMeshFactory@physx@@QEAAXPEAVTriangleMesh@Gu@2@_N@Z 00000001800132d0 f   GuMeshFactory.obj
 0001:00012350       ?createTriangleMesh@GuMeshFactory@physx@@QEAAPEAVPxTriangleMesh@2@AEAVPxInputStream@2@@Z 0000000180013350 f   GuMeshFactory.obj
 0001:000123b0       ?createTriangleMesh@GuMeshFactory@physx@@QEAAPEAVPxTriangleMesh@2@PEAX@Z 00000001800133b0 f   GuMeshFactory.obj
 0001:000123c0       ?removeTriangleMesh@GuMeshFactory@physx@@QEAA_NAEAVPxTriangleMesh@2@@Z 00000001800133c0 f   GuMeshFactory.obj
 0001:00012410       ?getNbTriangleMeshes@GuMeshFactory@physx@@QEBAIXZ 0000000180013410 f   GuMeshFactory.obj
 0001:00012450       ?getTriangleMeshes@GuMeshFactory@physx@@QEBAIPEAPEAVPxTriangleMesh@2@II@Z 0000000180013450 f   GuMeshFactory.obj
 0001:000124e0       ?addConvexMesh@GuMeshFactory@physx@@QEAAXPEAVConvexMesh@Gu@2@_N@Z 00000001800134e0 f   GuMeshFactory.obj
 0001:00012560       ?createConvexMesh@GuMeshFactory@physx@@QEAAPEAVPxConvexMesh@2@AEAVPxInputStream@2@@Z 0000000180013560 f   GuMeshFactory.obj
 0001:00012680       ?createConvexMesh@GuMeshFactory@physx@@QEAAPEAVPxConvexMesh@2@PEAX@Z 0000000180013680 f   GuMeshFactory.obj
 0001:00012690       ?removeConvexMesh@GuMeshFactory@physx@@QEAA_NAEAVPxConvexMesh@2@@Z 0000000180013690 f   GuMeshFactory.obj
 0001:000126e0       ?getNbConvexMeshes@GuMeshFactory@physx@@QEBAIXZ 00000001800136e0 f   GuMeshFactory.obj
 0001:00012720       ?getConvexMeshes@GuMeshFactory@physx@@QEBAIPEAPEAVPxConvexMesh@2@II@Z 0000000180013720 f   GuMeshFactory.obj
 0001:000127b0       ?addHeightField@GuMeshFactory@physx@@QEAAXPEAVHeightField@Gu@2@_N@Z 00000001800137b0 f   GuMeshFactory.obj
 0001:00012830       ?createHeightField@GuMeshFactory@physx@@QEAAPEAVPxHeightField@2@PEAX@Z 0000000180013830 f   GuMeshFactory.obj
 0001:00012930       ?createHeightField@GuMeshFactory@physx@@QEAAPEAVPxHeightField@2@AEAVPxInputStream@2@@Z 0000000180013930 f   GuMeshFactory.obj
 0001:00012a50       ?removeHeightField@GuMeshFactory@physx@@QEAA_NAEAVPxHeightField@2@@Z 0000000180013a50 f   GuMeshFactory.obj
 0001:00012ab0       ?getNbHeightFields@GuMeshFactory@physx@@QEBAIXZ 0000000180013ab0 f   GuMeshFactory.obj
 0001:00012af0       ?getHeightFields@GuMeshFactory@physx@@QEBAIPEAPEAVPxHeightField@2@II@Z 0000000180013af0 f   GuMeshFactory.obj
 0001:00012b90       ?addBVHStructure@GuMeshFactory@physx@@QEAAXPEAVBVHStructure@Gu@2@_N@Z 0000000180013b90 f   GuMeshFactory.obj
 0001:00012c10       ?createBVHStructure@GuMeshFactory@physx@@QEAAPEAVPxBVHStructure@2@AEAVPxInputStream@2@@Z 0000000180013c10 f   GuMeshFactory.obj
 0001:00012d30       ?createBVHStructure@GuMeshFactory@physx@@QEAAPEAVPxBVHStructure@2@PEAX@Z 0000000180013d30 f   GuMeshFactory.obj
 0001:00012d40       ?removeBVHStructure@GuMeshFactory@physx@@QEAA_NAEAVPxBVHStructure@2@@Z 0000000180013d40 f   GuMeshFactory.obj
 0001:00012da0       ?getNbBVHStructures@GuMeshFactory@physx@@QEBAIXZ 0000000180013da0 f   GuMeshFactory.obj
 0001:00012de0       ?getBVHStructures@GuMeshFactory@physx@@QEBAIPEAPEAVPxBVHStructure@2@II@Z 0000000180013de0 f   GuMeshFactory.obj
 0001:00012e80       ?addFactoryListener@GuMeshFactory@physx@@QEAAXAEAVGuMeshFactoryListener@2@@Z 0000000180013e80 f   GuMeshFactory.obj
 0001:00012ef0       ?removeFactoryListener@GuMeshFactory@physx@@QEAAXAEAVGuMeshFactoryListener@2@@Z 0000000180013ef0 f   GuMeshFactory.obj
 0001:00012f80       ?notifyFactoryListener@GuMeshFactory@physx@@QEAAXPEBVPxBase@2@G@Z 0000000180013f80 f   GuMeshFactory.obj
 0001:00013000       ?createTriangleMesh@GuMeshFactory@physx@@IEAAPEAVPxTriangleMesh@2@AEAVTriangleMeshData@Gu@2@@Z 0000000180014000 f   GuMeshFactory.obj
 0001:00013190       ?createConvexMesh@GuMeshFactory@physx@@IEAAPEAVPxConvexMesh@2@AEAUConvexHullInitData@Gu@2@@Z 0000000180014190 f   GuMeshFactory.obj
 0001:00013290       ?createBVHStructure@GuMeshFactory@physx@@IEAAPEAVPxBVHStructure@2@AEAUBVHStructureData@Gu@2@@Z 0000000180014290 f   GuMeshFactory.obj
 0001:00013390       ??$?_UI@@YAPEAX_KV?$ReflectionAllocator@I@shdfnd@physx@@PEBDH@Z 0000000180014390 f i GuMeshFactory.obj
 0001:00013430       ??1BV4TriangleData@Gu@physx@@UEAA@XZ 0000000180014430 f i GuMeshFactory.obj
 0001:00013470       ??1MeshDataBase@Gu@physx@@UEAA@XZ 0000000180014470 f i GuMeshFactory.obj
 0001:00013560       ??1RTreeTriangleData@Gu@physx@@UEAA@XZ 0000000180014560 f i GuMeshFactory.obj
 0001:000135d0       ??1TriangleMeshData@Gu@physx@@UEAA@XZ 00000001800145d0 f i GuMeshFactory.obj
 0001:000136a0       ??_EGuMeshFactory@physx@@MEAAPEAXI@Z 00000001800146a0 f i GuMeshFactory.obj
 0001:000137b0       ??_GBV4TriangleData@Gu@physx@@UEAAPEAXI@Z 00000001800147b0 f i GuMeshFactory.obj
 0001:000137b0       ??_EBV4TriangleData@Gu@physx@@UEAAPEAXI@Z 00000001800147b0 f i GuMeshFactory.obj
 0001:00013840       ??_GGuMeshFactory@physx@@MEAAPEAXI@Z 0000000180014840 f i GuMeshFactory.obj
 0001:000138b0       ??_GMeshDataBase@Gu@physx@@UEAAPEAXI@Z 00000001800148b0 f i GuMeshFactory.obj
 0001:000138b0       ??_EMeshDataBase@Gu@physx@@UEAAPEAXI@Z 00000001800148b0 f i GuMeshFactory.obj
 0001:00013920       ??_ERTreeTriangleData@Gu@physx@@UEAAPEAXI@Z 0000000180014920 f i GuMeshFactory.obj
 0001:00013920       ??_GRTreeTriangleData@Gu@physx@@UEAAPEAXI@Z 0000000180014920 f i GuMeshFactory.obj
 0001:000139d0       ??_ETriangleMeshData@Gu@physx@@UEAAPEAXI@Z 00000001800149d0 f i GuMeshFactory.obj
 0001:000139d0       ??_GTriangleMeshData@Gu@physx@@UEAAPEAXI@Z 00000001800149d0 f i GuMeshFactory.obj
 0001:00013a40       ?__global_array_delete@@YAXPEAX@Z 0000000180014a40 f i GuMeshFactory.obj
 0001:00013a50       ?__global_array_delete@@YAXPEAX_K@Z 0000000180014a50 f i GuMeshFactory.obj
 0001:00013a60       ?__global_delete@@YAXPEAX@Z 0000000180014a60 f i GuMeshFactory.obj
 0001:00013a70       ?__global_delete@@YAXPEAX_K@Z 0000000180014a70 f i GuMeshFactory.obj
 0001:00013a80       ?create@?$HashBase@PEAVBVHStructure@Gu@physx@@PEAV123@U?$Hash@PEAVBVHStructure@Gu@physx@@@shdfnd@3@UGetKey@?$HashSetBase@PEAVBVHStructure@Gu@physx@@U?$Hash@PEAVBVHStructure@Gu@physx@@@shdfnd@3@VNonTrackingAllocator@53@$00@internal@53@VNonTrackingAllocator@53@$00@internal@shdfnd@physx@@QEAAPEAPEAVBVHStructure@Gu@4@AEBQEAV564@AEA_N@Z 0000000180014a80 f i GuMeshFactory.obj
 0001:00013c20       ?create@?$HashBase@PEAVConvexMesh@Gu@physx@@PEAV123@U?$Hash@PEAVConvexMesh@Gu@physx@@@shdfnd@3@UGetKey@?$HashSetBase@PEAVConvexMesh@Gu@physx@@U?$Hash@PEAVConvexMesh@Gu@physx@@@shdfnd@3@VNonTrackingAllocator@53@$00@internal@53@VNonTrackingAllocator@53@$00@internal@shdfnd@physx@@QEAAPEAPEAVConvexMesh@Gu@4@AEBQEAV564@AEA_N@Z 0000000180014c20 f i GuMeshFactory.obj
 0001:00013dc0       ?create@?$HashBase@PEAVHeightField@Gu@physx@@PEAV123@U?$Hash@PEAVHeightField@Gu@physx@@@shdfnd@3@UGetKey@?$HashSetBase@PEAVHeightField@Gu@physx@@U?$Hash@PEAVHeightField@Gu@physx@@@shdfnd@3@VNonTrackingAllocator@53@$00@internal@53@VNonTrackingAllocator@53@$00@internal@shdfnd@physx@@QEAAPEAPEAVHeightField@Gu@4@AEBQEAV564@AEA_N@Z 0000000180014dc0 f i GuMeshFactory.obj
 0001:00013f60       ?create@?$HashBase@PEAVTriangleMesh@Gu@physx@@PEAV123@U?$Hash@PEAVTriangleMesh@Gu@physx@@@shdfnd@3@UGetKey@?$HashSetBase@PEAVTriangleMesh@Gu@physx@@U?$Hash@PEAVTriangleMesh@Gu@physx@@@shdfnd@3@VNonTrackingAllocator@53@$00@internal@53@VNonTrackingAllocator@53@$00@internal@shdfnd@physx@@QEAAPEAPEAVTriangleMesh@Gu@4@AEBQEAV564@AEA_N@Z 0000000180014f60 f i GuMeshFactory.obj
 0001:00014100       ?erase@?$HashBase@PEAVBVHStructure@Gu@physx@@PEAV123@U?$Hash@PEAVBVHStructure@Gu@physx@@@shdfnd@3@UGetKey@?$HashSetBase@PEAVBVHStructure@Gu@physx@@U?$Hash@PEAVBVHStructure@Gu@physx@@@shdfnd@3@VNonTrackingAllocator@53@$00@internal@53@VNonTrackingAllocator@53@$00@internal@shdfnd@physx@@QEAA_NAEBQEAVBVHStructure@Gu@4@@Z 0000000180015100 f i GuMeshFactory.obj
 0001:00014270       ?erase@?$HashBase@PEAVConvexMesh@Gu@physx@@PEAV123@U?$Hash@PEAVConvexMesh@Gu@physx@@@shdfnd@3@UGetKey@?$HashSetBase@PEAVConvexMesh@Gu@physx@@U?$Hash@PEAVConvexMesh@Gu@physx@@@shdfnd@3@VNonTrackingAllocator@53@$00@internal@53@VNonTrackingAllocator@53@$00@internal@shdfnd@physx@@QEAA_NAEBQEAVConvexMesh@Gu@4@@Z 0000000180015270 f i GuMeshFactory.obj
 0001:000143e0       ?erase@?$HashBase@PEAVHeightField@Gu@physx@@PEAV123@U?$Hash@PEAVHeightField@Gu@physx@@@shdfnd@3@UGetKey@?$HashSetBase@PEAVHeightField@Gu@physx@@U?$Hash@PEAVHeightField@Gu@physx@@@shdfnd@3@VNonTrackingAllocator@53@$00@internal@53@VNonTrackingAllocator@53@$00@internal@shdfnd@physx@@QEAA_NAEBQEAVHeightField@Gu@4@@Z 00000001800153e0 f i GuMeshFactory.obj
 0001:00014550       ?erase@?$HashBase@PEAVTriangleMesh@Gu@physx@@PEAV123@U?$Hash@PEAVTriangleMesh@Gu@physx@@@shdfnd@3@UGetKey@?$HashSetBase@PEAVTriangleMesh@Gu@physx@@U?$Hash@PEAVTriangleMesh@Gu@physx@@@shdfnd@3@VNonTrackingAllocator@53@$00@internal@53@VNonTrackingAllocator@53@$00@internal@shdfnd@physx@@QEAA_NAEBQEAVTriangleMesh@Gu@4@@Z 0000000180015550 f i GuMeshFactory.obj
 0001:000146c0       ?growAndPushBack@?$Array@PEAVGuMeshFactoryListener@physx@@V?$ReflectionAllocator@PEAVGuMeshFactoryListener@physx@@@shdfnd@2@@shdfnd@physx@@IEAAAEAPEAVGuMeshFactoryListener@3@AEBQEAV43@@Z 00000001800156c0 f i GuMeshFactory.obj
 0001:00015670       ?reserveInternal@?$HashBase@PEAVBVHStructure@Gu@physx@@PEAV123@U?$Hash@PEAVBVHStructure@Gu@physx@@@shdfnd@3@UGetKey@?$HashSetBase@PEAVBVHStructure@Gu@physx@@U?$Hash@PEAVBVHStructure@Gu@physx@@@shdfnd@3@VNonTrackingAllocator@53@$00@internal@53@VNonTrackingAllocator@53@$00@internal@shdfnd@physx@@AEAAXI@Z 0000000180016670 f i GuMeshFactory.obj
 0001:00015840       ?reserveInternal@?$HashBase@PEAVConvexMesh@Gu@physx@@PEAV123@U?$Hash@PEAVConvexMesh@Gu@physx@@@shdfnd@3@UGetKey@?$HashSetBase@PEAVConvexMesh@Gu@physx@@U?$Hash@PEAVConvexMesh@Gu@physx@@@shdfnd@3@VNonTrackingAllocator@53@$00@internal@53@VNonTrackingAllocator@53@$00@internal@shdfnd@physx@@AEAAXI@Z 0000000180016840 f i GuMeshFactory.obj
 0001:00015a10       ?reserveInternal@?$HashBase@PEAVHeightField@Gu@physx@@PEAV123@U?$Hash@PEAVHeightField@Gu@physx@@@shdfnd@3@UGetKey@?$HashSetBase@PEAVHeightField@Gu@physx@@U?$Hash@PEAVHeightField@Gu@physx@@@shdfnd@3@VNonTrackingAllocator@53@$00@internal@53@VNonTrackingAllocator@53@$00@internal@shdfnd@physx@@AEAAXI@Z 0000000180016a10 f i GuMeshFactory.obj
 0001:00015be0       ?reserveInternal@?$HashBase@PEAVTriangleMesh@Gu@physx@@PEAV123@U?$Hash@PEAVTriangleMesh@Gu@physx@@@shdfnd@3@UGetKey@?$HashSetBase@PEAVTriangleMesh@Gu@physx@@U?$Hash@PEAVTriangleMesh@Gu@physx@@@shdfnd@3@VNonTrackingAllocator@53@$00@internal@53@VNonTrackingAllocator@53@$00@internal@shdfnd@physx@@AEAAXI@Z 0000000180016be0 f i GuMeshFactory.obj
 0001:00015db0       ?getBinaryMetaData@HeightField@Gu@physx@@SAXAEAVPxOutputStream@3@@Z 0000000180016db0 f   GuMetaData.obj
 0001:000161e0       ?getBinaryMetaData@BigConvexData@physx@@SAXAEAVPxOutputStream@2@@Z 00000001800171e0 f   GuMetaData.obj
 0001:000164b0       ?getBinaryMetaData@ConvexMesh@Gu@physx@@SAXAEAVPxOutputStream@3@@Z 00000001800174b0 f   GuMetaData.obj
 0001:00016b40       ?getBinaryMetaData@RTree@Gu@physx@@SAXAEAVPxOutputStream@3@@Z 0000000180017b40 f   GuMetaData.obj
 0001:00016e80       ?getBinaryMetaData@SourceMesh@Gu@physx@@SAXAEAVPxOutputStream@3@@Z 0000000180017e80 f   GuMetaData.obj
 0001:00017070       ?getBinaryMetaData@BV4Tree@Gu@physx@@SAXAEAVPxOutputStream@3@@Z 0000000180018070 f   GuMetaData.obj
 0001:00017400       ?getBinaryMetaData@TriangleMesh@Gu@physx@@SAXAEAVPxOutputStream@3@@Z 0000000180018400 f   GuMetaData.obj
 0001:00017c20       ?getBinaryMetaData@BV4TriangleMesh@Gu@physx@@SAXAEAVPxOutputStream@3@@Z 0000000180018c20 f   GuMetaData.obj
 0001:00017f00       ?getBinaryMetaData@RTreeTriangleMesh@Gu@physx@@SAXAEAVPxOutputStream@3@@Z 0000000180018f00 f   GuMetaData.obj
 0001:00017ff0       ?getBinaryMetaData@MaterialIndicesStruct@physx@@SAXAEAVPxOutputStream@2@@Z 0000000180018ff0 f   GuMetaData.obj
 0001:000181a0       ?getBinaryMetaData@GeometryUnion@Gu@physx@@SAXAEAVPxOutputStream@3@@Z 00000001800191a0 f   GuMetaData.obj
 0001:000187f0       ??0BigConvexData@physx@@QEAA@W4PxEMPTY@1@@Z 00000001800197f0 f i GuMetaData.obj
 0001:00018800       ??4BigConvexData@physx@@QEAAAEAV01@AEBV01@@Z 0000000180019800 f i GuMetaData.obj
 0001:00018820       ?GetAdjacentVerts@BigConvexData@physx@@QEBAPEBEXZ 0000000180019820 f i GuMetaData.obj
 0001:00018830       ?GetNbNeighbors@BigConvexData@physx@@QEBAGI@Z 0000000180019830 f i GuMetaData.obj
 0001:00018840       ?GetNbSamples@BigConvexData@physx@@QEBAIXZ 0000000180019840 f i GuMetaData.obj
 0001:00018850       ?GetNbVerts@BigConvexData@physx@@QEBAIXZ 0000000180019850 f i GuMetaData.obj
 0001:00018860       ?GetNeighbors@BigConvexData@physx@@QEBAPEBEI@Z 0000000180019860 f i GuMetaData.obj
 0001:00018870       ?GetOffset@BigConvexData@physx@@QEBAGI@Z 0000000180019870 f i GuMetaData.obj
 0001:00018880       ?GetSubdiv@BigConvexData@physx@@QEBAIXZ 0000000180019880 f i GuMetaData.obj
 0001:00018890       ?GetValencies@BigConvexData@physx@@QEBAPEBUValency@Gu@2@XZ 0000000180019890 f i GuMetaData.obj
 0001:000188a0       ?GetValency@BigConvexData@physx@@QEBAGI@Z 00000001800198a0 f i GuMetaData.obj
 0001:00019cc0       ?doSupport@?$SupportLocalImpl@VConvexHullV@Gu@physx@@@Gu@physx@@UEBA?AT__m128@@AEBT4@@Z 000000018001acc0 f i GuMTD.obj
 0001:00019da0       ?doSupport@?$SupportLocalImpl@VConvexHullV@Gu@physx@@@Gu@physx@@UEBAXAEBT__m128@@AEAT4@1@Z 000000018001ada0 f i GuMTD.obj
 0001:0001a100       ?populateVerts@?$SupportLocalImpl@VConvexHullV@Gu@physx@@@Gu@physx@@UEBAXPEBEIPEBVPxVec3@3@PEAT__m128@@@Z 000000018001b100 f i GuMTD.obj
 0001:0001a160       ??_G?$SupportLocalImpl@VConvexHullV@Gu@physx@@@Gu@physx@@UEAAPEAXI@Z 000000018001b160 f i GuMTD.obj
 0001:0001a160       ??_E?$SupportLocalImpl@VConvexHullV@Gu@physx@@@Gu@physx@@UEAAPEAXI@Z 000000018001b160 f i GuMTD.obj
 0001:0001a190       ?doSupport@?$SupportLocalImpl@VConvexHullNoScaleV@Gu@physx@@@Gu@physx@@UEBA?AT__m128@@AEBT4@@Z 000000018001b190 f i GuMTD.obj
 0001:0001a1e0       ?doSupport@?$SupportLocalImpl@VConvexHullNoScaleV@Gu@physx@@@Gu@physx@@UEBAXAEBT__m128@@AEAT4@1@Z 000000018001b1e0 f i GuMTD.obj
 0001:0001a360       ?populateVerts@?$SupportLocalImpl@VConvexHullNoScaleV@Gu@physx@@@Gu@physx@@UEBAXPEBEIPEBVPxVec3@3@PEAT__m128@@@Z 000000018001b360 f i GuMTD.obj
 0001:0001a3a0       ??_E?$SupportLocalImpl@VConvexHullNoScaleV@Gu@physx@@@Gu@physx@@UEAAPEAXI@Z 000000018001b3a0 f i GuMTD.obj
 0001:0001a3a0       ??_G?$SupportLocalImpl@VConvexHullNoScaleV@Gu@physx@@@Gu@physx@@UEAAPEAXI@Z 000000018001b3a0 f i GuMTD.obj
 0001:0001a3d0       ?doSupport@?$SupportLocalImpl@VBoxV@Gu@physx@@@Gu@physx@@UEBA?AT__m128@@AEBT4@@Z 000000018001b3d0 f i GuMTD.obj
 0001:0001a400       ?doSupport@?$SupportLocalImpl@VBoxV@Gu@physx@@@Gu@physx@@UEBAXAEBT__m128@@AEAT4@1@Z 000000018001b400 f i GuMTD.obj
 0001:0001a450       ?populateVerts@?$SupportLocalImpl@VBoxV@Gu@physx@@@Gu@physx@@UEBAXPEBEIPEBVPxVec3@3@PEAT__m128@@@Z 000000018001b450 f i GuMTD.obj
 0001:0001a490       ??_E?$SupportLocalImpl@VBoxV@Gu@physx@@@Gu@physx@@UEAAPEAXI@Z 000000018001b490 f i GuMTD.obj
 0001:0001a490       ??_G?$SupportLocalImpl@VBoxV@Gu@physx@@@Gu@physx@@UEAAPEAXI@Z 000000018001b490 f i GuMTD.obj
 0001:0001a4c0       ??_GSupportLocal@Gu@physx@@UEAAPEAXI@Z 000000018001b4c0 f i GuMTD.obj
 0001:0001a4c0       ??_ESupportLocal@Gu@physx@@UEAAPEAXI@Z 000000018001b4c0 f i GuMTD.obj
 0001:0001a4f0       ?pointConvexDistance@@YA_NAEAVPxVec3@physx@@0AEAMAEBV12@PEBVConvexMesh@Gu@2@AEBVPxMeshScale@2@AEBVPxTransform@2@@Z 000000018001b4f0 f   GuMTD.obj
 0001:0001ccd0       ??$gjk@U?$LocalConvex@VCapsuleV@Gu@physx@@@Gu@physx@@U?$LocalConvex@VConvexHullV@Gu@physx@@@23@@Gu@physx@@YA?AW4GjkStatus@01@AEBU?$LocalConvex@VCapsuleV@Gu@physx@@@01@AEBU?$LocalConvex@VConvexHullV@Gu@physx@@@01@AEBT__m128@@2AEAT5@333@Z 000000018001dcd0 f i GuMTD.obj
 0001:0001d930       ??0ContactPoint@Gu@physx@@QEAA@XZ 000000018001e930 f i GuMTD.obj
 0001:0001d940       ??0HullPolygonData@Gu@physx@@QEAA@AEBU012@@Z 000000018001e940 f i GuMTD.obj
 0001:0001d970       ??0MeshPersistentContact@Gu@physx@@QEAA@XZ 000000018001e970 f i GuMTD.obj
 0001:0001d980       ??0MultiplePersistentContactManifold@Gu@physx@@QEAA@XZ 000000018001e980 f i GuMTD.obj
 0001:0001d9d0       ??0PersistentContact@Gu@physx@@QEAA@XZ 000000018001e9d0 f i GuMTD.obj
 0001:0001d9e0       ??0PolygonalBox@Gu@physx@@QEAA@AEBV012@@Z 000000018001e9e0 f i GuMTD.obj
 0001:0001dc60       ??0PxVec3@physx@@QEAA@AEBV01@@Z 000000018001ec60 f i GuMTD.obj
 0001:0001dc80       ??0SeparatingAxes@Gu@physx@@QEAA@$$QEAV012@@Z 000000018001ec80 f i GuMTD.obj
 0001:0001dd90       ??0SeparatingAxes@Gu@physx@@QEAA@AEBV012@@Z 000000018001ed90 f i GuMTD.obj
 0001:0001dea0       ??0SeparatingAxes@Gu@physx@@QEAA@XZ 000000018001eea0 f i GuMTD.obj
 0001:0001deb0       ??0SinglePersistentContactManifold@Gu@physx@@QEAA@XZ 000000018001eeb0 f i GuMTD.obj
 0001:0001dec0       ??1GjkConvexBase@Gu@physx@@UEAA@XZ 000000018001eec0 f i GuMTD.obj
 0001:0001ded0       ??1SupportLocal@Gu@physx@@UEAA@XZ 000000018001eed0 f i GuMTD.obj
 0001:0001dee0       ??4MultiplePersistentContactManifold@Gu@physx@@QEAAAEAV012@$$QEAV012@@Z 000000018001eee0 f i GuMTD.obj
 0001:0001e1f0       ??4MultiplePersistentContactManifold@Gu@physx@@QEAAAEAV012@AEBV012@@Z 000000018001f1f0 f i GuMTD.obj
 0001:0001e210       ??4SeparatingAxes@Gu@physx@@QEAAAEAV012@$$QEAV012@@Z 000000018001f210 f i GuMTD.obj
 0001:0001e320       ??4SeparatingAxes@Gu@physx@@QEAAAEAV012@AEBV012@@Z 000000018001f320 f i GuMTD.obj
 0001:0001e430       ??_G?$LocalConvex@VCapsuleV@Gu@physx@@@Gu@physx@@UEAAPEAXI@Z 000000018001f430 f i GuMTD.obj
 0001:0001e430       ??_E?$LocalConvex@VCapsuleV@Gu@physx@@@Gu@physx@@UEAAPEAXI@Z 000000018001f430 f i GuMTD.obj
 0001:0001e460       ??_G?$LocalConvex@VConvexHullV@Gu@physx@@@Gu@physx@@UEAAPEAXI@Z 000000018001f460 f i GuMTD.obj
 0001:0001e460       ??_E?$LocalConvex@VConvexHullV@Gu@physx@@@Gu@physx@@UEAAPEAXI@Z 000000018001f460 f i GuMTD.obj
 0001:0001e490       ??_GGjkConvex@Gu@physx@@UEAAPEAXI@Z 000000018001f490 f i GuMTD.obj
 0001:0001e490       ??_EGjkConvex@Gu@physx@@UEAAPEAXI@Z 000000018001f490 f i GuMTD.obj
 0001:0001e4c0       ??_GGjkConvexBase@Gu@physx@@UEAAPEAXI@Z 000000018001f4c0 f i GuMTD.obj
 0001:0001e4c0       ??_EGjkConvexBase@Gu@physx@@UEAAPEAXI@Z 000000018001f4c0 f i GuMTD.obj
 0001:0001e4f0       ??__G@YAXPEAX0_K1P6APEAX00@Z@Z 000000018001f4f0 f i GuMTD.obj
 0001:0001ecb0       ?clearManifold@MultiplePersistentContactManifold@Gu@physx@@QEAAXXZ 000000018001fcb0 f i GuMTD.obj
 0001:00022870       ?getAxes@SeparatingAxes@Gu@physx@@QEBAPEBVPxVec3@3@XZ 0000000180023870 f i GuMTD.obj
 0001:00022880       ?getCenter@?$LocalConvex@VCapsuleV@Gu@physx@@@Gu@physx@@UEBA?AT__m128@@XZ 0000000180023880 f i GuMTD.obj
 0001:00022890       ?getCenter@?$LocalConvex@VConvexHullV@Gu@physx@@@Gu@physx@@UEBA?AT__m128@@XZ 0000000180023890 f i GuMTD.obj
 0001:000228a0       ?getEmptyManifold@MultiplePersistentContactManifold@Gu@physx@@QEAAPEAVSinglePersistentContactManifold@23@XZ 00000001800238a0 f i GuMTD.obj
 0001:000228c0       ?getManifold@MultiplePersistentContactManifold@Gu@physx@@QEAAPEAVSinglePersistentContactManifold@23@I@Z 00000001800238c0 f i GuMTD.obj
 0001:000228e0       ?getNumAxes@SeparatingAxes@Gu@physx@@QEBAIXZ 00000001800238e0 f i GuMTD.obj
 0001:000228f0       ?getSweepMargin@?$LocalConvex@VCapsuleV@Gu@physx@@@Gu@physx@@UEBA?AT__m128@@XZ 00000001800238f0 f i GuMTD.obj
 0001:00022900       ?getSweepMargin@?$LocalConvex@VConvexHullV@Gu@physx@@@Gu@physx@@UEBA?AT__m128@@XZ 0000000180023900 f i GuMTD.obj
 0001:00022920       ?getSweepMargin@GjkConvex@Gu@physx@@UEBA?AT__m128@@XZ 0000000180023920 f i GuMTD.obj
 0001:00022940       ?hillClimbing@ConvexHullV@Gu@physx@@QEBAIAEBT__m128@@@Z 0000000180023940 f i GuMTD.obj
 0001:00022b70       ?initialize@MultiplePersistentContactManifold@Gu@physx@@QEAAXXZ 0000000180023b70 f i GuMTD.obj
 0001:00022bd0       ?invalidate@MultiplePersistentContactManifold@Gu@physx@@QEAAIAEBVPsTransformV@aos@shdfnd@3@AEBT__m128@@1@Z 0000000180023bd0 f i GuMTD.obj
 0001:00022c50       ?invalidate@MultiplePersistentContactManifold@Gu@physx@@QEAAIAEBVPsTransformV@aos@shdfnd@3@AEBT__m128@@@Z 0000000180023c50 f i GuMTD.obj
 0001:00022cd0       ?maxTransformPositionDelta@MultiplePersistentContactManifold@Gu@physx@@QEAA?AT__m128@@AEBT4@@Z 0000000180023cd0 f i GuMTD.obj
 0001:00022d10       ?maxTransformQuatDelta@MultiplePersistentContactManifold@Gu@physx@@QEAA?AT__m128@@AEBT4@@Z 0000000180023d10 f i GuMTD.obj
 0001:000230f0       ?reduceManifoldContactsInDifferentPatches@MultiplePersistentContactManifold@Gu@physx@@QEAAIPEAPEAUPCMContactPatch@23@IPEAVMeshPersistentContact@23@IAEBT__m128@@@Z 00000001800240f0 f i GuMTD.obj
 0001:00023250       ?refineContactPatchConnective@MultiplePersistentContactManifold@Gu@physx@@QEAAXPEAPEAUPCMContactPatch@23@IPEAVMeshPersistentContact@23@AEBT__m128@@@Z 0000000180024250 f i GuMTD.obj
 0001:00023340       ?refreshManifold@MultiplePersistentContactManifold@Gu@physx@@QEAAXAEBVPsMatTransformV@aos@shdfnd@3@AEBT__m128@@1@Z 0000000180024340 f i GuMTD.obj
 0001:00023440       ?reset@SeparatingAxes@Gu@physx@@QEAAXXZ 0000000180024440 f i GuMTD.obj
 0001:00023450       ?setRelativeTransform@MultiplePersistentContactManifold@Gu@physx@@QEAAXAEBVPsTransformV@aos@shdfnd@3@@Z 0000000180024450 f i GuMTD.obj
 0001:00023460       ?support@?$LocalConvex@VCapsuleV@Gu@physx@@@Gu@physx@@UEBA?AT__m128@@AEBT4@@Z 0000000180024460 f i GuMTD.obj
 0001:000234c0       ?support@?$LocalConvex@VCapsuleV@Gu@physx@@@Gu@physx@@UEBA?AT__m128@@AEBT4@AEAH@Z 00000001800244c0 f i GuMTD.obj
 0001:00023530       ?support@?$LocalConvex@VConvexHullV@Gu@physx@@@Gu@physx@@UEBA?AT__m128@@AEBT4@@Z 0000000180024530 f i GuMTD.obj
 0001:00023610       ?support@?$LocalConvex@VConvexHullV@Gu@physx@@@Gu@physx@@UEBA?AT__m128@@AEBT4@AEAH@Z 0000000180024610 f i GuMTD.obj
 0001:000236e0       ?support@GjkConvex@Gu@physx@@UEBA?AT__m128@@AEBT4@@Z 00000001800246e0 f i GuMTD.obj
 0001:00023700       ?support@GjkConvex@Gu@physx@@UEBA?AT__m128@@AEBT4@AEAH@Z 0000000180024700 f i GuMTD.obj
 0001:00023720       ?supportPoint@?$LocalConvex@VCapsuleV@Gu@physx@@@Gu@physx@@UEBA?AT__m128@@H@Z 0000000180024720 f i GuMTD.obj
 0001:00023750       ?supportPoint@?$LocalConvex@VConvexHullV@Gu@physx@@@Gu@physx@@UEBA?AT__m128@@H@Z 0000000180024750 f i GuMTD.obj
 0001:000237a0       ?supportPoint@GjkConvex@Gu@physx@@UEBA?AT__m128@@H@Z 00000001800247a0 f i GuMTD.obj
 0001:000237c0       ?supportVertexIndex@ConvexHullV@Gu@physx@@QEBAIAEBT__m128@@@Z 00000001800247c0 f i GuMTD.obj
 0001:00023a40       ?toBuffer@MultiplePersistentContactManifold@Gu@physx@@QEAAXPEIAE@Z 0000000180024a40 f i GuMTD.obj
 0001:00023b20       ?supportPoint@?$RelativeConvex@VBoxV@Gu@physx@@@Gu@physx@@UEBA?AT__m128@@H@Z 0000000180024b20 f i GuOverlapTests.obj
 0001:00023b90       ?support@?$RelativeConvex@VBoxV@Gu@physx@@@Gu@physx@@UEBA?AT__m128@@AEBT4@@Z 0000000180024b90 f i GuOverlapTests.obj
 0001:00023c10       ?support@?$RelativeConvex@VBoxV@Gu@physx@@@Gu@physx@@UEBA?AT__m128@@AEBT4@AEAH@Z 0000000180024c10 f i GuOverlapTests.obj
 0001:00023ca0       ?getCenter@?$RelativeConvex@VBoxV@Gu@physx@@@Gu@physx@@UEBA?AT__m128@@XZ 0000000180024ca0 f i GuOverlapTests.obj
 0001:00023ce0       ?getSweepMargin@?$RelativeConvex@VBoxV@Gu@physx@@@Gu@physx@@UEBA?AT__m128@@XZ 0000000180024ce0 f i GuOverlapTests.obj
 0001:00023d00       ??_E?$RelativeConvex@VBoxV@Gu@physx@@@Gu@physx@@UEAAPEAXI@Z 0000000180024d00 f i GuOverlapTests.obj
 0001:00023d00       ??_G?$RelativeConvex@VBoxV@Gu@physx@@@Gu@physx@@UEAAPEAXI@Z 0000000180024d00 f i GuOverlapTests.obj
 0001:00023d30       ?getOverlapFuncTable@Gu@physx@@YAPEAY06Q6A_NAEBVPxGeometry@2@AEBVPxTransform@2@01PEAUTriggerCache@12@@ZXZ 0000000180024d30 f   GuOverlapTests.obj
 0001:00023d40       ?registerHeightFields@Gu@physx@@YAXXZ 0000000180024d40 f   GuOverlapTests.obj
 0001:00025fc0       ?supportPoint@?$RelativeConvex@VConvexHullV@Gu@physx@@@Gu@physx@@UEBA?AT__m128@@H@Z 0000000180026fc0 f i GuOverlapTests.obj
 0001:00026040       ?support@?$RelativeConvex@VConvexHullV@Gu@physx@@@Gu@physx@@UEBA?AT__m128@@AEBT4@@Z 0000000180027040 f i GuOverlapTests.obj
 0001:00026170       ?support@?$RelativeConvex@VConvexHullV@Gu@physx@@@Gu@physx@@UEBA?AT__m128@@AEBT4@AEAH@Z 0000000180027170 f i GuOverlapTests.obj
 0001:000262a0       ?getCenter@?$RelativeConvex@VConvexHullV@Gu@physx@@@Gu@physx@@UEBA?AT__m128@@XZ 00000001800272a0 f i GuOverlapTests.obj
 0001:000262e0       ?getSweepMargin@?$RelativeConvex@VConvexHullV@Gu@physx@@@Gu@physx@@UEBA?AT__m128@@XZ 00000001800272e0 f i GuOverlapTests.obj
 0001:00026300       ??_E?$RelativeConvex@VConvexHullV@Gu@physx@@@Gu@physx@@UEAAPEAXI@Z 0000000180027300 f i GuOverlapTests.obj
 0001:00026300       ??_G?$RelativeConvex@VConvexHullV@Gu@physx@@@Gu@physx@@UEAAPEAXI@Z 0000000180027300 f i GuOverlapTests.obj
 0001:00026330       ??$gjk@U?$RelativeConvex@VBoxV@Gu@physx@@@Gu@physx@@U?$LocalConvex@VConvexHullV@Gu@physx@@@23@@Gu@physx@@YA?AW4GjkStatus@01@AEBU?$RelativeConvex@VBoxV@Gu@physx@@@01@AEBU?$LocalConvex@VConvexHullV@Gu@physx@@@01@AEBT__m128@@2AEAT5@333@Z 0000000180027330 f i GuOverlapTests.obj
 0001:00026fc0       ??$gjk@U?$RelativeConvex@VConvexHullV@Gu@physx@@@Gu@physx@@U?$LocalConvex@VConvexHullV@Gu@physx@@@23@@Gu@physx@@YA?AW4GjkStatus@01@AEBU?$RelativeConvex@VConvexHullV@Gu@physx@@@01@AEBU?$LocalConvex@VConvexHullV@Gu@physx@@@01@AEBT__m128@@2AEAT5@333@Z 0000000180027fc0 f i GuOverlapTests.obj
 0001:00027cc0       ?ComputeCubemapNearestOffset@physx@@YAIAEBVPxVec3@1@I@Z 0000000180028cc0 f i GuOverlapTests.obj
 0001:00029830       ?getRaycastFuncTable@Gu@physx@@YAAEAY06Q6AIAEBVPxGeometry@2@AEBVPxTransform@2@AEBVPxVec3@2@2MV?$PxFlags@W4Enum@PxHitFlag@physx@@G@2@IPEIAUPxRaycastHit@2@@ZXZ 000000018002a830 f   GuRaycastTests.obj
 0001:00029840       ?raycast_box@@YAIAEBVPxGeometry@physx@@AEBVPxTransform@2@AEBVPxVec3@2@2MV?$PxFlags@W4Enum@PxHitFlag@physx@@G@2@IPEIAUPxRaycastHit@2@@Z 000000018002a840 f   GuRaycastTests.obj
 0001:00029e70       ?raycast_sphere@@YAIAEBVPxGeometry@physx@@AEBVPxTransform@2@AEBVPxVec3@2@2MV?$PxFlags@W4Enum@PxHitFlag@physx@@G@2@IPEIAUPxRaycastHit@2@@Z 000000018002ae70 f   GuRaycastTests.obj
 0001:0002a000       ?raycast_capsule@@YAIAEBVPxGeometry@physx@@AEBVPxTransform@2@AEBVPxVec3@2@2MV?$PxFlags@W4Enum@PxHitFlag@physx@@G@2@IPEIAUPxRaycastHit@2@@Z 000000018002b000 f   GuRaycastTests.obj
 0001:0002a570       ?raycast_plane@@YAIAEBVPxGeometry@physx@@AEBVPxTransform@2@AEBVPxVec3@2@2MV?$PxFlags@W4Enum@PxHitFlag@physx@@G@2@IPEIAUPxRaycastHit@2@@Z 000000018002b570 f   GuRaycastTests.obj
 0001:0002a6f0       ?raycast_convexMesh@@YAIAEBVPxGeometry@physx@@AEBVPxTransform@2@AEBVPxVec3@2@2MV?$PxFlags@W4Enum@PxHitFlag@physx@@G@2@IPEIAUPxRaycastHit@2@@Z 000000018002b6f0 f   GuRaycastTests.obj
 0001:0002b220       ?raycast_triangleMesh@@YAIAEBVPxGeometry@physx@@AEBVPxTransform@2@AEBVPxVec3@2@2MV?$PxFlags@W4Enum@PxHitFlag@physx@@G@2@IPEIAUPxRaycastHit@2@@Z 000000018002c220 f   GuRaycastTests.obj
 0001:0002b2b0       ?raycast_heightField@@YAIAEBVPxGeometry@physx@@AEBVPxTransform@2@AEBVPxVec3@2@2MV?$PxFlags@W4Enum@PxHitFlag@physx@@G@2@IPEIAUPxRaycastHit@2@@Z 000000018002c2b0 f   GuRaycastTests.obj
 0001:0002ba30       ?registerHeightFields_Raycasts@@YAXXZ 000000018002ca30 f   GuRaycastTests.obj
 0001:0002cca0       ??Dphysx@@YA?AVMatrix34@Cm@0@AEBVPxMeshScale@0@AEBVPxTransform@0@@Z 000000018002dca0 f i GuRaycastTests.obj
 0001:0002d8e0       ?readChunk@physx@@YAXAEAC000AEAVPxInputStream@1@@Z 000000018002e8e0 f   GuSerialize.obj
 0001:0002d970       ?readWord@physx@@YAG_NAEAVPxInputStream@1@@Z 000000018002e970 f   GuSerialize.obj
 0001:0002d9c0       ?readDword@physx@@YAI_NAEAVPxInputStream@1@@Z 000000018002e9c0 f   GuSerialize.obj
 0001:0002da20       ?readFloat@physx@@YAM_NAEAVPxInputStream@1@@Z 000000018002ea20 f   GuSerialize.obj
 0001:0002da80       ?writeWord@physx@@YAXG_NAEAVPxOutputStream@1@@Z 000000018002ea80 f   GuSerialize.obj
 0001:0002dac0       ?writeDword@physx@@YAXI_NAEAVPxOutputStream@1@@Z 000000018002eac0 f   GuSerialize.obj
 0001:0002db10       ?writeFloat@physx@@YAXM_NAEAVPxOutputStream@1@@Z 000000018002eb10 f   GuSerialize.obj
 0001:0002db70       ?readFloatBuffer@physx@@YA_NPEAMI_NAEAVPxInputStream@1@@Z 000000018002eb70 f   GuSerialize.obj
 0001:0002dbf0       ?writeFloatBuffer@physx@@YAXPEBMI_NAEAVPxOutputStream@1@@Z 000000018002ebf0 f   GuSerialize.obj
 0001:0002dca0       ?writeWordBuffer@physx@@YAXPEBGI_NAEAVPxOutputStream@1@@Z 000000018002eca0 f   GuSerialize.obj
 0001:0002dd30       ?readWordBuffer@physx@@YAXPEAGI_NAEAVPxInputStream@1@@Z 000000018002ed30 f   GuSerialize.obj
 0001:0002dda0       ?writeHeader@physx@@YA_NCCCCI_NAEAVPxOutputStream@1@@Z 000000018002eda0 f   GuSerialize.obj
 0001:0002ded0       ?readHeader@physx@@YA_NCCCCAEAIAEA_NAEAVPxInputStream@1@@Z 000000018002eed0 f   GuSerialize.obj
 0001:0002e030       ?computeMaxIndex@physx@@YAIPEBII@Z 000000018002f030 f   GuSerialize.obj
 0001:0002e060       ?computeMaxIndex@physx@@YAGPEBGI@Z 000000018002f060 f   GuSerialize.obj
 0001:0002e0a0       ?storeIndices@physx@@YAXIIPEBIAEAVPxOutputStream@1@_N@Z 000000018002f0a0 f   GuSerialize.obj
 0001:0002e190       ?readIndices@physx@@YAXIIPEAIAEAVPxInputStream@1@_N@Z 000000018002f190 f   GuSerialize.obj
 0001:0002e290       ?WriteHeader@Gu@physx@@YA_NEEEEI_NAEAVPxOutputStream@2@@Z 000000018002f290 f   GuSerialize.obj
 0001:0002e3c0       ?ReadHeader@Gu@physx@@YA_NEEEEAEAIAEA_NAEAVPxInputStream@2@@Z 000000018002f3c0 f   GuSerialize.obj
 0001:0002e530       ?StoreIndices@Gu@physx@@YAXIIPEBIAEAVPxOutputStream@2@_N@Z 000000018002f530 f   GuSerialize.obj
 0001:0002e660       ?ReadIndices@Gu@physx@@YAXIIPEAIAEAVPxInputStream@2@_N@Z 000000018002f660 f   GuSerialize.obj
 0001:0002e8d0       ?StoreIndices@Gu@physx@@YAXGIPEBGAEAVPxOutputStream@2@_N@Z 000000018002f8d0 f   GuSerialize.obj
 0001:0002e9a0       ?ReadIndices@Gu@physx@@YAXGIPEAGAEAVPxInputStream@2@_N@Z 000000018002f9a0 f   GuSerialize.obj
 0001:0002eaf0       ?computeCapsule_TriangleMeshMTD@Gu@physx@@YA_NAEBVPxTriangleMeshGeometry@2@AEBVPxTransform@2@AEAVCapsuleV@12@M_NAEAUPxSweepHit@2@@Z 000000018002faf0 f   GuSweepMTD.obj
 0001:0002f3a0       ?computeCapsule_HeightFieldMTD@Gu@physx@@YA_NAEBVPxHeightFieldGeometry@2@AEBVPxTransform@2@AEAVCapsuleV@12@M_NIAEAUPxSweepHit@2@@Z 00000001800303a0 f   GuSweepMTD.obj
 0001:0002fbc0       ?computeBox_TriangleMeshMTD@Gu@physx@@YA_NAEBVPxTriangleMeshGeometry@2@AEBVPxTransform@2@AEBVBox@12@1M_NAEAUPxSweepHit@2@@Z 0000000180030bc0 f   GuSweepMTD.obj
 0001:00030840       ?computeBox_HeightFieldMTD@Gu@physx@@YA_NAEBVPxHeightFieldGeometry@2@AEBVPxTransform@2@AEBVBox@12@1M_NIAEAUPxSweepHit@2@@Z 0000000180031840 f   GuSweepMTD.obj
 0001:00031690       ?computeConvex_TriangleMeshMTD@Gu@physx@@YA_NAEBVPxTriangleMeshGeometry@2@AEBVPxTransform@2@AEBVPxConvexMeshGeometry@2@1M_NAEAUPxSweepHit@2@@Z 0000000180032690 f   GuSweepMTD.obj
 0001:000328d0       ?computeConvex_HeightFieldMTD@Gu@physx@@YA_NAEBVPxHeightFieldGeometry@2@AEBVPxTransform@2@AEBVPxConvexMeshGeometry@2@1M_NIAEAUPxSweepHit@2@@Z 00000001800338d0 f   GuSweepMTD.obj
 0001:00033c40       ?computeSphere_SphereMTD@Gu@physx@@YA_NAEBVSphere@12@0AEAUPxSweepHit@2@@Z 0000000180034c40 f   GuSweepMTD.obj
 0001:00033d30       ?computeSphere_CapsuleMTD@Gu@physx@@YA_NAEBVSphere@12@AEBVCapsule@12@AEAUPxSweepHit@2@@Z 0000000180034d30 f   GuSweepMTD.obj
 0001:00033ee0       ?computeCapsule_CapsuleMTD@Gu@physx@@YA_NAEBVCapsule@12@0AEAUPxSweepHit@2@@Z 0000000180034ee0 f   GuSweepMTD.obj
 0001:00034120       ?computePlane_CapsuleMTD@Gu@physx@@YA_NAEBVPxPlane@2@AEBVCapsule@12@AEAUPxSweepHit@2@@Z 0000000180035120 f   GuSweepMTD.obj
 0001:00034250       ?computePlane_BoxMTD@Gu@physx@@YA_NAEBVPxPlane@2@AEBVBox@12@AEAUPxSweepHit@2@@Z 0000000180035250 f   GuSweepMTD.obj
 0001:00034590       ?computePlane_ConvexMTD@Gu@physx@@YA_NAEBVPxPlane@2@AEBVPxConvexMeshGeometry@2@AEBVPxTransform@2@AEAUPxSweepHit@2@@Z 0000000180035590 f   GuSweepMTD.obj
 0001:00035100       ??0MTDTriangle@@QEAA@XZ    0000000180036100 f i GuSweepMTD.obj
 0001:00035110       ??1?$MeshHitCallback@UPxRaycastHit@physx@@@Gu@physx@@UEAA@XZ 0000000180036110 f i GuSweepMTD.obj
 0001:00035120       ??1MTDTriangle@@QEAA@XZ    0000000180036120 f i GuSweepMTD.obj
 0001:00035130       ??Dphysx@@YA?AVMatrix34@Cm@0@AEBVPxTransform@0@AEBVPxMeshScale@0@@Z 0000000180036130 f i GuSweepMTD.obj
 0001:00035780       ??_G?$MeshHitCallback@UPxRaycastHit@physx@@@Gu@physx@@UEAAPEAXI@Z 0000000180036780 f i GuSweepMTD.obj
 0001:00035780       ??_E?$MeshHitCallback@UPxRaycastHit@physx@@@Gu@physx@@UEAAPEAXI@Z 0000000180036780 f i GuSweepMTD.obj
 0001:000357b0       ??_EMeshMTDGenerationCallback@@UEAAPEAXI@Z 00000001800367b0 f i GuSweepMTD.obj
 0001:000357b0       ??_GMeshMTDGenerationCallback@@UEAAPEAXI@Z 00000001800367b0 f i GuSweepMTD.obj
 0001:000357e0       ??_GMidPhaseQueryLocalReport@@UEAAPEAXI@Z 00000001800367e0 f i GuSweepMTD.obj
 0001:000357e0       ??_EMidPhaseQueryLocalReport@@UEAAPEAXI@Z 00000001800367e0 f i GuSweepMTD.obj
 0001:00035810       ?allocate@?$ReflectionAllocator@I@shdfnd@physx@@QEAAPEAX_KPEBDH@Z 0000000180036810 f i GuSweepMTD.obj
 0001:000358b0       ?getInverse@PxMat33@physx@@QEBA?BV12@XZ 00000001800368b0 f i GuSweepMTD.obj
 0001:00035b00       ?growAndPushBack@?$Array@IV?$ReflectionAllocator@I@shdfnd@physx@@@shdfnd@physx@@IEAAAEAIAEBI@Z 0000000180036b00 f i GuSweepMTD.obj
 0001:00035bd0       ?init@FastVertex2ShapeScaling@Cm@physx@@QEAAXAEBVPxVec3@3@AEBVPxQuat@3@@Z 0000000180036bd0 f i GuSweepMTD.obj
 0001:00035fb0       ?onEvent@MidPhaseQueryLocalReport@@UEAA_NIPEAI@Z 0000000180036fb0 f i GuSweepMTD.obj
 0001:00036020       ?processHit@MeshMTDGenerationCallback@@UEAA_NAEBUPxRaycastHit@physx@@AEBVPxVec3@3@11AEAMPEBI@Z 0000000180037020 f i GuSweepMTD.obj
 0001:00036070       ?recreate@?$Array@IV?$ReflectionAllocator@I@shdfnd@physx@@@shdfnd@physx@@IEAAXI@Z 0000000180037070 f i GuSweepMTD.obj
 0001:00036130       ?sweepCapsuleTriangles@Gu@physx@@YA_NIPEBVPxTriangle@2@_NAEBVPxCapsuleGeometry@2@AEBVPxTransform@2@AEBVPxVec3@2@MAEAUPxSweepHit@2@PEBIMV?$PxFlags@W4Enum@PxHitFlag@physx@@G@2@@Z 0000000180037130 f   GuSweepSharedTests.obj
 0001:00036320       ?sweepCapsule_SphereGeom@@YA_NAEBVPxGeometry@physx@@AEBVPxTransform@2@AEBVPxCapsuleGeometry@2@1AEBVCapsule@Gu@2@AEBVPxVec3@2@MAEAUPxSweepHit@2@V?$PxFlags@W4Enum@PxHitFlag@physx@@G@2@M@Z 0000000180037320 f   GuSweepSharedTests.obj
 0001:000364c0       ?sweepCapsule_PlaneGeom@@YA_NAEBVPxGeometry@physx@@AEBVPxTransform@2@AEBVPxCapsuleGeometry@2@1AEBVCapsule@Gu@2@AEBVPxVec3@2@MAEAUPxSweepHit@2@V?$PxFlags@W4Enum@PxHitFlag@physx@@G@2@M@Z 00000001800374c0 f   GuSweepSharedTests.obj
 0001:000367c0       ?sweepCapsule_CapsuleGeom@@YA_NAEBVPxGeometry@physx@@AEBVPxTransform@2@AEBVPxCapsuleGeometry@2@1AEBVCapsule@Gu@2@AEBVPxVec3@2@MAEAUPxSweepHit@2@V?$PxFlags@W4Enum@PxHitFlag@physx@@G@2@M@Z 00000001800377c0 f   GuSweepSharedTests.obj
 0001:000369a0       ?sweepCapsule_ConvexGeom@@YA_NAEBVPxGeometry@physx@@AEBVPxTransform@2@AEBVPxCapsuleGeometry@2@1AEBVCapsule@Gu@2@AEBVPxVec3@2@MAEAUPxSweepHit@2@V?$PxFlags@W4Enum@PxHitFlag@physx@@G@2@M@Z 00000001800379a0 f   GuSweepSharedTests.obj
 0001:00037710       ?sweepBox_PlaneGeom@@YA_NAEBVPxGeometry@physx@@AEBVPxTransform@2@AEBVPxBoxGeometry@2@1AEBVBox@Gu@2@AEBVPxVec3@2@MAEAUPxSweepHit@2@V?$PxFlags@W4Enum@PxHitFlag@physx@@G@2@M@Z 0000000180038710 f   GuSweepSharedTests.obj
 0001:00037bc0       ?sweepBox_ConvexGeom@@YA_NAEBVPxGeometry@physx@@AEBVPxTransform@2@AEBVPxBoxGeometry@2@1AEBVBox@Gu@2@AEBVPxVec3@2@MAEAUPxSweepHit@2@V?$PxFlags@W4Enum@PxHitFlag@physx@@G@2@M@Z 0000000180038bc0 f   GuSweepSharedTests.obj
 0001:00038a10       ?sweepConvex_SphereGeom@@YA_NAEBVPxGeometry@physx@@AEBVPxTransform@2@AEBVPxConvexMeshGeometry@2@1AEBVPxVec3@2@MAEAUPxSweepHit@2@V?$PxFlags@W4Enum@PxHitFlag@physx@@G@2@M@Z 0000000180039a10 f   GuSweepSharedTests.obj
 0001:00039670       ?sweepConvex_PlaneGeom@@YA_NAEBVPxGeometry@physx@@AEBVPxTransform@2@AEBVPxConvexMeshGeometry@2@1AEBVPxVec3@2@MAEAUPxSweepHit@2@V?$PxFlags@W4Enum@PxHitFlag@physx@@G@2@M@Z 000000018003a670 f   GuSweepSharedTests.obj
 0001:00039ac0       ?sweepConvex_CapsuleGeom@@YA_NAEBVPxGeometry@physx@@AEBVPxTransform@2@AEBVPxConvexMeshGeometry@2@1AEBVPxVec3@2@MAEAUPxSweepHit@2@V?$PxFlags@W4Enum@PxHitFlag@physx@@G@2@M@Z 000000018003aac0 f   GuSweepSharedTests.obj
 0001:00039cf0       ?sweepConvex_BoxGeom@@YA_NAEBVPxGeometry@physx@@AEBVPxTransform@2@AEBVPxConvexMeshGeometry@2@1AEBVPxVec3@2@MAEAUPxSweepHit@2@V?$PxFlags@W4Enum@PxHitFlag@physx@@G@2@M@Z 000000018003acf0 f   GuSweepSharedTests.obj
 0001:00039f00       ?sweepConvex_ConvexGeom@@YA_NAEBVPxGeometry@physx@@AEBVPxTransform@2@AEBVPxConvexMeshGeometry@2@1AEBVPxVec3@2@MAEAUPxSweepHit@2@V?$PxFlags@W4Enum@PxHitFlag@physx@@G@2@M@Z 000000018003af00 f   GuSweepSharedTests.obj
 0001:0003aea0       ??$gjkPenetration@U?$LocalConvex@VCapsuleV@Gu@physx@@@Gu@physx@@U?$LocalConvex@VConvexHullV@Gu@physx@@@23@@Gu@physx@@YA?AW4GjkStatus@01@AEBU?$LocalConvex@VCapsuleV@Gu@physx@@@01@AEBU?$LocalConvex@VConvexHullV@Gu@physx@@@01@AEBT__m128@@2_NPEIAE4AEAEAEAUGjkOutput@01@@Z 000000018003bea0 f i GuSweepSharedTests.obj
 0001:0003c4a0       ??$gjkPenetration@U?$RelativeConvex@VBoxV@Gu@physx@@@Gu@physx@@U?$LocalConvex@VConvexHullV@Gu@physx@@@23@@Gu@physx@@YA?AW4GjkStatus@01@AEBU?$RelativeConvex@VBoxV@Gu@physx@@@01@AEBU?$LocalConvex@VConvexHullV@Gu@physx@@@01@AEBT__m128@@2_NPEIAE4AEAEAEAUGjkOutput@01@@Z 000000018003d4a0 f i GuSweepSharedTests.obj
 0001:0003dae0       ??$gjkPenetration@U?$RelativeConvex@VConvexHullV@Gu@physx@@@Gu@physx@@U?$LocalConvex@VConvexHullV@Gu@physx@@@23@@Gu@physx@@YA?AW4GjkStatus@01@AEBU?$RelativeConvex@VConvexHullV@Gu@physx@@@01@AEBU?$LocalConvex@VConvexHullV@Gu@physx@@@01@AEBT__m128@@2_NPEIAE4AEAEAEAUGjkOutput@01@@Z 000000018003eae0 f i GuSweepSharedTests.obj
 0001:0003f190       ??$gjkRaycast@U?$LocalConvex@VCapsuleV@Gu@physx@@@Gu@physx@@U?$LocalConvex@VConvexHullV@Gu@physx@@@23@@Gu@physx@@YA_NAEBU?$LocalConvex@VCapsuleV@Gu@physx@@@01@AEBU?$LocalConvex@VConvexHullV@Gu@physx@@@01@AEBT__m128@@222AEAT4@33M@Z 0000000180040190 f i GuSweepSharedTests.obj
 0001:0003fee0       ??$gjkRaycast@U?$RelativeConvex@VBoxV@Gu@physx@@@Gu@physx@@U?$LocalConvex@VConvexHullV@Gu@physx@@@23@@Gu@physx@@YA_NAEBU?$RelativeConvex@VBoxV@Gu@physx@@@01@AEBU?$LocalConvex@VConvexHullV@Gu@physx@@@01@AEBT__m128@@222AEAT4@33M@Z 0000000180040ee0 f i GuSweepSharedTests.obj
 0001:00040cb0       ??$gjkRaycast@U?$RelativeConvex@VConvexHullV@Gu@physx@@@Gu@physx@@U?$LocalConvex@VConvexHullV@Gu@physx@@@23@@Gu@physx@@YA_NAEBU?$RelativeConvex@VConvexHullV@Gu@physx@@@01@AEBU?$LocalConvex@VConvexHullV@Gu@physx@@@01@AEBT__m128@@222AEAT4@33M@Z 0000000180041cb0 f i GuSweepSharedTests.obj
 0001:00041bb0       ??$gjkRaycastPenetration@U?$LocalConvex@VCapsuleV@Gu@physx@@@Gu@physx@@U?$LocalConvex@VConvexHullV@Gu@physx@@@23@@Gu@physx@@YA_NAEBU?$LocalConvex@VCapsuleV@Gu@physx@@@01@AEBU?$LocalConvex@VConvexHullV@Gu@physx@@@01@AEBT__m128@@222AEAT4@33M_N@Z 0000000180042bb0 f i GuSweepSharedTests.obj
 0001:00041de0       ??$gjkRaycastPenetration@U?$RelativeConvex@VBoxV@Gu@physx@@@Gu@physx@@U?$LocalConvex@VConvexHullV@Gu@physx@@@23@@Gu@physx@@YA_NAEBU?$RelativeConvex@VBoxV@Gu@physx@@@01@AEBU?$LocalConvex@VConvexHullV@Gu@physx@@@01@AEBT__m128@@222AEAT4@33M_N@Z 0000000180042de0 f i GuSweepSharedTests.obj
 0001:00042060       ??$gjkRaycastPenetration@U?$RelativeConvex@VConvexHullV@Gu@physx@@@Gu@physx@@U?$LocalConvex@VConvexHullV@Gu@physx@@@23@@Gu@physx@@YA_NAEBU?$RelativeConvex@VConvexHullV@Gu@physx@@@01@AEBU?$LocalConvex@VConvexHullV@Gu@physx@@@01@AEBT__m128@@222AEAT4@33M_N@Z 0000000180043060 f i GuSweepSharedTests.obj
 0001:00042c90       ?getSweepFuncTable@Gu@physx@@YAAEBUGeomSweepFuncs@12@XZ 0000000180043c90 f   GuSweepTests.obj
 0001:00042ca0       ?sweepBoxTriangles@Gu@physx@@YA_NIPEBVPxTriangle@2@_NAEBVPxBoxGeometry@2@AEBVPxTransform@2@AEBVPxVec3@2@MAEAUPxSweepHit@2@PEBIMV?$PxFlags@W4Enum@PxHitFlag@physx@@G@2@@Z 0000000180043ca0 f   GuSweepTests.obj
 0001:00043730       ?sweepCapsule_BoxGeom@@YA_NAEBVPxGeometry@physx@@AEBVPxTransform@2@AEBVPxCapsuleGeometry@2@1AEBVCapsule@Gu@2@AEBVPxVec3@2@MAEAUPxSweepHit@2@V?$PxFlags@W4Enum@PxHitFlag@physx@@G@2@M@Z 0000000180044730 f   GuSweepTests.obj
 0001:00043fc0       ?sweepBox_SphereGeom@@YA_NAEBVPxGeometry@physx@@AEBVPxTransform@2@AEBVPxBoxGeometry@2@1AEBVBox@Gu@2@AEBVPxVec3@2@MAEAUPxSweepHit@2@V?$PxFlags@W4Enum@PxHitFlag@physx@@G@2@M@Z 0000000180044fc0 f   GuSweepTests.obj
 0001:00044690       ?sweepBox_CapsuleGeom@@YA_NAEBVPxGeometry@physx@@AEBVPxTransform@2@AEBVPxBoxGeometry@2@1AEBVBox@Gu@2@AEBVPxVec3@2@MAEAUPxSweepHit@2@V?$PxFlags@W4Enum@PxHitFlag@physx@@G@2@M@Z 0000000180045690 f   GuSweepTests.obj
 0001:00044f40       ?sweepBox_BoxGeom@@YA_NAEBVPxGeometry@physx@@AEBVPxTransform@2@AEBVPxBoxGeometry@2@1AEBVBox@Gu@2@AEBVPxVec3@2@MAEAUPxSweepHit@2@V?$PxFlags@W4Enum@PxHitFlag@physx@@G@2@M@Z 0000000180045f40 f   GuSweepTests.obj
 0001:000458e0       ?registerHeightFields_Sweeps@@YAXXZ 00000001800468e0 f   GuSweepTests.obj
 0001:00045920       ??$gjkPenetration@U?$LocalConvex@VCapsuleV@Gu@physx@@@Gu@physx@@U?$LocalConvex@VBoxV@Gu@physx@@@23@@Gu@physx@@YA?AW4GjkStatus@01@AEBU?$LocalConvex@VCapsuleV@Gu@physx@@@01@AEBU?$LocalConvex@VBoxV@Gu@physx@@@01@AEBT__m128@@2_NPEIAE4AEAEAEAUGjkOutput@01@@Z 0000000180046920 f i GuSweepTests.obj
 0001:00046e60       ??$gjkPenetration@U?$LocalConvex@VTriangleV@Gu@physx@@@Gu@physx@@U?$LocalConvex@VBoxV@Gu@physx@@@23@@Gu@physx@@YA?AW4GjkStatus@01@AEBU?$LocalConvex@VTriangleV@Gu@physx@@@01@AEBU?$LocalConvex@VBoxV@Gu@physx@@@01@AEBT__m128@@2_NPEIAE4AEAEAEAUGjkOutput@01@@Z 0000000180047e60 f i GuSweepTests.obj
 0001:000483a0       ??$gjkPenetration@U?$RelativeConvex@VBoxV@Gu@physx@@@Gu@physx@@U?$LocalConvex@VBoxV@Gu@physx@@@23@@Gu@physx@@YA?AW4GjkStatus@01@AEBU?$RelativeConvex@VBoxV@Gu@physx@@@01@AEBU?$LocalConvex@VBoxV@Gu@physx@@@01@AEBT__m128@@2_NPEIAE4AEAEAEAUGjkOutput@01@@Z 00000001800493a0 f i GuSweepTests.obj
 0001:00049930       ??$gjkRaycast@U?$LocalConvex@VCapsuleV@Gu@physx@@@Gu@physx@@U?$LocalConvex@VBoxV@Gu@physx@@@23@@Gu@physx@@YA_NAEBU?$LocalConvex@VCapsuleV@Gu@physx@@@01@AEBU?$LocalConvex@VBoxV@Gu@physx@@@01@AEBT__m128@@222AEAT4@33M@Z 000000018004a930 f i GuSweepTests.obj
 0001:0004a510       ??$gjkRaycast@U?$LocalConvex@VTriangleV@Gu@physx@@@Gu@physx@@U?$LocalConvex@VBoxV@Gu@physx@@@23@@Gu@physx@@YA_NAEBU?$LocalConvex@VTriangleV@Gu@physx@@@01@AEBU?$LocalConvex@VBoxV@Gu@physx@@@01@AEBT__m128@@222AEAT4@33M@Z 000000018004b510 f i GuSweepTests.obj
 0001:0004b170       ??$gjkRaycast@U?$RelativeConvex@VBoxV@Gu@physx@@@Gu@physx@@U?$LocalConvex@VBoxV@Gu@physx@@@23@@Gu@physx@@YA_NAEBU?$RelativeConvex@VBoxV@Gu@physx@@@01@AEBU?$LocalConvex@VBoxV@Gu@physx@@@01@AEBT__m128@@222AEAT4@33M@Z 000000018004c170 f i GuSweepTests.obj
 0001:0004bdc0       ??$gjkRaycastPenetration@U?$LocalConvex@VCapsuleV@Gu@physx@@@Gu@physx@@U?$LocalConvex@VBoxV@Gu@physx@@@23@@Gu@physx@@YA_NAEBU?$LocalConvex@VCapsuleV@Gu@physx@@@01@AEBU?$LocalConvex@VBoxV@Gu@physx@@@01@AEBT__m128@@222AEAT4@33M_N@Z 000000018004cdc0 f i GuSweepTests.obj
 0001:0004bff0       ??$gjkRaycastPenetration@U?$LocalConvex@VTriangleV@Gu@physx@@@Gu@physx@@U?$LocalConvex@VBoxV@Gu@physx@@@23@@Gu@physx@@YA_NAEBU?$LocalConvex@VTriangleV@Gu@physx@@@01@AEBU?$LocalConvex@VBoxV@Gu@physx@@@01@AEBT__m128@@222AEAT4@33M_N@Z 000000018004cff0 f i GuSweepTests.obj
 0001:0004c220       ??$gjkRaycastPenetration@U?$RelativeConvex@VBoxV@Gu@physx@@@Gu@physx@@U?$LocalConvex@VBoxV@Gu@physx@@@23@@Gu@physx@@YA_NAEBU?$RelativeConvex@VBoxV@Gu@physx@@@01@AEBU?$LocalConvex@VBoxV@Gu@physx@@@01@AEBT__m128@@222AEAT4@33M_N@Z 000000018004d220 f i GuSweepTests.obj
 0001:0004c4a0       ??_G?$LocalConvex@VBoxV@Gu@physx@@@Gu@physx@@UEAAPEAXI@Z 000000018004d4a0 f i GuSweepTests.obj
 0001:0004c4a0       ??_E?$LocalConvex@VBoxV@Gu@physx@@@Gu@physx@@UEAAPEAXI@Z 000000018004d4a0 f i GuSweepTests.obj
 0001:0004c4d0       ??_G?$LocalConvex@VTriangleV@Gu@physx@@@Gu@physx@@UEAAPEAXI@Z 000000018004d4d0 f i GuSweepTests.obj
 0001:0004c4d0       ??_E?$LocalConvex@VTriangleV@Gu@physx@@@Gu@physx@@UEAAPEAXI@Z 000000018004d4d0 f i GuSweepTests.obj
 0001:0004c500       ?getCenter@?$LocalConvex@VBoxV@Gu@physx@@@Gu@physx@@UEBA?AT__m128@@XZ 000000018004d500 f i GuSweepTests.obj
 0001:0004c510       ?getCenter@?$LocalConvex@VTriangleV@Gu@physx@@@Gu@physx@@UEBA?AT__m128@@XZ 000000018004d510 f i GuSweepTests.obj
 0001:0004c520       ?getSweepMargin@?$LocalConvex@VBoxV@Gu@physx@@@Gu@physx@@UEBA?AT__m128@@XZ 000000018004d520 f i GuSweepTests.obj
 0001:0004c540       ?getSweepMargin@?$LocalConvex@VTriangleV@Gu@physx@@@Gu@physx@@UEBA?AT__m128@@XZ 000000018004d540 f i GuSweepTests.obj
 0001:0004c550       ?support@?$LocalConvex@VBoxV@Gu@physx@@@Gu@physx@@UEBA?AT__m128@@AEBT4@@Z 000000018004d550 f i GuSweepTests.obj
 0001:0004c580       ?support@?$LocalConvex@VBoxV@Gu@physx@@@Gu@physx@@UEBA?AT__m128@@AEBT4@AEAH@Z 000000018004d580 f i GuSweepTests.obj
 0001:0004c5c0       ?support@?$LocalConvex@VTriangleV@Gu@physx@@@Gu@physx@@UEBA?AT__m128@@AEBT4@@Z 000000018004d5c0 f i GuSweepTests.obj
 0001:0004c650       ?support@?$LocalConvex@VTriangleV@Gu@physx@@@Gu@physx@@UEBA?AT__m128@@AEBT4@AEAH@Z 000000018004d650 f i GuSweepTests.obj
 0001:0004c730       ?supportPoint@?$LocalConvex@VBoxV@Gu@physx@@@Gu@physx@@UEBA?AT__m128@@H@Z 000000018004d730 f i GuSweepTests.obj
 0001:0004c770       ?supportPoint@?$LocalConvex@VTriangleV@Gu@physx@@@Gu@physx@@UEBA?AT__m128@@H@Z 000000018004d770 f i GuSweepTests.obj
 0001:0004c790       ?subdivide@AABBTreeBuildNode@Gu@physx@@QEAAXAEBVAABBTreeBuildParams@23@AEAUBuildStats@23@AEAVNodeAllocator@23@QEAI@Z 000000018004d790 f   GuAABBTreeBuild.obj
 0001:0004c980       ?_buildHierarchy@AABBTreeBuildNode@Gu@physx@@QEAAXAEAVAABBTreeBuildParams@23@AEAUBuildStats@23@AEAVNodeAllocator@23@QEAI@Z 000000018004d980 f   GuAABBTreeBuild.obj
 0001:0004ca10       ??0NodeAllocator@Gu@physx@@QEAA@XZ 000000018004da10 f   GuAABBTreeBuild.obj
 0001:0004ca30       ??1NodeAllocator@Gu@physx@@QEAA@XZ 000000018004da30 f   GuAABBTreeBuild.obj
 0001:0004ca80       ?release@NodeAllocator@Gu@physx@@QEAAXXZ 000000018004da80 f   GuAABBTreeBuild.obj
 0001:0004cb30       ?init@NodeAllocator@Gu@physx@@QEAAXII@Z 000000018004db30 f   GuAABBTreeBuild.obj
 0001:0004cc40       ?getBiNode@NodeAllocator@Gu@physx@@QEAAPEAVAABBTreeBuildNode@23@XZ 000000018004dc40 f   GuAABBTreeBuild.obj
 0001:0004cd80       ?initAABBTreeBuild@Gu@physx@@YA_NAEAVAABBTreeBuildParams@12@AEAVNodeAllocator@12@AEAUBuildStats@12@AEAPEAI@Z 000000018004dd80 f   GuAABBTreeBuild.obj
 0001:0004cf90       ?buildAABBTree@Gu@physx@@YA_NAEAVAABBTreeBuildParams@12@AEAVNodeAllocator@12@AEAUBuildStats@12@AEAPEAI@Z 000000018004df90 f   GuAABBTreeBuild.obj
 0001:0004cff0       ??$?_UV?$ReflectionAllocator@VAABBTreeBuildNode@Gu@physx@@@shdfnd@physx@@@UserAllocated@shdfnd@physx@@SAPEAX_KV?$ReflectionAllocator@VAABBTreeBuildNode@Gu@physx@@@12@PEBDH@Z 000000018004dff0 f i GuAABBTreeBuild.obj
 0001:0004d090       ??$copy@V?$ReflectionAllocator@USlab@NodeAllocator@Gu@physx@@@shdfnd@physx@@@?$Array@USlab@NodeAllocator@Gu@physx@@V?$ReflectionAllocator@USlab@NodeAllocator@Gu@physx@@@shdfnd@4@@shdfnd@physx@@IEAAXAEBV012@@Z 000000018004e090 f i GuAABBTreeBuild.obj
 0001:0004d110       ??0AABBTreeBuildNode@Gu@physx@@QEAA@AEBV012@@Z 000000018004e110 f i GuAABBTreeBuild.obj
 0001:0004d150       ??0AABBTreeBuildNode@Gu@physx@@QEAA@XZ 000000018004e150 f i GuAABBTreeBuild.obj
 0001:0004d160       ??0AABBTreeBuildParams@Gu@physx@@QEAA@IIPEBVPxBounds3@2@@Z 000000018004e160 f i GuAABBTreeBuild.obj
 0001:0004d180       ??0BuildStats@Gu@physx@@QEAA@XZ 000000018004e180 f i GuAABBTreeBuild.obj
 0001:0004d190       ??0NodeAllocator@Gu@physx@@QEAA@AEBV012@@Z 000000018004e190 f i GuAABBTreeBuild.obj
 0001:0004d1d0       ??1AABBTreeBuildNode@Gu@physx@@QEAA@XZ 000000018004e1d0 f i GuAABBTreeBuild.obj
 0001:0004d1e0       ??1AABBTreeBuildParams@Gu@physx@@QEAA@XZ 000000018004e1e0 f i GuAABBTreeBuild.obj
 0001:0004d240       ??4AABBTreeBuildNode@Gu@physx@@QEAAAEAV012@AEBV012@@Z 000000018004e240 f i GuAABBTreeBuild.obj
 0001:0004d280       ??4AABBTreeBuildParams@Gu@physx@@QEAAAEAV012@AEBV012@@Z 000000018004e280 f i GuAABBTreeBuild.obj
 0001:0004d2a0       ??4BuildStats@Gu@physx@@QEAAAEAU012@$$QEAU012@@Z 000000018004e2a0 f i GuAABBTreeBuild.obj
 0001:0004d2b0       ??4BuildStats@Gu@physx@@QEAAAEAU012@AEBU012@@Z 000000018004e2b0 f i GuAABBTreeBuild.obj
 0001:0004d2c0       ??4NodeAllocator@Gu@physx@@QEAAAEAV012@AEBV012@@Z 000000018004e2c0 f i GuAABBTreeBuild.obj
 0001:0004d370       ??_EAABBTreeBuildNode@Gu@physx@@QEAAPEAXI@Z 000000018004e370 f i GuAABBTreeBuild.obj
 0001:0004d3f0       ??_FAABBTreeBuildParams@Gu@physx@@QEAAXXZ 000000018004e3f0 f i GuAABBTreeBuild.obj
 0001:0004d410       ?allocate@?$Array@USlab@NodeAllocator@Gu@physx@@V?$ReflectionAllocator@USlab@NodeAllocator@Gu@physx@@@shdfnd@4@@shdfnd@physx@@IEAAPEAUSlab@NodeAllocator@Gu@3@I@Z 000000018004e410 f i GuAABBTreeBuild.obj
 0001:0004d4b0       ?getAABB@AABBTreeBuildNode@Gu@physx@@QEBAAEBVPxBounds3@3@XZ 000000018004e4b0 f i GuAABBTreeBuild.obj
 0001:0004d4c0       ?getCount@BuildStats@Gu@physx@@QEBAIXZ 000000018004e4c0 f i GuAABBTreeBuild.obj
 0001:0004d4d0       ?getNbPrimitives@AABBTreeBuildNode@Gu@physx@@QEBAIXZ 000000018004e4d0 f i GuAABBTreeBuild.obj
 0001:0004d4e0       ?getNbRuntimePrimitives@AABBTreeBuildNode@Gu@physx@@QEBAIXZ 000000018004e4e0 f i GuAABBTreeBuild.obj
 0001:0004d4f0       ?getNeg@AABBTreeBuildNode@Gu@physx@@QEBAPEBV123@XZ 000000018004e4f0 f i GuAABBTreeBuild.obj
 0001:0004d510       ?getPos@AABBTreeBuildNode@Gu@physx@@QEBAPEBV123@XZ 000000018004e510 f i GuAABBTreeBuild.obj
 0001:0004d520       ?getPrimitives@AABBTreeBuildNode@Gu@physx@@QEAAPEAIPEAI@Z 000000018004e520 f i GuAABBTreeBuild.obj
 0001:0004d530       ?getPrimitives@AABBTreeBuildNode@Gu@physx@@QEBAPEBIPEBI@Z 000000018004e530 f i GuAABBTreeBuild.obj
 0001:0004d540       ?growAndPushBack@?$Array@USlab@NodeAllocator@Gu@physx@@V?$ReflectionAllocator@USlab@NodeAllocator@Gu@physx@@@shdfnd@4@@shdfnd@physx@@IEAAAEAUSlab@NodeAllocator@Gu@3@AEBU4563@@Z 000000018004e540 f i GuAABBTreeBuild.obj
 0001:0004d600       ?increaseCount@BuildStats@Gu@physx@@QEAAXI@Z 000000018004e600 f i GuAABBTreeBuild.obj
 0001:0004d610       ?isLeaf@AABBTreeBuildNode@Gu@physx@@QEBA_NXZ 000000018004e610 f i GuAABBTreeBuild.obj
 0001:0004d620       ?recreate@?$Array@USlab@NodeAllocator@Gu@physx@@V?$ReflectionAllocator@USlab@NodeAllocator@Gu@physx@@@shdfnd@4@@shdfnd@physx@@IEAAXI@Z 000000018004e620 f i GuAABBTreeBuild.obj
 0001:0004d6d0       ?reset@AABBTreeBuildParams@Gu@physx@@QEAAXXZ 000000018004e6d0 f i GuAABBTreeBuild.obj
 0001:0004d730       ?reset@BuildStats@Gu@physx@@QEAAXXZ 000000018004e730 f i GuAABBTreeBuild.obj
 0001:0004d740       ?resize@?$Array@USlab@NodeAllocator@Gu@physx@@V?$ReflectionAllocator@USlab@NodeAllocator@Gu@physx@@@shdfnd@4@@shdfnd@physx@@QEAAXIAEBUSlab@NodeAllocator@Gu@3@@Z 000000018004e740 f i GuAABBTreeBuild.obj
 0001:0004d7c0       ?setCount@BuildStats@Gu@physx@@QEAAXI@Z 000000018004e7c0 f i GuAABBTreeBuild.obj
 0001:0004d7d0       ?setNbRunTimePrimitives@AABBTreeBuildNode@Gu@physx@@QEAAXI@Z 000000018004e7d0 f i GuAABBTreeBuild.obj
 0001:0004d940       ??0BVHStructure@Gu@physx@@QEAA@PEAVGuMeshFactory@2@@Z 000000018004e940 f   GuBVHStructure.obj
 0001:0004d9b0       ??0BVHStructure@Gu@physx@@QEAA@PEAVGuMeshFactory@2@AEAUBVHStructureData@12@@Z 000000018004e9b0 f   GuBVHStructure.obj
 0001:0004da40       ??1BVHStructure@Gu@physx@@UEAA@XZ 000000018004ea40 f   GuBVHStructure.obj
 0001:0004da60       ?load@BVHStructure@Gu@physx@@QEAA_NAEAVPxInputStream@3@@Z 000000018004ea60 f   GuBVHStructure.obj
 0001:0004dc30       ?release@BVHStructure@Gu@physx@@UEAAXXZ 000000018004ec30 f   GuBVHStructure.obj
 0001:0004dc70       ?raycast@BVHStructure@Gu@physx@@UEBAIAEBVPxVec3@3@0MIPEIAI@Z 000000018004ec70 f   GuBVHStructure.obj
 0001:0004dd40       ?sweep@BVHStructure@Gu@physx@@UEBAIAEBVPxBounds3@3@AEBVPxVec3@3@MIPEIAI@Z 000000018004ed40 f   GuBVHStructure.obj
 0001:0004deb0       ?overlap@BVHStructure@Gu@physx@@UEBAIAEBVPxBounds3@3@IPEIAI@Z 000000018004eeb0 f   GuBVHStructure.obj
 0001:0004e000       ?onRefCountZero@BVHStructure@Gu@physx@@UEAAXXZ 000000018004f000 f   GuBVHStructure.obj
 0001:0004e130       ?createVolumes@BVHStructure@Gu@physx@@AEBAXXZ 000000018004f130 f   GuBVHStructure.obj
 0001:0004e1c0       ??1PxBVHStructure@physx@@MEAA@XZ 000000018004f1c0 f i GuBVHStructure.obj
 0001:0004e1d0       ??1RefCountable@Cm@physx@@UEAA@XZ 000000018004f1d0 f i GuBVHStructure.obj
 0001:0004e1e0       ??R?$AABBTreeOverlap@UAABBAABBTest@Gu@physx@@UBVHTree@23@UBVHNode@23@IUBVHCallback@23@@Gu@physx@@QEAA_NPEBIPEBVPxBounds3@2@AEBUBVHTree@12@AEBUAABBAABBTest@12@AEAUBVHCallback@12@@Z 000000018004f1e0 f i GuBVHStructure.obj
 0001:0004e460       ??R?$AABBTreeRaycast@$00UBVHTree@Gu@physx@@UBVHNode@23@IUBVHCallback@23@@Gu@physx@@QEAA_NPEBIPEBVPxBounds3@2@AEBUBVHTree@12@AEBVPxVec3@2@3AEAM3AEAUBVHCallback@12@@Z 000000018004f460 f i GuBVHStructure.obj
 0001:0004eaf0       ??R?$AABBTreeRaycast@$0A@UBVHTree@Gu@physx@@UBVHNode@23@IUBVHCallback@23@@Gu@physx@@QEAA_NPEBIPEBVPxBounds3@2@AEBUBVHTree@12@AEBVPxVec3@2@3AEAM3AEAUBVHCallback@12@@Z 000000018004faf0 f i GuBVHStructure.obj
 0001:0004f138       ??_EBVHStructure@Gu@physx@@WBA@EAAPEAXI@Z 0000000180050138 f i GuBVHStructure.obj
 0001:0004f150       ??_EBVHStructure@Gu@physx@@UEAAPEAXI@Z 0000000180050150 f i GuBVHStructure.obj
 0001:0004f150       ??_GBVHStructure@Gu@physx@@UEAAPEAXI@Z 0000000180050150 f i GuBVHStructure.obj
 0001:0004f1b0       ??_GPxBVHStructure@physx@@MEAAPEAXI@Z 00000001800501b0 f i GuBVHStructure.obj
 0001:0004f1b0       ??_EPxBVHStructure@physx@@MEAAPEAXI@Z 00000001800501b0 f i GuBVHStructure.obj
 0001:0004f1e0       ??_GRefCountable@Cm@physx@@UEAAPEAXI@Z 00000001800501e0 f i GuBVHStructure.obj
 0001:0004f1e0       ??_ERefCountable@Cm@physx@@UEAAPEAXI@Z 00000001800501e0 f i GuBVHStructure.obj
 0001:0004f210       ?allocate@?$Array@PEBUBVHNode@Gu@physx@@V?$InlineAllocator@$0IAA@V?$ReflectionAllocator@PEBUBVHNode@Gu@physx@@@shdfnd@physx@@@shdfnd@3@@shdfnd@physx@@IEAAPEAPEBUBVHNode@Gu@3@I@Z 0000000180050210 f i GuBVHStructure.obj
 0001:0004f2d0       ?getBounds@BVHStructure@Gu@physx@@UEBAPEBVPxBounds3@3@XZ 00000001800502d0 f i GuBVHStructure.obj
 0001:0004f2e0       ?getConcreteTypeName@PxBVHStructure@physx@@UEBAPEBDXZ 00000001800502e0 f i GuBVHStructure.obj
 0001:0004f2f0       ?getNbBounds@BVHStructure@Gu@physx@@UEBAIXZ 00000001800502f0 f i GuBVHStructure.obj
 0001:0004f300       ?isKindOf@PxBVHStructure@physx@@MEBA_NPEBD@Z 0000000180050300 f i GuBVHStructure.obj
 0001:0004f350       ?onRefCountZero@RefCountable@Cm@physx@@UEAAXXZ 0000000180050350 f i GuBVHStructure.obj
 0001:0004f370       ?recreate@?$Array@PEBUBVHNode@Gu@physx@@V?$InlineAllocator@$0IAA@V?$ReflectionAllocator@PEBUBVHNode@Gu@physx@@@shdfnd@physx@@@shdfnd@3@@shdfnd@physx@@IEAAXI@Z 0000000180050370 f i GuBVHStructure.obj
 0001:0004f420       ?resizeUninitialized@?$Array@PEBUBVHNode@Gu@physx@@V?$InlineAllocator@$0IAA@V?$ReflectionAllocator@PEBUBVHNode@Gu@physx@@@shdfnd@physx@@@shdfnd@3@@shdfnd@physx@@QEAAXI@Z 0000000180050420 f i GuBVHStructure.obj
 0001:0004f470       ?SweepEstimateAnyShapeHeightfield@Gu@physx@@YAMAEBUCCDShape@12@0AEBVPxTransform@2@111MM@Z 0000000180050470 f   GuCCDSweepConvexMesh.obj
 0001:0004fce0       ?SweepEstimateAnyShapeMesh@Gu@physx@@YAMAEBUCCDShape@12@0AEBVPxTransform@2@111MM@Z 0000000180050ce0 f   GuCCDSweepConvexMesh.obj
 0001:0004ffa0       ?SweepAnyShapeHeightfield@Gu@physx@@YAMAEBUCCDShape@12@0AEBVPxTransform@2@111MAEAVPxVec3@2@2MAEAIM@Z 0000000180050fa0 f   GuCCDSweepConvexMesh.obj
 0001:000510c0       ?SweepAnyShapeMesh@Gu@physx@@YAMAEBUCCDShape@12@0AEBVPxTransform@2@111MAEAVPxVec3@2@2MAEAIM@Z 00000001800520c0 f   GuCCDSweepConvexMesh.obj
 0001:000533c0       ?growAndPushBack@?$Array@IV?$InlineAllocator@$0BAA@V?$ReflectionAllocator@I@shdfnd@physx@@@shdfnd@physx@@@shdfnd@physx@@IEAAAEAIAEBI@Z 00000001800543c0 f i GuCCDSweepConvexMesh.obj
 0001:00053af0       ?recreate@?$Array@IV?$InlineAllocator@$0BAA@V?$ReflectionAllocator@I@shdfnd@physx@@@shdfnd@physx@@@shdfnd@physx@@IEAAXI@Z 0000000180054af0 f i GuCCDSweepConvexMesh.obj
 0001:00053bd0       ?resize@?$Array@IV?$InlineAllocator@$0BAA@V?$ReflectionAllocator@I@shdfnd@physx@@@shdfnd@physx@@@shdfnd@physx@@QEAAXIAEBI@Z 0000000180054bd0 f i GuCCDSweepConvexMesh.obj
 0001:00053ca0       ?resize@?$Array@IV?$ReflectionAllocator@I@shdfnd@physx@@@shdfnd@physx@@QEAAXIAEBI@Z 0000000180054ca0 f i GuCCDSweepConvexMesh.obj
 0001:00053d60       ?transformBoxOrthonormal@physx@@YA?AVBox@Gu@1@AEBV231@AEBVPxTransform@1@@Z 0000000180054d60 f i GuCCDSweepConvexMesh.obj
 0001:000541f0       ?SweepShapeShape@Gu@physx@@YAMAEBUCCDShape@12@0AEBVPxTransform@2@111MAEAVPxVec3@2@2MAEAIM@Z 00000001800551f0 f   GuCCDSweepPrimitives.obj
 0001:00054220       ?UnimplementedSweep@Gu@physx@@YAMAEBUCCDShape@12@0AEBVPxTransform@2@111MAEAVPxVec3@2@2MAEAIM@Z 0000000180055220 f   GuCCDSweepPrimitives.obj
 0001:00054230       ?UnimplementedTriangleSweep@Gu@physx@@YAMAEBVGeometryUnion@12@0AEBVPxTransform@2@111MAEAVPxVec3@2@2AEBVFastVertex2ShapeScaling@Cm@2@AEAVTriangleV@12@M@Z 0000000180055230 f   GuCCDSweepPrimitives.obj
 0001:00054240       ?SweepShapeTriangle@Gu@physx@@YAMAEBVGeometryUnion@12@0AEBVPxTransform@2@111MAEAVPxVec3@2@2AEBVFastVertex2ShapeScaling@Cm@2@AEAVTriangleV@12@M@Z 0000000180055240 f   GuCCDSweepPrimitives.obj
 0001:00054260       ??$SweepGeomGeom@VCapsuleV@Gu@physx@@V123@@Gu@physx@@YAMAEBUCCDShape@01@0AEBVPxTransform@1@111MAEAVPxVec3@1@2MAEAIM@Z 0000000180055260 f i GuCCDSweepPrimitives.obj
 0001:000543b0       ??$SweepGeomGeom@VCapsuleV@Gu@physx@@VBoxV@23@@Gu@physx@@YAMAEBUCCDShape@01@0AEBVPxTransform@1@111MAEAVPxVec3@1@2MAEAIM@Z 00000001800553b0 f i GuCCDSweepPrimitives.obj
 0001:00054520       ??$SweepGeomGeom@VCapsuleV@Gu@physx@@VConvexHullV@23@@Gu@physx@@YAMAEBUCCDShape@01@0AEBVPxTransform@1@111MAEAVPxVec3@1@2MAEAIM@Z 0000000180055520 f i GuCCDSweepPrimitives.obj
 0001:00054aa0       ??$SweepGeomGeom@VBoxV@Gu@physx@@V123@@Gu@physx@@YAMAEBUCCDShape@01@0AEBVPxTransform@1@111MAEAVPxVec3@1@2MAEAIM@Z 0000000180055aa0 f i GuCCDSweepPrimitives.obj
 0001:00054c30       ??$SweepGeomGeom@VBoxV@Gu@physx@@VConvexHullV@23@@Gu@physx@@YAMAEBUCCDShape@01@0AEBVPxTransform@1@111MAEAVPxVec3@1@2MAEAIM@Z 0000000180055c30 f i GuCCDSweepPrimitives.obj
 0001:000551c0       ??$SweepGeomGeom@VConvexHullV@Gu@physx@@V123@@Gu@physx@@YAMAEBUCCDShape@01@0AEBVPxTransform@1@111MAEAVPxVec3@1@2MAEAIM@Z 00000001800561c0 f i GuCCDSweepPrimitives.obj
 0001:00055ac0       ??$SweepGeomTriangles@VCapsuleV@Gu@physx@@@Gu@physx@@YAMAEBVGeometryUnion@01@0AEBVPxTransform@1@111MAEAVPxVec3@1@2AEBVFastVertex2ShapeScaling@Cm@1@AEAVTriangleV@01@M@Z 0000000180056ac0 f i GuCCDSweepPrimitives.obj
 0001:00055b90       ??$SweepGeomTriangles@VBoxV@Gu@physx@@@Gu@physx@@YAMAEBVGeometryUnion@01@0AEBVPxTransform@1@111MAEAVPxVec3@1@2AEBVFastVertex2ShapeScaling@Cm@1@AEAVTriangleV@01@M@Z 0000000180056b90 f i GuCCDSweepPrimitives.obj
 0001:00055c90       ??$SweepGeomTriangles@VConvexHullV@Gu@physx@@@Gu@physx@@YAMAEBVGeometryUnion@01@0AEBVPxTransform@1@111MAEAVPxVec3@1@2AEBVFastVertex2ShapeScaling@Cm@1@AEAVTriangleV@01@M@Z 0000000180056c90 f i GuCCDSweepPrimitives.obj
 0001:000561b0       ?supportPoint@?$RelativeConvex@VCapsuleV@Gu@physx@@@Gu@physx@@UEBA?AT__m128@@H@Z 00000001800571b0 f i GuCCDSweepPrimitives.obj
 0001:00056210       ?support@?$RelativeConvex@VCapsuleV@Gu@physx@@@Gu@physx@@UEBA?AT__m128@@AEBT4@@Z 0000000180057210 f i GuCCDSweepPrimitives.obj
 0001:000562c0       ?support@?$RelativeConvex@VCapsuleV@Gu@physx@@@Gu@physx@@UEBA?AT__m128@@AEBT4@AEAH@Z 00000001800572c0 f i GuCCDSweepPrimitives.obj
 0001:00056380       ?getCenter@?$RelativeConvex@VCapsuleV@Gu@physx@@@Gu@physx@@UEBA?AT__m128@@XZ 0000000180057380 f i GuCCDSweepPrimitives.obj
 0001:000563c0       ?getSweepMargin@?$RelativeConvex@VCapsuleV@Gu@physx@@@Gu@physx@@UEBA?AT__m128@@XZ 00000001800573c0 f i GuCCDSweepPrimitives.obj
 0001:000563d0       ??_E?$RelativeConvex@VCapsuleV@Gu@physx@@@Gu@physx@@UEAAPEAXI@Z 00000001800573d0 f i GuCCDSweepPrimitives.obj
 0001:000563d0       ??_G?$RelativeConvex@VCapsuleV@Gu@physx@@@Gu@physx@@UEAAPEAXI@Z 00000001800573d0 f i GuCCDSweepPrimitives.obj
 0001:00056400       ?supportPoint@?$RelativeConvex@VTriangleV@Gu@physx@@@Gu@physx@@UEBA?AT__m128@@H@Z 0000000180057400 f i GuCCDSweepPrimitives.obj
 0001:00056450       ?support@?$RelativeConvex@VTriangleV@Gu@physx@@@Gu@physx@@UEBA?AT__m128@@AEBT4@@Z 0000000180057450 f i GuCCDSweepPrimitives.obj
 0001:00056550       ?support@?$RelativeConvex@VTriangleV@Gu@physx@@@Gu@physx@@UEBA?AT__m128@@AEBT4@AEAH@Z 0000000180057550 f i GuCCDSweepPrimitives.obj
 0001:00056690       ?getCenter@?$RelativeConvex@VTriangleV@Gu@physx@@@Gu@physx@@UEBA?AT__m128@@XZ 0000000180057690 f i GuCCDSweepPrimitives.obj
 0001:000566d0       ?getSweepMargin@?$RelativeConvex@VTriangleV@Gu@physx@@@Gu@physx@@UEBA?AT__m128@@XZ 00000001800576d0 f i GuCCDSweepPrimitives.obj
 0001:000566e0       ??_G?$RelativeConvex@VTriangleV@Gu@physx@@@Gu@physx@@UEAAPEAXI@Z 00000001800576e0 f i GuCCDSweepPrimitives.obj
 0001:000566e0       ??_E?$RelativeConvex@VTriangleV@Gu@physx@@@Gu@physx@@UEAAPEAXI@Z 00000001800576e0 f i GuCCDSweepPrimitives.obj
 0001:0005a4f0       ??$gjkPenetration@U?$RelativeConvex@VCapsuleV@Gu@physx@@@Gu@physx@@U?$LocalConvex@VBoxV@Gu@physx@@@23@@Gu@physx@@YA?AW4GjkStatus@01@AEBU?$RelativeConvex@VCapsuleV@Gu@physx@@@01@AEBU?$LocalConvex@VBoxV@Gu@physx@@@01@AEBT__m128@@2_NPEIAE4AEAEAEAUGjkOutput@01@@Z 000000018005b4f0 f i GuCCDSweepPrimitives.obj
 0001:0005baa0       ??$gjkPenetration@U?$RelativeConvex@VCapsuleV@Gu@physx@@@Gu@physx@@U?$LocalConvex@VCapsuleV@Gu@physx@@@23@@Gu@physx@@YA?AW4GjkStatus@01@AEBU?$RelativeConvex@VCapsuleV@Gu@physx@@@01@AEBU?$LocalConvex@VCapsuleV@Gu@physx@@@01@AEBT__m128@@2_NPEIAE4AEAEAEAUGjkOutput@01@@Z 000000018005caa0 f i GuCCDSweepPrimitives.obj
 0001:0005d050       ??$gjkPenetration@U?$RelativeConvex@VCapsuleV@Gu@physx@@@Gu@physx@@U?$LocalConvex@VConvexHullV@Gu@physx@@@23@@Gu@physx@@YA?AW4GjkStatus@01@AEBU?$RelativeConvex@VCapsuleV@Gu@physx@@@01@AEBU?$LocalConvex@VConvexHullV@Gu@physx@@@01@AEBT__m128@@2_NPEIAE4AEAEAEAUGjkOutput@01@@Z 000000018005e050 f i GuCCDSweepPrimitives.obj
 0001:0005e6b0       ??$gjkPenetration@U?$RelativeConvex@VTriangleV@Gu@physx@@@Gu@physx@@U?$LocalConvex@VBoxV@Gu@physx@@@23@@Gu@physx@@YA?AW4GjkStatus@01@AEBU?$RelativeConvex@VTriangleV@Gu@physx@@@01@AEBU?$LocalConvex@VBoxV@Gu@physx@@@01@AEBT__m128@@2_NPEIAE4AEAEAEAUGjkOutput@01@@Z 000000018005f6b0 f i GuCCDSweepPrimitives.obj
 0001:0005fc90       ??$gjkPenetration@U?$RelativeConvex@VTriangleV@Gu@physx@@@Gu@physx@@U?$LocalConvex@VCapsuleV@Gu@physx@@@23@@Gu@physx@@YA?AW4GjkStatus@01@AEBU?$RelativeConvex@VTriangleV@Gu@physx@@@01@AEBU?$LocalConvex@VCapsuleV@Gu@physx@@@01@AEBT__m128@@2_NPEIAE4AEAEAEAUGjkOutput@01@@Z 0000000180060c90 f i GuCCDSweepPrimitives.obj
 0001:00061290       ??$gjkPenetration@U?$RelativeConvex@VTriangleV@Gu@physx@@@Gu@physx@@U?$LocalConvex@VConvexHullV@Gu@physx@@@23@@Gu@physx@@YA?AW4GjkStatus@01@AEBU?$RelativeConvex@VTriangleV@Gu@physx@@@01@AEBU?$LocalConvex@VConvexHullV@Gu@physx@@@01@AEBT__m128@@2_NPEIAE4AEAEAEAUGjkOutput@01@@Z 0000000180062290 f i GuCCDSweepPrimitives.obj
 0001:00062910       ??$gjkRaycast@U?$RelativeConvex@VCapsuleV@Gu@physx@@@Gu@physx@@U?$LocalConvex@VBoxV@Gu@physx@@@23@@Gu@physx@@YA_NAEBU?$RelativeConvex@VCapsuleV@Gu@physx@@@01@AEBU?$LocalConvex@VBoxV@Gu@physx@@@01@AEBT__m128@@222AEAT4@33M@Z 0000000180063910 f i GuCCDSweepPrimitives.obj
 0001:00063570       ??$gjkRaycast@U?$RelativeConvex@VCapsuleV@Gu@physx@@@Gu@physx@@U?$LocalConvex@VCapsuleV@Gu@physx@@@23@@Gu@physx@@YA_NAEBU?$RelativeConvex@VCapsuleV@Gu@physx@@@01@AEBU?$LocalConvex@VCapsuleV@Gu@physx@@@01@AEBT__m128@@222AEAT4@33M@Z 0000000180064570 f i GuCCDSweepPrimitives.obj
 0001:00064250       ??$gjkRaycast@U?$RelativeConvex@VCapsuleV@Gu@physx@@@Gu@physx@@U?$LocalConvex@VConvexHullV@Gu@physx@@@23@@Gu@physx@@YA_NAEBU?$RelativeConvex@VCapsuleV@Gu@physx@@@01@AEBU?$LocalConvex@VConvexHullV@Gu@physx@@@01@AEBT__m128@@222AEAT4@33M@Z 0000000180065250 f i GuCCDSweepPrimitives.obj
 0001:000650b0       ??$gjkRaycast@U?$RelativeConvex@VTriangleV@Gu@physx@@@Gu@physx@@U?$LocalConvex@VBoxV@Gu@physx@@@23@@Gu@physx@@YA_NAEBU?$RelativeConvex@VTriangleV@Gu@physx@@@01@AEBU?$LocalConvex@VBoxV@Gu@physx@@@01@AEBT__m128@@222AEAT4@33M@Z 00000001800660b0 f i GuCCDSweepPrimitives.obj
 0001:00065dd0       ??$gjkRaycast@U?$RelativeConvex@VTriangleV@Gu@physx@@@Gu@physx@@U?$LocalConvex@VCapsuleV@Gu@physx@@@23@@Gu@physx@@YA_NAEBU?$RelativeConvex@VTriangleV@Gu@physx@@@01@AEBU?$LocalConvex@VCapsuleV@Gu@physx@@@01@AEBT__m128@@222AEAT4@33M@Z 0000000180066dd0 f i GuCCDSweepPrimitives.obj
 0001:00066b40       ??$gjkRaycast@U?$RelativeConvex@VTriangleV@Gu@physx@@@Gu@physx@@U?$LocalConvex@VConvexHullV@Gu@physx@@@23@@Gu@physx@@YA_NAEBU?$RelativeConvex@VTriangleV@Gu@physx@@@01@AEBU?$LocalConvex@VConvexHullV@Gu@physx@@@01@AEBT__m128@@222AEAT4@33M@Z 0000000180067b40 f i GuCCDSweepPrimitives.obj
 0001:00067a30       ??$gjkRaycastPenetration@U?$RelativeConvex@VCapsuleV@Gu@physx@@@Gu@physx@@U?$LocalConvex@VBoxV@Gu@physx@@@23@@Gu@physx@@YA_NAEBU?$RelativeConvex@VCapsuleV@Gu@physx@@@01@AEBU?$LocalConvex@VBoxV@Gu@physx@@@01@AEBT__m128@@222AEAT4@33M_N@Z 0000000180068a30 f i GuCCDSweepPrimitives.obj
 0001:00067cb0       ??$gjkRaycastPenetration@U?$RelativeConvex@VCapsuleV@Gu@physx@@@Gu@physx@@U?$LocalConvex@VCapsuleV@Gu@physx@@@23@@Gu@physx@@YA_NAEBU?$RelativeConvex@VCapsuleV@Gu@physx@@@01@AEBU?$LocalConvex@VCapsuleV@Gu@physx@@@01@AEBT__m128@@222AEAT4@33M_N@Z 0000000180068cb0 f i GuCCDSweepPrimitives.obj
 0001:00067f30       ??$gjkRaycastPenetration@U?$RelativeConvex@VCapsuleV@Gu@physx@@@Gu@physx@@U?$LocalConvex@VConvexHullV@Gu@physx@@@23@@Gu@physx@@YA_NAEBU?$RelativeConvex@VCapsuleV@Gu@physx@@@01@AEBU?$LocalConvex@VConvexHullV@Gu@physx@@@01@AEBT__m128@@222AEAT4@33M_N@Z 0000000180068f30 f i GuCCDSweepPrimitives.obj
 0001:000681b0       ??$gjkRaycastPenetration@U?$RelativeConvex@VTriangleV@Gu@physx@@@Gu@physx@@U?$LocalConvex@VBoxV@Gu@physx@@@23@@Gu@physx@@YA_NAEBU?$RelativeConvex@VTriangleV@Gu@physx@@@01@AEBU?$LocalConvex@VBoxV@Gu@physx@@@01@AEBT__m128@@222AEAT4@33M_N@Z 00000001800691b0 f i GuCCDSweepPrimitives.obj
 0001:00068430       ??$gjkRaycastPenetration@U?$RelativeConvex@VTriangleV@Gu@physx@@@Gu@physx@@U?$LocalConvex@VCapsuleV@Gu@physx@@@23@@Gu@physx@@YA_NAEBU?$RelativeConvex@VTriangleV@Gu@physx@@@01@AEBU?$LocalConvex@VCapsuleV@Gu@physx@@@01@AEBT__m128@@222AEAT4@33M_N@Z 0000000180069430 f i GuCCDSweepPrimitives.obj
 0001:000686b0       ??$gjkRaycastPenetration@U?$RelativeConvex@VTriangleV@Gu@physx@@@Gu@physx@@U?$LocalConvex@VConvexHullV@Gu@physx@@@23@@Gu@physx@@YA_NAEBU?$RelativeConvex@VTriangleV@Gu@physx@@@01@AEBU?$LocalConvex@VConvexHullV@Gu@physx@@@01@AEBT__m128@@222AEAT4@33M_N@Z 00000001800696b0 f i GuCCDSweepPrimitives.obj
 0001:00068930       ?barycentricCoordinates@Gu@physx@@YAXAEBT__m128@@00AEAT3@@Z 0000000180069930 f   GuBarycentricCoordinates.obj
 0001:000689a0       ?barycentricCoordinates@Gu@physx@@YAXAEBT__m128@@000AEAT3@1@Z 00000001800699a0 f   GuBarycentricCoordinates.obj
 0001:00068af0       ?barycentricCoordinates@Gu@physx@@YAXAEBT__m128@@00AEAT3@1@Z 0000000180069af0 f   GuBarycentricCoordinates.obj
 0001:00068be0       ?addAxis@SeparatingAxes@Gu@physx@@QEAA_NAEBVPxVec3@3@@Z 0000000180069be0 f   GuSeparatingAxes.obj
 0001:00068ca0       ?contactBoxBox@Gu@physx@@YA_NAEBVGeometryUnion@12@0AEBVPxTransform@2@1AEBUNarrowPhaseParams@12@AEAUCache@12@AEAVContactBuffer@12@PEAVRenderOutput@Cm@2@@Z 0000000180069ca0 f   GuContactBoxBox.obj
 0001:00068f90       ??0VertexInfo@@QEAA@XZ     0000000180069f90 f i GuContactBoxBox.obj
 0001:0006b970       ?contactCapsuleBox@Gu@physx@@YA_NAEBVGeometryUnion@12@0AEBVPxTransform@2@1AEBUNarrowPhaseParams@12@AEAUCache@12@AEAVContactBuffer@12@PEAVRenderOutput@Cm@2@@Z 000000018006c970 f   GuContactCapsuleBox.obj
 0001:0006d720       ?contactCapsuleCapsule@Gu@physx@@YA_NAEBVGeometryUnion@12@0AEBVPxTransform@2@1AEBUNarrowPhaseParams@12@AEAUCache@12@AEAVContactBuffer@12@PEAVRenderOutput@Cm@2@@Z 000000018006e720 f   GuContactCapsuleCapsule.obj
 0001:0006e0e0       ??0Segment@Gu@physx@@QEAA@XZ 000000018006f0e0 f i GuContactCapsuleCapsule.obj
 0001:0006e0f0       ??1Segment@Gu@physx@@QEAA@XZ 000000018006f0f0 f i GuContactCapsuleCapsule.obj
 0001:0006e100       ?contactCapsuleConvex@Gu@physx@@YA_NAEBVGeometryUnion@12@0AEBVPxTransform@2@1AEBUNarrowPhaseParams@12@AEAUCache@12@AEAVContactBuffer@12@PEAVRenderOutput@Cm@2@@Z 000000018006f100 f   GuContactCapsuleConvex.obj
 0001:0006ef20       ??0ConvexEdge@Gu@physx@@QEAA@XZ 000000018006ff20 f i GuContactCapsuleConvex.obj
 0001:00070e90       ?contactCapsuleMesh@Gu@physx@@YA_NAEBVGeometryUnion@12@0AEBVPxTransform@2@1AEBUNarrowPhaseParams@12@AEAUCache@12@AEAVContactBuffer@12@PEAVRenderOutput@Cm@2@@Z 0000000180071e90 f   GuContactCapsuleMesh.obj
 0001:000713d0       ?contactCapsuleHeightfield@Gu@physx@@YA_NAEBVGeometryUnion@12@0AEBVPxTransform@2@1AEBUNarrowPhaseParams@12@AEAUCache@12@AEAVContactBuffer@12@PEAVRenderOutput@Cm@2@@Z 00000001800723d0 f   GuContactCapsuleMesh.obj
 0001:00073c30       ?transformFast@PxBounds3@physx@@SA?AV12@AEBVPxTransform@2@AEBV12@@Z 0000000180074c30 f i GuContactCapsuleMesh.obj
 0001:00074010       ?transformQueryBounds@FastVertex2ShapeScaling@Cm@physx@@QEBAXAEAVPxVec3@3@0AEAVPxMat33@3@@Z 0000000180075010 f i GuContactCapsuleMesh.obj
 0001:00074250       ?contactBoxConvex@Gu@physx@@YA_NAEBVGeometryUnion@12@0AEBVPxTransform@2@1AEBUNarrowPhaseParams@12@AEAUCache@12@AEAVContactBuffer@12@PEAVRenderOutput@Cm@2@@Z 0000000180075250 f   GuContactConvexConvex.obj
 0001:000743f0       ?contactConvexConvex@Gu@physx@@YA_NAEBVGeometryUnion@12@0AEBVPxTransform@2@1AEBUNarrowPhaseParams@12@AEAUCache@12@AEAVContactBuffer@12@PEAVRenderOutput@Cm@2@@Z 00000001800753f0 f   GuContactConvexConvex.obj
 0001:000788b0       ?transformPlaneToShapeSpace@FastVertex2ShapeScaling@Cm@physx@@QEBAXAEBVPxVec3@3@MAEAV43@AEAM@Z 00000001800798b0 f i GuContactConvexConvex.obj
 0001:000789a0       ?contactBoxMesh@Gu@physx@@YA_NAEBVGeometryUnion@12@0AEBVPxTransform@2@1AEBUNarrowPhaseParams@12@AEAUCache@12@AEAVContactBuffer@12@PEAVRenderOutput@Cm@2@@Z 00000001800799a0 f   GuContactConvexMesh.obj
 0001:00078b60       ?contactConvexMesh@Gu@physx@@YA_NAEBVGeometryUnion@12@0AEBVPxTransform@2@1AEBUNarrowPhaseParams@12@AEAUCache@12@AEAVContactBuffer@12@PEAVRenderOutput@Cm@2@@Z 0000000180079b60 f   GuContactConvexMesh.obj
 0001:00078d10       ?contactBoxHeightfield@Gu@physx@@YA_NAEBVGeometryUnion@12@0AEBVPxTransform@2@1AEBUNarrowPhaseParams@12@AEAUCache@12@AEAVContactBuffer@12@PEAVRenderOutput@Cm@2@@Z 0000000180079d10 f   GuContactConvexMesh.obj
 0001:00078e70       ?contactConvexHeightfield@Gu@physx@@YA_NAEBVGeometryUnion@12@0AEBVPxTransform@2@1AEBUNarrowPhaseParams@12@AEAUCache@12@AEAVContactBuffer@12@PEAVRenderOutput@Cm@2@@Z 0000000180079e70 f   GuContactConvexMesh.obj
 0001:00078fa0       ??0?$CacheMap@UCachedEdge@Gu@physx@@$0IA@@Gu@physx@@QEAA@XZ 0000000180079fa0 f i GuContactConvexMesh.obj
 0001:00079060       ??0?$CacheMap@UCachedVertex@Gu@physx@@$0IA@@Gu@physx@@QEAA@XZ 000000018007a060 f i GuContactConvexMesh.obj
 0001:00079120       ??0CachedEdge@Gu@physx@@QEAA@XZ 000000018007a120 f i GuContactConvexMesh.obj
 0001:00079130       ??0CachedVertex@Gu@physx@@QEAA@XZ 000000018007a130 f i GuContactConvexMesh.obj
 0001:00079650       ??_EConvexMeshContactGenerationCallback@@UEAAPEAXI@Z 000000018007a650 f i GuContactConvexMesh.obj
 0001:00079650       ??_GConvexMeshContactGenerationCallback@@UEAAPEAXI@Z 000000018007a650 f i GuContactConvexMesh.obj
 0001:000796b0       ?addData@?$CacheMap@UCachedEdge@Gu@physx@@$0IA@@Gu@physx@@QEAA_NAEBUCachedEdge@23@@Z 000000018007a6b0 f i GuContactConvexMesh.obj
 0001:00079790       ?addData@?$CacheMap@UCachedVertex@Gu@physx@@$0IA@@Gu@physx@@QEAA_NAEBUCachedVertex@23@@Z 000000018007a790 f i GuContactConvexMesh.obj
 0001:0007d080       ?processHit@ConvexMeshContactGenerationCallback@@UEAA_NAEBUPxRaycastHit@physx@@AEBVPxVec3@3@11AEAMPEBI@Z 000000018007e080 f i GuContactConvexMesh.obj
 0001:0007d950       ?recreate@?$Array@IV?$InlineAllocator@$0BBAA@V?$ReflectionAllocator@I@shdfnd@physx@@@shdfnd@physx@@@shdfnd@physx@@IEAAXI@Z 000000018007e950 f i GuContactConvexMesh.obj
 0001:0007e980       ?contactPlaneBox@Gu@physx@@YA_NAEBVGeometryUnion@12@0AEBVPxTransform@2@1AEBUNarrowPhaseParams@12@AEAUCache@12@AEAVContactBuffer@12@PEAVRenderOutput@Cm@2@@Z 000000018007f980 f   GuContactPlaneBox.obj
 0001:0007f570       ?contactPlaneCapsule@Gu@physx@@YA_NAEBVGeometryUnion@12@0AEBVPxTransform@2@1AEBUNarrowPhaseParams@12@AEAUCache@12@AEAVContactBuffer@12@PEAVRenderOutput@Cm@2@@Z 0000000180080570 f   GuContactPlaneCapsule.obj
 0001:0007fb80       ?contactPlaneConvex@Gu@physx@@YA_NAEBVGeometryUnion@12@0AEBVPxTransform@2@1AEBUNarrowPhaseParams@12@AEAUCache@12@AEAVContactBuffer@12@PEAVRenderOutput@Cm@2@@Z 0000000180080b80 f   GuContactPlaneConvex.obj
 0001:000804b0       ?findRotationMatrixFromZ@Gu@physx@@YA?AVPxMat33@2@AEBVPxVec3@2@@Z 00000001800814b0 f   GuContactPolygonPolygon.obj
 0001:000806f0       ?contactPolygonPolygonExt@Gu@physx@@YA_NIPEBVPxVec3@2@PEBEAEBVMatrix34@Cm@2@AEBVPxPlane@2@AEBVPxMat33@2@I01234AEBV32@22IIAEAVContactBuffer@12@_N5M@Z 00000001800816f0 f   GuContactPolygonPolygon.obj
 0001:00083b00       ?contactSphereBox@Gu@physx@@YA_NAEBVGeometryUnion@12@0AEBVPxTransform@2@1AEBUNarrowPhaseParams@12@AEAUCache@12@AEAVContactBuffer@12@PEAVRenderOutput@Cm@2@@Z 0000000180084b00 f   GuContactSphereBox.obj
 0001:000840e0       ?contactSphereCapsule@Gu@physx@@YA_NAEBVGeometryUnion@12@0AEBVPxTransform@2@1AEBUNarrowPhaseParams@12@AEAUCache@12@AEAVContactBuffer@12@PEAVRenderOutput@Cm@2@@Z 00000001800850e0 f   GuContactSphereCapsule.obj
 0001:00084480       ?contactSphereMesh@Gu@physx@@YA_NAEBVGeometryUnion@12@0AEBVPxTransform@2@1AEBUNarrowPhaseParams@12@AEAUCache@12@AEAVContactBuffer@12@PEAVRenderOutput@Cm@2@@Z 0000000180085480 f   GuContactSphereMesh.obj
 0001:000855d0       ?contactSphereHeightfield@Gu@physx@@YA_NAEBVGeometryUnion@12@0AEBVPxTransform@2@1AEBUNarrowPhaseParams@12@AEAUCache@12@AEAVContactBuffer@12@PEAVRenderOutput@Cm@2@@Z 00000001800865d0 f   GuContactSphereMesh.obj
 0001:00086380       ??0TriangleData@@QEAA@XZ   0000000180087380 f i GuContactSphereMesh.obj
 0001:00087b70       ?contactSpherePlane@Gu@physx@@YA_NAEBVGeometryUnion@12@0AEBVPxTransform@2@1AEBUNarrowPhaseParams@12@AEAUCache@12@AEAVContactBuffer@12@PEAVRenderOutput@Cm@2@@Z 0000000180088b70 f   GuContactSpherePlane.obj
 0001:00087d70       ?contactSphereSphere@Gu@physx@@YA_NAEBVGeometryUnion@12@0AEBVPxTransform@2@1AEBUNarrowPhaseParams@12@AEAUCache@12@AEAVContactBuffer@12@PEAVRenderOutput@Cm@2@@Z 0000000180088d70 f   GuContactSphereSphere.obj
 0001:00087ee0       ?selectNormal@Gu@physx@@YA_NEMM@Z 0000000180088ee0 f   GuFeatureCode.obj
 0001:00087f60       ??0BigConvexData@physx@@QEAA@XZ 0000000180088f60 f   GuBigConvexData.obj
 0001:00087f90       ??1BigConvexData@physx@@QEAA@XZ 0000000180088f90 f   GuBigConvexData.obj
 0001:00088020       ?Load@BigConvexData@physx@@QEAA_NAEAVPxInputStream@2@@Z 0000000180089020 f   GuBigConvexData.obj
 0001:00088140       ?ComputeOffset@BigConvexData@physx@@QEBAIAEBVPxVec3@2@@Z 0000000180089140 f   GuBigConvexData.obj
 0001:00088240       ?ComputeNearestOffset@BigConvexData@physx@@QEBAIAEBVPxVec3@2@@Z 0000000180089240 f   GuBigConvexData.obj
 0001:00088350       ?exportExtraData@BigConvexData@physx@@QEAAXAEAVPxSerializationContext@2@@Z 0000000180089350 f   GuBigConvexData.obj
 0001:000883d0       ?importExtraData@BigConvexData@physx@@QEAAXAEAVPxDeserializationContext@2@@Z 00000001800893d0 f   GuBigConvexData.obj
 0001:00088450       ?CreateOffsets@BigConvexData@physx@@IEAAXXZ 0000000180089450 f   GuBigConvexData.obj
 0001:000884a0       ?VLoad@BigConvexData@physx@@IEAA_NAEAVPxInputStream@2@@Z 00000001800894a0 f   GuBigConvexData.obj
 0001:00088640       ?getScaledConvex@Gu@physx@@YAXAEAPEAVPxVec3@2@AEAPEAEPEAV32@PEAE_NPEBV32@PEBEIAEBVFastVertex2ShapeScaling@Cm@2@@Z 0000000180089640 f   GuConvexHelper.obj
 0001:00088780       ?getConvexData@Gu@physx@@YA_NAEBVGeometryUnion@12@AEAVFastVertex2ShapeScaling@Cm@2@AEAVPxBounds3@2@AEAUPolygonalData@12@@Z 0000000180089780 f   GuConvexHelper.obj
 0001:00088a00       ?findUniqueConvexEdges@Gu@physx@@YAIIPEIAUConvexEdge@12@IPEIBUHullPolygonData@12@PEIBE@Z 0000000180089a00 f   GuConvexHelper.obj
 0001:00088b40       ?exportExtraData@ConvexMesh@Gu@physx@@UEAAXAEAVPxSerializationContext@3@@Z 0000000180089b40 f   GuConvexMesh.obj
 0001:00088c10       ?importExtraData@ConvexMesh@Gu@physx@@QEAAXAEAVPxDeserializationContext@3@@Z 0000000180089c10 f   GuConvexMesh.obj
 0001:00088cd0       ?onRefCountZero@ConvexMesh@Gu@physx@@UEAAXXZ 0000000180089cd0 f   GuConvexMesh.obj
 0001:00088dc0       ?createObject@ConvexMesh@Gu@physx@@SAPEAV123@AEAPEAEAEAVPxDeserializationContext@3@@Z 0000000180089dc0 f   GuConvexMesh.obj
 0001:00088e30       ??0ConvexMesh@Gu@physx@@QEAA@XZ 0000000180089e30 f   GuConvexMesh.obj
 0001:00088ef0       ??0ConvexMesh@Gu@physx@@QEAA@AEAVGuMeshFactory@2@AEAUConvexHullInitData@12@@Z 0000000180089ef0 f   GuConvexMesh.obj
 0001:00089030       ?load@ConvexMesh@Gu@physx@@QEAA_NAEAVPxInputStream@3@@Z 000000018008a030 f   GuConvexMesh.obj
 0001:000892e0       ?release@ConvexMesh@Gu@physx@@UEAAXXZ 000000018008a2e0 f   GuConvexMesh.obj
 0001:00089320       ?getPolygonData@ConvexMesh@Gu@physx@@UEBA_NIAEAUPxHullPolygon@3@@Z 000000018008a320 f   GuConvexMesh.obj
 0001:00089370       ?isGpuCompatible@ConvexMesh@Gu@physx@@UEBA_NXZ 000000018008a370 f   GuConvexMesh.obj
 0001:000893a0       ?getReferenceCount@ConvexMesh@Gu@physx@@UEBAIXZ 000000018008a3a0 f   GuConvexMesh.obj
 0001:000893b0       ?acquireReference@ConvexMesh@Gu@physx@@UEAAXXZ 000000018008a3b0 f   GuConvexMesh.obj
 0001:000893d0       ?getMassInformation@ConvexMesh@Gu@physx@@UEBAXAEAMAEAVPxMat33@3@AEAVPxVec3@3@@Z 000000018008a3d0 f   GuConvexMesh.obj
 0001:00089450       ?getLocalBounds@ConvexMesh@Gu@physx@@UEBA?AVPxBounds3@3@XZ 000000018008a450 f   GuConvexMesh.obj
 0001:000894e0       ??1ConvexMesh@Gu@physx@@UEAA@XZ 000000018008a4e0 f   GuConvexMesh.obj
 0001:00089580       ??_EConvexMesh@Gu@physx@@UEAAPEAXI@Z 000000018008a580 f i GuConvexMesh.obj
 0001:00089690       ??_EConvexMesh@Gu@physx@@WBA@EAAPEAXI@Z 000000018008a690 f i GuConvexMesh.obj
 0001:000896a0       ??_EPxConvexMesh@physx@@MEAAPEAXI@Z 000000018008a6a0 f i GuConvexMesh.obj
 0001:00089bf0       ?requiresObjects@ConvexMesh@Gu@physx@@UEAAXAEAVPxProcessPxBaseCallback@3@@Z 000000018008abf0 f i GuConvexMesh.obj
 0001:00089c00       ?computeHullOBB@Gu@physx@@YAXAEAVBox@12@AEBVPxBounds3@2@MAEBVMatrix34@Cm@2@2AEBVFastVertex2ShapeScaling@62@_N@Z 000000018008ac00 f   GuConvexUtilsInternal.obj
 0001:0008a0c0       ?computeVertexSpaceOBB@Gu@physx@@YAXAEAVBox@12@AEBV312@AEBVPxTransform@2@AEBVPxMeshScale@2@@Z 000000018008b0c0 f   GuConvexUtilsInternal.obj
 0001:0008a480       ?computeOBBAroundConvex@Gu@physx@@YAXAEAVBox@12@AEBVPxConvexMeshGeometry@2@PEBVPxConvexMesh@2@AEBVPxTransform@2@@Z 000000018008b480 f   GuConvexUtilsInternal.obj
 0001:0008ad90       ??Dphysx@@YA?AVMatrix34@Cm@0@AEBVPxMeshScale@0@AEBV120@@Z 000000018008bd90 f i GuConvexUtilsInternal.obj
 0001:0008b360       ?transform@physx@@YA?AVBox@Gu@1@AEBVMatrix34@Cm@1@AEBV231@@Z 000000018008c360 f i GuConvexUtilsInternal.obj
 0001:0008b5b0       ?localSearch@physx@@YAXAEAIAEBVPxVec3@1@PEBV21@PEBUBigConvexRawData@Gu@1@@Z 000000018008c5b0 f   GuHillClimbing.obj
 0001:0008b6e0       ??0PolygonalBox@Gu@physx@@QEAA@AEBVPxVec3@2@@Z 000000018008c6e0 f   GuShapeConvex.obj
 0001:0008b8b0       ?getPolygonalData@PolygonalBox@Gu@physx@@QEBAXPEIAUPolygonalData@23@@Z 000000018008c8b0 f   GuShapeConvex.obj
 0001:0008b920       ?getPolygonalData_Convex@Gu@physx@@YAXPEIAUPolygonalData@12@PEIBUConvexHullData@12@AEBVFastVertex2ShapeScaling@Cm@2@@Z 000000018008c920 f   GuShapeConvex.obj
 0001:0008cdb0       ??0HullPolygonData@Gu@physx@@QEAA@XZ 000000018008ddb0 f i GuShapeConvex.obj
 0001:0008cdc0       ?distancePointBoxSquared@Gu@physx@@YAMAEBVPxVec3@2@00AEBVPxMat33@2@PEAV32@@Z 000000018008ddc0 f   GuDistancePointBox.obj
 0001:0008cf10       ?closestPtPointTriangle@Gu@physx@@YA?AVPxVec3@2@AEBV32@000AEAM1@Z 000000018008df10 f   GuDistancePointTriangle.obj
 0001:0008d430       ?distancePointTriangleSquared@Gu@physx@@YA?AT__m128@@AEBT3@000AEAT3@11@Z 000000018008e430 f   GuDistancePointTriangle.obj
 0001:0008d830       ?distanceSegmentBoxSquared@Gu@physx@@YAMAEBVPxVec3@2@000AEBVPxMat33@2@PEAMPEAV32@@Z 000000018008e830 f   GuDistanceSegmentBox.obj
 0001:0008e9f0       ?distanceSegmentSegmentSquared@Gu@physx@@YAMAEBVPxVec3@2@0M00MPEAM1@Z 000000018008f9f0 f   GuDistanceSegmentSegment.obj
 0001:0008f140       ?distanceSegmentSegmentSquared@Gu@physx@@YAMAEBVPxVec3@2@000PEAM1@Z 0000000180090140 f   GuDistanceSegmentSegment.obj
 0001:0008f3e0       ?distanceSegmentSegmentSquared@Gu@physx@@YA?AT__m128@@AEBT3@000AEAT3@1@Z 00000001800903e0 f   GuDistanceSegmentSegment.obj
 0001:0008f5b0       ?distanceSegmentSegmentSquared4@Gu@physx@@YA?AT__m128@@AEBT3@000000000AEAT3@1@Z 00000001800905b0 f   GuDistanceSegmentSegment.obj
 0001:0008f8d0       ?distanceSegmentTriangleSquared@Gu@physx@@YAMAEBVPxVec3@2@0000PEAM11@Z 00000001800908d0 f   GuDistanceSegmentTriangle.obj
 0001:00090f60       ?distanceSegmentTriangleSquared@Gu@physx@@YA?AT__m128@@AEBT3@0000AEAT3@1@Z 0000000180091f60 f   GuDistanceSegmentTriangle.obj
 0001:000916a0       ?epaPenetration@Gu@physx@@YA?AW4GjkStatus@12@AEBUGjkConvex@12@0PEIBE1E_NT__m128@@AEAUGjkOutput@12@@Z 00000001800926a0 f   GuEPA.obj
 0001:00091810       ?isValid2@Facet@Gu@physx@@QEAA?AT__m128@@IIIPEIBT4@0AEBT4@@Z 0000000180092810 f   GuEPA.obj
 0001:00091900       ?silhouette@Facet@Gu@physx@@QEAAXAEBT__m128@@PEIBT4@1AEAVEdgeBuffer@23@AEAV?$InlineDeferredIDPool@$0EA@@Cm@3@@Z 0000000180092900 f   GuEPA.obj
 0001:00091ac0       ?PenetrationDepth@EPA@Gu@physx@@QEAA?AW4GjkStatus@23@AEBUGjkConvex@23@0PEIBT__m128@@1E_NT6@AEAUGjkOutput@23@@Z 0000000180092ac0 f   GuEPA.obj
 0001:00092420       ?expandPoint@EPA@Gu@physx@@QEAA_NAEBUGjkConvex@23@0AEAHAEBT__m128@@@Z 0000000180093420 f   GuEPA.obj
 0001:00092540       ?expandSegment@EPA@Gu@physx@@QEAA_NAEBUGjkConvex@23@0AEAHAEBT__m128@@@Z 0000000180093540 f   GuEPA.obj
 0001:000926f0       ?expandTriangle@EPA@Gu@physx@@QEAA_NAEAHAEBT__m128@@@Z 00000001800936f0 f   GuEPA.obj
 0001:000927a0       ?addFacet@EPA@Gu@physx@@QEAAPEAVFacet@23@IIIAEBT__m128@@@Z 00000001800937a0 f   GuEPA.obj
 0001:00092970       ??0Edge@Gu@physx@@QEAA@XZ  0000000180093970 f i GuEPA.obj
 0001:00092980       ??0Facet@Gu@physx@@QEAA@XZ 0000000180093980 f i GuEPA.obj
 0001:00092c10       ?closestPtPointTetrahedron@Gu@physx@@YA?AT__m128@@PEIAT3@00AEAI@Z 0000000180093c10 f   GuGJKSimplex.obj
 0001:00093390       ?closestPtPointTetrahedron@Gu@physx@@YA?AT__m128@@PEIAT3@00PEIAH1AEAI@Z 0000000180094390 f   GuGJKSimplex.obj
 0001:00094e40       ?testGjk@Gu@physx@@YA?AW4GjkStatus@12@AEAUGjkConvex@12@0AEBT__m128@@1AEAT5@222@Z 0000000180095e40 f   GuGJKTest.obj
 0001:00094e50       ?testGjkPenetration@Gu@physx@@YA?AW4GjkStatus@12@AEAUGjkConvex@12@0AEBT__m128@@1PEAE2AEAEAEAUGjkOutput@12@@Z 0000000180095e50 f   GuGJKTest.obj
 0001:00094ea0       ?testEpaPenetration@Gu@physx@@YA?AW4GjkStatus@12@AEAUGjkConvex@12@0PEBE1EAEAUGjkOutput@12@@Z 0000000180095ea0 f   GuGJKTest.obj
 0001:00094ef0       ?testGjkRaycast@Gu@physx@@YA_NAEAUGjkConvex@12@0AEBT__m128@@111AEAT4@22M@Z 0000000180095ef0 f   GuGJKTest.obj
 0001:00094f00       ??$gjk@UGjkConvex@Gu@physx@@U123@@Gu@physx@@YA?AW4GjkStatus@01@AEBUGjkConvex@01@0AEBT__m128@@1AEAT4@222@Z 0000000180095f00 f i GuGJKTest.obj
 0001:00095ab0       ??$gjkPenetration@UGjkConvex@Gu@physx@@U123@@Gu@physx@@YA?AW4GjkStatus@01@AEBUGjkConvex@01@0AEBT__m128@@1_NPEIAE3AEAEAEAUGjkOutput@01@@Z 0000000180096ab0 f i GuGJKTest.obj
 0001:00096f20       ??$gjkRaycast@UGjkConvex@Gu@physx@@U123@@Gu@physx@@YA_NAEBUGjkConvex@01@0AEBT__m128@@111AEAT3@22M@Z 0000000180097f20 f i GuGJKTest.obj
 0001:00097ac0       ?exportExtraData@HeightField@Gu@physx@@UEAAXAEAVPxSerializationContext@3@@Z 0000000180098ac0 f   GuHeightField.obj
 0001:00097b20       ?importExtraData@HeightField@Gu@physx@@QEAAXAEAVPxDeserializationContext@3@@Z 0000000180098b20 f   GuHeightField.obj
 0001:00097b50       ?createObject@HeightField@Gu@physx@@SAPEAV123@AEAPEAEAEAVPxDeserializationContext@3@@Z 0000000180098b50 f   GuHeightField.obj
 0001:00097bc0       ??0HeightField@Gu@physx@@QEAA@PEAVGuMeshFactory@2@@Z 0000000180098bc0 f   GuHeightField.obj
 0001:00097c40       ??0HeightField@Gu@physx@@QEAA@AEAVGuMeshFactory@2@AEAUHeightFieldData@12@@Z 0000000180098c40 f   GuHeightField.obj
 0001:00097d20       ?release@HeightField@Gu@physx@@UEAAXXZ 0000000180098d20 f   GuHeightField.obj
 0001:00097d60       ?saveCells@HeightField@Gu@physx@@UEBAIPEAXI@Z 0000000180098d60 f   GuHeightField.obj
 0001:00097da0       ?modifySamples@HeightField@Gu@physx@@UEAA_NHHAEBVPxHeightFieldDesc@3@_N@Z 0000000180098da0 f   GuHeightField.obj
 0001:00098110       ?acquireReference@HeightField@Gu@physx@@UEAAXXZ 0000000180099110 f   GuHeightField.obj
 0001:00098130       ?getReferenceCount@HeightField@Gu@physx@@UEBAIXZ 0000000180099130 f   GuHeightField.obj
 0001:00098140       ?onRefCountZero@HeightField@Gu@physx@@UEAAXXZ 0000000180099140 f   GuHeightField.obj
 0001:000981e0       ?loadFromDesc@HeightField@Gu@physx@@QEAA_NAEBVPxHeightFieldDesc@3@@Z 00000001800991e0 f   GuHeightField.obj
 0001:00098410       ?load@HeightField@Gu@physx@@QEAA_NAEAVPxInputStream@3@@Z 0000000180099410 f   GuHeightField.obj
 0001:00098790       ?computeCellCoordinates@HeightField@Gu@physx@@QEBAIMMAEAM0@Z 0000000180099790 f   GuHeightField.obj
 0001:000988a0       ?isSolidVertex@HeightField@Gu@physx@@QEBA_NIIIGAEA_N@Z 00000001800998a0 f   GuHeightField.obj
 0001:00098a30       ?isCollisionVertexPreca@HeightField@Gu@physx@@QEBA_NIIIG@Z 0000000180099a30 f   GuHeightField.obj
 0001:00098ad0       ?parseTrianglesForCollisionVertices@HeightField@Gu@physx@@QEAAXG@Z 0000000180099ad0 f   GuHeightField.obj
 0001:00098fc0       ?releaseMemory@HeightField@Gu@physx@@QEAAXXZ 0000000180099fc0 f   GuHeightField.obj
 0001:00099010       ??1HeightField@Gu@physx@@UEAA@XZ 000000018009a010 f   GuHeightField.obj
 0001:00099090       ?getVertexEdgeIndices@physx@@YAIAEBVHeightField@Gu@1@IIIQEAUEdgeData@1@@Z 000000018009a090 f   GuHeightField.obj
 0001:00099280       ?getEdgeTriangleIndices@physx@@YAIAEBVHeightField@Gu@1@AEBUEdgeData@1@PEIAI@Z 000000018009a280 f   GuHeightField.obj
 0001:000993b0       ??0?$BitMapBase@VNonTrackingAllocator@shdfnd@physx@@@Cm@physx@@QEAA@XZ 000000018009a3b0 f i GuHeightField.obj
 0001:000993c0       ??1?$BitMapBase@VNonTrackingAllocator@shdfnd@physx@@@Cm@physx@@QEAA@XZ 000000018009a3c0 f i GuHeightField.obj
 0001:00099420       ??_EHeightField@Gu@physx@@UEAAPEAXI@Z 000000018009a420 f i GuHeightField.obj
 0001:0009959c       ??_EHeightField@Gu@physx@@WBA@EAAPEAXI@Z 000000018009a59c f i GuHeightField.obj
 0001:000995b0       ??_EPxHeightField@physx@@MEAAPEAXI@Z 000000018009a5b0 f i GuHeightField.obj
 0001:00099640       ?isConvexVertex@HeightField@Gu@physx@@QEBA_NIII@Z 000000018009a640 f i GuHeightField.obj
 0001:00099710       ?requiresObjects@HeightField@Gu@physx@@UEAAXAEAVPxProcessPxBaseCallback@3@@Z 000000018009a710 f i GuHeightField.obj
 0001:00099720       ?resizeAndClear@?$BitMapBase@VNonTrackingAllocator@shdfnd@physx@@@Cm@physx@@QEAAXI@Z 000000018009a720 f i GuHeightField.obj
 0001:000997e0       ?computeLocalBounds@HeightFieldUtil@Gu@physx@@QEBAXAEAVPxBounds3@3@@Z 000000018009a7e0 f   GuHeightFieldUtil.obj
 0001:000998b0       ?getFaceIndexAtShapePoint@HeightFieldUtil@Gu@physx@@QEBAIMM@Z 000000018009a8b0 f   GuHeightFieldUtil.obj
 0001:000999d0       ?getVertexNormal@HeightFieldUtil@Gu@physx@@QEBA?AVPxVec3@3@III@Z 000000018009a9d0 f   GuHeightFieldUtil.obj
 0001:00099d20       ?getVertexFaceIndex@HeightFieldUtil@Gu@physx@@QEBAIIII@Z 000000018009ad20 f   GuHeightFieldUtil.obj
 0001:00099f70       ?getEdge@HeightFieldUtil@Gu@physx@@QEBAXIIIIAEAVPxVec3@3@0@Z 000000018009af70 f   GuHeightFieldUtil.obj
 0001:0009a1b0       ?getEdgeFaceIndex@HeightFieldUtil@Gu@physx@@QEBAII@Z 000000018009b1b0 f   GuHeightFieldUtil.obj
 0001:0009a3a0       ?getEdgeFaceIndex@HeightFieldUtil@Gu@physx@@QEBAIIIII@Z 000000018009b3a0 f   GuHeightFieldUtil.obj
 0001:0009a550       ?getEdgeFaceIndex@HeightFieldUtil@Gu@physx@@QEBAIIIPEIBI@Z 000000018009b550 f   GuHeightFieldUtil.obj
 0001:0009a5f0       ?findClosestPointsOnCell@HeightFieldUtil@Gu@physx@@QEBAIIIVPxVec3@3@PEIAV43@PEIAI_N33@Z 000000018009b5f0 f   GuHeightFieldUtil.obj
 0001:0009ad80       ?findProjectionOnTriangle@HeightFieldUtil@Gu@physx@@QEBA_NIIIAEBVPxVec3@3@AEAV43@@Z 000000018009bd80 f   GuHeightFieldUtil.obj
 0001:0009b030       ?findClosestPointOnEdge@HeightFieldUtil@Gu@physx@@QEBAMIIIIAEBVPxVec3@3@AEAV43@@Z 000000018009c030 f   GuHeightFieldUtil.obj
 0001:0009b320       ?getTriangle@HeightFieldUtil@Gu@physx@@QEBAIAEBVPxTransform@3@AEAVPxTriangle@3@PEAI2I_N3@Z 000000018009c320 f   GuHeightFieldUtil.obj
 0001:0009be00       ?overlapAABBTriangles@HeightFieldUtil@Gu@physx@@QEBA_NAEBVPxTransform@3@AEBVPxBounds3@3@IPEAV?$EntityReport@I@23@@Z 000000018009ce00 f   GuHeightFieldUtil.obj
 0001:0009c430       ?getTriangleAdjacencyIndices@HeightField@Gu@physx@@QEBAXIIIIAEAI00@Z 000000018009d430 f i GuHeightFieldUtil.obj
 0001:0009c610       ?getTriangleNormalInternal@HeightField@Gu@physx@@QEBA?AVPxVec3@3@I@Z 000000018009d610 f i GuHeightFieldUtil.obj
 0001:0009c760       ?getTriangleVertexIndices@HeightField@Gu@physx@@QEBAXIAEAI00@Z 000000018009d760 f i GuHeightFieldUtil.obj
 0001:0009c820       ?checkOverlapAABB_heightFieldGeom@Gu@physx@@YA_NAEBVPxGeometry@2@AEBVPxTransform@2@AEBVPxBounds3@2@@Z 000000018009d820 f   GuOverlapTestsHF.obj
 0001:0009cca0       ?GeomOverlapCallback_SphereHeightfield@@YA_NAEBVPxGeometry@physx@@AEBVPxTransform@2@01PEAUTriggerCache@Gu@2@@Z 000000018009dca0 f   GuOverlapTestsHF.obj
 0001:0009ce80       ?GeomOverlapCallback_CapsuleHeightfield@@YA_NAEBVPxGeometry@physx@@AEBVPxTransform@2@01PEAUTriggerCache@Gu@2@@Z 000000018009de80 f   GuOverlapTestsHF.obj
 0001:0009d0c0       ?GeomOverlapCallback_BoxHeightfield@@YA_NAEBVPxGeometry@physx@@AEBVPxTransform@2@01PEAUTriggerCache@Gu@2@@Z 000000018009e0c0 f   GuOverlapTestsHF.obj
 0001:0009d3e0       ?GeomOverlapCallback_ConvexHeightfield@@YA_NAEBVPxGeometry@physx@@AEBVPxTransform@2@01PEAUTriggerCache@Gu@2@@Z 000000018009e3e0 f   GuOverlapTestsHF.obj
 0001:0009d450       ??$traceSegment@UTriggerTraceSegmentCallback@Gu@physx@@$0A@$0A@@HeightFieldTraceUtil@Gu@physx@@QEBAXAEBVPxVec3@2@0MPEAUTriggerTraceSegmentCallback@12@AEBVPxBounds3@2@_NPEBV32@@Z 000000018009e450 f i GuOverlapTestsHF.obj
 0001:000a1280       ?sweepCapsule_HeightFieldGeom@@YA_NAEBVPxGeometry@physx@@AEBVPxTransform@2@AEBVPxCapsuleGeometry@2@1AEBVCapsule@Gu@2@AEBVPxVec3@2@MAEAUPxSweepHit@2@V?$PxFlags@W4Enum@PxHitFlag@physx@@G@2@M@Z 00000001800a2280 f   GuSweepsHF.obj
 0001:000a1c10       ?sweepConvex_HeightFieldGeom@@YA_NAEBVPxGeometry@physx@@AEBVPxTransform@2@AEBVPxConvexMeshGeometry@2@1AEBVPxVec3@2@MAEAUPxSweepHit@2@V?$PxFlags@W4Enum@PxHitFlag@physx@@G@2@M@Z 00000001800a2c10 f   GuSweepsHF.obj
 0001:000a2660       ?sweepBox_HeightFieldGeom@@YA_NAEBVPxGeometry@physx@@AEBVPxTransform@2@AEBVPxBoxGeometry@2@1AEBVBox@Gu@2@AEBVPxVec3@2@MAEAUPxSweepHit@2@V?$PxFlags@W4Enum@PxHitFlag@physx@@G@2@M@Z 00000001800a3660 f   GuSweepsHF.obj
 0001:000a34d0       ??$gjkPenetration@U?$LocalConvex@VTriangleV@Gu@physx@@@Gu@physx@@U?$LocalConvex@VConvexHullV@Gu@physx@@@23@@Gu@physx@@YA?AW4GjkStatus@01@AEBU?$LocalConvex@VTriangleV@Gu@physx@@@01@AEBU?$LocalConvex@VConvexHullV@Gu@physx@@@01@AEBT__m128@@2_NPEIAE4AEAEAEAUGjkOutput@01@@Z 00000001800a44d0 f i GuSweepsHF.obj
 0001:000a4ab0       ??$gjkRaycast@U?$LocalConvex@VTriangleV@Gu@physx@@@Gu@physx@@U?$LocalConvex@VConvexHullV@Gu@physx@@@23@@Gu@physx@@YA_NAEBU?$LocalConvex@VTriangleV@Gu@physx@@@01@AEBU?$LocalConvex@VConvexHullV@Gu@physx@@@01@AEBT__m128@@222AEAT4@33M@Z 00000001800a5ab0 f i GuSweepsHF.obj
 0001:000a5890       ??$gjkRaycastPenetration@U?$LocalConvex@VTriangleV@Gu@physx@@@Gu@physx@@U?$LocalConvex@VConvexHullV@Gu@physx@@@23@@Gu@physx@@YA_NAEBU?$LocalConvex@VTriangleV@Gu@physx@@@01@AEBU?$LocalConvex@VConvexHullV@Gu@physx@@@01@AEBT__m128@@222AEAT4@33M_N@Z 00000001800a6890 f i GuSweepsHF.obj
 0001:000a5ac0       ??$traceSegment@VBoxTraceSegmentReport@@$0A@$00@HeightFieldTraceUtil@Gu@physx@@QEBAXAEBVPxVec3@2@0MPEAVBoxTraceSegmentReport@@AEBVPxBounds3@2@_NPEBV32@@Z 00000001800a6ac0 f i GuSweepsHF.obj
 0001:000a64e0       ??$traceSegment@VCapsuleTraceSegmentReport@@$0A@$00@HeightFieldTraceUtil@Gu@physx@@QEBAXAEBVPxVec3@2@0MPEAVCapsuleTraceSegmentReport@@AEBVPxBounds3@2@_NPEBV32@@Z 00000001800a74e0 f i GuSweepsHF.obj
 0001:000a6f00       ??$traceSegment@VConvexTraceSegmentReport@@$0A@$00@HeightFieldTraceUtil@Gu@physx@@QEBAXAEBVPxVec3@2@0MPEAVConvexTraceSegmentReport@@AEBVPxBounds3@2@_NPEBV32@@Z 00000001800a7f00 f i GuSweepsHF.obj
 0001:000a7920       ??0ConvexTraceSegmentReport@@QEAA@AEBVHeightFieldUtil@Gu@physx@@AEBUConvexHullData@23@AEBVPxMeshScale@3@AEBVPxTransform@3@3AEBVPxVec3@3@MV?$PxFlags@W4Enum@PxHitFlag@physx@@G@3@M@Z 00000001800a8920 f i GuSweepsHF.obj
 0001:000a8320       ??_EBoxTraceSegmentReport@@UEAAPEAXI@Z 00000001800a9320 f i GuSweepsHF.obj
 0001:000a8320       ??_GBoxTraceSegmentReport@@UEAAPEAXI@Z 00000001800a9320 f i GuSweepsHF.obj
 0001:000a8350       ??_ECapsuleTraceSegmentReport@@UEAAPEAXI@Z 00000001800a9350 f i GuSweepsHF.obj
 0001:000a8350       ??_GCapsuleTraceSegmentReport@@UEAAPEAXI@Z 00000001800a9350 f i GuSweepsHF.obj
 0001:000a8380       ??_GConvexTraceSegmentReport@@UEAAPEAXI@Z 00000001800a9380 f i GuSweepsHF.obj
 0001:000a8380       ??_EConvexTraceSegmentReport@@UEAAPEAXI@Z 00000001800a9380 f i GuSweepsHF.obj
 0001:000a83b0       ??_GHeightFieldTraceSegmentReport@@UEAAPEAXI@Z 00000001800a93b0 f i GuSweepsHF.obj
 0001:000a83b0       ??_EHeightFieldTraceSegmentReport@@UEAAPEAXI@Z 00000001800a93b0 f i GuSweepsHF.obj
 0001:000a83e0       ?finalizeHit@ConvexTraceSegmentReport@@QEAA_NAEAUPxSweepHit@physx@@AEBVPxHeightFieldGeometry@3@AEBVPxTransform@3@AEBVPxConvexMeshGeometry@3@2AEBVPxVec3@3@M@Z 00000001800a93e0 f i GuSweepsHF.obj
 0001:000a8630       ?onEvent@BoxTraceSegmentReport@@UEAA_NIPEAI@Z 00000001800a9630 f i GuSweepsHF.obj
 0001:000a8aa0       ?onEvent@CapsuleTraceSegmentReport@@UEAA_NIPEAI@Z 00000001800a9aa0 f i GuSweepsHF.obj
 0001:000a8cd0       ?onEvent@ConvexTraceSegmentReport@@UEAA_NIPEAI@Z 00000001800a9cd0 f i GuSweepsHF.obj
 0001:000a9290       ?prepare@?$OverlapTraceSegment@VBoxTraceSegmentReport@@@HeightFieldTraceUtil@Gu@physx@@QEAAXAEBVPxVec3@4@00AEAM1@Z 00000001800aa290 f i GuSweepsHF.obj
 0001:000a9530       ?prepare@?$OverlapTraceSegment@VCapsuleTraceSegmentReport@@@HeightFieldTraceUtil@Gu@physx@@QEAAXAEBVPxVec3@4@00AEAM1@Z 00000001800aa530 f i GuSweepsHF.obj
 0001:000a97d0       ?prepare@?$OverlapTraceSegment@VConvexTraceSegmentReport@@@HeightFieldTraceUtil@Gu@physx@@QEAAXAEBVPxVec3@4@00AEAM1@Z 00000001800aa7d0 f i GuSweepsHF.obj
 0001:000a9a70       ?testVertexIndex@?$OverlapTraceSegment@VBoxTraceSegmentReport@@@HeightFieldTraceUtil@Gu@physx@@QEAA_NI@Z 00000001800aaa70 f i GuSweepsHF.obj
 0001:000a9bc0       ?testVertexIndex@?$OverlapTraceSegment@VCapsuleTraceSegmentReport@@@HeightFieldTraceUtil@Gu@physx@@QEAA_NI@Z 00000001800aabc0 f i GuSweepsHF.obj
 0001:000a9d10       ?testVertexIndex@?$OverlapTraceSegment@VConvexTraceSegmentReport@@@HeightFieldTraceUtil@Gu@physx@@QEAA_NI@Z 00000001800aad10 f i GuSweepsHF.obj
 0001:000a9e60       ?intersectOBBOBB@Gu@physx@@YA_NAEBVPxVec3@2@0AEBVPxMat33@2@001_N@Z 00000001800aae60 f   GuIntersectionBoxBox.obj
 0001:000aa4c0       ?intersectCapsuleTriangle@Gu@physx@@YA_NAEBVPxVec3@2@000AEBVCapsule@12@AEBUCapsuleTriangleOverlapData@12@@Z 00000001800ab4c0 f   GuIntersectionCapsuleTriangle.obj
 0001:000ab050       ?intersectEdgeEdge@Gu@physx@@YA_NAEBVPxVec3@2@0000AEAMAEAV32@@Z 00000001800ac050 f   GuIntersectionEdgeEdge.obj
 0001:000ab380       ?rayAABBIntersect@Gu@physx@@YA_NAEBVPxVec3@2@000AEAV32@@Z 00000001800ac380 f   GuIntersectionRayBox.obj
 0001:000ab590       ?rayAABBIntersect2@Gu@physx@@YAIAEBVPxVec3@2@000AEAV32@AEAM@Z 00000001800ac590 f   GuIntersectionRayBox.obj
 0001:000ab7b0       ?intersectRayAABB@Gu@physx@@YAHAEBVPxVec3@2@000AEAM1@Z 00000001800ac7b0 f   GuIntersectionRayBox.obj
 0001:000ab8e0       ?intersectRayAABB@Gu@physx@@YAHAEBVPxVec3@2@0000AEAM1@Z 00000001800ac8e0 f   GuIntersectionRayBox.obj
 0001:000abae0       ?intersectRayAABB2@Gu@physx@@YA_NAEBVPxVec3@2@000MAEAM1@Z 00000001800acae0 f   GuIntersectionRayBox.obj
 0001:000abc90       ?intersectRayAABB2@Gu@physx@@YA_NAEBT__m128@@0000AEAT3@1@Z 00000001800acc90 f   GuIntersectionRayBox.obj
 0001:000abd50       ?intersectRayCapsuleInternal@Gu@physx@@YAIAEBVPxVec3@2@000MQEAM@Z 00000001800acd50 f   GuIntersectionRayCapsule.obj
 0001:000ac5e0       ?intersectRaySphereBasic@Gu@physx@@YA_NAEBVPxVec3@2@0M0MAEAMPEAV32@@Z 00000001800ad5e0 f   GuIntersectionRaySphere.obj
 0001:000ac740       ?intersectRaySphere@Gu@physx@@YA_NAEBVPxVec3@2@0M0MAEAMPEAV32@@Z 00000001800ad740 f   GuIntersectionRaySphere.obj
 0001:000ac830       ?intersectSphereBox@Gu@physx@@YA_NAEBVSphere@12@AEBVBox@12@@Z 00000001800ad830 f   GuIntersectionSphereBox.obj
 0001:000aca60       ?intersectTriangleBox_ReferenceCode@Gu@physx@@YAHAEBVPxVec3@2@0000@Z 00000001800ada60 f   GuIntersectionTriangleBox.obj
 0001:000ad2d0       ?intersectTriangleBox_Unsafe@Gu@physx@@YAHAEBVPxVec3@2@0000@Z 00000001800ae2d0 f   GuIntersectionTriangleBox.obj
 0001:000ad6b0       ?intersectTriangleBox@Gu@physx@@YAHAEBVBoxPadded@12@AEBVPxVec3@2@11@Z 00000001800ae6b0 f   GuIntersectionTriangleBox.obj
 0001:000adc90       ?intersectTriangleBoxBV4@@YAHAEBVPxVec3@physx@@00AEBVPxMat33@2@00@Z 00000001800aec90 f   GuIntersectionTriangleBox.obj
 0001:000ae0d0       ??0SourceMeshBase@Gu@physx@@QEAA@XZ 00000001800af0d0 f   GuBV4.obj
 0001:000ae0f0       ??1SourceMeshBase@Gu@physx@@QEAA@XZ 00000001800af0f0 f   GuBV4.obj
 0001:000ae150       ??0SourceMesh@Gu@physx@@QEAA@XZ 00000001800af150 f   GuBV4.obj
 0001:000ae180       ??1SourceMesh@Gu@physx@@QEAA@XZ 00000001800af180 f   GuBV4.obj
 0001:000ae1e0       ?reset@SourceMesh@Gu@physx@@QEAAXXZ 00000001800af1e0 f   GuBV4.obj
 0001:000ae200       ??4SourceMesh@Gu@physx@@QEAAXAEAV012@@Z 00000001800af200 f   GuBV4.obj
 0001:000ae250       ?remapTopology@SourceMesh@Gu@physx@@QEAAXPEBI@Z 00000001800af250 f   GuBV4.obj
 0001:000ae520       ?isValid@SourceMesh@Gu@physx@@QEBA_NXZ 00000001800af520 f   GuBV4.obj
 0001:000ae550       ??0BV4Tree@Gu@physx@@QEAA@W4PxEMPTY@2@@Z 00000001800af550 f   GuBV4.obj
 0001:000ae560       ?exportExtraData@BV4Tree@Gu@physx@@QEAAXAEAVPxSerializationContext@3@@Z 00000001800af560 f   GuBV4.obj
 0001:000ae5b0       ?importExtraData@BV4Tree@Gu@physx@@QEAAXAEAVPxDeserializationContext@3@@Z 00000001800af5b0 f   GuBV4.obj
 0001:000ae5e0       ??0BV4Tree@Gu@physx@@QEAA@XZ 00000001800af5e0 f   GuBV4.obj
 0001:000ae620       ??0BV4Tree@Gu@physx@@QEAA@PEAVSourceMesh@12@AEBVPxBounds3@2@@Z 00000001800af620 f   GuBV4.obj
 0001:000ae6f0       ??1BV4Tree@Gu@physx@@QEAA@XZ 00000001800af6f0 f   GuBV4.obj
 0001:000ae750       ?load@BV4Tree@Gu@physx@@QEAA_NAEAVPxInputStream@3@_N@Z 00000001800af750 f   GuBV4.obj
 0001:000ae970       ?reset@BV4Tree@Gu@physx@@QEAAXXZ 00000001800af970 f   GuBV4.obj
 0001:000ae9a0       ??4BV4Tree@Gu@physx@@QEAAXAEAV012@@Z 00000001800af9a0 f   GuBV4.obj
 0001:000aea30       ?init@BV4Tree@Gu@physx@@QEAA_NPEAVSourceMesh@23@AEBVPxBounds3@3@@Z 00000001800afa30 f   GuBV4.obj
 0001:000aead0       ?release@BV4Tree@Gu@physx@@QEAAXXZ 00000001800afad0 f   GuBV4.obj
 0001:000aeb30       ?refit@BV4Tree@Gu@physx@@QEAAXM@Z 00000001800afb30 f   GuBV4.obj
 0001:000aeb40       ??0IndTri16@Gu@physx@@QEAA@XZ 00000001800afb40 f i GuBV4.obj
 0001:000aeb50       ??0IndTri32@Gu@physx@@QEAA@XZ 00000001800afb50 f i GuBV4.obj
 0001:000aeb60       ??1IndTri16@Gu@physx@@QEAA@XZ 00000001800afb60 f i GuBV4.obj
 0001:000aeb70       ??1IndTri32@Gu@physx@@QEAA@XZ 00000001800afb70 f i GuBV4.obj
 0001:000aeb80       ??_EIndTri16@Gu@physx@@QEAAPEAXI@Z 00000001800afb80 f i GuBV4.obj
 0001:000aec00       ??_EIndTri32@Gu@physx@@QEAAPEAXI@Z 00000001800afc00 f i GuBV4.obj
 0001:000aec80       ??0AABBTree@Gu@physx@@QEAA@XZ 00000001800afc80 f   GuBV4Build.obj
 0001:000aeca0       ??1AABBTree@Gu@physx@@QEAA@XZ 00000001800afca0 f   GuBV4Build.obj
 0001:000aecb0       ?buildFromMesh@AABBTree@Gu@physx@@QEAA_NAEAVSourceMesh@23@I@Z 00000001800afcb0 f   GuBV4Build.obj
 0001:000af0d0       ?release@AABBTree@Gu@physx@@QEAAXXZ 00000001800b00d0 f   GuBV4Build.obj
 0001:000af180       ?walk@AABBTree@Gu@physx@@QEBAIP6A_NPEBVAABBTreeNode@23@IPEAX@Z1@Z 00000001800b0180 f   GuBV4Build.obj
 0001:000af240       ?BuildBV4Ex@Gu@physx@@YA_NAEAVBV4Tree@12@AEAVSourceMesh@12@MI@Z 00000001800b0240 f   GuBV4Build.obj
 0001:000af5b0       ??0BVData@@QEAA@XZ         00000001800b05b0 f   GuBV4Build.obj
 0001:000af5f0       ??1BV4BuildParams@@QEAA@XZ 00000001800b05f0 f   GuBV4Build.obj
 0001:000af600       ?allocateNode@BV4BuildParams@@QEAAPEAUBV4Node@@XZ 00000001800b0600 f   GuBV4Build.obj
 0001:000af720       ?releaseNodes@BV4BuildParams@@QEAAXXZ 00000001800b0720 f   GuBV4Build.obj
 0001:000af7e0       ??0AABBTreeNode@Gu@physx@@QEAA@XZ 00000001800b07e0 f i GuBV4Build.obj
 0001:000af800       ??0BV4Node@@QEAA@XZ        00000001800b0800 f i GuBV4Build.obj
 0001:000af8b0       ??1AABBTreeNode@Gu@physx@@QEAA@XZ 00000001800b08b0 f i GuBV4Build.obj
 0001:000af8c0       ??1BV4Node@@QEAA@XZ        00000001800b08c0 f i GuBV4Build.obj
 0001:000af8d0       ??1BVData@@QEAA@XZ         00000001800b08d0 f i GuBV4Build.obj
 0001:000af8e0       ??_EAABBTreeNode@Gu@physx@@QEAAPEAXI@Z 00000001800b08e0 f i GuBV4Build.obj
 0001:000b1500       ?Sweep_AABB_BV4@@YAHAEBVBox@Gu@physx@@AEBVPxVec3@3@MAEBVBV4Tree@23@PEIAVSweepHit@23@I@Z 00000001800b2500 f   GuBV4_AABBSweep.obj
 0001:000b1a50       ?Sweep_AABB_BV4_CB@@YAXAEBVBox@Gu@physx@@AEBVPxVec3@3@MAEBVBV4Tree@23@PEIBVPxMat44@3@P6A_NPEAXAEBVSweepHit@23@@Z4I_N@Z 00000001800b2a50 f   GuBV4_AABBSweep.obj
 0001:000b1bf0       ?GenericSweep_AABB_CB@@YAXAEBVBox@Gu@physx@@AEBVPxVec3@3@MAEBVBV4Tree@23@P6A_NPEAX111IAEAM@Z3I@Z 00000001800b2bf0 f   GuBV4_AABBSweep.obj
 0001:000b8aa0       ?transform@PxMat44@physx@@QEBA?BVPxVec4@2@AEBV32@@Z 00000001800b9aa0 f i GuBV4_AABBSweep.obj
 0001:000b9790       ?BV4_OverlapBoxAny@@YAHAEBVBox@Gu@physx@@AEBVBV4Tree@23@PEIBVPxMat44@3@@Z 00000001800ba790 f   GuBV4_BoxOverlap.obj
 0001:000b9f50       ?BV4_OverlapBoxAll@@YAIAEBVBox@Gu@physx@@AEBVBV4Tree@23@PEIBVPxMat44@3@PEAIIAEA_N@Z 00000001800baf50 f   GuBV4_BoxOverlap.obj
 0001:000ba760       ?BV4_OverlapBoxCB@@YAXAEBVBox@Gu@physx@@AEBVBV4Tree@23@P6A_NPEAXAEBVPxVec3@3@33IPEBI@Z2@Z 00000001800bb760 f   GuBV4_BoxOverlap.obj
 0001:000bac20       ?BV4_OverlapCapsuleAny@@YAHAEBVCapsule@Gu@physx@@AEBVBV4Tree@23@PEIBVPxMat44@3@@Z 00000001800bbc20 f   GuBV4_BoxOverlap.obj
 0001:000bb2b0       ?BV4_OverlapCapsuleAll@@YAIAEBVCapsule@Gu@physx@@AEBVBV4Tree@23@PEIBVPxMat44@3@PEAIIAEA_N@Z 00000001800bc2b0 f   GuBV4_BoxOverlap.obj
 0001:000bb9b0       ?BV4_OverlapCapsuleCB@@YAXAEBVCapsule@Gu@physx@@AEBVBV4Tree@23@PEIBVPxMat44@3@P6A_NPEAXAEBVPxVec3@3@44IPEBI@Z3@Z 00000001800bc9b0 f   GuBV4_BoxOverlap.obj
 0001:000c0280       ?BV4_CapsuleSweepSingle@@YAHAEBVCapsule@Gu@physx@@AEBVPxVec3@3@MAEBVBV4Tree@23@PEIAVSweepHit@23@I@Z 00000001800c1280 f   GuBV4_CapsuleSweep.obj
 0001:000c0870       ?BV4_CapsuleSweepCB@@YAXAEBVCapsule@Gu@physx@@AEBVPxVec3@3@MAEBVBV4Tree@23@PEIBVPxMat44@3@P6A_NPEAXAEBVSweepHit@23@@Z4I_N@Z 00000001800c1870 f   GuBV4_CapsuleSweep.obj
 0001:000c7730       ?transform@PxMat44@physx@@QEBA?BVPxVec3@2@AEBV32@@Z 00000001800c8730 f i GuBV4_CapsuleSweep.obj
 0001:000c8550       ?BV4_CapsuleSweepSingleAA@@YAHAEBVCapsule@Gu@physx@@AEBVPxVec3@3@MAEBVBV4Tree@23@PEIAVSweepHit@23@I@Z 00000001800c9550 f   GuBV4_CapsuleSweepAA.obj
 0001:000cb590       ?Sweep_OBB_BV4@@YAHAEBVBox@Gu@physx@@AEBVPxVec3@3@MAEBVBV4Tree@23@PEIAVSweepHit@23@I@Z 00000001800cc590 f   GuBV4_OBBSweep.obj
 0001:000cbae0       ?Sweep_OBB_BV4_CB@@YAXAEBVBox@Gu@physx@@AEBVPxVec3@3@MAEBVBV4Tree@23@PEIBVPxMat44@3@P6A_NPEAXAEBVSweepHit@23@@Z4I_N@Z 00000001800ccae0 f   GuBV4_OBBSweep.obj
 0001:000cbc50       ?GenericSweep_OBB_CB@@YAXAEBVBox@Gu@physx@@AEBVPxVec3@3@MAEBVBV4Tree@23@P6A_NPEAX111IAEAM@Z3I@Z 00000001800ccc50 f   GuBV4_OBBSweep.obj
 0001:000cbd40       ?BV4_BoxSweepSingle@@YAHAEBVBox@Gu@physx@@AEBVPxVec3@3@MAEBVBV4Tree@23@PEIBVPxMat44@3@PEIAVSweepHit@23@I@Z 00000001800ccd40 f   GuBV4_OBBSweep.obj
 0001:000cc470       ?BV4_BoxSweepCB@@YAXAEBVBox@Gu@physx@@AEBVPxVec3@3@MAEBVBV4Tree@23@PEIBVPxMat44@3@P6A_NPEAXAEBVSweepHit@23@@Z4I_N@Z 00000001800cd470 f   GuBV4_OBBSweep.obj
 0001:000cccd0       ?BV4_GenericSweepCB@@YAXAEBVBox@Gu@physx@@AEBVPxVec3@3@MAEBVBV4Tree@23@P6A_NPEAX111IAEAM@Z3_N@Z 00000001800cdcd0 f   GuBV4_OBBSweep.obj
 0001:000d41e0       ??DPxMat33@physx@@QEBA?BVPxVec3@1@AEBV21@@Z 00000001800d51e0 f i GuBV4_OBBSweep.obj
 0001:000d5a80       ?BV4_RaycastSingle@@YAHAEBVPxVec3@physx@@0AEBVBV4Tree@Gu@2@PEIBVPxMat44@2@PEIAUPxRaycastHit@2@MMIV?$PxFlags@W4Enum@PxHitFlag@physx@@G@2@@Z 00000001800d6a80 f   GuBV4_Raycast.obj
 0001:000d5fe0       ?BV4_RaycastCB@@YAXAEBVPxVec3@physx@@0AEBVBV4Tree@Gu@2@PEIBVPxMat44@2@MMIP6A?AW4HitCode@42@PEAX000IMMM@Z3@Z 00000001800d6fe0 f   GuBV4_Raycast.obj
 0001:000d6400       ?BV4_RaycastAll@@YAIAEBVPxVec3@physx@@0AEBVBV4Tree@Gu@2@PEIBVPxMat44@2@PEIAUPxRaycastHit@2@IMMIV?$PxFlags@W4Enum@PxHitFlag@physx@@G@2@@Z 00000001800d7400 f   GuBV4_Raycast.obj
 0001:000d78d0       ??$doBruteForceTests@VLeafFunction_RaycastAny@?A0xa4e169ff@@VLeafFunction_RaycastClosest@2@URayParams@@@Gu@physx@@YAXIPEIAURayParams@@@Z 00000001800d88d0 f i GuBV4_Raycast.obj
 0001:000d8d60       ?BV4_OverlapSphereAny@@YAHAEBVSphere@Gu@physx@@AEBVBV4Tree@23@PEIBVPxMat44@3@@Z 00000001800d9d60 f   GuBV4_SphereOverlap.obj
 0001:000d9010       ?BV4_OverlapSphereAll@@YAIAEBVSphere@Gu@physx@@AEBVBV4Tree@23@PEIBVPxMat44@3@PEAIIAEA_N@Z 00000001800da010 f   GuBV4_SphereOverlap.obj
 0001:000d9320       ?BV4_OverlapSphereCB@@YAXAEBVSphere@Gu@physx@@AEBVBV4Tree@23@PEIBVPxMat44@3@P6A_NPEAXAEBVPxVec3@3@44IPEBI@Z3@Z 00000001800da320 f   GuBV4_SphereOverlap.obj
 0001:000dc2c0       ?BV4_SphereSweepSingle@@YAHAEBVSphere@Gu@physx@@AEBVPxVec3@3@MAEBVBV4Tree@23@PEIBVPxMat44@3@PEIAVSweepHit@23@I@Z 00000001800dd2c0 f   GuBV4_SphereSweep.obj
 0001:000dc9b0       ?BV4_SphereSweepCB@@YAXAEBVSphere@Gu@physx@@AEBVPxVec3@3@MAEBVBV4Tree@23@PEIBVPxMat44@3@P6A_NPEAXAEBVSweepHit@23@@Z4I_N@Z 00000001800dd9b0 f   GuBV4_SphereSweep.obj
 0001:000dcda0       ?BV4_GenericSweepCB_Old@@YAXAEBVPxVec3@physx@@00MAEBVBV4Tree@Gu@2@PEIBVPxMat44@2@P6A_NPEAX000IAEAM@Z3@Z 00000001800ddda0 f   GuBV4_SphereSweep.obj
 0001:000e1a70       ?raycast_triangleMesh_BV4@Gu@physx@@YAIPEBVTriangleMesh@12@AEBVPxTriangleMeshGeometry@2@AEBVPxTransform@2@AEBVPxVec3@2@3MV?$PxFlags@W4Enum@PxHitFlag@physx@@G@2@IPEIAUPxRaycastHit@2@@Z 00000001800e2a70 f   GuMidphaseBV4.obj
 0001:000e28b0       ?intersectSphereVsMesh_BV4@Gu@physx@@YA_NAEBVSphere@12@AEBVTriangleMesh@12@AEBVPxTransform@2@AEBVPxMeshScale@2@PEAULimitedResults@12@@Z 00000001800e38b0 f   GuMidphaseBV4.obj
 0001:000e2ff0       ?intersectBoxVsMesh_BV4@Gu@physx@@YA_NAEBVBox@12@AEBVTriangleMesh@12@AEBVPxTransform@2@AEBVPxMeshScale@2@PEAULimitedResults@12@@Z 00000001800e3ff0 f   GuMidphaseBV4.obj
 0001:000e3b10       ?intersectCapsuleVsMesh_BV4@Gu@physx@@YA_NAEBVCapsule@12@AEBVTriangleMesh@12@AEBVPxTransform@2@AEBVPxMeshScale@2@PEAULimitedResults@12@@Z 00000001800e4b10 f   GuMidphaseBV4.obj
 0001:000e4350       ?intersectOBB_BV4@Gu@physx@@YAXPEBVTriangleMesh@12@AEBVBox@12@AEAU?$MeshHitCallback@UPxRaycastHit@physx@@@12@_N3@Z 00000001800e5350 f   GuMidphaseBV4.obj
 0001:000e4380       ?sweepCapsule_MeshGeom_BV4@Gu@physx@@YA_NPEBVTriangleMesh@12@AEBVPxTriangleMeshGeometry@2@AEBVPxTransform@2@AEBVCapsule@12@AEBVPxVec3@2@MAEAUPxSweepHit@2@V?$PxFlags@W4Enum@PxHitFlag@physx@@G@2@M@Z 00000001800e5380 f   GuMidphaseBV4.obj
 0001:000e4ea0       ?sweepBox_MeshGeom_BV4@Gu@physx@@YA_NPEBVTriangleMesh@12@AEBVPxTriangleMeshGeometry@2@AEBVPxTransform@2@AEBVBox@12@AEBVPxVec3@2@MAEAUPxSweepHit@2@V?$PxFlags@W4Enum@PxHitFlag@physx@@G@2@M@Z 00000001800e5ea0 f   GuMidphaseBV4.obj
 0001:000e65f0       ?sweepConvex_MeshGeom_BV4@Gu@physx@@YAXPEBVTriangleMesh@12@AEBVBox@12@AEBVPxVec3@2@MAEAUSweepConvexMeshHitCallback@12@_N@Z 00000001800e75f0 f   GuMidphaseBV4.obj
 0001:000e7760       ??1SweepBoxMeshHitCallback@Gu@physx@@UEAA@XZ 00000001800e8760 f i GuMidphaseBV4.obj
 0001:000e7f80       ?computeSweepData@physx@@YAMAEBVPxTriangleMeshGeometry@1@AEAVPxVec3@1@11M@Z 00000001800e8f80 f i GuMidphaseBV4.obj
 0001:000e8310       ?transform@PxMeshScale@physx@@QEBA?AVPxVec3@2@AEBV32@@Z 00000001800e9310 f i GuMidphaseBV4.obj
 0001:000e8550       ?getTriangle@PxMeshQuery@physx@@SAXAEBVPxTriangleMeshGeometry@2@AEBVPxTransform@2@IAEAVPxTriangle@2@PEAI3@Z 00000001800e9550 f   GuMeshQuery.obj
 0001:000e8910       ?getTriangle@PxMeshQuery@physx@@SAXAEBVPxHeightFieldGeometry@2@AEBVPxTransform@2@IAEAVPxTriangle@2@PEAI3@Z 00000001800e9910 f   GuMeshQuery.obj
 0001:000e8990       ?findOverlapTriangleMesh@PxMeshQuery@physx@@SAIAEBVPxGeometry@2@AEBVPxTransform@2@AEBVPxTriangleMeshGeometry@2@1PEAIIIAEA_N@Z 00000001800e9990 f   GuMeshQuery.obj
 0001:000e8ca0       ?findOverlapHeightField@PxMeshQuery@physx@@SAIAEBVPxGeometry@2@AEBVPxTransform@2@AEBVPxHeightFieldGeometry@2@1PEAIIIAEA_N@Z 00000001800e9ca0 f   GuMeshQuery.obj
 0001:000e93a0       ?sweep@PxMeshQuery@physx@@SA_NAEBVPxVec3@2@MAEBVPxGeometry@2@AEBVPxTransform@2@IPEBVPxTriangle@2@AEAUPxSweepHit@2@V?$PxFlags@W4Enum@PxHitFlag@physx@@G@2@PEBIM_N@Z 00000001800ea3a0 f   GuMeshQuery.obj
 0001:000e97a0       ?raycast_triangleMesh_RTREE@Gu@physx@@YAIPEBVTriangleMesh@12@AEBVPxTriangleMeshGeometry@2@AEBVPxTransform@2@AEBVPxVec3@2@3MV?$PxFlags@W4Enum@PxHitFlag@physx@@G@2@IPEIAUPxRaycastHit@2@@Z 00000001800ea7a0 f   GuMidphaseRTree.obj
 0001:000e9f40       ?intersectSphereVsMesh_RTREE@Gu@physx@@YA_NAEBVSphere@12@AEBVTriangleMesh@12@AEBVPxTransform@2@AEBVPxMeshScale@2@PEAULimitedResults@12@@Z 00000001800eaf40 f   GuMidphaseRTree.obj
 0001:000e9f70       ?intersectBoxVsMesh_RTREE@Gu@physx@@YA_NAEBVBox@12@AEBVTriangleMesh@12@AEBVPxTransform@2@AEBVPxMeshScale@2@PEAULimitedResults@12@@Z 00000001800eaf70 f   GuMidphaseRTree.obj
 0001:000e9ff0       ?intersectCapsuleVsMesh_RTREE@Gu@physx@@YA_NAEBVCapsule@12@AEBVTriangleMesh@12@AEBVPxTransform@2@AEBVPxMeshScale@2@PEAULimitedResults@12@@Z 00000001800eaff0 f   GuMidphaseRTree.obj
 0001:000ea070       ?intersectOBB_RTREE@Gu@physx@@YAXPEBVTriangleMesh@12@AEBVBox@12@AEAU?$MeshHitCallback@UPxRaycastHit@physx@@@12@_N3@Z 00000001800eb070 f   GuMidphaseRTree.obj
 0001:000ea0a0       ?sweepCapsule_MeshGeom_RTREE@Gu@physx@@YA_NPEBVTriangleMesh@12@AEBVPxTriangleMeshGeometry@2@AEBVPxTransform@2@AEBVCapsule@12@AEBVPxVec3@2@MAEAUPxSweepHit@2@V?$PxFlags@W4Enum@PxHitFlag@physx@@G@2@M@Z 00000001800eb0a0 f   GuMidphaseRTree.obj
 0001:000ea8a0       ?sweepBox_MeshGeom_RTREE@Gu@physx@@YA_NPEBVTriangleMesh@12@AEBVPxTriangleMeshGeometry@2@AEBVPxTransform@2@AEBVBox@12@AEBVPxVec3@2@MAEAUPxSweepHit@2@V?$PxFlags@W4Enum@PxHitFlag@physx@@G@2@M@Z 00000001800eb8a0 f   GuMidphaseRTree.obj
 0001:000ebe00       ?sweepConvex_MeshGeom_RTREE@Gu@physx@@YAXPEBVTriangleMesh@12@AEBVBox@12@AEBVPxVec3@2@MAEAUSweepConvexMeshHitCallback@12@_N@Z 00000001800ece00 f   GuMidphaseRTree.obj
 0001:000ebe60       ?collideOBB@MeshRayCollider@@SAXAEBVBox@Gu@physx@@_NPEBVRTreeTriangleMesh@34@AEAU?$MeshHitCallback@UPxRaycastHit@physx@@@34@1@Z 00000001800ece60 f   GuMidphaseRTree.obj
 0001:000ec130       ??$collide@$00$00@MeshRayCollider@@SAXAEBVPxVec3@physx@@0M_NPEBVRTreeTriangleMesh@Gu@2@AEAU?$MeshHitCallback@UPxRaycastHit@physx@@@42@PEBV12@@Z 00000001800ed130 f i GuMidphaseRTree.obj
 0001:000ec4b0       ??$collide@$00$0A@@MeshRayCollider@@SAXAEBVPxVec3@physx@@0M_NPEBVRTreeTriangleMesh@Gu@2@AEAU?$MeshHitCallback@UPxRaycastHit@physx@@@42@PEBV12@@Z 00000001800ed4b0 f i GuMidphaseRTree.obj
 0001:000ec6f0       ??$collide@$0A@$00@MeshRayCollider@@SAXAEBVPxVec3@physx@@0M_NPEBVRTreeTriangleMesh@Gu@2@AEAU?$MeshHitCallback@UPxRaycastHit@physx@@@42@PEBV12@@Z 00000001800ed6f0 f i GuMidphaseRTree.obj
 0001:000eca90       ??$collide@$0A@$0A@@MeshRayCollider@@SAXAEBVPxVec3@physx@@0M_NPEBVRTreeTriangleMesh@Gu@2@AEAU?$MeshHitCallback@UPxRaycastHit@physx@@@42@PEBV12@@Z 00000001800eda90 f i GuMidphaseRTree.obj
 0001:000eee40       ??0?$RayRTreeCallback@$00$0A@@@QEAA@MAEAU?$MeshHitCallback@UPxRaycastHit@physx@@@Gu@physx@@HPEBXPEBVPxVec3@3@AEBV43@3M_N2@Z 00000001800efe40 f i GuMidphaseRTree.obj
 0001:000eefd0       ??1?$RayRTreeCallback@$00$00@@UEAA@XZ 00000001800effd0 f i GuMidphaseRTree.obj
 0001:000ef060       ??1?$RayRTreeCallback@$00$0A@@@UEAA@XZ 00000001800f0060 f i GuMidphaseRTree.obj
 0001:000ef0f0       ??1?$RayRTreeCallback@$0A@$00@@UEAA@XZ 00000001800f00f0 f i GuMidphaseRTree.obj
 0001:000ef180       ??1?$RayRTreeCallback@$0A@$0A@@@UEAA@XZ 00000001800f0180 f i GuMidphaseRTree.obj
 0001:000ef210       ??1Callback@RTree@Gu@physx@@UEAA@XZ 00000001800f0210 f i GuMidphaseRTree.obj
 0001:000ef220       ??1CallbackRaycast@RTree@Gu@physx@@UEAA@XZ 00000001800f0220 f i GuMidphaseRTree.obj
 0001:000ef23c       ??_E?$RayRTreeCallback@$00$00@@W7EAAPEAXI@Z 00000001800f023c f i GuMidphaseRTree.obj
 0001:000ef248       ??_E?$RayRTreeCallback@$00$0A@@@W7EAAPEAXI@Z 00000001800f0248 f i GuMidphaseRTree.obj
 0001:000ef254       ??_E?$RayRTreeCallback@$0A@$00@@W7EAAPEAXI@Z 00000001800f0254 f i GuMidphaseRTree.obj
 0001:000ef260       ??_E?$RayRTreeCallback@$0A@$0A@@@W7EAAPEAXI@Z 00000001800f0260 f i GuMidphaseRTree.obj
 0001:000ef390       ??_E?$RayRTreeCallback@$00$00@@UEAAPEAXI@Z 00000001800f0390 f i GuMidphaseRTree.obj
 0001:000ef390       ??_G?$RayRTreeCallback@$00$00@@UEAAPEAXI@Z 00000001800f0390 f i GuMidphaseRTree.obj
 0001:000ef3d0       ??_E?$RayRTreeCallback@$00$0A@@@UEAAPEAXI@Z 00000001800f03d0 f i GuMidphaseRTree.obj
 0001:000ef3d0       ??_G?$RayRTreeCallback@$00$0A@@@UEAAPEAXI@Z 00000001800f03d0 f i GuMidphaseRTree.obj
 0001:000ef410       ??_G?$RayRTreeCallback@$0A@$00@@UEAAPEAXI@Z 00000001800f0410 f i GuMidphaseRTree.obj
 0001:000ef410       ??_E?$RayRTreeCallback@$0A@$00@@UEAAPEAXI@Z 00000001800f0410 f i GuMidphaseRTree.obj
 0001:000ef450       ??_E?$RayRTreeCallback@$0A@$0A@@@UEAAPEAXI@Z 00000001800f0450 f i GuMidphaseRTree.obj
 0001:000ef450       ??_G?$RayRTreeCallback@$0A@$0A@@@UEAAPEAXI@Z 00000001800f0450 f i GuMidphaseRTree.obj
 0001:000ef490       ??_ECallback@RTree@Gu@physx@@UEAAPEAXI@Z 00000001800f0490 f i GuMidphaseRTree.obj
 0001:000ef490       ??_GCallback@RTree@Gu@physx@@UEAAPEAXI@Z 00000001800f0490 f i GuMidphaseRTree.obj
 0001:000ef4c0       ??_ECallbackRaycast@RTree@Gu@physx@@UEAAPEAXI@Z 00000001800f04c0 f i GuMidphaseRTree.obj
 0001:000ef4c0       ??_GCallbackRaycast@RTree@Gu@physx@@UEAAPEAXI@Z 00000001800f04c0 f i GuMidphaseRTree.obj
 0001:000ef520       ??_GRayMeshColliderCallback@@UEAAPEAXI@Z 00000001800f0520 f i GuMidphaseRTree.obj
 0001:000ef520       ??_ERayMeshColliderCallback@@UEAAPEAXI@Z 00000001800f0520 f i GuMidphaseRTree.obj
 0001:000f0550       ?processHit@RayMeshColliderCallback@@UEAA_NAEBUPxRaycastHit@physx@@AEBVPxVec3@3@11AEAMPEBI@Z 00000001800f1550 f i GuMidphaseRTree.obj
 0001:000f0ce0       ?processResults@?$RayRTreeCallback@$00$00@@UEAA_NIPEAI@Z 00000001800f1ce0 f i GuMidphaseRTree.obj
 0001:000f1090       ?processResults@?$RayRTreeCallback@$00$00@@UEAA_NIPEAIAEAM@Z 00000001800f2090 f i GuMidphaseRTree.obj
 0001:000f1420       ?processResults@?$RayRTreeCallback@$00$0A@@@UEAA_NIPEAI@Z 00000001800f2420 f i GuMidphaseRTree.obj
 0001:000f16b0       ?processResults@?$RayRTreeCallback@$00$0A@@@UEAA_NIPEAIAEAM@Z 00000001800f26b0 f i GuMidphaseRTree.obj
 0001:000f1950       ?processResults@?$RayRTreeCallback@$0A@$00@@UEAA_NIPEAI@Z 00000001800f2950 f i GuMidphaseRTree.obj
 0001:000f1fb0       ?processResults@?$RayRTreeCallback@$0A@$00@@UEAA_NIPEAIAEAM@Z 00000001800f2fb0 f i GuMidphaseRTree.obj
 0001:000f2620       ?processResults@?$RayRTreeCallback@$0A@$0A@@@UEAA_NIPEAI@Z 00000001800f3620 f i GuMidphaseRTree.obj
 0001:000f28b0       ?processResults@?$RayRTreeCallback@$0A@$0A@@@UEAA_NIPEAIAEAM@Z 00000001800f38b0 f i GuMidphaseRTree.obj
 0001:000f2b50       ?profile@Callback@RTree@Gu@physx@@UEAAXXZ 00000001800f3b50 f i GuMidphaseRTree.obj
 0001:000f2b60       ?checkOverlapAABB_triangleGeom@Gu@physx@@YA_NAEBVPxGeometry@2@AEBVPxTransform@2@AEBVPxBounds3@2@@Z 00000001800f3b60 f   GuOverlapTestsMesh.obj
 0001:000f2c70       ?GeomOverlapCallback_SphereMesh@@YA_NAEBVPxGeometry@physx@@AEBVPxTransform@2@01PEAUTriggerCache@Gu@2@@Z 00000001800f3c70 f   GuOverlapTestsMesh.obj
 0001:000f2ce0       ?GeomOverlapCallback_CapsuleMesh@@YA_NAEBVPxGeometry@physx@@AEBVPxTransform@2@01PEAUTriggerCache@Gu@2@@Z 00000001800f3ce0 f   GuOverlapTestsMesh.obj
 0001:000f2e00       ?GeomOverlapCallback_BoxMesh@@YA_NAEBVPxGeometry@physx@@AEBVPxTransform@2@01PEAUTriggerCache@Gu@2@@Z 00000001800f3e00 f   GuOverlapTestsMesh.obj
 0001:000f2f00       ?GeomOverlapCallback_ConvexMesh@@YA_NAEBVPxGeometry@physx@@AEBVPxTransform@2@01PEAUTriggerCache@Gu@2@@Z 00000001800f3f00 f   GuOverlapTestsMesh.obj
 0001:000f34f0       ??$gjk@U?$RelativeConvex@VTriangleV@Gu@physx@@@Gu@physx@@U?$LocalConvex@VConvexHullV@Gu@physx@@@23@@Gu@physx@@YA?AW4GjkStatus@01@AEBU?$RelativeConvex@VTriangleV@Gu@physx@@@01@AEBU?$LocalConvex@VConvexHullV@Gu@physx@@@01@AEBT__m128@@2AEAT5@333@Z 00000001800f44f0 f i GuOverlapTestsMesh.obj
 0001:000f41e0       ??0ConvexVsMeshOverlapCallback@@QEAA@AEBVConvexMesh@Gu@physx@@AEBVPxMeshScale@3@AEBVFastVertex2ShapeScaling@Cm@3@AEBVPxTransform@3@3_NAEBVBox@23@@Z 00000001800f51e0 f i GuOverlapTestsMesh.obj
 0001:000f4a50       ??1ConvexVsMeshOverlapCallback@@UEAA@XZ 00000001800f5a50 f i GuOverlapTestsMesh.obj
 0001:000f4a60       ??_GConvexVsMeshOverlapCallback@@UEAAPEAXI@Z 00000001800f5a60 f i GuOverlapTestsMesh.obj
 0001:000f4a60       ??_EConvexVsMeshOverlapCallback@@UEAAPEAXI@Z 00000001800f5a60 f i GuOverlapTestsMesh.obj
 0001:000f4a90       ?processHit@ConvexVsMeshOverlapCallback@@UEAA_NAEBUPxRaycastHit@physx@@AEBVPxVec3@3@11AEAMPEBI@Z 00000001800f5a90 f i GuOverlapTestsMesh.obj
 0001:000f4e10       ??0RTree@Gu@physx@@QEAA@W4PxEMPTY@2@@Z 00000001800f5e10 f   GuRTree.obj
 0001:000f4e20       ?exportExtraData@RTree@Gu@physx@@QEAAXAEAVPxSerializationContext@3@@Z 00000001800f5e20 f   GuRTree.obj
 0001:000f4e70       ?importExtraData@RTree@Gu@physx@@QEAAXAEAVPxDeserializationContext@3@@Z 00000001800f5e70 f   GuRTree.obj
 0001:000f4ea0       ?load@RTree@Gu@physx@@QEAA_NAEAVPxInputStream@3@I_N@Z 00000001800f5ea0 f   GuRTree.obj
 0001:000f51a0       ?refitAllStaticTree@RTree@Gu@physx@@QEAAXAEAUCallbackRefit@123@PEAVPxBounds3@3@@Z 00000001800f61a0 f   GuRTree.obj
 0001:000f5700       ?validate@RTree@Gu@physx@@QEAAXPEAUCallbackRefit@123@@Z 00000001800f6700 f   GuRTree.obj
 0001:000f5860       ?computeBottomLevelCount@RTree@Gu@physx@@QEBAII@Z 00000001800f6860 f   GuRTree.obj
 0001:000f5950       ?validateRecursive@RTree@Gu@physx@@IEAAXIURTreeNodeQ@23@PEAURTreePage@23@PEAUCallbackRefit@123@@Z 00000001800f6950 f   GuRTree.obj
 0001:000f5a80       ?traverseAABB@RTree@Gu@physx@@QEBAXAEBVPxVec3@3@0IPEAIPEAUCallback@123@@Z 00000001800f6a80 f   GuRTreeQueries.obj
 0001:000f5c40       ?traverseOBB@RTree@Gu@physx@@QEBAXAEBVBox@23@IPEAIPEAUCallback@123@@Z 00000001800f6c40 f   GuRTreeQueries.obj
 0001:000f6520       ??$traverseRay@$00@RTree@Gu@physx@@QEBAXAEBVPxVec3@2@0IPEAIPEAUCallbackRaycast@012@PEBV32@M@Z 00000001800f7520 f i GuRTreeQueries.obj
 0001:000f68c0       ??$traverseRay@$0A@@RTree@Gu@physx@@QEBAXAEBVPxVec3@2@0IPEAIPEAUCallbackRaycast@012@PEBV32@M@Z 00000001800f78c0 f i GuRTreeQueries.obj
 0001:000f6c10       ??0SweepShapeMeshHitCallback@Gu@physx@@QEAA@W4Enum@CallbackMode@12@AEBV?$PxFlags@W4Enum@PxHitFlag@physx@@G@2@_NM@Z 00000001800f7c10 f   GuSweepsMesh.obj
 0001:000f6c50       ??0SweepCapsuleMeshHitCallback@Gu@physx@@QEAA@AEAUPxSweepHit@2@AEBVMatrix34@Cm@2@M_NAEBVCapsule@12@AEBVPxVec3@2@AEBV?$PxFlags@W4Enum@PxHitFlag@physx@@G@2@2M@Z 00000001800f7c50 f   GuSweepsMesh.obj
 0001:000f6d20       ?processHit@SweepCapsuleMeshHitCallback@Gu@physx@@UEAA_NAEBUPxRaycastHit@3@AEBVPxVec3@3@11AEAMPEBI@Z 00000001800f7d20 f   GuSweepsMesh.obj
 0001:000f7260       ?finalizeHit@SweepCapsuleMeshHitCallback@Gu@physx@@QEBA_NAEAUPxSweepHit@3@AEBVCapsule@23@AEBVPxTriangleMeshGeometry@3@AEBVPxTransform@3@_N@Z 00000001800f8260 f   GuSweepsMesh.obj
 0001:000f7400       ??0SweepBoxMeshHitCallback@Gu@physx@@QEAA@W4Enum@CallbackMode@12@AEBVMatrix34Padded@12@M_NAEBVBox@12@AEBVPxVec3@2@44AEBV?$PxFlags@W4Enum@PxHitFlag@physx@@G@2@M2M@Z 00000001800f8400 f   GuSweepsMesh.obj
 0001:000f7510       ?processHit@SweepBoxMeshHitCallback@Gu@physx@@UEAA_NAEBUPxRaycastHit@3@AEBVPxVec3@3@11AEAMPEBI@Z 00000001800f8510 f   GuSweepsMesh.obj
 0001:000f7d20       ?finalizeHit@SweepBoxMeshHitCallback@Gu@physx@@QEBA_NAEAUPxSweepHit@3@AEBVPxTriangleMeshGeometry@3@AEBVPxTransform@3@2AEBVPxVec3@3@_N4@Z 00000001800f8d20 f   GuSweepsMesh.obj
 0001:000f83f0       ??0SweepConvexMeshHitCallback@Gu@physx@@QEAA@AEBUConvexHullData@12@AEBVPxMeshScale@2@AEBVFastVertex2ShapeScaling@Cm@2@AEBVPxTransform@2@3AEBVPxVec3@2@MV?$PxFlags@W4Enum@PxHitFlag@physx@@G@2@_NM6M@Z 00000001800f93f0 f   GuSweepsMesh.obj
 0001:000f8de0       ?processHit@SweepConvexMeshHitCallback@Gu@physx@@UEAA_NAEBUPxRaycastHit@3@AEBVPxVec3@3@11AEAMPEBI@Z 00000001800f9de0 f   GuSweepsMesh.obj
 0001:000f9540       ?finalizeHit@SweepConvexMeshHitCallback@Gu@physx@@QEAA_NAEAUPxSweepHit@3@AEBVPxTriangleMeshGeometry@3@AEBVPxTransform@3@AEBVPxConvexMeshGeometry@3@2AEBVPxVec3@3@M_N555@Z 00000001800fa540 f   GuSweepsMesh.obj
 0001:000f9a30       ?sweepCapsule_MeshGeom@@YA_NAEBVPxGeometry@physx@@AEBVPxTransform@2@AEBVPxCapsuleGeometry@2@1AEBVCapsule@Gu@2@AEBVPxVec3@2@MAEAUPxSweepHit@2@V?$PxFlags@W4Enum@PxHitFlag@physx@@G@2@M@Z 00000001800faa30 f   GuSweepsMesh.obj
 0001:000f9ad0       ?sweepBox_MeshGeom@@YA_NAEBVPxGeometry@physx@@AEBVPxTransform@2@AEBVPxBoxGeometry@2@1AEBVBox@Gu@2@AEBVPxVec3@2@MAEAUPxSweepHit@2@V?$PxFlags@W4Enum@PxHitFlag@physx@@G@2@M@Z 00000001800faad0 f   GuSweepsMesh.obj
 0001:000f9b70       ?sweepConvex_MeshGeom@@YA_NAEBVPxGeometry@physx@@AEBVPxTransform@2@AEBVPxConvexMeshGeometry@2@1AEBVPxVec3@2@MAEAUPxSweepHit@2@V?$PxFlags@W4Enum@PxHitFlag@physx@@G@2@M@Z 00000001800fab70 f   GuSweepsMesh.obj
 0001:000fa4d0       ??1SweepConvexMeshHitCallback@Gu@physx@@UEAA@XZ 00000001800fb4d0 f i GuSweepsMesh.obj
 0001:000fa4e0       ??_ESweepBoxMeshHitCallback@Gu@physx@@UEAAPEAXI@Z 00000001800fb4e0 f i GuSweepsMesh.obj
 0001:000fa4e0       ??_GSweepBoxMeshHitCallback@Gu@physx@@UEAAPEAXI@Z 00000001800fb4e0 f i GuSweepsMesh.obj
 0001:000fa510       ??_ESweepCapsuleMeshHitCallback@Gu@physx@@UEAAPEAXI@Z 00000001800fb510 f i GuSweepsMesh.obj
 0001:000fa510       ??_GSweepCapsuleMeshHitCallback@Gu@physx@@UEAAPEAXI@Z 00000001800fb510 f i GuSweepsMesh.obj
 0001:000fa540       ??_ESweepConvexMeshHitCallback@Gu@physx@@UEAAPEAXI@Z 00000001800fb540 f i GuSweepsMesh.obj
 0001:000fa540       ??_GSweepConvexMeshHitCallback@Gu@physx@@UEAAPEAXI@Z 00000001800fb540 f i GuSweepsMesh.obj
 0001:000fa570       ??_GSweepShapeMeshHitCallback@Gu@physx@@UEAAPEAXI@Z 00000001800fb570 f i GuSweepsMesh.obj
 0001:000fa570       ??_ESweepShapeMeshHitCallback@Gu@physx@@UEAAPEAXI@Z 00000001800fb570 f i GuSweepsMesh.obj
 0001:000fa880       ?exportExtraData@TriangleMesh@Gu@physx@@UEAAXAEAVPxSerializationContext@3@@Z 00000001800fb880 f   GuTriangleMesh.obj
 0001:000fa9c0       ?importExtraData@TriangleMesh@Gu@physx@@QEAAXAEAVPxDeserializationContext@3@@Z 00000001800fb9c0 f   GuTriangleMesh.obj
 0001:000faad0       ?release@TriangleMesh@Gu@physx@@UEAAXXZ 00000001800fbad0 f   GuTriangleMesh.obj
 0001:000fab10       ?onRefCountZero@TriangleMesh@Gu@physx@@UEAAXXZ 00000001800fbb10 f   GuTriangleMesh.obj
 0001:000fabc0       ??0TriangleMesh@Gu@physx@@QEAA@AEAVGuMeshFactory@2@AEAVTriangleMeshData@12@@Z 00000001800fbbc0 f   GuTriangleMesh.obj
 0001:000fad60       ??1TriangleMesh@Gu@physx@@UEAA@XZ 00000001800fbd60 f   GuTriangleMesh.obj
 0001:000faf20       ?getVerticesForModification@TriangleMesh@Gu@physx@@UEAAPEAVPxVec3@3@XZ 00000001800fbf20 f   GuTriangleMesh.obj
 0001:000faf60       ?refitBVH@TriangleMesh@Gu@physx@@UEAA?AVPxBounds3@3@XZ 00000001800fbf60 f   GuTriangleMesh.obj
 0001:000fb030       ??1PxTriangleMesh@physx@@MEAA@XZ 00000001800fc030 f i GuTriangleMesh.obj
 0001:000fb03c       ??_ETriangleMesh@Gu@physx@@WBA@EAAPEAXI@Z 00000001800fc03c f i GuTriangleMesh.obj
 0001:000fb050       ??_GPxTriangleMesh@physx@@MEAAPEAXI@Z 00000001800fc050 f i GuTriangleMesh.obj
 0001:000fb050       ??_EPxTriangleMesh@physx@@MEAAPEAXI@Z 00000001800fc050 f i GuTriangleMesh.obj
 0001:000fb080       ??_ETriangleMesh@Gu@physx@@UEAAPEAXI@Z 00000001800fc080 f i GuTriangleMesh.obj
 0001:000fb080       ??_GTriangleMesh@Gu@physx@@UEAAPEAXI@Z 00000001800fc080 f i GuTriangleMesh.obj
 0001:000fb0f0       ?acquireReference@TriangleMesh@Gu@physx@@UEAAXXZ 00000001800fc0f0 f i GuTriangleMesh.obj
 0001:000fb100       ?getLocalBounds@TriangleMesh@Gu@physx@@UEBA?AVPxBounds3@3@XZ 00000001800fc100 f i GuTriangleMesh.obj
 0001:000fb190       ?getNbTriangles@TriangleMesh@Gu@physx@@UEBAIXZ 00000001800fc190 f i GuTriangleMesh.obj
 0001:000fb1a0       ?getNbVertices@TriangleMesh@Gu@physx@@UEBAIXZ 00000001800fc1a0 f i GuTriangleMesh.obj
 0001:000fb1b0       ?getReferenceCount@TriangleMesh@Gu@physx@@UEBAIXZ 00000001800fc1b0 f i GuTriangleMesh.obj
 0001:000fb1c0       ?getTriangleMaterialIndex@TriangleMesh@Gu@physx@@UEBAGI@Z 00000001800fc1c0 f i GuTriangleMesh.obj
 0001:000fb1e0       ?getTriangleMeshFlags@TriangleMesh@Gu@physx@@UEBA?AV?$PxFlags@W4Enum@PxTriangleMeshFlag@physx@@E@3@XZ 00000001800fc1e0 f i GuTriangleMesh.obj
 0001:000fb1f0       ?getTriangles@TriangleMesh@Gu@physx@@UEBAPEBXXZ 00000001800fc1f0 f i GuTriangleMesh.obj
 0001:000fb200       ?getTrianglesRemap@TriangleMesh@Gu@physx@@UEBAPEBIXZ 00000001800fc200 f i GuTriangleMesh.obj
 0001:000fb210       ?getVertices@TriangleMesh@Gu@physx@@UEBAPEBVPxVec3@3@XZ 00000001800fc210 f i GuTriangleMesh.obj
 0001:000fb220       ?isKindOf@PxTriangleMesh@physx@@MEBA_NPEBD@Z 00000001800fc220 f i GuTriangleMesh.obj
 0001:000fb270       ?requiresObjects@TriangleMesh@Gu@physx@@UEAAXAEAVPxProcessPxBaseCallback@3@@Z 00000001800fc270 f i GuTriangleMesh.obj
 0001:000fb280       ?exportExtraData@BV4TriangleMesh@Gu@physx@@UEAAXAEAVPxSerializationContext@3@@Z 00000001800fc280 f   GuTriangleMeshBV4.obj
 0001:000fb2c0       ?importExtraData@BV4TriangleMesh@Gu@physx@@QEAAXAEAVPxDeserializationContext@3@@Z 00000001800fc2c0 f   GuTriangleMeshBV4.obj
 0001:000fb340       ?createObject@BV4TriangleMesh@Gu@physx@@SAPEAVTriangleMesh@23@AEAPEAEAEAVPxDeserializationContext@3@@Z 00000001800fc340 f   GuTriangleMeshBV4.obj
 0001:000fb430       ??0BV4TriangleMesh@Gu@physx@@QEAA@AEAVGuMeshFactory@2@AEAVTriangleMeshData@12@@Z 00000001800fc430 f   GuTriangleMeshBV4.obj
 0001:000fb4d0       ??1BV4TriangleMesh@Gu@physx@@UEAA@XZ 00000001800fc4d0 f i GuTriangleMeshBV4.obj
 0001:000fb514       ??_EBV4TriangleMesh@Gu@physx@@WBA@EAAPEAXI@Z 00000001800fc514 f i GuTriangleMeshBV4.obj
 0001:000fb520       ??_EBV4TriangleMesh@Gu@physx@@UEAAPEAXI@Z 00000001800fc520 f i GuTriangleMeshBV4.obj
 0001:000fb520       ??_GBV4TriangleMesh@Gu@physx@@UEAAPEAXI@Z 00000001800fc520 f i GuTriangleMeshBV4.obj
 0001:000fb5b0       ?getConcreteTypeName@BV4TriangleMesh@Gu@physx@@UEBAPEBDXZ 00000001800fc5b0 f i GuTriangleMeshBV4.obj
 0001:000fb5c0       ?getMidphaseID@BV4TriangleMesh@Gu@physx@@UEBA?AW4Enum@PxMeshMidPhase@3@XZ 00000001800fc5c0 f i GuTriangleMeshBV4.obj
 0001:000fb5d0       ?exportExtraData@RTreeTriangleMesh@Gu@physx@@UEAAXAEAVPxSerializationContext@3@@Z 00000001800fc5d0 f   GuTriangleMeshRTree.obj
 0001:000fb610       ?importExtraData@RTreeTriangleMesh@Gu@physx@@QEAAXAEAVPxDeserializationContext@3@@Z 00000001800fc610 f   GuTriangleMeshRTree.obj
 0001:000fb650       ?createObject@RTreeTriangleMesh@Gu@physx@@SAPEAVTriangleMesh@23@AEAPEAEAEAVPxDeserializationContext@3@@Z 00000001800fc650 f   GuTriangleMeshRTree.obj
 0001:000fb6f0       ??0RTreeTriangleMesh@Gu@physx@@QEAA@AEAVGuMeshFactory@2@AEAVTriangleMeshData@12@@Z 00000001800fc6f0 f   GuTriangleMeshRTree.obj
 0001:000fb870       ?getVerticesForModification@RTreeTriangleMesh@Gu@physx@@UEAAPEAVPxVec3@3@XZ 00000001800fc870 f   GuTriangleMeshRTree.obj
 0001:000fb880       ?refitBVH@RTreeTriangleMesh@Gu@physx@@UEAA?AVPxBounds3@3@XZ 00000001800fc880 f   GuTriangleMeshRTree.obj
 0001:000fbaa0       ??1CallbackRefit@RTree@Gu@physx@@UEAA@XZ 00000001800fcaa0 f i GuTriangleMeshRTree.obj
 0001:000fbab0       ??1RTreeTriangleMesh@Gu@physx@@UEAA@XZ 00000001800fcab0 f i GuTriangleMeshRTree.obj
 0001:000fbb20       ??_ERTreeTriangleMesh@Gu@physx@@WBA@EAAPEAXI@Z 00000001800fcb20 f i GuTriangleMeshRTree.obj
 0001:000fbb30       ??_E?$RefitCallback@G@physx@@UEAAPEAXI@Z 00000001800fcb30 f i GuTriangleMeshRTree.obj
 0001:000fbb30       ??_G?$RefitCallback@G@physx@@UEAAPEAXI@Z 00000001800fcb30 f i GuTriangleMeshRTree.obj
 0001:000fbb60       ??_E?$RefitCallback@I@physx@@UEAAPEAXI@Z 00000001800fcb60 f i GuTriangleMeshRTree.obj
 0001:000fbb60       ??_G?$RefitCallback@I@physx@@UEAAPEAXI@Z 00000001800fcb60 f i GuTriangleMeshRTree.obj
 0001:000fbb90       ??_ECallbackRefit@RTree@Gu@physx@@UEAAPEAXI@Z 00000001800fcb90 f i GuTriangleMeshRTree.obj
 0001:000fbb90       ??_GCallbackRefit@RTree@Gu@physx@@UEAAPEAXI@Z 00000001800fcb90 f i GuTriangleMeshRTree.obj
 0001:000fbbc0       ??_ERTreeTriangleMesh@Gu@physx@@UEAAPEAXI@Z 00000001800fcbc0 f i GuTriangleMeshRTree.obj
 0001:000fbbc0       ??_GRTreeTriangleMesh@Gu@physx@@UEAAPEAXI@Z 00000001800fcbc0 f i GuTriangleMeshRTree.obj
 0001:000fbc80       ?getConcreteTypeName@RTreeTriangleMesh@Gu@physx@@UEBAPEBDXZ 00000001800fcc80 f i GuTriangleMeshRTree.obj
 0001:000fbc90       ?getMidphaseID@RTreeTriangleMesh@Gu@physx@@UEBA?AW4Enum@PxMeshMidPhase@3@XZ 00000001800fcc90 f i GuTriangleMeshRTree.obj
 0001:000fbca0       ?recomputeBounds@?$RefitCallback@G@physx@@UEAAXIAEAT__m128@@0@Z 00000001800fcca0 f i GuTriangleMeshRTree.obj
 0001:000fbdd0       ?recomputeBounds@?$RefitCallback@I@physx@@UEAAXIAEAT__m128@@0@Z 00000001800fcdd0 f i GuTriangleMeshRTree.obj
 0001:000fbf00       ??0BV32Tree@Gu@physx@@QEAA@W4PxEMPTY@2@@Z 00000001800fcf00 f   GuBV32.obj
 0001:000fbf20       ?exportExtraData@BV32Tree@Gu@physx@@QEAAXAEAVPxSerializationContext@3@@Z 00000001800fcf20 f   GuBV32.obj
 0001:000fbf70       ?importExtraData@BV32Tree@Gu@physx@@QEAAXAEAVPxDeserializationContext@3@@Z 00000001800fcf70 f   GuBV32.obj
 0001:000fbfa0       ??0BV32Tree@Gu@physx@@QEAA@XZ 00000001800fcfa0 f   GuBV32.obj
 0001:000fbfd0       ??0BV32Tree@Gu@physx@@QEAA@PEAVSourceMesh@12@AEBVPxBounds3@2@@Z 00000001800fcfd0 f   GuBV32.obj
 0001:000fc090       ??1BV32Tree@Gu@physx@@QEAA@XZ 00000001800fd090 f   GuBV32.obj
 0001:000fc0a0       ?load@BV32Tree@Gu@physx@@QEAA_NAEAVPxInputStream@3@_N@Z 00000001800fd0a0 f   GuBV32.obj
 0001:000fc2c0       ?calculateLeafNode@BV32Tree@Gu@physx@@QEAAXAEAUBV32Data@23@@Z 00000001800fd2c0 f   GuBV32.obj
 0001:000fc500       ?createSOAformatNode@BV32Tree@Gu@physx@@QEAAXAEAUBV32DataPacked@23@AEBUBV32Data@23@IAEAI2@Z 00000001800fd500 f   GuBV32.obj
 0001:000fc950       ?reset@BV32Tree@Gu@physx@@QEAAXXZ 00000001800fd950 f   GuBV32.obj
 0001:000fc970       ??4BV32Tree@Gu@physx@@QEAAXAEAV012@@Z 00000001800fd970 f   GuBV32.obj
 0001:000fc9d0       ?init@BV32Tree@Gu@physx@@QEAA_NPEAVSourceMesh@23@AEBVPxBounds3@3@@Z 00000001800fd9d0 f   GuBV32.obj
 0001:000fca70       ?release@BV32Tree@Gu@physx@@QEAAXXZ 00000001800fda70 f   GuBV32.obj
 0001:000fcb00       ?BuildBV32Ex@Gu@physx@@YA_NAEAVBV32Tree@12@AEAVSourceMesh@12@MI@Z 00000001800fdb00 f   GuBV32Build.obj
 0001:000fccc0       ??0BV32Data@Gu@physx@@QEAA@XZ 00000001800fdcc0 f i GuBV32Build.obj
 0001:000fccf0       ??0BV32Node@@QEAA@XZ       00000001800fdcf0 f i GuBV32Build.obj
 0001:000fdd70       ?pcmContactBoxBox@Gu@physx@@YA_NAEBVGeometryUnion@12@0AEBVPxTransform@2@1AEBUNarrowPhaseParams@12@AEAUCache@12@AEAVContactBuffer@12@PEAVRenderOutput@Cm@2@@Z 00000001800fed70 f   GuPCMContactBoxBox.obj
 0001:001015c0       ?pcmContactBoxConvex@Gu@physx@@YA_NAEBVGeometryUnion@12@0AEBVPxTransform@2@1AEBUNarrowPhaseParams@12@AEAUCache@12@AEAVContactBuffer@12@PEAVRenderOutput@Cm@2@@Z 00000001801025c0 f   GuPCMContactBoxConvex.obj
 0001:00102460       ??$gjkPenetration@U?$RelativeConvex@VBoxV@Gu@physx@@@Gu@physx@@U?$LocalConvex@VConvexHullNoScaleV@Gu@physx@@@23@@Gu@physx@@YA?AW4GjkStatus@01@AEBU?$RelativeConvex@VBoxV@Gu@physx@@@01@AEBU?$LocalConvex@VConvexHullNoScaleV@Gu@physx@@@01@AEBT__m128@@2_NPEIAE4AEAEAEAUGjkOutput@01@@Z 0000000180103460 f i GuPCMContactBoxConvex.obj
 0001:00103a20       ??_G?$LocalConvex@VConvexHullNoScaleV@Gu@physx@@@Gu@physx@@UEAAPEAXI@Z 0000000180104a20 f i GuPCMContactBoxConvex.obj
 0001:00103a20       ??_E?$LocalConvex@VConvexHullNoScaleV@Gu@physx@@@Gu@physx@@UEAAPEAXI@Z 0000000180104a20 f i GuPCMContactBoxConvex.obj
 0001:00104130       ?getCenter@?$LocalConvex@VConvexHullNoScaleV@Gu@physx@@@Gu@physx@@UEBA?AT__m128@@XZ 0000000180105130 f i GuPCMContactBoxConvex.obj
 0001:00104140       ?getSweepMargin@?$LocalConvex@VConvexHullNoScaleV@Gu@physx@@@Gu@physx@@UEBA?AT__m128@@XZ 0000000180105140 f i GuPCMContactBoxConvex.obj
 0001:00104160       ?support@?$LocalConvex@VConvexHullNoScaleV@Gu@physx@@@Gu@physx@@UEBA?AT__m128@@AEBT4@@Z 0000000180105160 f i GuPCMContactBoxConvex.obj
 0001:001041b0       ?support@?$LocalConvex@VConvexHullNoScaleV@Gu@physx@@@Gu@physx@@UEBA?AT__m128@@AEBT4@AEAH@Z 00000001801051b0 f i GuPCMContactBoxConvex.obj
 0001:00104210       ?supportPoint@?$LocalConvex@VConvexHullNoScaleV@Gu@physx@@@Gu@physx@@UEBA?AT__m128@@H@Z 0000000180105210 f i GuPCMContactBoxConvex.obj
 0001:00104240       ?pcmContactCapsuleBox@Gu@physx@@YA_NAEBVGeometryUnion@12@0AEBVPxTransform@2@1AEBUNarrowPhaseParams@12@AEAUCache@12@AEAVContactBuffer@12@PEAVRenderOutput@Cm@2@@Z 0000000180105240 f   GuPCMContactCapsuleBox.obj
 0001:001051d0       ?pcmContactCapsuleCapsule@Gu@physx@@YA_NAEBVGeometryUnion@12@0AEBVPxTransform@2@1AEBUNarrowPhaseParams@12@AEAUCache@12@AEAVContactBuffer@12@PEAVRenderOutput@Cm@2@@Z 00000001801061d0 f   GuPCMContactCapsuleCapsule.obj
 0001:00105a50       ?pcmContactCapsuleConvex@Gu@physx@@YA_NAEBVGeometryUnion@12@0AEBVPxTransform@2@1AEBUNarrowPhaseParams@12@AEAUCache@12@AEAVContactBuffer@12@PEAVRenderOutput@Cm@2@@Z 0000000180106a50 f   GuPCMContactCapsuleConvex.obj
 0001:00106c80       ??$gjkPenetration@U?$LocalConvex@VCapsuleV@Gu@physx@@@Gu@physx@@U?$LocalConvex@VConvexHullNoScaleV@Gu@physx@@@23@@Gu@physx@@YA?AW4GjkStatus@01@AEBU?$LocalConvex@VCapsuleV@Gu@physx@@@01@AEBU?$LocalConvex@VConvexHullNoScaleV@Gu@physx@@@01@AEBT__m128@@2_NPEIAE4AEAEAEAUGjkOutput@01@@Z 0000000180107c80 f i GuPCMContactCapsuleConvex.obj
 0001:00108420       ?pcmContactCapsuleHeightField@Gu@physx@@YA_NAEBVGeometryUnion@12@0AEBVPxTransform@2@1AEBUNarrowPhaseParams@12@AEAUCache@12@AEAVContactBuffer@12@PEAVRenderOutput@Cm@2@@Z 0000000180109420 f   GuPCMContactCapsuleHeightField.obj
 0001:00109140       ??0PCMContactPatch@Gu@physx@@QEAA@XZ 000000018010a140 f i GuPCMContactCapsuleHeightField.obj
 0001:00109160       ??0PCMMeshContactGeneration@Gu@physx@@QEAA@AEBT__m128@@0AEBVPsTransformV@aos@shdfnd@2@1AEAVMultiplePersistentContactManifold@12@AEAVContactBuffer@12@PEAV?$InlineArray@I$0EEA@V?$ReflectionAllocator@I@shdfnd@physx@@@62@PEAVRenderOutput@Cm@2@@Z 000000018010a160 f i GuPCMContactCapsuleHeightField.obj
 0001:00109aa0       ??_G?$PCMHeightfieldContactGenerationCallback@UPCMCapsuleVsHeightfieldContactGenerationCallback@physx@@@Gu@physx@@UEAAPEAXI@Z 000000018010aaa0 f i GuPCMContactCapsuleHeightField.obj
 0001:00109aa0       ??_E?$PCMHeightfieldContactGenerationCallback@UPCMCapsuleVsHeightfieldContactGenerationCallback@physx@@@Gu@physx@@UEAAPEAXI@Z 000000018010aaa0 f i GuPCMContactCapsuleHeightField.obj
 0001:00109ad0       ??_EPCMCapsuleVsHeightfieldContactGenerationCallback@physx@@UEAAPEAXI@Z 000000018010aad0 f i GuPCMContactCapsuleHeightField.obj
 0001:00109ad0       ??_GPCMCapsuleVsHeightfieldContactGenerationCallback@physx@@UEAAPEAXI@Z 000000018010aad0 f i GuPCMContactCapsuleHeightField.obj
 0001:00109b00       ?onEvent@?$PCMHeightfieldContactGenerationCallback@UPCMCapsuleVsHeightfieldContactGenerationCallback@physx@@@Gu@physx@@UEAA_NIPEAI@Z 000000018010ab00 f i GuPCMContactCapsuleHeightField.obj
 0001:0010a0c0       ?pcmContactCapsuleMesh@Gu@physx@@YA_NAEBVGeometryUnion@12@0AEBVPxTransform@2@1AEBUNarrowPhaseParams@12@AEAUCache@12@AEAVContactBuffer@12@PEAVRenderOutput@Cm@2@@Z 000000018010b0c0 f   GuPCMContactCapsuleMesh.obj
 0001:0010afd0       ??$processTriangleCache@$0BA@@PCMCapsuleVsMeshContactGenerationCallback@physx@@QEAAXAEAU?$TriangleCache@$0BA@@Gu@1@@Z 000000018010bfd0 f i GuPCMContactCapsuleMesh.obj
 0001:0010b060       ??_G?$PCMMeshContactGenerationCallback@UPCMCapsuleVsMeshContactGenerationCallback@physx@@@Gu@physx@@UEAAPEAXI@Z 000000018010c060 f i GuPCMContactCapsuleMesh.obj
 0001:0010b060       ??_E?$PCMMeshContactGenerationCallback@UPCMCapsuleVsMeshContactGenerationCallback@physx@@@Gu@physx@@UEAAPEAXI@Z 000000018010c060 f i GuPCMContactCapsuleMesh.obj
 0001:0010b090       ??_GPCMCapsuleVsMeshContactGenerationCallback@physx@@UEAAPEAXI@Z 000000018010c090 f i GuPCMContactCapsuleMesh.obj
 0001:0010b090       ??_EPCMCapsuleVsMeshContactGenerationCallback@physx@@UEAAPEAXI@Z 000000018010c090 f i GuPCMContactCapsuleMesh.obj
 0001:0010b0c0       ?processHit@?$PCMMeshContactGenerationCallback@UPCMCapsuleVsMeshContactGenerationCallback@physx@@@Gu@physx@@UEAA_NAEBUPxRaycastHit@3@AEBVPxVec3@3@11AEAMPEBI@Z 000000018010c0c0 f i GuPCMContactCapsuleMesh.obj
 0001:0010b480       ?generateLastContacts@PCMConvexVsMeshContactGeneration@Gu@physx@@QEAAXXZ 000000018010c480 f   GuPCMContactConvexCommon.obj
 0001:0010b9c0       ?addContactsToPatch@PCMConvexVsMeshContactGeneration@Gu@physx@@QEAAXAEBT__m128@@I@Z 000000018010c9c0 f   GuPCMContactConvexCommon.obj
 0001:0010c300       ?processTriangle@PCMConvexVsMeshContactGeneration@Gu@physx@@QEAA_NPEBVPxVec3@3@IEPEBI@Z 000000018010d300 f   GuPCMContactConvexCommon.obj
 0001:0010c890       ?processTriangle@PCMConvexVsMeshContactGeneration@Gu@physx@@SA_NAEBUPolygonalData@23@PEAVSupportLocal@23@PEBVPxVec3@3@IEAEBT__m128@@_NAEBVPsTransformV@aos@shdfnd@3@AEBVPsMatTransformV@9shdfnd@3@PEAVMeshPersistentContact@23@AEAI@Z 000000018010d890 f   GuPCMContactConvexCommon.obj
 0001:0010cb40       ?processTriangle@PCMSphereVsMeshContactGeneration@Gu@physx@@QEAA_NPEBVPxVec3@3@IEPEBI@Z 000000018010db40 f   GuPCMContactConvexCommon.obj
 0001:0010cf60       ?generateLastContacts@PCMSphereVsMeshContactGeneration@Gu@physx@@QEAAXXZ 000000018010df60 f   GuPCMContactConvexCommon.obj
 0001:0010d3d0       ?addToPatch@PCMSphereVsMeshContactGeneration@Gu@physx@@QEAAXAEBT__m128@@0T4@I@Z 000000018010e3d0 f   GuPCMContactConvexCommon.obj
 0001:0010da70       ?generateEEContacts@PCMCapsuleVsMeshContactGeneration@Gu@physx@@QEAAXAEBT__m128@@000I000PEAVMeshPersistentContact@23@AEAI@Z 000000018010ea70 f   GuPCMContactConvexCommon.obj
 0001:0010dba0       ?generateEE@PCMCapsuleVsMeshContactGeneration@Gu@physx@@QEAAXAEBT__m128@@000I00PEAVMeshPersistentContact@23@AEAI@Z 000000018010eba0 f   GuPCMContactConvexCommon.obj
 0001:0010de30       ?generateContacts@PCMCapsuleVsMeshContactGeneration@Gu@physx@@SA_NAEBT__m128@@0000I000PEAVMeshPersistentContact@23@AEAI@Z 000000018010ee30 f   GuPCMContactConvexCommon.obj
 0001:0010e2c0       ?generateEEContactsMTD@PCMCapsuleVsMeshContactGeneration@Gu@physx@@SAXAEBT__m128@@000I000PEAVMeshPersistentContact@23@AEAI@Z 000000018010f2c0 f   GuPCMContactConvexCommon.obj
 0001:0010e3e0       ?generateEEMTD@PCMCapsuleVsMeshContactGeneration@Gu@physx@@SAXAEBT__m128@@000I00PEAVMeshPersistentContact@23@AEAI@Z 000000018010f3e0 f   GuPCMContactConvexCommon.obj
 0001:0010e640       ?processTriangle@PCMCapsuleVsMeshContactGeneration@Gu@physx@@QEAA_NPEBVPxVec3@3@IEPEBI@Z 000000018010f640 f   GuPCMContactConvexCommon.obj
 0001:0010f1e0       ?processTriangle@PCMCapsuleVsMeshContactGeneration@Gu@physx@@SA_NAEBVTriangleV@23@IAEBVCapsuleV@23@AEBT__m128@@EPEAVMeshPersistentContact@23@AEAI@Z 00000001801101e0 f   GuPCMContactConvexCommon.obj
 0001:0010f520       ?pcmDistanceSegmentTriangleSquared@Gu@physx@@YA?AT__m128@@AEBT3@0000AEAT3@11@Z 0000000180110520 f   GuPCMContactConvexCommon.obj
 0001:0010fe60       ??$sort@USortedTriangle@Gu@physx@@U?$Less@USortedTriangle@Gu@physx@@@shdfnd@3@@shdfnd@physx@@YAXPEAUSortedTriangle@Gu@1@IAEBU?$Less@USortedTriangle@Gu@physx@@@01@@Z 0000000180110e60 f i GuPCMContactConvexCommon.obj
 0001:0010fe80       ??$sort@USortedTriangle@Gu@physx@@U?$Less@USortedTriangle@Gu@physx@@@shdfnd@3@V?$ReflectionAllocator@USortedTriangle@Gu@physx@@@53@@shdfnd@physx@@YAXPEAUSortedTriangle@Gu@1@IAEBU?$Less@USortedTriangle@Gu@physx@@@01@AEBV?$ReflectionAllocator@USortedTriangle@Gu@physx@@@01@I@Z 0000000180110e80 f i GuPCMContactConvexCommon.obj
 0001:00110310       ??_G?$SupportLocalImpl@VTriangleV@Gu@physx@@@Gu@physx@@UEAAPEAXI@Z 0000000180111310 f i GuPCMContactConvexCommon.obj
 0001:00110310       ??_E?$SupportLocalImpl@VTriangleV@Gu@physx@@@Gu@physx@@UEAAPEAXI@Z 0000000180111310 f i GuPCMContactConvexCommon.obj
 0001:00110340       ?allocate@?$ReflectionAllocator@USortedTriangle@Gu@physx@@@shdfnd@physx@@QEAAPEAX_KPEBDH@Z 0000000180111340 f i GuPCMContactConvexCommon.obj
 0001:001103e0       ?doSupport@?$SupportLocalImpl@VTriangleV@Gu@physx@@@Gu@physx@@UEBA?AT__m128@@AEBT4@@Z 00000001801113e0 f i GuPCMContactConvexCommon.obj
 0001:00110470       ?doSupport@?$SupportLocalImpl@VTriangleV@Gu@physx@@@Gu@physx@@UEBAXAEBT__m128@@AEAT4@1@Z 0000000180111470 f i GuPCMContactConvexCommon.obj
 0001:001104f0       ?growAndPushBack@?$Array@USortedTriangle@Gu@physx@@V?$InlineAllocator@$0IAA@V?$ReflectionAllocator@USortedTriangle@Gu@physx@@@shdfnd@physx@@@shdfnd@3@@shdfnd@physx@@IEAAAEAUSortedTriangle@Gu@3@AEBU453@@Z 00000001801114f0 f i GuPCMContactConvexCommon.obj
 0001:00110b70       ?populateVerts@?$SupportLocalImpl@VTriangleV@Gu@physx@@@Gu@physx@@UEBAXPEBEIPEBVPxVec3@3@PEAT__m128@@@Z 0000000180111b70 f i GuPCMContactConvexCommon.obj
 0001:00110bb0       ?pcmContactConvexConvex@Gu@physx@@YA_NAEBVGeometryUnion@12@0AEBVPxTransform@2@1AEBUNarrowPhaseParams@12@AEAUCache@12@AEAVContactBuffer@12@PEAVRenderOutput@Cm@2@@Z 0000000180111bb0 f   GuPCMContactConvexConvex.obj
 0001:00111d10       ??$gjkPenetration@U?$RelativeConvex@VConvexHullNoScaleV@Gu@physx@@@Gu@physx@@U?$LocalConvex@VConvexHullNoScaleV@Gu@physx@@@23@@Gu@physx@@YA?AW4GjkStatus@01@AEBU?$RelativeConvex@VConvexHullNoScaleV@Gu@physx@@@01@AEBU?$LocalConvex@VConvexHullNoScaleV@Gu@physx@@@01@AEBT__m128@@2_NPEIAE4AEAEAEAUGjkOutput@01@@Z 0000000180112d10 f i GuPCMContactConvexConvex.obj
 0001:001132c0       ??$gjkPenetration@U?$RelativeConvex@VConvexHullNoScaleV@Gu@physx@@@Gu@physx@@U?$LocalConvex@VConvexHullV@Gu@physx@@@23@@Gu@physx@@YA?AW4GjkStatus@01@AEBU?$RelativeConvex@VConvexHullNoScaleV@Gu@physx@@@01@AEBU?$LocalConvex@VConvexHullV@Gu@physx@@@01@AEBT__m128@@2_NPEIAE4AEAEAEAUGjkOutput@01@@Z 00000001801142c0 f i GuPCMContactConvexConvex.obj
 0001:00114900       ??$gjkPenetration@U?$RelativeConvex@VConvexHullV@Gu@physx@@@Gu@physx@@U?$LocalConvex@VConvexHullNoScaleV@Gu@physx@@@23@@Gu@physx@@YA?AW4GjkStatus@01@AEBU?$RelativeConvex@VConvexHullV@Gu@physx@@@01@AEBU?$LocalConvex@VConvexHullNoScaleV@Gu@physx@@@01@AEBT__m128@@2_NPEIAE4AEAEAEAUGjkOutput@01@@Z 0000000180115900 f i GuPCMContactConvexConvex.obj
 0001:00115f30       ??_E?$RelativeConvex@VConvexHullNoScaleV@Gu@physx@@@Gu@physx@@UEAAPEAXI@Z 0000000180116f30 f i GuPCMContactConvexConvex.obj
 0001:00115f30       ??_G?$RelativeConvex@VConvexHullNoScaleV@Gu@physx@@@Gu@physx@@UEAAPEAXI@Z 0000000180116f30 f i GuPCMContactConvexConvex.obj
 0001:00116960       ?getCenter@?$RelativeConvex@VConvexHullNoScaleV@Gu@physx@@@Gu@physx@@UEBA?AT__m128@@XZ 0000000180117960 f i GuPCMContactConvexConvex.obj
 0001:001169a0       ?getSweepMargin@?$RelativeConvex@VConvexHullNoScaleV@Gu@physx@@@Gu@physx@@UEBA?AT__m128@@XZ 00000001801179a0 f i GuPCMContactConvexConvex.obj
 0001:001169c0       ?support@?$RelativeConvex@VConvexHullNoScaleV@Gu@physx@@@Gu@physx@@UEBA?AT__m128@@AEBT4@@Z 00000001801179c0 f i GuPCMContactConvexConvex.obj
 0001:00116a70       ?support@?$RelativeConvex@VConvexHullNoScaleV@Gu@physx@@@Gu@physx@@UEBA?AT__m128@@AEBT4@AEAH@Z 0000000180117a70 f i GuPCMContactConvexConvex.obj
 0001:00116b30       ?supportPoint@?$RelativeConvex@VConvexHullNoScaleV@Gu@physx@@@Gu@physx@@UEBA?AT__m128@@H@Z 0000000180117b30 f i GuPCMContactConvexConvex.obj
 0001:00116b90       ?pcmContactBoxHeightField@Gu@physx@@YA_NAEBVGeometryUnion@12@0AEBVPxTransform@2@1AEBUNarrowPhaseParams@12@AEAUCache@12@AEAVContactBuffer@12@PEAVRenderOutput@Cm@2@@Z 0000000180117b90 f   GuPCMContactConvexHeightField.obj
 0001:00116e30       ?pcmContactConvexHeightField@Gu@physx@@YA_NAEBVGeometryUnion@12@0AEBVPxTransform@2@1AEBUNarrowPhaseParams@12@AEAUCache@12@AEAVContactBuffer@12@PEAVRenderOutput@Cm@2@@Z 0000000180117e30 f   GuPCMContactConvexHeightField.obj
 0001:00117520       ?PCMContactConvexHeightfield@Gu@physx@@YA_NAEBUPolygonalData@12@PEAVSupportLocal@12@AEBT__m128@@AEBVPxBounds3@2@AEBVPxHeightFieldGeometry@2@AEBVPxTransform@2@5MAEAVContactBuffer@12@AEBVFastVertex2ShapeScaling@Cm@2@_NAEAVMultiplePersistentContactManifold@12@PEAVRenderOutput@Cm@2@@Z 0000000180118520 f   GuPCMContactConvexHeightField.obj
 0001:00117fd0       ??_G?$PCMHeightfieldContactGenerationCallback@UPCMConvexVsHeightfieldContactGenerationCallback@physx@@@Gu@physx@@UEAAPEAXI@Z 0000000180118fd0 f i GuPCMContactConvexHeightField.obj
 0001:00117fd0       ??_E?$PCMHeightfieldContactGenerationCallback@UPCMConvexVsHeightfieldContactGenerationCallback@physx@@@Gu@physx@@UEAAPEAXI@Z 0000000180118fd0 f i GuPCMContactConvexHeightField.obj
 0001:00118000       ??_GPCMConvexVsHeightfieldContactGenerationCallback@physx@@UEAAPEAXI@Z 0000000180119000 f i GuPCMContactConvexHeightField.obj
 0001:00118000       ??_EPCMConvexVsHeightfieldContactGenerationCallback@physx@@UEAAPEAXI@Z 0000000180119000 f i GuPCMContactConvexHeightField.obj
 0001:00118030       ?onEvent@?$PCMHeightfieldContactGenerationCallback@UPCMConvexVsHeightfieldContactGenerationCallback@physx@@@Gu@physx@@UEAA_NIPEAI@Z 0000000180119030 f i GuPCMContactConvexHeightField.obj
 0001:001185f0       ?pcmContactBoxMesh@Gu@physx@@YA_NAEBVGeometryUnion@12@0AEBVPxTransform@2@1AEBUNarrowPhaseParams@12@AEAUCache@12@AEAVContactBuffer@12@PEAVRenderOutput@Cm@2@@Z 00000001801195f0 f   GuPCMContactConvexMesh.obj
 0001:00118930       ?pcmContactConvexMesh@Gu@physx@@YA_NAEBVGeometryUnion@12@0AEBVPxTransform@2@1AEBUNarrowPhaseParams@12@AEAUCache@12@AEAVContactBuffer@12@PEAVRenderOutput@Cm@2@@Z 0000000180119930 f   GuPCMContactConvexMesh.obj
 0001:00119100       ?PCMContactConvexMesh@Gu@physx@@YA_NAEBUPolygonalData@12@PEAVSupportLocal@12@AEBT__m128@@AEBVPxBounds3@2@AEBUPxTriangleMeshGeometryLL@2@AEBVPxTransform@2@5MAEAVContactBuffer@12@AEBVFastVertex2ShapeScaling@Cm@2@7_N8AEAVMultiplePersistentContactManifold@12@PEAVRenderOutput@Cm@2@@Z 000000018011a100 f   GuPCMContactConvexMesh.obj
 0001:00119cb0       ??$processTriangleCache@$0BA@@PCMConvexVsMeshContactGenerationCallback@physx@@QEAAXAEAU?$TriangleCache@$0BA@@Gu@1@@Z 000000018011acb0 f i GuPCMContactConvexMesh.obj
 0001:00119d40       ??_G?$PCMMeshContactGenerationCallback@UPCMConvexVsMeshContactGenerationCallback@physx@@@Gu@physx@@UEAAPEAXI@Z 000000018011ad40 f i GuPCMContactConvexMesh.obj
 0001:00119d40       ??_E?$PCMMeshContactGenerationCallback@UPCMConvexVsMeshContactGenerationCallback@physx@@@Gu@physx@@UEAAPEAXI@Z 000000018011ad40 f i GuPCMContactConvexMesh.obj
 0001:00119d70       ??_EPCMConvexVsMeshContactGenerationCallback@physx@@UEAAPEAXI@Z 000000018011ad70 f i GuPCMContactConvexMesh.obj
 0001:00119d70       ??_GPCMConvexVsMeshContactGenerationCallback@physx@@UEAAPEAXI@Z 000000018011ad70 f i GuPCMContactConvexMesh.obj
 0001:00119da0       ?processHit@?$PCMMeshContactGenerationCallback@UPCMConvexVsMeshContactGenerationCallback@physx@@@Gu@physx@@UEAA_NAEBUPxRaycastHit@3@AEBVPxVec3@3@11AEAMPEBI@Z 000000018011ada0 f i GuPCMContactConvexMesh.obj
 0001:0011a1d0       ?generateFullContactManifold@Gu@physx@@YA_NAEAUPolygonalData@12@0PEAVSupportLocal@12@1PEAVPersistentContact@12@AEAIAEBT__m128@@444MM_NPEAVRenderOutput@Cm@2@M@Z 000000018011b1d0 f   GuPCMContactGenBoxConvex.obj
 0001:0011ba20       ?addGJKEPAContacts@Gu@physx@@YA_NPEBUGjkConvex@12@0AEBVPsMatTransformV@aos@shdfnd@2@W4GjkStatus@12@PEAVPersistentContact@12@T__m128@@4AEAUGjkOutput@12@AEAVPersistentContactManifold@12@@Z 000000018011ca20 f   GuPCMContactGenBoxConvex.obj
 0001:0011bc30       ?computeMTD@Gu@physx@@YA_NAEAUPolygonalData@12@0PEAVSupportLocal@12@1AEAT__m128@@2@Z 000000018011cc30 f   GuPCMContactGenBoxConvex.obj
 0001:0011c290       ?buildPartialHull@Gu@physx@@YAXAEBUPolygonalData@12@PEAVSupportLocal@12@AEAVSeparatingAxes@12@AEBT__m128@@3@Z 000000018011d290 f   GuPCMContactGenBoxConvex.obj
 0001:0011c550       ?generatedContacts@Gu@physx@@YAXAEAUPolygonalData@12@0AEBUHullPolygonData@12@1PEAVSupportLocal@12@2AEBVPsMatTransformV@aos@shdfnd@2@PEAVPersistentContact@12@AEAIAEBT__m128@@PEAVRenderOutput@Cm@2@@Z 000000018011d550 f   GuPCMContactGenBoxConvex.obj
 0001:0011dc50       ?generateFullContactManifold@Gu@physx@@YA_NAEBVCapsuleV@12@AEAUPolygonalData@12@PEAVSupportLocal@12@AEBVPsMatTransformV@aos@shdfnd@2@PEAVPersistentContact@12@AEAIAEBT__m128@@AEAT__m128@@6M_NM@Z 000000018011ec50 f   GuPCMContactGenSphereCapsule.obj
 0001:0011e570       ?generateCapsuleBoxFullContactManifold@Gu@physx@@YA_NAEBVCapsuleV@12@AEAUPolygonalData@12@PEAVSupportLocal@12@AEBVPsMatTransformV@aos@shdfnd@2@PEAVPersistentContact@12@AEAIAEBT__m128@@AEAT__m128@@6M_NMPEAVRenderOutput@Cm@2@@Z 000000018011f570 f   GuPCMContactGenSphereCapsule.obj
 0001:0011ee00       ?computeMTD@Gu@physx@@YA_NAEBVCapsuleV@12@AEAUPolygonalData@12@PEAVSupportLocal@12@AEAT__m128@@3@Z 000000018011fe00 f   GuPCMContactGenSphereCapsule.obj
 0001:0011eef0       ?generateSphereFullContactManifold@Gu@physx@@YA_NAEBVCapsuleV@12@AEAUPolygonalData@12@PEAVSupportLocal@12@PEAVPersistentContact@12@AEAIAEBT__m128@@AEAT7@_N@Z 000000018011fef0 f   GuPCMContactGenSphereCapsule.obj
 0001:0011f370       ?generatedCapsuleBoxFaceContacts@Gu@physx@@YAXAEBVCapsuleV@12@AEAUPolygonalData@12@AEBUHullPolygonData@12@PEAVSupportLocal@12@AEBVPsMatTransformV@aos@shdfnd@2@PEAVPersistentContact@12@AEAIAEBT__m128@@7@Z 0000000180120370 f   GuPCMContactGenSphereCapsule.obj
 0001:0011fb20       ?generatedContactsEEContacts@Gu@physx@@YAXAEBVCapsuleV@12@AEAUPolygonalData@12@AEBUHullPolygonData@12@PEAVSupportLocal@12@AEBVPsMatTransformV@aos@shdfnd@2@PEAVPersistentContact@12@AEAIAEBT__m128@@7@Z 0000000180120b20 f   GuPCMContactGenSphereCapsule.obj
 0001:001207e0       ?pcmContactPlaneBox@Gu@physx@@YA_NAEBVGeometryUnion@12@0AEBVPxTransform@2@1AEBUNarrowPhaseParams@12@AEAUCache@12@AEAVContactBuffer@12@PEAVRenderOutput@Cm@2@@Z 00000001801217e0 f   GuPCMContactPlaneBox.obj
 0001:001213f0       ?pcmContactPlaneCapsule@Gu@physx@@YA_NAEBVGeometryUnion@12@0AEBVPxTransform@2@1AEBUNarrowPhaseParams@12@AEAUCache@12@AEAVContactBuffer@12@PEAVRenderOutput@Cm@2@@Z 00000001801223f0 f   GuPCMContactPlaneCapsule.obj
 0001:00121bb0       ?pcmContactPlaneConvex@Gu@physx@@YA_NAEBVGeometryUnion@12@0AEBVPxTransform@2@1AEBUNarrowPhaseParams@12@AEAUCache@12@AEAVContactBuffer@12@PEAVRenderOutput@Cm@2@@Z 0000000180122bb0 f   GuPCMContactPlaneConvex.obj
 0001:00122540       ?pcmContactSphereBox@Gu@physx@@YA_NAEBVGeometryUnion@12@0AEBVPxTransform@2@1AEBUNarrowPhaseParams@12@AEAUCache@12@AEAVContactBuffer@12@PEAVRenderOutput@Cm@2@@Z 0000000180123540 f   GuPCMContactSphereBox.obj
 0001:00122990       ?pcmContactSphereCapsule@Gu@physx@@YA_NAEBVGeometryUnion@12@0AEBVPxTransform@2@1AEBUNarrowPhaseParams@12@AEAUCache@12@AEAVContactBuffer@12@PEAVRenderOutput@Cm@2@@Z 0000000180123990 f   GuPCMContactSphereCapsule.obj
 0001:00122bd0       ?pcmContactSphereConvex@Gu@physx@@YA_NAEBVGeometryUnion@12@0AEBVPxTransform@2@1AEBUNarrowPhaseParams@12@AEAUCache@12@AEAVContactBuffer@12@PEAVRenderOutput@Cm@2@@Z 0000000180123bd0 f   GuPCMContactSphereConvex.obj
 0001:00123b20       ?pcmContactSphereHeightField@Gu@physx@@YA_NAEBVGeometryUnion@12@0AEBVPxTransform@2@1AEBUNarrowPhaseParams@12@AEAUCache@12@AEAVContactBuffer@12@PEAVRenderOutput@Cm@2@@Z 0000000180124b20 f   GuPCMContactSphereHeightField.obj
 0001:001245c0       ??1?$Array@USortedTriangle@Gu@physx@@V?$InlineAllocator@$0IAA@V?$ReflectionAllocator@USortedTriangle@Gu@physx@@@shdfnd@physx@@@shdfnd@3@@shdfnd@physx@@QEAA@XZ 00000001801255c0 f i GuPCMContactSphereHeightField.obj
 0001:00124630       ??_E?$PCMHeightfieldContactGenerationCallback@UPCMSphereVsHeightfieldContactGenerationCallback@physx@@@Gu@physx@@UEAAPEAXI@Z 0000000180125630 f i GuPCMContactSphereHeightField.obj
 0001:00124630       ??_G?$PCMHeightfieldContactGenerationCallback@UPCMSphereVsHeightfieldContactGenerationCallback@physx@@@Gu@physx@@UEAAPEAXI@Z 0000000180125630 f i GuPCMContactSphereHeightField.obj
 0001:00124660       ??_EPCMSphereVsHeightfieldContactGenerationCallback@physx@@UEAAPEAXI@Z 0000000180125660 f i GuPCMContactSphereHeightField.obj
 0001:00124660       ??_GPCMSphereVsHeightfieldContactGenerationCallback@physx@@UEAAPEAXI@Z 0000000180125660 f i GuPCMContactSphereHeightField.obj
 0001:001246b0       ?onEvent@?$PCMHeightfieldContactGenerationCallback@UPCMSphereVsHeightfieldContactGenerationCallback@physx@@@Gu@physx@@UEAA_NIPEAI@Z 00000001801256b0 f i GuPCMContactSphereHeightField.obj
 0001:00124c70       ?pcmContactSphereMesh@Gu@physx@@YA_NAEBVGeometryUnion@12@0AEBVPxTransform@2@1AEBUNarrowPhaseParams@12@AEAUCache@12@AEAVContactBuffer@12@PEAVRenderOutput@Cm@2@@Z 0000000180125c70 f   GuPCMContactSphereMesh.obj
 0001:00125860       ??$processTriangleCache@$0BA@@PCMSphereVsMeshContactGenerationCallback@physx@@QEAAXAEAU?$TriangleCache@$0BA@@Gu@1@@Z 0000000180126860 f i GuPCMContactSphereMesh.obj
 0001:001258f0       ??_E?$PCMMeshContactGenerationCallback@UPCMSphereVsMeshContactGenerationCallback@physx@@@Gu@physx@@UEAAPEAXI@Z 00000001801268f0 f i GuPCMContactSphereMesh.obj
 0001:001258f0       ??_G?$PCMMeshContactGenerationCallback@UPCMSphereVsMeshContactGenerationCallback@physx@@@Gu@physx@@UEAAPEAXI@Z 00000001801268f0 f i GuPCMContactSphereMesh.obj
 0001:00125920       ??_GPCMSphereVsMeshContactGenerationCallback@physx@@UEAAPEAXI@Z 0000000180126920 f i GuPCMContactSphereMesh.obj
 0001:00125920       ??_EPCMSphereVsMeshContactGenerationCallback@physx@@UEAAPEAXI@Z 0000000180126920 f i GuPCMContactSphereMesh.obj
 0001:00125970       ?processHit@?$PCMMeshContactGenerationCallback@UPCMSphereVsMeshContactGenerationCallback@physx@@@Gu@physx@@UEAA_NAEBUPxRaycastHit@3@AEBVPxVec3@3@11AEAMPEBI@Z 0000000180126970 f i GuPCMContactSphereMesh.obj
 0001:00125d30       ?pcmContactSpherePlane@Gu@physx@@YA_NAEBVGeometryUnion@12@0AEBVPxTransform@2@1AEBUNarrowPhaseParams@12@AEAUCache@12@AEAVContactBuffer@12@PEAVRenderOutput@Cm@2@@Z 0000000180126d30 f   GuPCMContactSpherePlane.obj
 0001:00125ec0       ?pcmContactSphereSphere@Gu@physx@@YA_NAEBVGeometryUnion@12@0AEBVPxTransform@2@1AEBUNarrowPhaseParams@12@AEAUCache@12@AEAVContactBuffer@12@PEAVRenderOutput@Cm@2@@Z 0000000180126ec0 f   GuPCMContactSphereSphere.obj
 0001:00125fb0       ??0PCMPolygonalBox@Gu@physx@@QEAA@AEBVPxVec3@2@@Z 0000000180126fb0 f   GuPCMShapeConvex.obj
 0001:00126180       ?getPolygonalData@PCMPolygonalBox@Gu@physx@@QEBAXPEIAUPolygonalData@23@@Z 0000000180127180 f   GuPCMShapeConvex.obj
 0001:001261d0       ?getPCMConvexData@Gu@physx@@YAXAEBVConvexHullV@12@_NAEAUPolygonalData@12@@Z 00000001801271d0 f   GuPCMShapeConvex.obj
 0001:00126330       ?getPCMConvexData@Gu@physx@@YA_NAEBVGeometryUnion@12@AEAVFastVertex2ShapeScaling@Cm@2@AEAVPxBounds3@2@AEAUPolygonalData@12@@Z 0000000180127330 f   GuPCMShapeConvex.obj
 0001:001266f0       ?generateTriangleFullContactManifold@PCMConvexVsMeshContactGeneration@Gu@physx@@QEAA_NAEAVTriangleV@23@IPEBIEAEBUPolygonalData@23@PEAV?$SupportLocalImpl@VTriangleV@Gu@physx@@@23@PEAVSupportLocal@23@PEAVMeshPersistentContact@23@AEAIAEBT__m128@@AEAT9@@Z 00000001801276f0 f   GuPCMTriangleContactGen.obj
 0001:00127010       ?generatePolyDataContactManifold@PCMConvexVsMeshContactGeneration@Gu@physx@@QEAA_NAEAVTriangleV@23@IIEPEAVMeshPersistentContact@23@AEAIAEBT__m128@@AEAT6@@Z 0000000180128010 f   GuPCMTriangleContactGen.obj
 0001:00127140       ?generateTriangleFullContactManifold@PCMConvexVsMeshContactGeneration@Gu@physx@@SA_NAEAVTriangleV@23@IEAEBUPolygonalData@23@PEAV?$SupportLocalImpl@VTriangleV@Gu@physx@@@23@PEAVSupportLocal@23@PEAVMeshPersistentContact@23@AEAIAEBT__m128@@AEAT9@PEAVRenderOutput@Cm@3@@Z 0000000180128140 f   GuPCMTriangleContactGen.obj
 0001:00129870       ?findRotationMatrixFromZAxis@Gu@physx@@YA?AUMat33V@aos@shdfnd@2@AEBT__m128@@@Z 000000018012a870 f   GuPersistentContactManifold.obj
 0001:00129b40       ?replaceManifoldPoint@PersistentContactManifold@Gu@physx@@QEAA_NAEBT__m128@@000@Z 000000018012ab40 f   GuPersistentContactManifold.obj
 0001:00129c10       ?addManifoldPoint@PersistentContactManifold@Gu@physx@@QEAAIAEBT__m128@@000@Z 000000018012ac10 f   GuPersistentContactManifold.obj
 0001:00129cd0       ?addManifoldPoint2@PersistentContactManifold@Gu@physx@@QEAAIAEBT__m128@@000@Z 000000018012acd0 f   GuPersistentContactManifold.obj
 0001:00129e00       ?addBatchManifoldContactsCluster@PersistentContactManifold@Gu@physx@@QEAAXPEBVPersistentContact@23@I@Z 000000018012ae00 f   GuPersistentContactManifold.obj
 0001:00129e80       ?addBatchManifoldContacts2@PersistentContactManifold@Gu@physx@@QEAAXPEBVPersistentContact@23@I@Z 000000018012ae80 f   GuPersistentContactManifold.obj
 0001:00129f00       ?addBatchManifoldContacts@PersistentContactManifold@Gu@physx@@QEAAXPEBVPersistentContact@23@IM@Z 000000018012af00 f   GuPersistentContactManifold.obj
 0001:00129f80       ?reduceBatchContactsCluster@PersistentContactManifold@Gu@physx@@QEAAXPEBVPersistentContact@23@I@Z 000000018012af80 f   GuPersistentContactManifold.obj
 0001:0012a420       ?reduceBatchContacts2@PersistentContactManifold@Gu@physx@@QEAAXPEBVPersistentContact@23@I@Z 000000018012b420 f   GuPersistentContactManifold.obj
 0001:0012a620       ?reduceBatchContacts@PersistentContactManifold@Gu@physx@@QEAAXPEBVPersistentContact@23@IM@Z 000000018012b620 f   GuPersistentContactManifold.obj
 0001:0012aaf0       ?reduceContactsForPCM@PersistentContactManifold@Gu@physx@@QEAAIAEBT__m128@@00@Z 000000018012baf0 f   GuPersistentContactManifold.obj
 0001:0012b090       ?reduceContactSegment@PersistentContactManifold@Gu@physx@@QEAAIAEBT__m128@@00@Z 000000018012c090 f   GuPersistentContactManifold.obj
 0001:0012b130       ?addManifoldContactsToContactBuffer@PersistentContactManifold@Gu@physx@@QEAAXAEAVContactBuffer@23@AEBT__m128@@AEBVPsMatTransformV@aos@shdfnd@3@@Z 000000018012c130 f   GuPersistentContactManifold.obj
 0001:0012b1e0       ?addManifoldContactsToContactBuffer@PersistentContactManifold@Gu@physx@@QEAAXAEAVContactBuffer@23@AEBT__m128@@AEBVPsTransformV@aos@shdfnd@3@1@Z 000000018012c1e0 f   GuPersistentContactManifold.obj
 0001:0012b340       ?addManifoldContactsToContactBuffer@PersistentContactManifold@Gu@physx@@QEAAXAEAVContactBuffer@23@AEBT__m128@@1AEBVPsTransformV@aos@shdfnd@3@11@Z 000000018012c340 f   GuPersistentContactManifold.obj
 0001:0012b4e0       ?recordWarmStart@PersistentContactManifold@Gu@physx@@QEAAXPEAE0AEAE@Z 000000018012c4e0 f   GuPersistentContactManifold.obj
 0001:0012b530       ?setWarmStart@PersistentContactManifold@Gu@physx@@QEAAXPEBE0E@Z 000000018012c530 f   GuPersistentContactManifold.obj
 0001:0012b580       ?drawManifold@PersistentContactManifold@Gu@physx@@QEAAXAEAVRenderOutput@Cm@3@AEBVPsTransformV@aos@shdfnd@3@1@Z 000000018012c580 f   GuPersistentContactManifold.obj
 0001:0012b600       ?drawManifold@PersistentContactManifold@Gu@physx@@QEAAXAEAVRenderOutput@Cm@3@AEBVPsTransformV@aos@shdfnd@3@1AEBT__m128@@@Z 000000018012c600 f   GuPersistentContactManifold.obj
 0001:0012b6a0       ?drawManifold@PersistentContactManifold@Gu@physx@@QEAAXAEBVPersistentContact@23@AEAVRenderOutput@Cm@3@AEBVPsTransformV@aos@shdfnd@3@2@Z 000000018012c6a0 f   GuPersistentContactManifold.obj
 0001:0012b6d0       ?drawPoint@PersistentContactManifold@Gu@physx@@SAXAEAVRenderOutput@Cm@3@AEBT__m128@@MI@Z 000000018012c6d0 f   GuPersistentContactManifold.obj
 0001:0012b8b0       ?drawLine@PersistentContactManifold@Gu@physx@@SAXAEAVRenderOutput@Cm@3@AEBT__m128@@1I@Z 000000018012c8b0 f   GuPersistentContactManifold.obj
 0001:0012b970       ?drawTriangle@PersistentContactManifold@Gu@physx@@SAXAEAVRenderOutput@Cm@3@AEBT__m128@@11I@Z 000000018012c970 f   GuPersistentContactManifold.obj
 0001:0012ba60       ?drawPolygon@PersistentContactManifold@Gu@physx@@SAXAEAVRenderOutput@Cm@3@AEBVPsTransformV@aos@shdfnd@3@PEAT__m128@@II@Z 000000018012ca60 f   GuPersistentContactManifold.obj
 0001:0012bce0       ?drawPolygon@PersistentContactManifold@Gu@physx@@SAXAEAVRenderOutput@Cm@3@AEBVPsMatTransformV@aos@shdfnd@3@PEAT__m128@@II@Z 000000018012cce0 f   GuPersistentContactManifold.obj
 0001:0012bea0       ?reduceBatchContactsConvex@SinglePersistentContactManifold@Gu@physx@@QEAA?AT__m128@@PEBVMeshPersistentContact@23@IAEAUPCMContactPatch@23@@Z 000000018012cea0 f   GuPersistentContactManifold.obj
 0001:0012c4a0       ?reduceBatchContactsSphere@SinglePersistentContactManifold@Gu@physx@@QEAA?AT__m128@@PEBVMeshPersistentContact@23@IAEAUPCMContactPatch@23@@Z 000000018012d4a0 f   GuPersistentContactManifold.obj
 0001:0012c560       ?reduceBatchContactsCapsule@SinglePersistentContactManifold@Gu@physx@@QEAA?AT__m128@@PEBVMeshPersistentContact@23@IAEAUPCMContactPatch@23@@Z 000000018012d560 f   GuPersistentContactManifold.obj
 0001:0012c7f0       ?addBatchManifoldContactsConvex@SinglePersistentContactManifold@Gu@physx@@QEAA?AT__m128@@PEBVMeshPersistentContact@23@IAEAUPCMContactPatch@23@AEBT4@@Z 000000018012d7f0 f   GuPersistentContactManifold.obj
 0001:0012c8c0       ?addBatchManifoldContactsSphere@SinglePersistentContactManifold@Gu@physx@@QEAA?AT__m128@@PEBVMeshPersistentContact@23@IAEAUPCMContactPatch@23@AEBT4@@Z 000000018012d8c0 f   GuPersistentContactManifold.obj
 0001:0012c990       ?addBatchManifoldContactsCapsule@SinglePersistentContactManifold@Gu@physx@@QEAA?AT__m128@@PEBVMeshPersistentContact@23@IAEAUPCMContactPatch@23@AEBT4@@Z 000000018012d990 f   GuPersistentContactManifold.obj
 0001:0012ca60       ?reduceContacts@SinglePersistentContactManifold@Gu@physx@@SAIPEAVMeshPersistentContact@23@I@Z 000000018012da60 f   GuPersistentContactManifold.obj
 0001:0012cf70       ?refreshContactPoints@SinglePersistentContactManifold@Gu@physx@@QEAA?AT__m128@@AEBVPsMatTransformV@aos@shdfnd@3@AEBT4@1@Z 000000018012df70 f   GuPersistentContactManifold.obj
 0001:0012d0c0       ?drawManifold@SinglePersistentContactManifold@Gu@physx@@QEAAXAEAVRenderOutput@Cm@3@AEBVPsTransformV@aos@shdfnd@3@1@Z 000000018012e0c0 f   GuPersistentContactManifold.obj
 0001:0012d150       ?addManifoldContactPoints@MultiplePersistentContactManifold@Gu@physx@@QEAAXPEAVMeshPersistentContact@23@IPEAPEAUPCMContactPatch@23@IAEBT__m128@@2E@Z 000000018012e150 f   GuPersistentContactManifold.obj
 0001:0012d570       ?addManifoldContactsToContactBuffer@MultiplePersistentContactManifold@Gu@physx@@QEAA_NAEAVContactBuffer@23@AEBVPsTransformV@aos@shdfnd@3@@Z 000000018012e570 f   GuPersistentContactManifold.obj
 0001:0012d7e0       ?addManifoldContactsToContactBuffer@MultiplePersistentContactManifold@Gu@physx@@QEAA_NAEAVContactBuffer@23@AEBVPsTransformV@aos@shdfnd@3@1AEBT__m128@@@Z 000000018012e7e0 f   GuPersistentContactManifold.obj
 0001:0012daa0       ?drawManifold@MultiplePersistentContactManifold@Gu@physx@@QEAAXAEAVRenderOutput@Cm@3@AEBVPsTransformV@aos@shdfnd@3@1@Z 000000018012eaa0 f   GuPersistentContactManifold.obj
 0001:0012db60       ?fromBuffer@MultiplePersistentContactManifold@Gu@physx@@QEAAXPEIAE@Z 000000018012eb60 f   GuPersistentContactManifold.obj
 0001:0012dcb0       ?drawLine@MultiplePersistentContactManifold@Gu@physx@@SAXAEAVRenderOutput@Cm@3@AEBT__m128@@1I@Z 000000018012ecb0 f   GuPersistentContactManifold.obj
 0001:0012dd70       ?drawLine@MultiplePersistentContactManifold@Gu@physx@@SAXAEAVRenderOutput@Cm@3@VPxVec3@3@1I@Z 000000018012ed70 f   GuPersistentContactManifold.obj
 0001:0012de30       ?drawPoint@MultiplePersistentContactManifold@Gu@physx@@SAXAEAVRenderOutput@Cm@3@AEBT__m128@@MI@Z 000000018012ee30 f   GuPersistentContactManifold.obj
 0001:0012e010       ?drawPolygon@MultiplePersistentContactManifold@Gu@physx@@SAXAEAVRenderOutput@Cm@3@AEBVPsTransformV@aos@shdfnd@3@PEAT__m128@@II@Z 000000018012f010 f   GuPersistentContactManifold.obj
 0001:0012e290       ?addManifoldPoint@Gu@physx@@YAXPEAVPersistentContact@12@AEAVPersistentContactManifold@12@AEAUGjkOutput@12@AEBVPsMatTransformV@aos@shdfnd@2@T__m128@@@Z 000000018012f290 f   GuPersistentContactManifold.obj
 0001:0012f740       ?sweepBoxBox@Gu@physx@@YA_NAEBVBox@12@0AEBVPxVec3@2@MV?$PxFlags@W4Enum@PxHitFlag@physx@@G@2@AEAUPxSweepHit@2@@Z 0000000180130740 f   GuSweepBoxBox.obj
 0001:00130d30       ?sweepBoxSphere@Gu@physx@@YA_NAEBVBox@12@MAEBVPxVec3@2@1MAEAMAEAV42@V?$PxFlags@W4Enum@PxHitFlag@physx@@G@2@@Z 0000000180131d30 f   GuSweepBoxSphere.obj
 0001:001317f0       ?sweepBoxTriangle@Gu@physx@@YA_NAEBVPxTriangle@2@AEBVPxBounds3@2@AEBVPxVec3@2@2AEAV52@3AEAM_N@Z 00000001801327f0 f   GuSweepBoxTriangle_FeatureBased.obj
 0001:00133090       ?triBoxSweepTestBoxSpace@Gu@physx@@YAHAEBVPxTriangle@2@AEBVPxVec3@2@11MAEAM_N@Z 0000000180134090 f   GuSweepBoxTriangle_SAT.obj
 0001:001339d0       ?sweepCapsuleBox@Gu@physx@@YA_NAEBVCapsule@12@AEBVPxTransform@2@AEBVPxVec3@2@2MAEAV52@AEAM3V?$PxFlags@W4Enum@PxHitFlag@physx@@G@2@@Z 00000001801349d0 f   GuSweepCapsuleBox.obj
 0001:00133d40       ??0PxTriangle@physx@@QEAA@XZ 0000000180134d40 f i GuSweepCapsuleBox.obj
 0001:00133d50       ??1PxTriangle@physx@@QEAA@XZ 0000000180134d50 f i GuSweepCapsuleBox.obj
 0001:00134d30       ?sweepCapsuleCapsule@Gu@physx@@YA_NAEBVCapsule@12@0AEBVPxVec3@2@MAEAMAEAV42@3IAEAG@Z 0000000180135d30 f   GuSweepCapsuleCapsule.obj
 0001:00135b00       ??0Capsule@Gu@physx@@QEAA@XZ 0000000180136b00 f i GuSweepCapsuleCapsule.obj
 0001:00135b10       ??1Capsule@Gu@physx@@QEAA@XZ 0000000180136b10 f i GuSweepCapsuleCapsule.obj
 0001:00135b20       ?distancePointSegmentSquared@Gu@physx@@YAMAEBVSegment@12@AEBVPxVec3@2@PEAM@Z 0000000180136b20 f i GuSweepCapsuleCapsule.obj
 0001:00135ea0       ?sweepCapsuleTriangles_Precise@Gu@physx@@YA_NIPEIBVPxTriangle@2@AEBVCapsule@12@AEBVPxVec3@2@MPEIBIAEAUPxSweepHit@2@AEAV52@V?$PxFlags@W4Enum@PxHitFlag@physx@@G@2@_NPEBVBoxPadded@12@@Z 0000000180136ea0 f   GuSweepCapsuleTriangle.obj
 0001:00137f30       ?sweepSphereCapsule@Gu@physx@@YA_NAEBVSphere@12@AEBVCapsule@12@AEBVPxVec3@2@MAEAMAEAV52@4V?$PxFlags@W4Enum@PxHitFlag@physx@@G@2@@Z 0000000180138f30 f   GuSweepSphereCapsule.obj
 0001:001385d0       ?sweepSphereSphere@Gu@physx@@YA_NAEBVPxVec3@2@M0M0AEAMAEAV32@@Z 00000001801395d0 f   GuSweepSphereSphere.obj
 0001:00138860       ?sweepSphereVSTri@Gu@physx@@YA_NPEIBVPxVec3@2@AEBV32@1M1AEAMAEA_N_N@Z 0000000180139860 f   GuSweepSphereTriangle.obj
 0001:00139750       ?sweepSphereVSQuad@Gu@physx@@YA_NPEIBVPxVec3@2@AEBV32@1M1AEAM@Z 000000018013a750 f   GuSweepSphereTriangle.obj
 0001:0013abe0       ?sweepSphereTriangles@Gu@physx@@YA_NIPEIBVPxTriangle@2@AEBVPxVec3@2@M1MPEIBIAEAUPxSweepHit@2@AEAV42@_N555@Z 000000018013bbe0 f   GuSweepSphereTriangle.obj
 0001:0013b490       ?computeSphereTriImpactData@Gu@physx@@YAXAEAVPxVec3@2@0AEBV32@1MAEBVPxTriangle@2@@Z 000000018013c490 f   GuSweepTriangleUtils.obj
 0001:0013b730       ?computeBoxTriImpactData@Gu@physx@@YAXAEAVPxVec3@2@0AEBV32@1AEBVPxTriangle@2@M@Z 000000018013c730 f   GuSweepTriangleUtils.obj
 0001:0013b9c0       ?computeEdgeEdgeNormal@Gu@physx@@YAXAEAVPxVec3@2@AEBV32@1111M@Z 000000018013c9c0 f   GuSweepTriangleUtils.obj
 0001:0013bc80       ??$gjk@U?$LocalConvex@VTriangleV@Gu@physx@@@Gu@physx@@U?$LocalConvex@VBoxV@Gu@physx@@@23@@Gu@physx@@YA?AW4GjkStatus@01@AEBU?$LocalConvex@VTriangleV@Gu@physx@@@01@AEBU?$LocalConvex@VBoxV@Gu@physx@@@01@AEBT__m128@@2AEAT5@333@Z 000000018013cc80 f i GuSweepTriangleUtils.obj
 0001:0013cb0c       __imp_load_PxGetFoundation 000000018013db0c f   PhysXFoundation_64:PhysXFoundation_64.dll
 0001:0013cb18       PxGetFoundation            000000018013db18 f   PhysXFoundation_64:PhysXFoundation_64.dll
 0001:0013cb1e       __tailMerge_physxfoundation_64_dll 000000018013db1e     PhysXFoundation_64:PhysXFoundation_64.dll
 0001:0013cb97       __imp_load_?getAllocator@shdfnd@physx@@YAAEAVPxAllocatorCallback@2@XZ 000000018013db97 f   PhysXFoundation_64:PhysXFoundation_64.dll
 0001:0013cba3       ?getAllocator@shdfnd@physx@@YAAEAVPxAllocatorCallback@2@XZ 000000018013dba3 f   PhysXFoundation_64:PhysXFoundation_64.dll
 0001:0013cba9       __imp_load_?getInstance@Foundation@shdfnd@physx@@SAAEAV123@XZ 000000018013dba9 f   PhysXFoundation_64:PhysXFoundation_64.dll
 0001:0013cbb5       ?getInstance@Foundation@shdfnd@physx@@SAAEAV123@XZ 000000018013dbb5 f   PhysXFoundation_64:PhysXFoundation_64.dll
 0001:0013cbbb       __imp_load_?error@Foundation@shdfnd@physx@@QEAAXW4Enum@PxErrorCode@3@PEBDH1ZZ 000000018013dbbb f   PhysXFoundation_64:PhysXFoundation_64.dll
 0001:0013cbc7       ?error@Foundation@shdfnd@physx@@QEAAXW4Enum@PxErrorCode@3@PEBDH1ZZ 000000018013dbc7 f   PhysXFoundation_64:PhysXFoundation_64.dll
 0001:0013cbcd       __imp_load_?PxShortestRotation@physx@@YA?AVPxQuat@1@AEBVPxVec3@1@0@Z 000000018013dbcd f   PhysXFoundation_64:PhysXFoundation_64.dll
 0001:0013cbd9       ?PxShortestRotation@physx@@YA?AVPxQuat@1@AEBVPxVec3@1@0@Z 000000018013dbd9 f   PhysXFoundation_64:PhysXFoundation_64.dll
 0001:0013cbdf       __imp_load_?vsnprintf@shdfnd@physx@@YAHPEAD_KPEBD0@Z 000000018013dbdf f   PhysXFoundation_64:PhysXFoundation_64.dll
 0001:0013cbeb       ?vsnprintf@shdfnd@physx@@YAHPEAD_KPEBD0@Z 000000018013dbeb f   PhysXFoundation_64:PhysXFoundation_64.dll
 0001:0013cbf1       __imp_load_??0MutexImpl@shdfnd@physx@@QEAA@XZ 000000018013dbf1 f   PhysXFoundation_64:PhysXFoundation_64.dll
 0001:0013cbfd       ??0MutexImpl@shdfnd@physx@@QEAA@XZ 000000018013dbfd f   PhysXFoundation_64:PhysXFoundation_64.dll
 0001:0013cc03       __imp_load_??1MutexImpl@shdfnd@physx@@QEAA@XZ 000000018013dc03 f   PhysXFoundation_64:PhysXFoundation_64.dll
 0001:0013cc0f       ??1MutexImpl@shdfnd@physx@@QEAA@XZ 000000018013dc0f f   PhysXFoundation_64:PhysXFoundation_64.dll
 0001:0013cc15       __imp_load_?lock@MutexImpl@shdfnd@physx@@QEAAXXZ 000000018013dc15 f   PhysXFoundation_64:PhysXFoundation_64.dll
 0001:0013cc21       ?lock@MutexImpl@shdfnd@physx@@QEAAXXZ 000000018013dc21 f   PhysXFoundation_64:PhysXFoundation_64.dll
 0001:0013cc27       __imp_load_?unlock@MutexImpl@shdfnd@physx@@QEAAXXZ 000000018013dc27 f   PhysXFoundation_64:PhysXFoundation_64.dll
 0001:0013cc33       ?unlock@MutexImpl@shdfnd@physx@@QEAAXXZ 000000018013dc33 f   PhysXFoundation_64:PhysXFoundation_64.dll
 0001:0013cc39       __imp_load_?getSize@MutexImpl@shdfnd@physx@@SAIXZ 000000018013dc39 f   PhysXFoundation_64:PhysXFoundation_64.dll
 0001:0013cc45       ?getSize@MutexImpl@shdfnd@physx@@SAIXZ 000000018013dc45 f   PhysXFoundation_64:PhysXFoundation_64.dll
 0001:0013cc4b       __imp_load_?atomicDecrement@shdfnd@physx@@YAHPECH@Z 000000018013dc4b f   PhysXFoundation_64:PhysXFoundation_64.dll
 0001:0013cc57       ?atomicDecrement@shdfnd@physx@@YAHPECH@Z 000000018013dc57 f   PhysXFoundation_64:PhysXFoundation_64.dll
 0001:0013cc5d       __imp_load_?optimizeBoundingBox@shdfnd@physx@@YA?AVPxVec3@2@AEAVPxMat33@2@@Z 000000018013dc5d f   PhysXFoundation_64:PhysXFoundation_64.dll
 0001:0013cc69       ?optimizeBoundingBox@shdfnd@physx@@YA?AVPxVec3@2@AEAVPxMat33@2@@Z 000000018013dc69 f   PhysXFoundation_64:PhysXFoundation_64.dll
 0001:0013cc6f       __imp_load_?allocate@TempAllocator@shdfnd@physx@@QEAAPEAX_KPEBDH@Z 000000018013dc6f f   PhysXFoundation_64:PhysXFoundation_64.dll
 0001:0013cc7b       ?allocate@TempAllocator@shdfnd@physx@@QEAAPEAX_KPEBDH@Z 000000018013dc7b f   PhysXFoundation_64:PhysXFoundation_64.dll
 0001:0013cc81       __imp_load_?deallocate@TempAllocator@shdfnd@physx@@QEAAXPEAX@Z 000000018013dc81 f   PhysXFoundation_64:PhysXFoundation_64.dll
 0001:0013cc8d       ?deallocate@TempAllocator@shdfnd@physx@@QEAAXPEAX@Z 000000018013dc8d f   PhysXFoundation_64:PhysXFoundation_64.dll
 0001:0013cc93       __imp_load_?atomicIncrement@shdfnd@physx@@YAHPECH@Z 000000018013dc93 f   PhysXFoundation_64:PhysXFoundation_64.dll
 0001:0013cc9f       ?atomicIncrement@shdfnd@physx@@YAHPECH@Z 000000018013dc9f f   PhysXFoundation_64:PhysXFoundation_64.dll
 0001:0013cca5       FreeLibrary                000000018013dca5 f   kernel32:KERNEL32.dll
 0001:0013ccab       GetProcAddress             000000018013dcab f   kernel32:KERNEL32.dll
 0001:0013ccb1       LoadLibraryA               000000018013dcb1 f   kernel32:KERNEL32.dll
 0001:0013ccb8       ??$PFromRva@PEAP6A_JXZ@@YAPEAP6A_JXZK@Z 000000018013dcb8 f i Delayimp:delayhlp.obj
 0001:0013ccc8       ??$PFromRva@PEAPEAUHINSTANCE__@@@@YAPEAPEAUHINSTANCE__@@K@Z 000000018013dcc8 f i Delayimp:delayhlp.obj
 0001:0013ccd8       ??$PFromRva@PEAU_IMAGE_IMPORT_BY_NAME@@@@YAPEAU_IMAGE_IMPORT_BY_NAME@@K@Z 000000018013dcd8 f i Delayimp:delayhlp.obj
 0001:0013cce8       ??$PFromRva@PEAU_IMAGE_THUNK_DATA64@@@@YAPEAU_IMAGE_THUNK_DATA64@@K@Z 000000018013dce8 f i Delayimp:delayhlp.obj
 0001:0013ccf8       ??$PFromRva@PEBD@@YAPEBDK@Z 000000018013dcf8 f i Delayimp:delayhlp.obj
 0001:0013cd08       ??$PFromRva@PEBUImgDelayDescr@@@@YAPEBUImgDelayDescr@@K@Z 000000018013dd08 f i Delayimp:delayhlp.obj
 0001:0013cd18       ??$PFromRva@PEBU_IMAGE_THUNK_DATA64@@@@YAPEBU_IMAGE_THUNK_DATA64@@K@Z 000000018013dd18 f i Delayimp:delayhlp.obj
 0001:0013cd28       ?CountOfImports@@YAIPEBU_IMAGE_THUNK_DATA64@@@Z 000000018013dd28 f i Delayimp:delayhlp.obj
 0001:0013cd3c       ?DloadAcquireSectionWriteAccess@@YAXXZ 000000018013dd3c f i Delayimp:delayhlp.obj
 0001:0013cde8       ?DloadGetSRWLockFunctionPointers@@YAEXZ 000000018013dde8 f i Delayimp:delayhlp.obj
 0001:0013ce84       ?DloadLock@@YAXXZ          000000018013de84 f i Delayimp:delayhlp.obj
 0001:0013cecc       ?DloadMakePermanentImageCommit@@YAXPEAX_K@Z 000000018013decc f i Delayimp:delayhlp.obj
 0001:0013cf64       ?DloadObtainSection@@YAPEAXPEAK0@Z 000000018013df64 f i Delayimp:delayhlp.obj
 0001:0013d000       ?DloadProtectSection@@YAXKPEAK@Z 000000018013e000 f i Delayimp:delayhlp.obj
 0001:0013d090       ?DloadReleaseSectionWriteAccess@@YAXXZ 000000018013e090 f i Delayimp:delayhlp.obj
 0001:0013d124       ?DloadUnlock@@YAXXZ        000000018013e124 f i Delayimp:delayhlp.obj
 0001:0013d164       ?IndexFromPImgThunkData@@YAIPEBU_IMAGE_THUNK_DATA64@@0@Z 000000018013e164 f i Delayimp:delayhlp.obj
 0001:0013d2ac       HRESULT_FROM_WIN32         000000018013e2ac f i Delayimp:delayhlp.obj
 0001:0013d2bc       ReadAcquire64              000000018013e2bc f i Delayimp:delayhlp.obj
 0001:0013d2c0       ReadPointerAcquire         000000018013e2c0 f i Delayimp:delayhlp.obj
 0001:0013d2c4       WritePointerRelease        000000018013e2c4 f i Delayimp:delayhlp.obj
 0001:0013d2c8       WriteRelease64             000000018013e2c8 f i Delayimp:delayhlp.obj
 0001:0013d2cc       __FUnloadDelayLoadedDLL2   000000018013e2cc f   Delayimp:delayhlp.obj
 0001:0013d388       __HrLoadAllImportsForDll   000000018013e388 f   Delayimp:delayhlp.obj
 0001:0013d3fc       __delayLoadHelper2         000000018013e3fc f   Delayimp:delayhlp.obj
 0001:0013d6d4       ??3@YAXPEAX_K@Z            000000018013e6d4 f   LIBCMT:delete_scalar_size.obj
 0001:0013d6dc       ??1type_info@@UEAA@XZ      000000018013e6dc f   LIBCMT:std_type_info_static.obj
 0001:0013d6e8       ??_Gtype_info@@UEAAPEAXI@Z 000000018013e6e8 f i LIBCMT:std_type_info_static.obj
 0001:0013d6e8       ??_Etype_info@@UEAAPEAXI@Z 000000018013e6e8 f i LIBCMT:std_type_info_static.obj
 0001:0013d714       ?__scrt_initialize_type_info@@YAXXZ 000000018013e714 f   LIBCMT:tncleanup.obj
 0001:0013d724       ?__scrt_uninitialize_type_info@@YAXXZ 000000018013e724 f   LIBCMT:tncleanup.obj
 0001:0013d730       ??_V@YAXPEAX_K@Z           000000018013e730 f   LIBCMT:delete_array_size.obj
 0001:0013d750       _alloca_probe              000000018013e750 f   LIBCMT:chkstk.obj
 0001:0013d750       __chkstk                   000000018013e750 f   LIBCMT:chkstk.obj
 0001:0013d7b0       __vdecl_sinf4              000000018013e7b0 f   LIBCMT:svml_ssinf4_dispatch.obj
 0001:0013d7d0       __libm_sse2_sincosf_       000000018013e7d0 f   LIBCMT:svml_ssinf4_dispatch.obj
 0001:0013d813       __libm_sse2_sincosf4_      000000018013e813 f   LIBCMT:svml_ssinf4_dispatch.obj
 0001:0013d820       ??3@YAXPEAX@Z              000000018013e820 f   LIBCMT:delete_scalar.obj
 0001:0013d828       ??_V@YAXPEAX@Z             000000018013e828 f   LIBCMT:delete_array.obj
 0001:0013db6c       _CRT_INIT                  000000018013eb6c f   LIBCMT:dll_dllmain.obj
 0001:0013db74       _DllMainCRTStartup         000000018013eb74 f   LIBCMT:dll_dllmain.obj
 0001:0013dbb4       _guard_check_icall_nop     000000018013ebb4 f i LIBCMT:guard_support.obj
 0001:0013dbb8       ReadNoFence64              000000018013ebb8 f i LIBCMT:guard_support.obj
 0001:0013dbbc       ReadPointerNoFence         000000018013ebbc f i LIBCMT:guard_support.obj
 0001:0013dbc0       _guard_icall_checks_enforced 000000018013ebc0 f i LIBCMT:guard_support.obj
 0001:0013dbd8       _guard_rf_checks_enforced  000000018013ebd8 f i LIBCMT:guard_support.obj
 0001:0013dbdc       __isa_available_init       000000018013ebdc f   LIBCMT:cpu_disp.obj
 0001:0013dd80       __sse2_sinf4@@16           000000018013ed80 f   LIBCMT:svml_ssinf4_sse2.obj
 0001:0013e6c0       __sse4_sinf4@@16           000000018013f6c0 f   LIBCMT:svml_ssinf4_sse4.obj
 0001:0013eea0       __security_init_cookie     000000018013fea0 f   LIBCMT:gs_support.obj
 0001:0013ef4c       DllMain                    000000018013ff4c f   LIBCMT:dll_dllmain_stub.obj
 0001:0013ef54       __local_stdio_printf_options 000000018013ff54 f i LIBCMT:default_local_stdio_options.obj
 0001:0013ef5c       __local_stdio_scanf_options 000000018013ff5c f i LIBCMT:default_local_stdio_options.obj
 0001:0013ef64       __scrt_initialize_default_local_stdio_options 000000018013ff64 f   LIBCMT:default_local_stdio_options.obj
 0001:0013ef80       ?configure_argv@__scrt_narrow_argv_policy@@SAHXZ 000000018013ff80 f i LIBCMT:utility.obj
 0001:0013efe0       ?initialize_environment@__scrt_narrow_environment_policy@@SAHXZ 000000018013ffe0 f i LIBCMT:utility.obj
 0001:0013f018       NtCurrentTeb               0000000180140018 f i LIBCMT:utility.obj
 0001:0013f024       __scrt_acquire_startup_lock 0000000180140024 f   LIBCMT:utility.obj
 0001:0013f060       __scrt_dllmain_after_initialize_c 0000000180140060 f   LIBCMT:utility.obj
 0001:0013f094       __scrt_dllmain_before_initialize_c 0000000180140094 f   LIBCMT:utility.obj
 0001:0013f0ac       __scrt_dllmain_crt_thread_attach 00000001801400ac f   LIBCMT:utility.obj
 0001:0013f0d4       __scrt_dllmain_crt_thread_detach 00000001801400d4 f   LIBCMT:utility.obj
 0001:0013f0ec       __scrt_dllmain_exception_filter 00000001801400ec f   LIBCMT:utility.obj
 0001:0013f14c       __scrt_dllmain_uninitialize_c 000000018014014c f   LIBCMT:utility.obj
 0001:0013f17c       __scrt_dllmain_uninitialize_critical 000000018014017c f   LIBCMT:utility.obj
 0001:0013f190       __scrt_initialize_crt      0000000180140190 f   LIBCMT:utility.obj
 0001:0013f1dc       __scrt_initialize_onexit_tables 00000001801401dc f   LIBCMT:utility.obj
 0001:0013f268       __scrt_is_nonwritable_in_current_image 0000000180140268 f   LIBCMT:utility.obj
 0001:0013f300       __scrt_release_startup_lock 0000000180140300 f   LIBCMT:utility.obj
 0001:0013f324       __scrt_uninitialize_crt    0000000180140324 f   LIBCMT:utility.obj
 0001:0013f350       _onexit                    0000000180140350 f   LIBCMT:utility.obj
 0001:0013f38c       at_quick_exit              000000018014038c f   LIBCMT:utility.obj
 0001:0013f3ac       atexit                     00000001801403ac f   LIBCMT:utility.obj
 0001:0013f3c4       __scrt_get_dyn_tls_init_callback 00000001801403c4 f   LIBCMT:dyn_tls_init.obj
 0001:0013f3cc       __crt_debugger_hook        00000001801403cc f   LIBCMT:utility_desktop.obj
 0001:0013f3d4       __scrt_fastfail            00000001801403d4 f   LIBCMT:utility_desktop.obj
 0001:0013f520       __scrt_get_show_window_mode 0000000180140520 f   LIBCMT:utility_desktop.obj
 0001:0013f55c       __scrt_initialize_mta      000000018014055c f   LIBCMT:utility_desktop.obj
 0001:0013f564       __scrt_initialize_winrt    0000000180140564 f   LIBCMT:utility_desktop.obj
 0001:0013f568       __scrt_is_managed_app      0000000180140568 f   LIBCMT:utility_desktop.obj
 0001:0013f5bc       __scrt_set_unhandled_exception_filter 00000001801405bc f   LIBCMT:utility_desktop.obj
 0001:0013f5cc       __scrt_stub_for_initialize_mta 00000001801405cc f   LIBCMT:utility_desktop.obj
 0001:0013f5cc       __scrt_exe_initialize_mta  00000001801405cc f   LIBCMT:utility_desktop.obj
 0001:0013f5d0       __scrt_unhandled_exception_filter 00000001801405d0 f   LIBCMT:utility_desktop.obj
 0001:0013f62c       _RTC_Initialize            000000018014062c f   LIBCMT:initsect.obj
 0001:0013f668       _RTC_Terminate             0000000180140668 f   LIBCMT:initsect.obj
 0001:0013f6b0       __common_ssin_cout_rare    00000001801406b0 f   LIBCMT:svml_s_sin_cout.obj
 0001:0013f720       _get_startup_argv_mode     0000000180140720 f   LIBCMT:argv_mode.obj
 0001:0013f728       __scrt_is_ucrt_dll_in_use  0000000180140728 f   LIBCMT:ucrt_detection.obj
 0001:0013f734       ??$__crt_interlocked_exchange_pointer@$$A6AXXZP6AXXZ@@YAP6AXXZPEDS6AXXZQ6AXXZ@Z 0000000180140734 f i libvcruntime:purevirt.obj
 0001:0013f73c       ??$__crt_interlocked_read_pointer@$$A6AXXZ@@YAP6AXXZPEDS6AXXZ@Z 000000018014073c f i libvcruntime:purevirt.obj
 0001:0013f740       ?__crt_interlocked_read_64@@YA_JPED_J@Z 0000000180140740 f i libvcruntime:purevirt.obj
 0001:0013f744       _get_purecall_handler      0000000180140744 f   libvcruntime:purevirt.obj
 0001:0013f74c       _purecall                  000000018014074c f   libvcruntime:purevirt.obj
 0001:0013f768       _set_purecall_handler      0000000180140768 f   libvcruntime:purevirt.obj
 0001:0013f784       ??$?RD@__crt_internal_free_policy@@QEBAXQEBD@Z 0000000180140784 f i libvcruntime:std_type_info.obj
 0001:0013f78c       ??$?RX@__crt_internal_free_policy@@QEBAXQEBX@Z 000000018014078c f i libvcruntime:std_type_info.obj
 0001:0013f794       ??$__crt_interlocked_compare_exchange_pointer@$$CBDPEAD$$T@@YAPEBDPEDSEBDQEAD$$T@Z 0000000180140794 f i libvcruntime:std_type_info.obj
 0001:0013f7a0       ??$__crt_interlocked_read_pointer@$$CBD@@YAPEBDPEDSEBD@Z 00000001801407a0 f i libvcruntime:std_type_info.obj
 0001:0013f7a4       ??0?$__crt_unique_heap_ptr@DU__crt_internal_free_policy@@@@QEAA@QEAD@Z 00000001801407a4 f i libvcruntime:std_type_info.obj
 0001:0013f7ac       ??0?$__crt_unique_heap_ptr@XU__crt_internal_free_policy@@@@QEAA@QEAX@Z 00000001801407ac f i libvcruntime:std_type_info.obj
 0001:0013f7b4       ??1?$__crt_unique_heap_ptr@DU__crt_internal_free_policy@@@@QEAA@XZ 00000001801407b4 f i libvcruntime:std_type_info.obj
 0001:0013f7d0       ??1?$__crt_unique_heap_ptr@XU__crt_internal_free_policy@@@@QEAA@XZ 00000001801407d0 f i libvcruntime:std_type_info.obj
 0001:0013f7ec       ??B?$__crt_unique_heap_ptr@DU__crt_internal_free_policy@@@@QEBA_NXZ 00000001801407ec f i libvcruntime:std_type_info.obj
 0001:0013f7f4       ??B?$__crt_unique_heap_ptr@XU__crt_internal_free_policy@@@@QEBA_NXZ 00000001801407f4 f i libvcruntime:std_type_info.obj
 0001:0013f81c       ?detach@?$__crt_unique_heap_ptr@XU__crt_internal_free_policy@@@@QEAAPEAXXZ 000000018014081c f i libvcruntime:std_type_info.obj
 0001:0013f824       ?get@?$__crt_unique_heap_ptr@DU__crt_internal_free_policy@@@@QEBAPEADXZ 0000000180140824 f i libvcruntime:std_type_info.obj
 0001:0013f828       ?get@?$__crt_unique_heap_ptr@XU__crt_internal_free_policy@@@@QEBAPEAXXZ 0000000180140828 f i libvcruntime:std_type_info.obj
 0001:0013f82c       ?is_valid@?$__crt_unique_heap_ptr@DU__crt_internal_free_policy@@@@QEBA_NXZ 000000018014082c f i libvcruntime:std_type_info.obj
 0001:0013f834       ?is_valid@?$__crt_unique_heap_ptr@XU__crt_internal_free_policy@@@@QEBA_NXZ 0000000180140834 f i libvcruntime:std_type_info.obj
 0001:0013f83c       ?release@?$__crt_unique_heap_ptr@DU__crt_internal_free_policy@@@@QEAAXXZ 000000018014083c f i libvcruntime:std_type_info.obj
 0001:0013f858       ?release@?$__crt_unique_heap_ptr@XU__crt_internal_free_policy@@@@QEAAXXZ 0000000180140858 f i libvcruntime:std_type_info.obj
 0001:0013f874       __std_type_info_compare    0000000180140874 f   libvcruntime:std_type_info.obj
 0001:0013f89c       __std_type_info_destroy_list 000000018014089c f   libvcruntime:std_type_info.obj
 0001:0013f8c8       __std_type_info_hash       00000001801408c8 f   libvcruntime:std_type_info.obj
 0001:0013f900       __std_type_info_name       0000000180140900 f   libvcruntime:std_type_info.obj
 0001:0013fa30       memcpy_repmovs             0000000180140a30 f   libvcruntime:memcpy.obj
 0001:0013fa50       memcpy                     0000000180140a50 f   libvcruntime:memcpy.obj
 0001:0013fa50       memmove                    0000000180140a50 f   libvcruntime:memcpy.obj
 0001:0013fe40       memset_repmovs             0000000180140e40 f   libvcruntime:memset.obj
 0001:0013fe60       memset                     0000000180140e60 f   libvcruntime:memset.obj
 0001:0013fff0       strstr                     0000000180140ff0 f   libvcruntime:strstr.obj
 0001:001401ec       __C_specific_handler       00000001801411ec f   libvcruntime:riscchandler.obj
 0001:001403f8       __vcrt_initialize          00000001801413f8 f   libvcruntime:initialization.obj
 0001:00140420       __vcrt_thread_attach       0000000180141420 f   libvcruntime:initialization.obj
 0001:00140434       __vcrt_thread_detach       0000000180141434 f   libvcruntime:initialization.obj
 0001:00140448       __vcrt_uninitialize        0000000180141448 f   libvcruntime:initialization.obj
 0001:00140464       __vcrt_uninitialize_critical 0000000180141464 f   libvcruntime:initialization.obj
 0001:00140478       __DestructExceptionObject  0000000180141478 f   libvcruntime:ehhelpers.obj
 0001:001404e8       ?_CallMemberFunction0@@YAXQEAX0@Z 00000001801414e8 f i libvcruntime:ehhelpers.obj
 0001:00140544       ?raw_name@type_info@@QEBAPEBDXZ 0000000180141544 f i libvcruntime:ehhelpers.obj
 0001:0014054c       _IsExceptionObjectToBeDestroyed 000000018014154c f   libvcruntime:ehhelpers.obj
 0001:0014057c       _SetWinRTOutOfMemoryExceptionCallback 000000018014157c f   libvcruntime:ehhelpers.obj
 0001:00140584       __AdjustPointer            0000000180141584 f   libvcruntime:ehhelpers.obj
 0001:001405a8       __FrameUnwindFilter        00000001801415a8 f   libvcruntime:ehhelpers.obj
 0001:00140610       __GetPlatformExceptionInfo 0000000180141610 f   libvcruntime:ehhelpers.obj
 0001:0014066c       __current_exception        000000018014166c f   libvcruntime:ehhelpers.obj
 0001:00140680       __current_exception_context 0000000180141680 f   libvcruntime:ehhelpers.obj
 0001:00140694       __processing_throw         0000000180141694 f   libvcruntime:ehhelpers.obj
 0001:001406a8       __std_terminate            00000001801416a8 f   libvcruntime:ehhelpers.obj
 0001:001406b4       _is_exception_typeof       00000001801416b4 f   libvcruntime:ehhelpers.obj
 0001:0014075c       ??$?0$00@DName@@QEAA@PEBDU?$StringLifeSelector@$00@@@Z 000000018014175c f i libvcruntime:undname.obj
 0001:0014079c       ??$?0$00@pcharNode@@QEAA@PEBDHU?$StringLifeSelector@$00@@@Z 000000018014179c f i libvcruntime:undname.obj
 0001:001407b4       ??$?0$01@DName@@QEAA@PEBDU?$StringLifeSelector@$01@@@Z 00000001801417b4 f i libvcruntime:undname.obj
 0001:001407f4       ??$?0$01@pcharNode@@QEAA@PEBDHU?$StringLifeSelector@$01@@@Z 00000001801417f4 f i libvcruntime:undname.obj
 0001:00140868       ??$?0$0A@@DName@@QEAA@PEBDU?$StringLifeSelector@$0A@@@@Z 0000000180141868 f i libvcruntime:undname.obj
 0001:001408a8       ??$?0$0A@@pcharNode@@QEAA@PEBDHU?$StringLifeSelector@$0A@@@@Z 00000001801418a8 f i libvcruntime:undname.obj
 0001:0014091c       ??$?0_K$0A@@?$optional@_K@std@@QEAA@$$QEA_K@Z 000000018014191c f i libvcruntime:undname.obj
 0001:0014092c       ??$?0_K@?$_Optional_construct_base@_K@std@@QEAA@Uin_place_t@1@$$QEA_K@Z 000000018014192c f i libvcruntime:undname.obj
 0001:0014093c       ??$?0_K@?$_Optional_destruct_base@_K$00@std@@QEAA@Uin_place_t@1@$$QEA_K@Z 000000018014193c f i libvcruntime:undname.obj
 0001:0014094c       ??$append@VDNameNode@@@DName@@AEAAXPEBVDNameNode@@@Z 000000018014194c f i libvcruntime:undname.obj
 0001:001409b0       ??$append@VDNameStatusNode@@@DName@@AEAAXPEBVDNameStatusNode@@@Z 00000001801419b0 f i libvcruntime:undname.obj
 0001:00140a14       ??$append@VcharNode@@@DName@@AEAAXPEBVcharNode@@@Z 0000000180141a14 f i libvcruntime:undname.obj
 0001:00140a78       ??$append@VpDNameNode@@@DName@@AEAAXPEBVpDNameNode@@@Z 0000000180141a78 f i libvcruntime:undname.obj
 0001:00140adc       ??$append@VpcharNode@@@DName@@AEAAXPEBVpcharNode@@@Z 0000000180141adc f i libvcruntime:undname.obj
 0001:00140b40       ??$doPchar@$00@DName@@AEAAXPEBDH@Z 0000000180141b40 f i libvcruntime:undname.obj
 0001:00140be4       ??$doPchar@$01@DName@@AEAAXPEBDH@Z 0000000180141be4 f i libvcruntime:undname.obj
 0001:00140c7c       ??$doPchar@$0A@@DName@@AEAAXPEBDH@Z 0000000180141c7c f i libvcruntime:undname.obj
 0001:00140d14       ??$forward@_K@std@@YA$$QEA_KAEA_K@Z 0000000180141d14 f i libvcruntime:undname.obj
 0001:00140d18       ??$size@D$04@std@@YA_KAEAY04$$CBD@Z 0000000180141d18 f i libvcruntime:undname.obj
 0001:00140d20       ??$size@D$0EB@@std@@YA_KAEAY0EB@$$CBD@Z 0000000180141d20 f i libvcruntime:undname.obj
 0001:00140d28       ??0?$_Optional_construct_base@_K@std@@QEAA@XZ 0000000180141d28 f i libvcruntime:undname.obj
 0001:00140d34       ??0?$_Optional_destruct_base@_K$00@std@@QEAA@XZ 0000000180141d34 f i libvcruntime:undname.obj
 0001:00140d40       ??0?$optional@_K@std@@QEAA@XZ 0000000180141d40 f i libvcruntime:undname.obj
 0001:00140d4c       ??0Block@_HeapManager@@QEAA@XZ 0000000180141d4c f i libvcruntime:undname.obj
 0001:00140d54       ??0DName@@QEAA@AEAPEBDD@Z  0000000180141d54 f   libvcruntime:undname.obj
 0001:00140e04       ??0DName@@QEAA@AEBUStringLiteral@@@Z 0000000180141e04 f   libvcruntime:undname.obj
 0001:00140e30       ??0DName@@QEAA@AEBV0@@Z    0000000180141e30 f i libvcruntime:undname.obj
 0001:00140e40       ??0DName@@QEAA@D@Z         0000000180141e40 f   libvcruntime:undname.obj
 0001:00140e60       ??0DName@@QEAA@PEAV0@@Z    0000000180141e60 f   libvcruntime:undname.obj
 0001:00140ee4       ??0DName@@QEAA@W4DNameStatus@@@Z 0000000180141ee4 f   libvcruntime:undname.obj
 0001:00140f14       ??0DName@@QEAA@XZ          0000000180141f14 f i libvcruntime:undname.obj
 0001:00140f20       ??0DName@@QEAA@_J@Z        0000000180141f20 f   libvcruntime:undname.obj
 0001:00140fc8       ??0DName@@QEAA@_K@Z        0000000180141fc8 f   libvcruntime:undname.obj
 0001:00141050       ??0DNameNode@@IEAA@XZ      0000000180142050 f i libvcruntime:undname.obj
 0001:00141060       ??0Replicator@@QEAA@XZ     0000000180142060 f i libvcruntime:undname.obj
 0001:00141074       ??0UnDecorator@@QEAA@PEBDP6APEADJ@ZK@Z 0000000180142074 f i libvcruntime:undname.obj
 0001:001410c4       ??0charNode@@QEAA@D@Z      00000001801420c4 f i libvcruntime:undname.obj
 0001:001410d8       ??0pDNameNode@@QEAA@PEAVDName@@@Z 00000001801420d8 f   libvcruntime:undname.obj
 0001:00141100       ??0pairNode@@QEAA@PEBVDNameNode@@0@Z 0000000180142100 f i libvcruntime:undname.obj
 0001:00141124       ??2@YAPEAX_KAEAV_HeapManager@@H@Z 0000000180142124 f   libvcruntime:undname.obj
 0001:00141150       ??4DName@@QEAAAEAV0@AEBUStringLiteral@@@Z 0000000180142150 f   libvcruntime:undname.obj
 0001:00141178       ??4DName@@QEAAAEAV0@AEBV0@@Z 0000000180142178 f   libvcruntime:undname.obj
 0001:00141188       ??4DName@@QEAAAEAV0@D@Z    0000000180142188 f i libvcruntime:undname.obj
 0001:001411a8       ??4DName@@QEAAAEAV0@PEAV0@@Z 00000001801421a8 f   libvcruntime:undname.obj
 0001:00141220       ??4DName@@QEAAAEAV0@W4DNameStatus@@@Z 0000000180142220 f   libvcruntime:undname.obj
 0001:00141240       ??AReplicator@@QEBA?AVDName@@H@Z 0000000180142240 f   libvcruntime:undname.obj
 0001:00141280       ??B?$optional@_K@std@@QEBA_NXZ 0000000180142280 f i libvcruntime:undname.obj
 0001:00141284       ??D?$optional@_K@std@@QEGAAAEA_KXZ 0000000180142284 f i libvcruntime:undname.obj
 0001:00141288       ??H@YA?AVDName@@AEBUStringLiteral@@AEBV0@@Z 0000000180142288 f i libvcruntime:undname.obj
 0001:001412c0       ??H@YA?AVDName@@DAEBV0@@Z  00000001801422c0 f i libvcruntime:undname.obj
 0001:00141304       ??H@YA?AVDName@@W4DNameStatus@@AEBV0@@Z 0000000180142304 f i libvcruntime:undname.obj
 0001:00141350       ??HDName@@QEBA?AV0@AEBUStringLiteral@@@Z 0000000180142350 f   libvcruntime:undname.obj
 0001:0014137c       ??HDName@@QEBA?AV0@AEBV0@@Z 000000018014237c f   libvcruntime:undname.obj
 0001:001413a8       ??HDName@@QEBA?AV0@D@Z     00000001801423a8 f   libvcruntime:undname.obj
 0001:001413d4       ??HDName@@QEBA?AV0@PEAV0@@Z 00000001801423d4 f   libvcruntime:undname.obj
 0001:00141400       ??HDName@@QEBA?AV0@W4DNameStatus@@@Z 0000000180142400 f   libvcruntime:undname.obj
 0001:0014142c       ??HStringLiteral@@QEBA?AU0@H@Z 000000018014242c f i libvcruntime:undname.obj
 0001:00141444       ??YDName@@QEAAAEAV0@AEBUStringLiteral@@@Z 0000000180142444 f   libvcruntime:undname.obj
 0001:001414c4       ??YDName@@QEAAAEAV0@AEBV0@@Z 00000001801424c4 f   libvcruntime:undname.obj
 0001:00141578       ??YDName@@QEAAAEAV0@D@Z    0000000180142578 f   libvcruntime:undname.obj
 0001:001415e4       ??YDName@@QEAAAEAV0@PEAV0@@Z 00000001801425e4 f   libvcruntime:undname.obj
 0001:00141678       ??YDName@@QEAAAEAV0@W4DNameStatus@@@Z 0000000180142678 f   libvcruntime:undname.obj
 0001:001416e4       ??YReplicator@@QEAAAEAV0@AEBVDName@@@Z 00000001801426e4 f   libvcruntime:undname.obj
 0001:0014173c       ??_5DName@@QEAAAEAV0@AEBV0@@Z 000000018014273c f   libvcruntime:undname.obj
 0001:00141750       ??__K_l@@YA?AUStringLiteral@@PEBD_K@Z 0000000180142750 f i libvcruntime:undname.obj
 0001:0014175c       ?Constructor@_HeapManager@@QEAAXP6APEAX_K@ZP6AXPEAX@Z@Z 000000018014275c f i libvcruntime:undname.obj
 0001:00141774       ?Destructor@_HeapManager@@QEAAXXZ 0000000180142774 f i libvcruntime:undname.obj
 0001:001417c8       ?UScore@UnDecorator@@SA?AUStringLiteral@@W4Tokens@@@Z 00000001801427c8 f   libvcruntime:undname.obj
 0001:00141814       ?composeDeclaration@UnDecorator@@CA?AVDName@@AEBV2@@Z 0000000180142814 f i libvcruntime:undname.obj
 0001:001426bc       ?doAccessSpecifiers@UnDecorator@@SAHXZ 00000001801436bc f i libvcruntime:undname.obj
 0001:001426cc       ?doAllocationLanguage@UnDecorator@@SAHXZ 00000001801436cc f i libvcruntime:undname.obj
 0001:001426dc       ?doAllocationModel@UnDecorator@@SAHXZ 00000001801436dc f i libvcruntime:undname.obj
 0001:001426ec       ?doEcsu@UnDecorator@@SAHXZ 00000001801436ec f i libvcruntime:undname.obj
 0001:001426fc       ?doEllipsis@UnDecorator@@SAHXZ 00000001801436fc f i libvcruntime:undname.obj
 0001:0014270c       ?doFunctionReturns@UnDecorator@@SAHXZ 000000018014370c f i libvcruntime:undname.obj
 0001:0014271c       ?doMSKeywords@UnDecorator@@SAHXZ 000000018014371c f i libvcruntime:undname.obj
 0001:0014272c       ?doMemberTypes@UnDecorator@@SAHXZ 000000018014372c f i libvcruntime:undname.obj
 0001:0014273c       ?doNameOnly@UnDecorator@@SAHXZ 000000018014373c f i libvcruntime:undname.obj
 0001:00142748       ?doNoIdentCharCheck@UnDecorator@@SAHXZ 0000000180143748 f i libvcruntime:undname.obj
 0001:00142754       ?doPchar@DName@@AEAAXD@Z   0000000180143754 f   libvcruntime:undname.obj
 0001:001427a4       ?doPtr64@UnDecorator@@SAHXZ 00000001801437a4 f i libvcruntime:undname.obj
 0001:001427b4       ?doRestrictionSpec@UnDecorator@@SAHXZ 00000001801437b4 f i libvcruntime:undname.obj
 0001:001427c4       ?doThisTypes@UnDecorator@@SAHXZ 00000001801437c4 f i libvcruntime:undname.obj
 0001:001427d8       ?doThrowTypes@UnDecorator@@SAHXZ 00000001801437d8 f i libvcruntime:undname.obj
 0001:001427e8       ?doTypeOnly@UnDecorator@@SAHXZ 00000001801437e8 f i libvcruntime:undname.obj
 0001:001427f4       ?doUnderScore@UnDecorator@@SAHXZ 00000001801437f4 f i libvcruntime:undname.obj
 0001:00142800       ?getArgumentList@UnDecorator@@CA?AVDName@@XZ 0000000180143800 f   libvcruntime:undname.obj
 0001:00142994       ?getArgumentTypes@UnDecorator@@CA?AVDName@@XZ 0000000180143994 f   libvcruntime:undname.obj
 0001:00142af0       ?getArrayObject@UnDecorator@@CA?AVDName@@XZ 0000000180143af0 f   libvcruntime:undname.obj
 0001:00142bb8       ?getArrayType@UnDecorator@@CA?AVDName@@AEBV2@@Z 0000000180143bb8 f i libvcruntime:undname.obj
 0001:00142e00       ?getBasedType@UnDecorator@@CA?AVDName@@XZ 0000000180143e00 f   libvcruntime:undname.obj
 0001:00142ef8       ?getBasicDataType@UnDecorator@@CA?AVDName@@AEBV2@@Z 0000000180143ef8 f   libvcruntime:undname.obj
 0001:0014343c       ?getCHPEName@UnDecorator@@QEAAPEADPEADH@Z 000000018014443c f i libvcruntime:undname.obj
 0001:0014355c       ?getCallIndex@UnDecorator@@CA?AVDName@@XZ 000000018014455c f i libvcruntime:undname.obj
 0001:00143578       ?getCallingConvention@UnDecorator@@CA?AVDName@@XZ 0000000180144578 f   libvcruntime:undname.obj
 0001:001436b8       ?getDataIndirectType@UnDecorator@@CA?AVDName@@AEBV2@W4IndirectionKind@@0H@Z 00000001801446b8 f   libvcruntime:undname.obj
 0001:00143f50       ?getDataIndirectType@UnDecorator@@CA?AVDName@@XZ 0000000180144f50 f i libvcruntime:undname.obj
 0001:00143f8c       ?getDataType@UnDecorator@@CA?AVDName@@PEAV2@@Z 0000000180144f8c f   libvcruntime:undname.obj
 0001:001440a0       ?getDecoratedName@UnDecorator@@CA?AVDName@@XZ 00000001801450a0 f   libvcruntime:undname.obj
 0001:00144384       ?getDimension@UnDecorator@@CA?AVDName@@_N@Z 0000000180145384 f   libvcruntime:undname.obj
 0001:001444d0       ?getDispatchTarget@UnDecorator@@CA?AVDName@@XZ 00000001801454d0 f   libvcruntime:undname.obj
 0001:0014451c       ?getDisplacement@UnDecorator@@CA?AVDName@@XZ 000000018014551c f i libvcruntime:undname.obj
 0001:00144538       ?getECSUDataType@UnDecorator@@CA?AVDName@@XZ 0000000180145538 f   libvcruntime:undname.obj
 0001:00144718       ?getECSUName@UnDecorator@@CA?AVDName@@XZ 0000000180145718 f i libvcruntime:undname.obj
 0001:00144730       ?getEnumType@UnDecorator@@CA?AVDName@@XZ 0000000180145730 f i libvcruntime:undname.obj
 0001:00144858       ?getExtendedDataIndirectType@UnDecorator@@CA?AVDName@@AEAW4IndirectionKind@@AEA_NH@Z 0000000180145858 f   libvcruntime:undname.obj
 0001:00144a60       ?getExternalDataType@UnDecorator@@CA?AVDName@@AEBV2@@Z 0000000180145a60 f i libvcruntime:undname.obj
 0001:00144b20       ?getFloatingPoint@UnDecorator@@CA?AVDName@@H@Z 0000000180145b20 f   libvcruntime:undname.obj
 0001:00144c40       ?getFunctionIndirectType@UnDecorator@@CA?AVDName@@AEBV2@@Z 0000000180145c40 f   libvcruntime:undname.obj
 0001:00145178       ?getGuardNumber@UnDecorator@@CA?AVDName@@XZ 0000000180146178 f i libvcruntime:undname.obj
 0001:00145194       ?getLastChar@DName@@QEBADXZ 0000000180146194 f i libvcruntime:undname.obj
 0001:001451b0       ?getLastChar@DNameStatusNode@@UEBADXZ 00000001801461b0 f i libvcruntime:undname.obj
 0001:001451bc       ?getLastChar@charNode@@UEBADXZ 00000001801461bc f i libvcruntime:undname.obj
 0001:001451c0       ?getLastChar@pDNameNode@@UEBADXZ 00000001801461c0 f i libvcruntime:undname.obj
 0001:001451ec       ?getLastChar@pairNode@@UEBADXZ 00000001801461ec f i libvcruntime:undname.obj
 0001:00145224       ?getLastChar@pcharNode@@UEBADXZ 0000000180146224 f i libvcruntime:undname.obj
 0001:00145238       ?getLexicalFrame@UnDecorator@@CA?AVDName@@XZ 0000000180146238 f i libvcruntime:undname.obj
 0001:0014529c       ?getMemoryWithBuffer@_HeapManager@@QEAAPEAX_K@Z 000000018014629c f   libvcruntime:undname.obj
 0001:0014532c       ?getMemoryWithoutBuffer@_HeapManager@@QEAAPEAX_K@Z 000000018014632c f   libvcruntime:undname.obj
 0001:00145340       ?getNoexcept@UnDecorator@@CA?AVDName@@XZ 0000000180146340 f   libvcruntime:undname.obj
 0001:001453a4       ?getNumberOfDimensions@UnDecorator@@CAHXZ 00000001801463a4 f   libvcruntime:undname.obj
 0001:00145418       ?getOperatorName@UnDecorator@@CA?AVDName@@_NPEA_N@Z 0000000180146418 f i libvcruntime:undname.obj
 0001:00145c60       ?getPointerType@UnDecorator@@CA?AVDName@@AEBV2@0@Z 0000000180146c60 f i libvcruntime:undname.obj
 0001:00145c80       ?getPointerTypeArray@UnDecorator@@CA?AVDName@@AEBV2@0@Z 0000000180146c80 f i libvcruntime:undname.obj
 0001:00145c9c       ?getPrimaryDataType@UnDecorator@@CA?AVDName@@AEBV2@@Z 0000000180146c9c f   libvcruntime:undname.obj
 0001:00145f2c       ?getPtrRefDataType@UnDecorator@@CA?AVDName@@AEBV2@H@Z 0000000180146f2c f   libvcruntime:undname.obj
 0001:001460f8       ?getPtrRefType@UnDecorator@@CA?AVDName@@AEBV2@0W4IndirectionKind@@@Z 00000001801470f8 f   libvcruntime:undname.obj
 0001:001462d0       ?getReferenceType@UnDecorator@@CA?AVDName@@AEBV2@0W4IndirectionKind@@@Z 00000001801472d0 f i libvcruntime:undname.obj
 0001:001462e8       ?getRestrictionSpec@UnDecorator@@CA?AVDName@@XZ 00000001801472e8 f   libvcruntime:undname.obj
 0001:001464b4       ?getReturnType@UnDecorator@@CA?AVDName@@PEAV2@@Z 00000001801474b4 f   libvcruntime:undname.obj
 0001:001464e8       ?getScope@UnDecorator@@CA?AVDName@@XZ 00000001801474e8 f   libvcruntime:undname.obj
 0001:0014699c       ?getScopedName@UnDecorator@@CA?AVDName@@XZ 000000018014799c f   libvcruntime:undname.obj
 0001:00146ad8       ?getSignedDimension@UnDecorator@@CA?AVDName@@XZ 0000000180147ad8 f   libvcruntime:undname.obj
 0001:00146b60       ?getStorageConvention@UnDecorator@@CA?AVDName@@XZ 0000000180147b60 f i libvcruntime:undname.obj
 0001:00146b9c       ?getString@DName@@QEBAPEADPEAD0@Z 0000000180147b9c f i libvcruntime:undname.obj
 0001:00146bb8       ?getString@DName@@QEBAPEADPEADH@Z 0000000180147bb8 f i libvcruntime:undname.obj
 0001:00146c4c       ?getString@DNameStatusNode@@UEBAPEADPEAD0@Z 0000000180147c4c f i libvcruntime:undname.obj
 0001:00146c94       ?getString@charNode@@UEBAPEADPEAD0@Z 0000000180147c94 f i libvcruntime:undname.obj
 0001:00146ca8       ?getString@pDNameNode@@UEBAPEADPEAD0@Z 0000000180147ca8 f i libvcruntime:undname.obj
 0001:00146cd8       ?getString@pairNode@@UEBAPEADPEAD0@Z 0000000180147cd8 f i libvcruntime:undname.obj
 0001:00146d24       ?getString@pcharNode@@UEBAPEADPEAD0@Z 0000000180147d24 f i libvcruntime:undname.obj
 0001:00146d5c       ?getStringEncoding@UnDecorator@@CA?AVDName@@W4PrefixKind@@H@Z 0000000180147d5c f   libvcruntime:undname.obj
 0001:00146e40       ?getStringHelper@@YAPEADPEADPEBD1H@Z 0000000180147e40 f i libvcruntime:undname.obj
 0001:00146e70       ?getStringObject@UnDecorator@@CA?AVDName@@XZ 0000000180147e70 f   libvcruntime:undname.obj
 0001:00146ed8       ?getSymbolName@UnDecorator@@CA?AVDName@@XZ 0000000180147ed8 f i libvcruntime:undname.obj
 0001:00146f24       ?getTemplateArgumentList@UnDecorator@@CA?AVDName@@XZ 0000000180147f24 f   libvcruntime:undname.obj
 0001:00147178       ?getTemplateName@UnDecorator@@CA?AVDName@@_N@Z 0000000180148178 f   libvcruntime:undname.obj
 0001:0014740c       ?getTemplateNonTypeArgument@UnDecorator@@CA?AVDName@@XZ 000000018014840c f   libvcruntime:undname.obj
 0001:0014787c       ?getTemplateTypeArgument@UnDecorator@@CA?AVDName@@XZ 000000018014887c f   libvcruntime:undname.obj
 0001:001479e4       ?getThisType@UnDecorator@@CA?AVDName@@XZ 00000001801489e4 f i libvcruntime:undname.obj
 0001:00147a24       ?getThrowTypes@UnDecorator@@CA?AVDName@@XZ 0000000180148a24 f   libvcruntime:undname.obj
 0001:00147a48       ?getTypeEncoding@UnDecorator@@CAHXZ 0000000180148a48 f i libvcruntime:undname.obj
 0001:00147dbc       ?getUndecoratedName@UnDecorator@@QEAAPEADPEADH@Z 0000000180148dbc f i libvcruntime:undname.obj
 0001:00147f10       ?getVCallThunkType@UnDecorator@@CA?AVDName@@XZ 0000000180148f10 f i libvcruntime:undname.obj
 0001:00147f88       ?getValue@UnDecorator@@CA?AV?$optional@_K@std@@XZ 0000000180148f88 f   libvcruntime:undname.obj
 0001:00147ffc       ?getValueObject@UnDecorator@@CA?AVDName@@XZ 0000000180148ffc f   libvcruntime:undname.obj
 0001:00148130       ?getVbTableType@UnDecorator@@CA?AVDName@@AEBV2@@Z 0000000180149130 f i libvcruntime:undname.obj
 0001:00148148       ?getVdispMapType@UnDecorator@@CA?AVDName@@AEBV2@@Z 0000000180149148 f i libvcruntime:undname.obj
 0001:001481c4       ?getVfTableType@UnDecorator@@CA?AVDName@@AEBV2@@Z 00000001801491c4 f i libvcruntime:undname.obj
 0001:001483cc       ?getZName@UnDecorator@@CA?AVDName@@_N0@Z 00000001801493cc f   libvcruntime:undname.obj
 0001:001486b4       ?haveTemplateParameters@UnDecorator@@SAHXZ 00000001801496b4 f i libvcruntime:undname.obj
 0001:001486c0       ?isArray@DName@@QEBAHXZ    00000001801496c0 f i libvcruntime:undname.obj
 0001:001486cc       ?isComArray@DName@@QEBAHXZ 00000001801496cc f i libvcruntime:undname.obj
 0001:001486d8       ?isEmpty@DName@@QEBAHXZ    00000001801496d8 f i libvcruntime:undname.obj
 0001:001486e4       ?isFull@Replicator@@QEBAHXZ 00000001801496e4 f i libvcruntime:undname.obj
 0001:001486f0       ?isNoTE@DName@@QEBAHXZ     00000001801496f0 f i libvcruntime:undname.obj
 0001:001486fc       ?isPinPtr@DName@@QEBAHXZ   00000001801496fc f i libvcruntime:undname.obj
 0001:00148708       ?isPtrRef@DName@@QEBAHXZ   0000000180149708 f i libvcruntime:undname.obj
 0001:00148714       ?isUDC@DName@@QEBAHXZ      0000000180149714 f i libvcruntime:undname.obj
 0001:0014872c       ?isUDTThunk@DName@@QEBAHXZ 000000018014972c f i libvcruntime:undname.obj
 0001:00148744       ?isVCallThunk@DName@@QEBAHXZ 0000000180149744 f i libvcruntime:undname.obj
 0001:00148750       ?isValid@DName@@QEBAHXZ    0000000180149750 f i libvcruntime:undname.obj
 0001:0014875c       ?length@DName@@QEBAHXZ     000000018014975c f i libvcruntime:undname.obj
 0001:00148774       ?length@DNameStatusNode@@UEBAHXZ 0000000180149774 f i libvcruntime:undname.obj
 0001:00148778       ?length@charNode@@UEBAHXZ  0000000180149778 f i libvcruntime:undname.obj
 0001:00148780       ?length@pDNameNode@@UEBAHXZ 0000000180149780 f i libvcruntime:undname.obj
 0001:001487a8       ?length@pairNode@@UEBAHXZ  00000001801497a8 f i libvcruntime:undname.obj
 0001:001487f0       ?length@pcharNode@@UEBAHXZ 00000001801497f0 f i libvcruntime:undname.obj
 0001:001487f4       ?make@DNameStatusNode@@SAPEBV1@W4DNameStatus@@@Z 00000001801497f4 f i libvcruntime:undname.obj
 0001:00148814       ?parseDecoratedName@UnDecorator@@CA?AVDName@@XZ 0000000180149814 f   libvcruntime:undname.obj
 0001:00148928       ?raw_length@DNameStatusNode@@UEBAHXZ 0000000180149928 f i libvcruntime:undname.obj
 0001:0014892c       ?raw_length@charNode@@UEBAHXZ 000000018014992c f i libvcruntime:undname.obj
 0001:00148934       ?raw_length@pDNameNode@@UEBAHXZ 0000000180149934 f i libvcruntime:undname.obj
 0001:00148938       ?raw_length@pairNode@@UEBAHXZ 0000000180149938 f i libvcruntime:undname.obj
 0001:0014893c       ?raw_length@pcharNode@@UEBAHXZ 000000018014993c f i libvcruntime:undname.obj
 0001:00148940       ?setIsArray@DName@@QEAAXXZ 0000000180149940 f i libvcruntime:undname.obj
 0001:00148948       ?setIsComArray@DName@@QEAAXXZ 0000000180149948 f i libvcruntime:undname.obj
 0001:00148950       ?setIsNoTE@DName@@QEAAXXZ  0000000180149950 f i libvcruntime:undname.obj
 0001:00148958       ?setIsPinPtr@DName@@QEAAXXZ 0000000180149958 f i libvcruntime:undname.obj
 0001:00148960       ?setIsUDC@DName@@QEAAXXZ   0000000180149960 f i libvcruntime:undname.obj
 0001:0014896c       ?setIsVCallThunk@DName@@QEAAXXZ 000000018014996c f i libvcruntime:undname.obj
 0001:00148974       ?setPtrRef@DName@@QEAAAEAV1@XZ 0000000180149974 f i libvcruntime:undname.obj
 0001:00148980       ?status@DName@@QEBA?AW4DNameStatus@@XZ 0000000180149980 f i libvcruntime:undname.obj
 0001:001489e4       __unDName                  00000001801499e4 f   libvcruntime:undname.obj
 0001:00148a0c       __unDNameEx                0000000180149a0c f   libvcruntime:undname.obj
 0001:00148b40       _vsprintf_s_l              0000000180149b40 f i libvcruntime:undname.obj
 0001:00148ba4       sprintf_s                  0000000180149ba4 f i libvcruntime:undname.obj
 0001:00148bf8       unDNameGenerateCHPE        0000000180149bf8 f   libvcruntime:undname.obj
 0001:00148d10       _NLG_Notify                0000000180149d10 f   libvcruntime:notify.obj
 0001:00148d30       __NLG_Dispatch2            0000000180149d30 f   libvcruntime:notify.obj
 0001:00148d40       __NLG_Return2              0000000180149d40 f   libvcruntime:notify.obj
 0001:00148d4c       __except_validate_context_record 0000000180149d4c f   libvcruntime:jbcxrval.obj
 0001:00148d84       __except_validate_jump_buffer 0000000180149d84 f   libvcruntime:jbcxrval.obj
 0001:00148dc4       __except_validate_jump_buffer_common 0000000180149dc4 f i libvcruntime:jbcxrval.obj
 0001:00148e20       ??$?RU__vcrt_ptd@@@__crt_internal_free_policy@@QEBAXQEBU__vcrt_ptd@@@Z 0000000180149e20 f i libvcruntime:per_thread_data.obj
 0001:00148e28       ??0?$__crt_unique_heap_ptr@U__vcrt_ptd@@U__crt_internal_free_policy@@@@QEAA@QEAU__vcrt_ptd@@@Z 0000000180149e28 f i libvcruntime:per_thread_data.obj
 0001:00148e4c       ??1?$__crt_unique_heap_ptr@U__vcrt_ptd@@U__crt_internal_free_policy@@@@QEAA@XZ 0000000180149e4c f i libvcruntime:per_thread_data.obj
 0001:00148e74       ??B?$__crt_unique_heap_ptr@U__vcrt_ptd@@U__crt_internal_free_policy@@@@QEBA_NXZ 0000000180149e74 f i libvcruntime:per_thread_data.obj
 0001:00148e7c       ?detach@?$__crt_unique_heap_ptr@U__vcrt_ptd@@U__crt_internal_free_policy@@@@QEAAPEAU__vcrt_ptd@@XZ 0000000180149e7c f i libvcruntime:per_thread_data.obj
 0001:00148e84       ?get@?$__crt_unique_heap_ptr@U__vcrt_ptd@@U__crt_internal_free_policy@@@@QEBAPEAU__vcrt_ptd@@XZ 0000000180149e84 f i libvcruntime:per_thread_data.obj
 0001:00148e88       ?is_valid@?$__crt_unique_heap_ptr@U__vcrt_ptd@@U__crt_internal_free_policy@@@@QEBA_NXZ 0000000180149e88 f i libvcruntime:per_thread_data.obj
 0001:00148e90       ?release@?$__crt_unique_heap_ptr@U__vcrt_ptd@@U__crt_internal_free_policy@@@@QEAAXXZ 0000000180149e90 f i libvcruntime:per_thread_data.obj
 0001:00148ed8       __vcrt_freefls             0000000180149ed8 f   libvcruntime:per_thread_data.obj
 0001:00148ef8       __vcrt_freeptd             0000000180149ef8 f   libvcruntime:per_thread_data.obj
 0001:00148f48       __vcrt_getptd              0000000180149f48 f   libvcruntime:per_thread_data.obj
 0001:00148f64       __vcrt_getptd_noexit       0000000180149f64 f   libvcruntime:per_thread_data.obj
 0001:00149024       __vcrt_getptd_noinit       000000018014a024 f   libvcruntime:per_thread_data.obj
 0001:00149074       __vcrt_initialize_ptd      000000018014a074 f   libvcruntime:per_thread_data.obj
 0001:001490bc       __vcrt_uninitialize_ptd    000000018014a0bc f   libvcruntime:per_thread_data.obj
 0001:001490e0       __vcrt_initialize_locks    000000018014a0e0 f   libvcruntime:locks.obj
 0001:00149114       __vcrt_lock                000000018014a114 f   libvcruntime:locks.obj
 0001:00149130       __vcrt_uninitialize_locks  000000018014a130 f   libvcruntime:locks.obj
 0001:00149168       __vcrt_unlock              000000018014a168 f   libvcruntime:locks.obj
 0001:00149184       ??$?0AEAViterator@TryBlockMap4@FH4@@AEAV012@$0A@@?$pair@Viterator@TryBlockMap4@FH4@@V123@@std@@QEAA@AEAViterator@TryBlockMap4@FH4@@0@Z 000000018014a184 f i libvcruntime:risctrnsctrl.obj
 0001:00149198       ??$?0AEAViterator@TryBlockMap@__FrameHandler3@@AEAV012@$0A@@?$pair@Viterator@TryBlockMap@__FrameHandler3@@V123@@std@@QEAA@AEAViterator@TryBlockMap@__FrameHandler3@@0@Z 000000018014a198 f i libvcruntime:risctrnsctrl.obj
 0001:001492e8       ??$_CallSETranslator@V__FrameHandler3@@@@YAHPEAUEHExceptionRecord@@PEA_KPEAU_CONTEXT@@PEAU_xDISPATCHER_CONTEXT@@PEBU_s_FuncInfo@@K1H@Z 000000018014a2e8 f i libvcruntime:risctrnsctrl.obj
 0001:0014933c       ??$_CallSETranslator@V__FrameHandler4@@@@YAHPEAUEHExceptionRecord@@PEA_KPEAU_CONTEXT@@PEAU_xDISPATCHER_CONTEXT@@PEAUFuncInfo4@FH4@@K1H@Z 000000018014a33c f i libvcruntime:risctrnsctrl.obj
 0001:00149390       ??$forward@AEAViterator@TryBlockMap4@FH4@@@std@@YAAEAViterator@TryBlockMap4@FH4@@AEAV123@@Z 000000018014a390 f i libvcruntime:risctrnsctrl.obj
 0001:00149394       ??$forward@AEAViterator@TryBlockMap@__FrameHandler3@@@std@@YAAEAViterator@TryBlockMap@__FrameHandler3@@AEAV123@@Z 000000018014a394 f i libvcruntime:risctrnsctrl.obj
 0001:00149398       ??0FuncInfo4@FH4@@QEAA@XZ  000000018014a398 f i libvcruntime:risctrnsctrl.obj
 0001:001493ac       ??0FuncInfoHeader@FH4@@QEAA@XZ 000000018014a3ac f i libvcruntime:risctrnsctrl.obj
 0001:001493b4       ??0iterator@TryBlockMap4@FH4@@QEAA@AEAV12@I@Z 000000018014a3b4 f i libvcruntime:risctrnsctrl.obj
 0001:001493c0       ??0iterator@TryBlockMap@__FrameHandler3@@QEAA@AEAV12@I@Z 000000018014a3c0 f i libvcruntime:risctrnsctrl.obj
 0001:001493cc       ??4iterator@TryBlockMap4@FH4@@QEAAAEAV012@AEBV012@@Z 000000018014a3cc f i libvcruntime:risctrnsctrl.obj
 0001:001493d8       ??9iterator@TryBlockMap4@FH4@@QEBA_NAEBV012@@Z 000000018014a3d8 f i libvcruntime:risctrnsctrl.obj
 0001:001493e4       ??Diterator@TryBlockMap4@FH4@@QEAA?AUTryBlockMapEntry4@2@XZ 000000018014a3e4 f i libvcruntime:risctrnsctrl.obj
 0001:001493f4       ??Eiterator@TryBlockMap4@FH4@@QEAAAEAV012@XZ 000000018014a3f4 f i libvcruntime:risctrnsctrl.obj
 0001:00149490       ?CatchTryBlock@__FrameHandler3@@SAPEBU_s_TryBlockMapEntry@@PEBU_s_FuncInfo@@H@Z 000000018014a490 f   libvcruntime:risctrnsctrl.obj
 0001:001494e4       ?DecompFuncInfo@FH4@@YA_JPEAEAEAUFuncInfo4@1@_KH@Z 000000018014a4e4 f i libvcruntime:risctrnsctrl.obj
 0001:001494f8       ?DecompFuncInfo@FH4@@YA_JPEAEAEAUFuncInfo4@1@_KH_N@Z 000000018014a4f8 f i libvcruntime:risctrnsctrl.obj
 0001:0014961c       ?DecompTryBlock@TryBlockMap4@FH4@@AEAAXXZ 000000018014a61c f i libvcruntime:risctrnsctrl.obj
 0001:001496b0       ?ExecutionInCatch@__FrameHandler3@@SA_NPEAU_xDISPATCHER_CONTEXT@@PEBU_s_FuncInfo@@@Z 000000018014a6b0 f   libvcruntime:risctrnsctrl.obj
 0001:001496dc       ?ExecutionInCatch@__FrameHandler4@@SA_NPEAU_xDISPATCHER_CONTEXT@@PEAUFuncInfo4@FH4@@@Z 000000018014a6dc f   libvcruntime:risctrnsctrl.obj
 0001:001496e4       ?FrameUnwindToEmptyState@__FrameHandler3@@SAXPEA_KPEAU_xDISPATCHER_CONTEXT@@PEBU_s_FuncInfo@@@Z 000000018014a6e4 f   libvcruntime:risctrnsctrl.obj
 0001:00149748       ?FrameUnwindToEmptyState@__FrameHandler4@@SAXPEA_KPEAU_xDISPATCHER_CONTEXT@@PEAUFuncInfo4@FH4@@@Z 000000018014a748 f   libvcruntime:risctrnsctrl.obj
 0001:0014977c       ?GetEstablisherFrame@__FrameHandler3@@SAPEA_KPEA_KPEAU_xDISPATCHER_CONTEXT@@PEBU_s_FuncInfo@@0@Z 000000018014a77c f   libvcruntime:risctrnsctrl.obj
 0001:00149848       ?GetEstablisherFrame@__FrameHandler4@@SAPEA_KPEA_KPEAU_xDISPATCHER_CONTEXT@@PEAUFuncInfo4@FH4@@0@Z 000000018014a848 f   libvcruntime:risctrnsctrl.obj
 0001:0014986c       ?GetRangeOfTrysToCheck@__FrameHandler3@@SA?AU?$pair@Viterator@TryBlockMap@__FrameHandler3@@V123@@std@@AEAVTryBlockMap@1@HPEAU_xDISPATCHER_CONTEXT@@PEBU_s_FuncInfo@@H@Z 000000018014a86c f   libvcruntime:risctrnsctrl.obj
 0001:001499ac       ?GetRangeOfTrysToCheck@__FrameHandler4@@SA?AU?$pair@Viterator@TryBlockMap4@FH4@@V123@@std@@AEAVTryBlockMap4@FH4@@HPEAU_xDISPATCHER_CONTEXT@@PEAUFuncInfo4@5@H@Z 000000018014a9ac f   libvcruntime:risctrnsctrl.obj
 0001:00149b08       ?ReadInt@FH4@@YAHPEAPEAE@Z 000000018014ab08 f i libvcruntime:risctrnsctrl.obj
 0001:00149b18       ?ReadUnsigned@FH4@@YAIPEAPEAE@Z 000000018014ab18 f i libvcruntime:risctrnsctrl.obj
 0001:00149b48       ?UnwindNestedFrames@__FrameHandler3@@SAXPEA_KPEAUEHExceptionRecord@@PEAU_CONTEXT@@0PEAXPEBU_s_FuncInfo@@HHPEBU_s_HandlerType@@PEAU_xDISPATCHER_CONTEXT@@E@Z 000000018014ab48 f   libvcruntime:risctrnsctrl.obj
 0001:00149c4c       ?UnwindNestedFrames@__FrameHandler4@@SAXPEA_KPEAUEHExceptionRecord@@PEAU_CONTEXT@@0PEAXPEAUFuncInfo4@FH4@@HHPEAUHandlerType4@5@PEAU_xDISPATCHER_CONTEXT@@E@Z 000000018014ac4c f   libvcruntime:risctrnsctrl.obj
 0001:00149d6c       ?begin@TryBlockMap4@FH4@@QEAA?AViterator@12@XZ 000000018014ad6c f i libvcruntime:risctrnsctrl.obj
 0001:00149d78       ?end@TryBlockMap4@FH4@@QEAA?AViterator@12@XZ 000000018014ad78 f i libvcruntime:risctrnsctrl.obj
 0001:00149d84       ?imageRelToByteBuffer@FH4@@YAPEAE_KH@Z 000000018014ad84 f i libvcruntime:risctrnsctrl.obj
 0001:00149d8c       ?incrementToSentinel@iterator@TryBlockMap4@FH4@@QEAAXXZ 000000018014ad8c f i libvcruntime:risctrnsctrl.obj
 0001:00149d90       ?setBuffer@TryBlockMap4@FH4@@QEAAXViterator@12@@Z 000000018014ad90 f i libvcruntime:risctrnsctrl.obj
 0001:00149f54       _CreateFrameInfo           000000018014af54 f   libvcruntime:risctrnsctrl.obj
 0001:00149f90       _FindAndUnlinkFrame        000000018014af90 f   libvcruntime:risctrnsctrl.obj
 0001:00149fe4       _GetImageBase              000000018014afe4 f   libvcruntime:risctrnsctrl.obj
 0001:00149ff8       _GetThrowImageBase         000000018014aff8 f   libvcruntime:risctrnsctrl.obj
 0001:0014a00c       _SetImageBase              000000018014b00c f   libvcruntime:risctrnsctrl.obj
 0001:0014a024       _SetThrowImageBase         000000018014b024 f   libvcruntime:risctrnsctrl.obj
 0001:0014a03c       __CxxFrameHandler          000000018014b03c f   libvcruntime:risctrnsctrl.obj
 0001:0014a044       __CxxFrameHandler2         000000018014b044 f   libvcruntime:risctrnsctrl.obj
 0001:0014a04c       __CxxFrameHandler3         000000018014b04c f   libvcruntime:risctrnsctrl.obj
 0001:0014a0d4       __CxxFrameHandler4         000000018014b0d4 f   libvcruntime:risctrnsctrl.obj
 0001:0014a194       ??$__crt_interlocked_exchange_pointer@UHINSTANCE__@@PEAU1@@@YAPEAUHINSTANCE__@@PEDSEAU0@QEAU0@@Z 000000018014b194 f i libvcruntime:winapi_downlevel.obj
 0001:0014a19c       ??$__crt_interlocked_exchange_pointer@UHINSTANCE__@@PEAX@@YAPEAUHINSTANCE__@@PEDSEAU0@QEAX@Z 000000018014b19c f i libvcruntime:winapi_downlevel.obj
 0001:0014a1a4       ??$__crt_interlocked_exchange_pointer@XPEAX@@YAPEAXPEDSEAXQEAX@Z 000000018014b1a4 f i libvcruntime:winapi_downlevel.obj
 0001:0014a1ac       ??$__crt_interlocked_read_pointer@UHINSTANCE__@@@@YAPEAUHINSTANCE__@@PEDSEAU0@@Z 000000018014b1ac f i libvcruntime:winapi_downlevel.obj
 0001:0014a1b0       ??$__crt_interlocked_read_pointer@X@@YAPEAXPEDSEAX@Z 000000018014b1b0 f i libvcruntime:winapi_downlevel.obj
 0001:0014a6e4       __vcrt_FlsAlloc            000000018014b6e4 f   libvcruntime:winapi_downlevel.obj
 0001:0014a72c       __vcrt_FlsFree             000000018014b72c f   libvcruntime:winapi_downlevel.obj
 0001:0014a774       __vcrt_FlsGetValue         000000018014b774 f   libvcruntime:winapi_downlevel.obj
 0001:0014a7bc       __vcrt_FlsSetValue         000000018014b7bc f   libvcruntime:winapi_downlevel.obj
 0001:0014a810       __vcrt_InitializeCriticalSectionEx 000000018014b810 f   libvcruntime:winapi_downlevel.obj
 0001:0014a874       ?GetCurrentState@__FrameHandler3@@SAHPEA_KPEAU_xDISPATCHER_CONTEXT@@PEBU_s_FuncInfo@@@Z 000000018014b874 f   libvcruntime:ehstate.obj
 0001:0014a89c       ?GetUnwindTryBlock@__FrameHandler3@@SAHPEA_KPEAU_xDISPATCHER_CONTEXT@@PEBU_s_FuncInfo@@@Z 000000018014b89c f   libvcruntime:ehstate.obj
 0001:0014a8c8       ?SetState@__FrameHandler3@@SAXPEA_KPEBU_s_FuncInfo@@H@Z 000000018014b8c8 f   libvcruntime:ehstate.obj
 0001:0014a8d4       ?SetUnwindTryBlock@__FrameHandler3@@SAXPEA_KPEAU_xDISPATCHER_CONTEXT@@PEBU_s_FuncInfo@@H@Z 000000018014b8d4 f   libvcruntime:ehstate.obj
 0001:0014a910       ?StateFromControlPc@__FrameHandler3@@SAHPEBU_s_FuncInfo@@PEAU_xDISPATCHER_CONTEXT@@@Z 000000018014b910 f   libvcruntime:ehstate.obj
 0001:0014a918       ?StateFromControlPc@__FrameHandler4@@SAHPEAUFuncInfo4@FH4@@PEAU_xDISPATCHER_CONTEXT@@@Z 000000018014b918 f   libvcruntime:ehstate.obj
 0001:0014a920       ?StateFromIp@__FrameHandler3@@SAHPEBU_s_FuncInfo@@PEAU_xDISPATCHER_CONTEXT@@_K@Z 000000018014b920 f   libvcruntime:ehstate.obj
 0001:0014a988       ?StateFromIp@__FrameHandler4@@SAHPEAUFuncInfo4@FH4@@PEAU_xDISPATCHER_CONTEXT@@_K@Z 000000018014b988 f   libvcruntime:ehstate.obj
 0001:0014aa70       ?__FuncRelToRealOffset@@YA_KPEAU_xDISPATCHER_CONTEXT@@I@Z 000000018014ba70 f i libvcruntime:ehstate.obj
 0001:0014aa80       ?__RVAtoRealOffset@@YA_KPEAU_xDISPATCHER_CONTEXT@@H@Z 000000018014ba80 f i libvcruntime:ehstate.obj
 0001:0014c0c4       ??$TypeMatchHelper@V__FrameHandler3@@@@YAHPEBU_s_HandlerType@@PEBU_s_CatchableType@@PEBU_s_ThrowInfo@@@Z 000000018014d0c4 f i libvcruntime:frame.obj
 0001:0014c204       ??$TypeMatchHelper@V__FrameHandler4@@@@YAHPEAUHandlerType4@FH4@@PEBU_s_CatchableType@@PEBU_s_ThrowInfo@@@Z 000000018014d204 f i libvcruntime:frame.obj
 0001:0014c348       ??$__InternalCxxFrameHandler@V__FrameHandler3@@@@YA?AW4_EXCEPTION_DISPOSITION@@PEAUEHExceptionRecord@@PEA_KPEAU_CONTEXT@@PEAU_xDISPATCHER_CONTEXT@@PEBU_s_FuncInfo@@H1E@Z 000000018014d348 f i libvcruntime:frame.obj
 0001:0014c580       ??$__InternalCxxFrameHandler@V__FrameHandler4@@@@YA?AW4_EXCEPTION_DISPOSITION@@PEAUEHExceptionRecord@@PEA_KPEAU_CONTEXT@@PEAU_xDISPATCHER_CONTEXT@@PEAUFuncInfo4@FH4@@H1E@Z 000000018014d580 f i libvcruntime:frame.obj
 0001:0014c814       ??0HandlerMap4@FH4@@QEAA@PEBUTryBlockMapEntry4@1@_KH@Z 000000018014d814 f i libvcruntime:frame.obj
 0001:0014c890       ??0HandlerMap@__FrameHandler3@@QEAA@PEBU_s_TryBlockMapEntry@@_KI@Z 000000018014d890 f i libvcruntime:frame.obj
 0001:0014c8a4       ??0HandlerType4@FH4@@QEAA@XZ 000000018014d8a4 f i libvcruntime:frame.obj
 0001:0014c8bc       ??0TryBlockMap4@FH4@@QEAA@PEBUFuncInfo4@1@_K@Z 000000018014d8bc f i libvcruntime:frame.obj
 0001:0014c994       ??0TryBlockMap@__FrameHandler3@@QEAA@PEBU_s_FuncInfo@@_K@Z 000000018014d994 f i libvcruntime:frame.obj
 0001:0014c9a0       ??0UWMap4@FH4@@QEAA@PEBUFuncInfo4@1@_K@Z 000000018014d9a0 f i libvcruntime:frame.obj
 0001:0014c9e4       ??0bad_exception@std@@QEAA@AEBV01@@Z 000000018014d9e4 f i libvcruntime:frame.obj
 0001:0014ca20       ??0bad_exception@std@@QEAA@XZ 000000018014da20 f i libvcruntime:frame.obj
 0001:0014ca40       ??0exception@std@@QEAA@AEBV01@@Z 000000018014da40 f i libvcruntime:frame.obj
 0001:0014ca74       ??0exception@std@@QEAA@QEBDH@Z 000000018014da74 f i libvcruntime:frame.obj
 0001:0014ca8c       ??0iterator@HandlerMap4@FH4@@QEAA@AEAV12@I@Z 000000018014da8c f i libvcruntime:frame.obj
 0001:0014ca98       ??0iterator@HandlerMap@__FrameHandler3@@QEAA@AEAV12@I@Z 000000018014da98 f i libvcruntime:frame.obj
 0001:0014caa4       ??0iterator@UWMap4@FH4@@QEAA@AEAV12@PEAE@Z 000000018014daa4 f i libvcruntime:frame.obj
 0001:0014cab0       ??1bad_exception@std@@UEAA@XZ 000000018014dab0 f i libvcruntime:frame.obj
 0001:0014cac4       ??1exception@std@@UEAA@XZ  000000018014dac4 f i libvcruntime:frame.obj
 0001:0014cad8       ??4iterator@UWMap4@FH4@@QEAAAEAV012@AEBV012@@Z 000000018014dad8 f i libvcruntime:frame.obj
 0001:0014caf8       ??8iterator@HandlerMap4@FH4@@QEBA_NAEBV012@@Z 000000018014daf8 f i libvcruntime:frame.obj
 0001:0014cb04       ??8iterator@HandlerMap@__FrameHandler3@@QEBA_NAEBV012@@Z 000000018014db04 f i libvcruntime:frame.obj
 0001:0014cb10       ??8type_info@@QEBA_NAEBV0@@Z 000000018014db10 f i libvcruntime:frame.obj
 0001:0014cb2c       ??9iterator@HandlerMap4@FH4@@QEBA_NAEBV012@@Z 000000018014db2c f i libvcruntime:frame.obj
 0001:0014cb38       ??9iterator@HandlerMap@__FrameHandler3@@QEBA_NAEBV012@@Z 000000018014db38 f i libvcruntime:frame.obj
 0001:0014cb44       ??Diterator@HandlerMap4@FH4@@QEAA?AUHandlerType4@2@XZ 000000018014db44 f i libvcruntime:frame.obj
 0001:0014cb64       ??Diterator@HandlerMap@__FrameHandler3@@QEAA?BU_s_HandlerType@@XZ 000000018014db64 f i libvcruntime:frame.obj
 0001:0014cb88       ??Diterator@TryBlockMap@__FrameHandler3@@QEAA?BU_s_TryBlockMapEntry@@XZ 000000018014db88 f i libvcruntime:frame.obj
 0001:0014cbb8       ??Diterator@UWMap4@FH4@@QEAA?AUUnwindMapEntry4@2@XZ 000000018014dbb8 f i libvcruntime:frame.obj
 0001:0014cc0c       ??Eiterator@HandlerMap4@FH4@@QEAAAEAV012@XZ 000000018014dc0c f i libvcruntime:frame.obj
 0001:0014cc2c       ??Eiterator@HandlerMap@__FrameHandler3@@QEAAAEAV012@XZ 000000018014dc2c f i libvcruntime:frame.obj
 0001:0014cc34       ??Eiterator@TryBlockMap@__FrameHandler3@@QEAAAEAV012@XZ 000000018014dc34 f i libvcruntime:frame.obj
 0001:0014cc3c       ??Eiterator@UWMap4@FH4@@QEAAAEAV012@XZ 000000018014dc3c f i libvcruntime:frame.obj
 0001:0014cc5c       ??Giterator@UWMap4@FH4@@QEBA_JAEBV012@@Z 000000018014dc5c f i libvcruntime:frame.obj
 0001:0014cc68       ??Miterator@TryBlockMap4@FH4@@QEBA_NAEBV012@@Z 000000018014dc68 f i libvcruntime:frame.obj
 0001:0014cc74       ??Miterator@TryBlockMap@__FrameHandler3@@QEBA_NAEBV012@@Z 000000018014dc74 f i libvcruntime:frame.obj
 0001:0014cc80       ??Oiterator@UWMap4@FH4@@QEBA_NAEBV012@@Z 000000018014dc80 f i libvcruntime:frame.obj
 0001:0014cc8c       ??Piterator@UWMap4@FH4@@QEBA_NAEBV012@@Z 000000018014dc8c f i libvcruntime:frame.obj
 0001:0014cc98       ??_Ebad_exception@std@@UEAAPEAXI@Z 000000018014dc98 f i libvcruntime:frame.obj
 0001:0014cc98       ??_Gbad_exception@std@@UEAAPEAXI@Z 000000018014dc98 f i libvcruntime:frame.obj
 0001:0014ccdc       ??_Gexception@std@@UEAAPEAXI@Z 000000018014dcdc f i libvcruntime:frame.obj
 0001:0014ccdc       ??_Eexception@std@@UEAAPEAXI@Z 000000018014dcdc f i libvcruntime:frame.obj
 0001:0014cd20       ?BuildCatchObject@__FrameHandler3@@SAXPEAUEHExceptionRecord@@PEAXPEBU_s_HandlerType@@PEBU_s_CatchableType@@@Z 000000018014dd20 f   libvcruntime:frame.obj
 0001:0014cd28       ?BuildCatchObject@__FrameHandler4@@SAXPEAUEHExceptionRecord@@PEAXPEAUHandlerType4@FH4@@PEBU_s_CatchableType@@@Z 000000018014dd28 f   libvcruntime:frame.obj
 0001:0014cd30       ?BuildCatchObjectHelper@__FrameHandler3@@SAHPEAUEHExceptionRecord@@PEAXPEBU_s_HandlerType@@PEBU_s_CatchableType@@@Z 000000018014dd30 f   libvcruntime:frame.obj
 0001:0014cd38       ?BuildCatchObjectHelper@__FrameHandler4@@SAHPEAUEHExceptionRecord@@PEAXPEAUHandlerType4@FH4@@PEBU_s_CatchableType@@@Z 000000018014dd38 f   libvcruntime:frame.obj
 0001:0014cd40       ?CxxCallCatchBlock@__FrameHandler3@@SAPEAXPEAU_EXCEPTION_RECORD@@@Z 000000018014dd40 f   libvcruntime:frame.obj
 0001:0014cf2c       ?CxxCallCatchBlock@__FrameHandler4@@SAPEAXPEAU_EXCEPTION_RECORD@@@Z 000000018014df2c f   libvcruntime:frame.obj
 0001:0014d17c       ?DecompHandler@HandlerMap4@FH4@@AEAAXXZ 000000018014e17c f i libvcruntime:frame.obj
 0001:0014d3bc       ?FrameUnwindToState@__FrameHandler3@@SAXPEA_KPEAU_xDISPATCHER_CONTEXT@@PEBU_s_FuncInfo@@H@Z 000000018014e3bc f   libvcruntime:frame.obj
 0001:0014d548       ?FrameUnwindToState@__FrameHandler4@@SAXPEA_KPEAU_xDISPATCHER_CONTEXT@@PEAUFuncInfo4@FH4@@H@Z 000000018014e548 f   libvcruntime:frame.obj
 0001:0014d830       ?GetHandlerSearchState@__FrameHandler3@@SAHPEA_KPEAU_xDISPATCHER_CONTEXT@@PEBU_s_FuncInfo@@@Z 000000018014e830 f i libvcruntime:frame.obj
 0001:0014d8c8       ?GetHandlerSearchState@__FrameHandler4@@SAHPEA_KPEAU_xDISPATCHER_CONTEXT@@PEAUFuncInfo4@FH4@@@Z 000000018014e8c8 f i libvcruntime:frame.obj
 0001:0014d92c       ?GetMaxState@__FrameHandler3@@SAHPEAU_xDISPATCHER_CONTEXT@@PEBU_s_FuncInfo@@@Z 000000018014e92c f i libvcruntime:frame.obj
 0001:0014d930       ?GetMaxState@__FrameHandler4@@SAHPEAU_xDISPATCHER_CONTEXT@@PEAUFuncInfo4@FH4@@@Z 000000018014e930 f i libvcruntime:frame.obj
 0001:0014dadc       ?ReadEntry@UWMap4@FH4@@AEAAXPEAPEAE@Z 000000018014eadc f i libvcruntime:frame.obj
 0001:0014db7c       ?TypeMatch@__FrameHandler3@@SAHPEBU_s_HandlerType@@PEBU_s_CatchableType@@PEBU_s_ThrowInfo@@@Z 000000018014eb7c f   libvcruntime:frame.obj
 0001:0014db84       ?TypeMatch@__FrameHandler4@@SAHPEAUHandlerType4@FH4@@PEBU_s_CatchableType@@PEBU_s_ThrowInfo@@@Z 000000018014eb84 f   libvcruntime:frame.obj
 0001:0014db8c       ?WalkBack@UWMap4@FH4@@AEAAXPEAPEAE@Z 000000018014eb8c f i libvcruntime:frame.obj
 0001:0014dbc4       ?WalkBack@iterator@UWMap4@FH4@@QEAAXXZ 000000018014ebc4 f i libvcruntime:frame.obj
 0001:0014dc04       ?WalkForward@UWMap4@FH4@@AEAAXPEAPEAE@Z 000000018014ec04 f i libvcruntime:frame.obj
 0001:0014dc0c       ?_CallMemberFunction1@@YAXQEAX00@Z 000000018014ec0c f i libvcruntime:frame.obj
 0001:0014dc18       ?_CallMemberFunction2@@YAXQEAX00H@Z 000000018014ec18 f i libvcruntime:frame.obj
 0001:0014dc3c       ?begin@HandlerMap4@FH4@@QEAA?AViterator@12@XZ 000000018014ec3c f i libvcruntime:frame.obj
 0001:0014dc48       ?begin@HandlerMap@__FrameHandler3@@QEAA?AViterator@12@XZ 000000018014ec48 f i libvcruntime:frame.obj
 0001:0014dc54       ?begin@UWMap4@FH4@@QEAA?AViterator@12@XZ 000000018014ec54 f i libvcruntime:frame.obj
 0001:0014dc64       ?end@HandlerMap4@FH4@@QEAA?AViterator@12@XZ 000000018014ec64 f i libvcruntime:frame.obj
 0001:0014dc70       ?end@HandlerMap@__FrameHandler3@@QEAA?AViterator@12@XZ 000000018014ec70 f i libvcruntime:frame.obj
 0001:0014dc7c       ?getESTypes@__FrameHandler3@@SAPEBU_s_ESTypeList@@PEBU_s_FuncInfo@@@Z 000000018014ec7c f i libvcruntime:frame.obj
 0001:0014dca4       ?getESTypes@__FrameHandler4@@SAPEBU_s_ESTypeList@@PEAUFuncInfo4@FH4@@@Z 000000018014eca4 f i libvcruntime:frame.obj
 0001:0014dca8       ?getLastEntry@HandlerMap4@FH4@@QEAAPEAUHandlerType4@2@XZ 000000018014eca8 f i libvcruntime:frame.obj
 0001:0014dcf8       ?getLastEntry@HandlerMap@__FrameHandler3@@QEAAPEBU_s_HandlerType@@XZ 000000018014ecf8 f i libvcruntime:frame.obj
 0001:0014dd0c       ?getMagicNum@__FrameHandler3@@SAIPEBU_s_FuncInfo@@@Z 000000018014ed0c f i libvcruntime:frame.obj
 0001:0014dd14       ?getMagicNum@__FrameHandler4@@SAIPEAUFuncInfo4@FH4@@@Z 000000018014ed14 f i libvcruntime:frame.obj
 0001:0014dd1c       ?getNumTryBlocks@TryBlockMap4@FH4@@QEAAIXZ 000000018014ed1c f i libvcruntime:frame.obj
 0001:0014dd20       ?getNumTryBlocks@TryBlockMap@__FrameHandler3@@QEAAIXZ 000000018014ed20 f i libvcruntime:frame.obj
 0001:0014dd28       ?getStartStop@UWMap4@FH4@@QEAAXHHAEAViterator@12@0@Z 000000018014ed28 f i libvcruntime:frame.obj
 0001:0014ddf8       ?getStateFromIterators@UWMap4@FH4@@SAHAEBViterator@12@H0H0@Z 000000018014edf8 f i libvcruntime:frame.obj
 0001:0014dec0       ?isEHs@__FrameHandler3@@SA_NPEBU_s_FuncInfo@@@Z 000000018014eec0 f i libvcruntime:frame.obj
 0001:0014dec8       ?isEHs@__FrameHandler4@@SA_NPEAUFuncInfo4@FH4@@@Z 000000018014eec8 f i libvcruntime:frame.obj
 0001:0014ded0       ?isNoExcept@__FrameHandler3@@SA_NPEBU_s_FuncInfo@@@Z 000000018014eed0 f i libvcruntime:frame.obj
 0001:0014dedc       ?isNoExcept@__FrameHandler4@@SA_NPEAUFuncInfo4@FH4@@@Z 000000018014eedc f i libvcruntime:frame.obj
 0001:0014dee4       ?reset@HandlerType4@FH4@@QEAAXXZ 000000018014eee4 f i libvcruntime:frame.obj
 0001:0014def8       ?resetBuffer@HandlerMap4@FH4@@QEAAXXZ 000000018014eef8 f i libvcruntime:frame.obj
 0001:0014df08       ?setBuffer@HandlerMap4@FH4@@QEAAXI@Z 000000018014ef08 f i libvcruntime:frame.obj
 0001:0014df44       ?what@exception@std@@UEBAPEBDXZ 000000018014ef44 f i libvcruntime:frame.obj
 0001:0014df58       __BuildCatchObject         000000018014ef58 f   libvcruntime:frame.obj
 0001:0014df60       __BuildCatchObjectHelper   000000018014ef60 f   libvcruntime:frame.obj
 0001:0014df68       __TypeMatch                000000018014ef68 f   libvcruntime:frame.obj
 0001:0014df70       __vcrt_EncodePointer       000000018014ef70 f i libvcruntime:frame.obj
 0001:0014df90       _CallSettingFrame          000000018014ef90 f   libvcruntime:handlers.obj
 0001:0014dfe0       _CallSettingFrame_LookupContinuationIndex 000000018014efe0 f   libvcruntime:handlers.obj
 0001:0014e010       _CallSettingFrame_NotifyContinuationAddr 000000018014f010 f   libvcruntime:handlers.obj
 0001:0014e040       _CallSettingFrameEncoded   000000018014f040 f   libvcruntime:handlers.obj
 0001:0014e088       ??$?RD@__crt_public_free_policy@@QEBAXQEBD@Z 000000018014f088 f i libvcruntime:std_exception.obj
 0001:0014e090       ??0?$__crt_unique_heap_ptr@DU__crt_public_free_policy@@@@QEAA@QEAD@Z 000000018014f090 f i libvcruntime:std_exception.obj
 0001:0014e098       ??1?$__crt_unique_heap_ptr@DU__crt_public_free_policy@@@@QEAA@XZ 000000018014f098 f i libvcruntime:std_exception.obj
 0001:0014e0b4       ??B?$__crt_unique_heap_ptr@DU__crt_public_free_policy@@@@QEBA_NXZ 000000018014f0b4 f i libvcruntime:std_exception.obj
 0001:0014e0bc       ?detach@?$__crt_unique_heap_ptr@DU__crt_public_free_policy@@@@QEAAPEADXZ 000000018014f0bc f i libvcruntime:std_exception.obj
 0001:0014e0c4       ?get@?$__crt_unique_heap_ptr@DU__crt_public_free_policy@@@@QEBAPEADXZ 000000018014f0c4 f i libvcruntime:std_exception.obj
 0001:0014e0c8       ?is_valid@?$__crt_unique_heap_ptr@DU__crt_public_free_policy@@@@QEBA_NXZ 000000018014f0c8 f i libvcruntime:std_exception.obj
 0001:0014e0d0       ?release@?$__crt_unique_heap_ptr@DU__crt_public_free_policy@@@@QEAAXXZ 000000018014f0d0 f i libvcruntime:std_exception.obj
 0001:0014e0ec       __std_exception_copy       000000018014f0ec f   libvcruntime:std_exception.obj
 0001:0014e17c       __std_exception_destroy    000000018014f17c f   libvcruntime:std_exception.obj
 0001:0014e1a4       _CxxThrowException         000000018014f1a4 f   libvcruntime:throw.obj
 0001:0014e250       cosf                       000000018014f250 f   libucrt:cosf.obj
 0001:0014e750       sinf                       000000018014f750 f   libucrt:sinf.obj
 0001:0014ee50       tanf                       000000018014fe50 f   libucrt:tanf.obj
 0001:0014f4e0       strcmp                     00000001801504e0 f   libucrt:strcmp.obj
 0001:0014f548       _fpclass                   0000000180150548 f   libucrt:ieeemisc.obj
 0001:0014f5d0       _fpclassf                  00000001801505d0 f   libucrt:ieeemisc.obj
 0001:0014f63c       _isnan                     000000018015063c f   libucrt:ieeemisc.obj
 0001:0014f668       _isnanf                    0000000180150668 f   libucrt:ieeemisc.obj
 0001:0014f684       _nextafter                 0000000180150684 f   libucrt:ieeemisc.obj
 0001:0014f68c       _nextafterf                000000018015068c f   libucrt:ieeemisc.obj
 0001:0014f694       _scalb                     0000000180150694 f   libucrt:ieeemisc.obj
 0001:0014f840       _scalbf                    0000000180150840 f   libucrt:ieeemisc.obj
 0001:0014f9e0       acosf                      00000001801509e0 f   libucrt:acosf.obj
 0001:0014fcb4       free                       0000000180150cb4 f   libucrt:free.obj
 0001:0014fcc8       _initterm                  0000000180150cc8 f   libucrt:initterm.obj
 0001:0014fd2c       _initterm_e                0000000180150d2c f   libucrt:initterm.obj
 0001:0014fd8c       _seh_filter_dll            0000000180150d8c f   libucrt:exception_filter.obj
 0001:0014fda0       _seh_filter_exe            0000000180150da0 f   libucrt:exception_filter.obj
 0001:0014ff24       ??$?B$$A6AXPEAXK0@Z@__crt_fast_encoded_nullptr_t@@QEBAP6AXPEAXK0@ZXZ 0000000180150f24 f i libucrt:exit.obj
 0001:0014ff8c       ??$__crt_fast_decode_pointer@P6AXPEAXK0@Z@@YAP6AXPEAXK0@ZQ6AX0K0@Z@Z 0000000180150f8c f i libucrt:exit.obj
 0001:0014ffa4       ??$__crt_fast_encode_pointer@P6AXPEAXK0@Z@@YAP6AXPEAXK0@ZQ6AX0K0@Z@Z 0000000180150fa4 f i libucrt:exit.obj
 0001:0014ffc4       ??$__crt_get_proc_address@P6AXI@Z@@YAP6AXI@ZQEAUHINSTANCE__@@QEBD@Z 0000000180150fc4 f i libucrt:exit.obj
 0001:0014ffcc       ??$__crt_interlocked_read@J@@YAJPEDJ@Z 0000000180150fcc f i libucrt:exit.obj
 0001:0014fff0       ??0?$__crt_unique_handle_t@U__crt_hmodule_traits@@@@QEAA@QEAUHINSTANCE__@@@Z 0000000180150ff0 f i libucrt:exit.obj
 0001:0014fff8       ??1?$__crt_unique_handle_t@U__crt_hmodule_traits@@@@QEAA@XZ 0000000180150ff8 f i libucrt:exit.obj
 0001:001500f0       ?__acrt_select_exit_lock@@YA?AW4__acrt_lock_id@@XZ 00000001801510f0 f i libucrt:exit.obj
 0001:001500f8       ?__crt_fast_encode_pointer@@YA?AU__crt_fast_encoded_nullptr_t@@$$T@Z 00000001801510f8 f i libucrt:exit.obj
 0001:00150100       ?__crt_interlocked_read_32@@YAHPEDH@Z 0000000180151100 f i libucrt:exit.obj
 0001:00150104       ?__crt_rotate_pointer_value@@YA_K_KH@Z 0000000180151104 f i libucrt:exit.obj
 0001:0015011c       ?close@?$__crt_unique_handle_t@U__crt_hmodule_traits@@@@QEAAXXZ 000000018015111c f i libucrt:exit.obj
 0001:00150140       ?close@__crt_hmodule_traits@@SA_NPEAUHINSTANCE__@@@Z 0000000180151140 f i libucrt:exit.obj
 0001:0015025c       ?get@?$__crt_unique_handle_t@U__crt_hmodule_traits@@@@QEBAPEAUHINSTANCE__@@XZ 000000018015125c f i libucrt:exit.obj
 0001:00150260       ?get_address_of@?$__crt_unique_handle_t@U__crt_hmodule_traits@@@@QEAAPEAPEAUHINSTANCE__@@XZ 0000000180151260 f i libucrt:exit.obj
 0001:00150264       ?get_invalid_value@__crt_hmodule_traits@@SAPEAUHINSTANCE__@@XZ 0000000180151264 f i libucrt:exit.obj
 0001:00150348       _Exit                      0000000180151348 f   libucrt:exit.obj
 0001:00150354       __acrt_initialize_thread_local_exit_callback 0000000180151354 f   libucrt:exit.obj
 0001:0015035c       _c_exit                    000000018015135c f   libucrt:exit.obj
 0001:0015036c       _cexit                     000000018015136c f   libucrt:exit.obj
 0001:0015037c       _exit                      000000018015137c f   libucrt:exit.obj
 0001:00150388       _is_c_termination_complete 0000000180151388 f   libucrt:exit.obj
 0001:00150390       _register_thread_local_exe_atexit_callback 0000000180151390 f   libucrt:exit.obj
 0001:001503cc       exit                       00000001801513cc f   libucrt:exit.obj
 0001:001503d8       quick_exit                 00000001801513d8 f   libucrt:exit.obj
 0001:001503e4       ??$?RE@__crt_internal_free_policy@@QEBAXQEBE@Z 00000001801513e4 f i libucrt:argv_parsing.obj
 0001:001503ec       ??$?RPEAD@__crt_internal_free_policy@@QEBAXQEBQEAD@Z 00000001801513ec f i libucrt:argv_parsing.obj
 0001:001503f4       ??$?RPEA_W@__crt_internal_free_policy@@QEBAXQEBQEA_W@Z 00000001801513f4 f i libucrt:argv_parsing.obj
 0001:001506e8       ??$get_module_file_name@$$TAEAY0BAF@DH@?$__crt_char_traits@D@@SAK$$QEA$$TAEAY0BAF@D$$QEAH@Z 00000001801516e8 f i libucrt:argv_parsing.obj
 0001:001506f4       ??$get_module_file_name@$$TAEAY0BAF@_WH@?$__crt_char_traits@_W@@SAK$$QEA$$TAEAY0BAF@_W$$QEAH@Z 00000001801516f4 f i libucrt:argv_parsing.obj
 0001:00150a64       ??$set_program_name@PEAD@?$__crt_char_traits@D@@SAX$$QEAPEAD@Z 0000000180151a64 f i libucrt:argv_parsing.obj
 0001:00150a70       ??$set_program_name@PEA_W@?$__crt_char_traits@_W@@SAX$$QEAPEA_W@Z 0000000180151a70 f i libucrt:argv_parsing.obj
 0001:00150a8c       ??0?$__crt_unique_heap_ptr@EU__crt_internal_free_policy@@@@QEAA@QEAE@Z 0000000180151a8c f i libucrt:argv_parsing.obj
 0001:00150a94       ??0?$__crt_unique_heap_ptr@PEADU__crt_internal_free_policy@@@@QEAA@QEAPEAD@Z 0000000180151a94 f i libucrt:argv_parsing.obj
 0001:00150a9c       ??0?$__crt_unique_heap_ptr@PEA_WU__crt_internal_free_policy@@@@QEAA@QEAPEA_W@Z 0000000180151a9c f i libucrt:argv_parsing.obj
 0001:00150aa4       ??1?$__crt_unique_heap_ptr@EU__crt_internal_free_policy@@@@QEAA@XZ 0000000180151aa4 f i libucrt:argv_parsing.obj
 0001:00150ac0       ??1?$__crt_unique_heap_ptr@PEADU__crt_internal_free_policy@@@@QEAA@XZ 0000000180151ac0 f i libucrt:argv_parsing.obj
 0001:00150adc       ??1?$__crt_unique_heap_ptr@PEA_WU__crt_internal_free_policy@@@@QEAA@XZ 0000000180151adc f i libucrt:argv_parsing.obj
 0001:00150af8       ??B?$__crt_unique_heap_ptr@EU__crt_internal_free_policy@@@@QEBA_NXZ 0000000180151af8 f i libucrt:argv_parsing.obj
 0001:00150b38       ?detach@?$__crt_unique_heap_ptr@EU__crt_internal_free_policy@@@@QEAAPEAEXZ 0000000180151b38 f i libucrt:argv_parsing.obj
 0001:00150b40       ?detach@?$__crt_unique_heap_ptr@PEADU__crt_internal_free_policy@@@@QEAAPEAPEADXZ 0000000180151b40 f i libucrt:argv_parsing.obj
 0001:00150b48       ?detach@?$__crt_unique_heap_ptr@PEA_WU__crt_internal_free_policy@@@@QEAAPEAPEA_WXZ 0000000180151b48 f i libucrt:argv_parsing.obj
 0001:00150b6c       ?get@?$__crt_unique_heap_ptr@EU__crt_internal_free_policy@@@@QEBAPEAEXZ 0000000180151b6c f i libucrt:argv_parsing.obj
 0001:00150b70       ?get@?$__crt_unique_heap_ptr@PEADU__crt_internal_free_policy@@@@QEBAPEAPEADXZ 0000000180151b70 f i libucrt:argv_parsing.obj
 0001:00150b74       ?get@?$__crt_unique_heap_ptr@PEA_WU__crt_internal_free_policy@@@@QEBAPEAPEA_WXZ 0000000180151b74 f i libucrt:argv_parsing.obj
 0001:00150b78       ?get_address_of@?$__crt_unique_heap_ptr@PEADU__crt_internal_free_policy@@@@QEAAPEAPEAPEADXZ 0000000180151b78 f i libucrt:argv_parsing.obj
 0001:00150b7c       ?get_address_of@?$__crt_unique_heap_ptr@PEA_WU__crt_internal_free_policy@@@@QEAAPEAPEAPEA_WXZ 0000000180151b7c f i libucrt:argv_parsing.obj
 0001:00150ba0       ?is_valid@?$__crt_unique_heap_ptr@EU__crt_internal_free_policy@@@@QEBA_NXZ 0000000180151ba0 f i libucrt:argv_parsing.obj
 0001:00150ba8       ?release@?$__crt_unique_heap_ptr@EU__crt_internal_free_policy@@@@QEAAXXZ 0000000180151ba8 f i libucrt:argv_parsing.obj
 0001:00150bc4       ?release@?$__crt_unique_heap_ptr@PEADU__crt_internal_free_policy@@@@QEAAXXZ 0000000180151bc4 f i libucrt:argv_parsing.obj
 0001:00150be0       ?release@?$__crt_unique_heap_ptr@PEA_WU__crt_internal_free_policy@@@@QEAAXXZ 0000000180151be0 f i libucrt:argv_parsing.obj
 0001:00150c18       __acrt_allocate_buffer_for_argv 0000000180151c18 f   libucrt:argv_parsing.obj
 0001:00150c78       _configure_narrow_argv     0000000180151c78 f   libucrt:argv_parsing.obj
 0001:00150e00       _configure_wide_argv       0000000180151e00 f   libucrt:argv_parsing.obj
 0001:00150f84       _set_pgmptr                0000000180151f84 f i libucrt:argv_parsing.obj
 0001:00150f8c       _set_wpgmptr               0000000180151f8c f i libucrt:argv_parsing.obj
 0001:00150f94       ??$?R_W@__crt_internal_free_policy@@QEBAXQEB_W@Z 0000000180151f94 f i libucrt:environment_initialization.obj
 0001:0015149c       ??$get_environment_from_os@$$V@?$__crt_char_traits@D@@SAPEADXZ 000000018015249c f i libucrt:environment_initialization.obj
 0001:001514a4       ??$get_environment_from_os@$$V@?$__crt_char_traits@_W@@SAPEA_WXZ 00000001801524a4 f i libucrt:environment_initialization.obj
 0001:00151634       ??$set_variable_in_environment_nolock@PEADH@?$__crt_char_traits@D@@SAH$$QEAPEAD$$QEAH@Z 0000000180152634 f i libucrt:environment_initialization.obj
 0001:00151640       ??$set_variable_in_environment_nolock@PEA_WH@?$__crt_char_traits@_W@@SAH$$QEAPEA_W$$QEAH@Z 0000000180152640 f i libucrt:environment_initialization.obj
 0001:0015164c       ??$tcscpy_s@PEADAEB_KAEAPEAD@?$__crt_char_traits@D@@SAH$$QEAPEADAEB_KAEAPEAD@Z 000000018015264c f i libucrt:environment_initialization.obj
 0001:0015165c       ??$tcscpy_s@PEA_WAEB_KAEAPEA_W@?$__crt_char_traits@_W@@SAH$$QEAPEA_WAEB_KAEAPEA_W@Z 000000018015265c f i libucrt:environment_initialization.obj
 0001:0015166c       ??$tcslen@AEAPEAD@?$__crt_char_traits@D@@SA_KAEAPEAD@Z 000000018015266c f i libucrt:environment_initialization.obj
 0001:00151680       ??$tcslen@AEAPEA_W@?$__crt_char_traits@_W@@SA_KAEAPEA_W@Z 0000000180152680 f i libucrt:environment_initialization.obj
 0001:00151694       ??$uninitialize@A6AXAEAPEAPEAD@Z@?$dual_state_global@PEAPEAD@__crt_state_management@@QEAAXA6AXAEAPEAPEAD@Z@Z 0000000180152694 f i libucrt:environment_initialization.obj
 0001:001516d8       ??$uninitialize@A6AXAEAPEAPEA_W@Z@?$dual_state_global@PEAPEA_W@__crt_state_management@@QEAAXA6AXAEAPEAPEA_W@Z@Z 00000001801526d8 f i libucrt:environment_initialization.obj
 0001:00151754       ??0?$__crt_unique_heap_ptr@_WU__crt_internal_free_policy@@@@QEAA@QEA_W@Z 0000000180152754 f i libucrt:environment_initialization.obj
 0001:0015175c       ??1?$__crt_unique_heap_ptr@_WU__crt_internal_free_policy@@@@QEAA@XZ 000000018015275c f i libucrt:environment_initialization.obj
 0001:00151778       ??B?$__crt_unique_heap_ptr@PEADU__crt_internal_free_policy@@@@QEBA_NXZ 0000000180152778 f i libucrt:environment_initialization.obj
 0001:00151780       ??B?$__crt_unique_heap_ptr@PEA_WU__crt_internal_free_policy@@@@QEBA_NXZ 0000000180152780 f i libucrt:environment_initialization.obj
 0001:00151788       ??B?$__crt_unique_heap_ptr@_WU__crt_internal_free_policy@@@@QEBA_NXZ 0000000180152788 f i libucrt:environment_initialization.obj
 0001:00151790       ?__crt_compute_required_transform_buffer_count@@YA_KIQEBD@Z 0000000180152790 f i libucrt:environment_initialization.obj
 0001:001517b4       ?__crt_compute_required_transform_buffer_count@@YA_KIQEB_W@Z 00000001801527b4 f i libucrt:environment_initialization.obj
 0001:001517e4       ?__crt_transform_string@@YA_KIQEBDQEA_W_K@Z 00000001801527e4 f i libucrt:environment_initialization.obj
 0001:00151808       ?__crt_transform_string@@YA_KIQEB_WQEAD_K@Z 0000000180152808 f i libucrt:environment_initialization.obj
 0001:00151838       ?detach@?$__crt_unique_heap_ptr@DU__crt_internal_free_policy@@@@QEAAPEADXZ 0000000180152838 f i libucrt:environment_initialization.obj
 0001:00151840       ?detach@?$__crt_unique_heap_ptr@_WU__crt_internal_free_policy@@@@QEAAPEA_WXZ 0000000180152840 f i libucrt:environment_initialization.obj
 0001:00151848       ?get@?$__crt_unique_heap_ptr@_WU__crt_internal_free_policy@@@@QEBAPEA_WXZ 0000000180152848 f i libucrt:environment_initialization.obj
 0001:0015184c       ?get_current_state_index@__crt_state_management@@YA_KXZ 000000018015284c f i libucrt:environment_initialization.obj
 0001:00151880       ?initialize@?$dual_state_global@PEAPEAD@__crt_state_management@@QEAAXQEAPEAD@Z 0000000180152880 f i libucrt:environment_initialization.obj
 0001:001518a8       ?initialize@?$dual_state_global@PEAPEA_W@__crt_state_management@@QEAAXQEAPEA_W@Z 00000001801528a8 f i libucrt:environment_initialization.obj
 0001:001518d0       ?is_valid@?$__crt_unique_heap_ptr@PEADU__crt_internal_free_policy@@@@QEBA_NXZ 00000001801528d0 f i libucrt:environment_initialization.obj
 0001:001518d8       ?is_valid@?$__crt_unique_heap_ptr@PEA_WU__crt_internal_free_policy@@@@QEBA_NXZ 00000001801528d8 f i libucrt:environment_initialization.obj
 0001:001518e0       ?is_valid@?$__crt_unique_heap_ptr@_WU__crt_internal_free_policy@@@@QEBA_NXZ 00000001801528e0 f i libucrt:environment_initialization.obj
 0001:001518f4       ?release@?$__crt_unique_heap_ptr@_WU__crt_internal_free_policy@@@@QEAAXXZ 00000001801528f4 f i libucrt:environment_initialization.obj
 0001:00151910       ?value@?$dual_state_global@PEAPEAD@__crt_state_management@@QEAAAEAPEAPEADXZ 0000000180152910 f i libucrt:environment_initialization.obj
 0001:00151914       ?value@?$dual_state_global@PEAPEA_W@__crt_state_management@@QEAAAEAPEAPEA_WXZ 0000000180152914 f i libucrt:environment_initialization.obj
 0001:00151918       __dcrt_get_or_create_narrow_environment_nolock 0000000180152918 f   libucrt:environment_initialization.obj
 0001:00151954       __dcrt_get_or_create_wide_environment_nolock 0000000180152954 f   libucrt:environment_initialization.obj
 0001:00151990       __dcrt_uninitialize_environments_nolock 0000000180152990 f   libucrt:environment_initialization.obj
 0001:001519c8       __p__environ               00000001801529c8 f   libucrt:environment_initialization.obj
 0001:001519d0       __p__wenviron              00000001801529d0 f   libucrt:environment_initialization.obj
 0001:001519d8       _get_initial_narrow_environment 00000001801529d8 f   libucrt:environment_initialization.obj
 0001:00151a28       _get_initial_wide_environment 0000000180152a28 f   libucrt:environment_initialization.obj
 0001:00151a78       _initialize_narrow_environment 0000000180152a78 f   libucrt:environment_initialization.obj
 0001:00151a80       _initialize_wide_environment 0000000180152a80 f   libucrt:environment_initialization.obj
 0001:00151a88       _invoke_watson_if_error    0000000180152a88 f i libucrt:environment_initialization.obj
 0001:00151abc       ??$?B$$A6AXXZ@__crt_fast_encoded_nullptr_t@@QEBAP6AXXZXZ 0000000180152abc f i libucrt:onexit.obj
 0001:00151ac4       ??$?BP6AXXZ@__crt_fast_encoded_nullptr_t@@QEBAPEAP6AXXZXZ 0000000180152ac4 f i libucrt:onexit.obj
 0001:00151acc       ??$?RP6AXXZ@__crt_internal_free_policy@@QEBAXQEBQ6AXXZ@Z 0000000180152acc f i libucrt:onexit.obj
 0001:00151b9c       ??$__crt_fast_decode_pointer@P6AXXZ@@YAP6AXXZQ6AXXZ@Z 0000000180152b9c f i libucrt:onexit.obj
 0001:00151bb4       ??$__crt_fast_decode_pointer@PEAP6AXXZ@@YAPEAP6AXXZQEAP6AXXZ@Z 0000000180152bb4 f i libucrt:onexit.obj
 0001:00151bcc       ??$__crt_fast_encode_pointer@P6AHXZ@@YAP6AHXZQ6AHXZ@Z 0000000180152bcc f i libucrt:onexit.obj
 0001:00151bec       ??$__crt_fast_encode_pointer@P6AXXZ@@YAP6AXXZQ6AXXZ@Z 0000000180152bec f i libucrt:onexit.obj
 0001:00151c0c       ??$__crt_fast_encode_pointer@PEAP6AXXZ@@YAPEAP6AXXZQEAP6AXXZ@Z 0000000180152c0c f i libucrt:onexit.obj
 0001:00151c60       ??0?$__crt_unique_heap_ptr@P6AXXZU__crt_internal_free_policy@@@@QEAA@QEAP6AXXZ@Z 0000000180152c60 f i libucrt:onexit.obj
 0001:00151c68       ??1?$__crt_unique_heap_ptr@P6AXXZU__crt_internal_free_policy@@@@QEAA@XZ 0000000180152c68 f i libucrt:onexit.obj
 0001:00151c84       ??1scoped_global_state_reset@__crt_state_management@@QEAA@XZ 0000000180152c84 f i libucrt:onexit.obj
 0001:00151f70       ?detach@?$__crt_unique_heap_ptr@P6AXXZU__crt_internal_free_policy@@@@QEAAPEAP6AXXZXZ 0000000180152f70 f i libucrt:onexit.obj
 0001:00151f78       ?release@?$__crt_unique_heap_ptr@P6AXXZU__crt_internal_free_policy@@@@QEAAXXZ 0000000180152f78 f i libucrt:onexit.obj
 0001:00151f94       _crt_at_quick_exit         0000000180152f94 f   libucrt:onexit.obj
 0001:00151fa4       _crt_atexit                0000000180152fa4 f   libucrt:onexit.obj
 0001:00151fb4       _execute_onexit_table      0000000180152fb4 f   libucrt:onexit.obj
 0001:00151ff0       _initialize_onexit_table   0000000180152ff0 f   libucrt:onexit.obj
 0001:00152018       _register_onexit_function  0000000180153018 f   libucrt:onexit.obj
 0001:001521a0       ??$?BX@__crt_fast_encoded_nullptr_t@@QEBAPEAXXZ 00000001801531a0 f i libucrt:initialization.obj
 0001:001521a8       ??$__crt_fast_encode_pointer@PEAX@@YAPEAXQEAX@Z 00000001801531a8 f i libucrt:initialization.obj
 0001:00152278       ?__acrt_stdio_is_initialized@@YA_NXZ 0000000180153278 f i libucrt:initialization.obj
 0001:00152284       ?initialize@?$dual_state_global@PEAU__crt_locale_data@@@__crt_state_management@@QEAAXQEAU__crt_locale_data@@@Z 0000000180153284 f i libucrt:initialization.obj
 0001:001522ac       __acrt_initialize          00000001801532ac f   libucrt:initialization.obj
 0001:001522c0       __acrt_thread_attach       00000001801532c0 f   libucrt:initialization.obj
 0001:001522d4       __acrt_thread_detach       00000001801532d4 f   libucrt:initialization.obj
 0001:001522e4       __acrt_uninitialize        00000001801532e4 f   libucrt:initialization.obj
 0001:0015231c       __acrt_uninitialize_critical 000000018015331c f   libucrt:initialization.obj
 0001:00152340       _get_terminate             0000000180153340 f   libucrt:terminate.obj
 0001:00152364       set_terminate              0000000180153364 f   libucrt:terminate.obj
 0001:00152390       terminate                  0000000180153390 f   libucrt:terminate.obj
 0001:001523b0       _set_abort_behavior        00000001801533b0 f   libucrt:abort.obj
 0001:001523cc       abort                      00000001801533cc f   libucrt:abort.obj
 0001:00152424       malloc                     0000000180153424 f   libucrt:malloc.obj
 0001:00152490       strcpy_s                   0000000180153490 f   libucrt:strcpy_s.obj
 0001:001524f0       ??$?0AEBV?$stream_output_adapter@D@__crt_stdio_output@@AEB_KAEBQEBDAEBQEAU__crt_locale_pointers@@AEBQEAD@?$format_validation_base@DV?$stream_output_adapter@D@__crt_stdio_output@@@__crt_stdio_output@@IEAA@AEBV?$stream_output_adapter@D@1@AEB_KAEBQEBDAEBQEAU__crt_locale_pointers@@AEBQEAD@Z 00000001801534f0 f i libucrt:output.obj
 0001:00152574       ??$?0AEBV?$stream_output_adapter@D@__crt_stdio_output@@AEB_KAEBQEBDAEBQEAU__crt_locale_pointers@@AEBQEAD@?$positional_parameter_base@DV?$stream_output_adapter@D@__crt_stdio_output@@@__crt_stdio_output@@IEAA@AEBV?$stream_output_adapter@D@1@AEB_KAEBQEBDAEBQEAU__crt_locale_pointers@@AEBQEAD@Z 0000000180153574 f i libucrt:output.obj
 0001:00152614       ??$?0AEBV?$stream_output_adapter@D@__crt_stdio_output@@AEB_KAEBQEBDAEBQEAU__crt_locale_pointers@@AEBQEAD@?$standard_base@DV?$stream_output_adapter@D@__crt_stdio_output@@@__crt_stdio_output@@IEAA@AEBV?$stream_output_adapter@D@1@AEB_KAEBQEBDAEBQEAU__crt_locale_pointers@@AEBQEAD@Z 0000000180153614 f i libucrt:output.obj
 0001:00152698       ??$?0AEBV?$stream_output_adapter@_W@__crt_stdio_output@@AEB_KAEBQEB_WAEBQEAU__crt_locale_pointers@@AEBQEAD@?$format_validation_base@_WV?$stream_output_adapter@_W@__crt_stdio_output@@@__crt_stdio_output@@IEAA@AEBV?$stream_output_adapter@_W@1@AEB_KAEBQEB_WAEBQEAU__crt_locale_pointers@@AEBQEAD@Z 0000000180153698 f i libucrt:output.obj
 0001:00152720       ??$?0AEBV?$stream_output_adapter@_W@__crt_stdio_output@@AEB_KAEBQEB_WAEBQEAU__crt_locale_pointers@@AEBQEAD@?$positional_parameter_base@_WV?$stream_output_adapter@_W@__crt_stdio_output@@@__crt_stdio_output@@IEAA@AEBV?$stream_output_adapter@_W@1@AEB_KAEBQEB_WAEBQEAU__crt_locale_pointers@@AEBQEAD@Z 0000000180153720 f i libucrt:output.obj
 0001:001527c4       ??$?0AEBV?$stream_output_adapter@_W@__crt_stdio_output@@AEB_KAEBQEB_WAEBQEAU__crt_locale_pointers@@AEBQEAD@?$standard_base@_WV?$stream_output_adapter@_W@__crt_stdio_output@@@__crt_stdio_output@@IEAA@AEBV?$stream_output_adapter@_W@1@AEB_KAEBQEB_WAEBQEAU__crt_locale_pointers@@AEBQEAD@Z 00000001801537c4 f i libucrt:output.obj
 0001:0015284c       ??$?0AEBV?$string_output_adapter@D@__crt_stdio_output@@AEB_KAEBQEBDAEBQEAU__crt_locale_pointers@@AEBQEAD@?$format_validation_base@DV?$string_output_adapter@D@__crt_stdio_output@@@__crt_stdio_output@@IEAA@AEBV?$string_output_adapter@D@1@AEB_KAEBQEBDAEBQEAU__crt_locale_pointers@@AEBQEAD@Z 000000018015384c f i libucrt:output.obj
 0001:001528d0       ??$?0AEBV?$string_output_adapter@D@__crt_stdio_output@@AEB_KAEBQEBDAEBQEAU__crt_locale_pointers@@AEBQEAD@?$positional_parameter_base@DV?$string_output_adapter@D@__crt_stdio_output@@@__crt_stdio_output@@IEAA@AEBV?$string_output_adapter@D@1@AEB_KAEBQEBDAEBQEAU__crt_locale_pointers@@AEBQEAD@Z 00000001801538d0 f i libucrt:output.obj
 0001:00152970       ??$?0AEBV?$string_output_adapter@D@__crt_stdio_output@@AEB_KAEBQEBDAEBQEAU__crt_locale_pointers@@AEBQEAD@?$standard_base@DV?$string_output_adapter@D@__crt_stdio_output@@@__crt_stdio_output@@IEAA@AEBV?$string_output_adapter@D@1@AEB_KAEBQEBDAEBQEAU__crt_locale_pointers@@AEBQEAD@Z 0000000180153970 f i libucrt:output.obj
 0001:001529f4       ??$?0AEBV?$string_output_adapter@_W@__crt_stdio_output@@AEB_KAEBQEB_WAEBQEAU__crt_locale_pointers@@AEBQEAD@?$format_validation_base@_WV?$string_output_adapter@_W@__crt_stdio_output@@@__crt_stdio_output@@IEAA@AEBV?$string_output_adapter@_W@1@AEB_KAEBQEB_WAEBQEAU__crt_locale_pointers@@AEBQEAD@Z 00000001801539f4 f i libucrt:output.obj
 0001:00152a7c       ??$?0AEBV?$string_output_adapter@_W@__crt_stdio_output@@AEB_KAEBQEB_WAEBQEAU__crt_locale_pointers@@AEBQEAD@?$positional_parameter_base@_WV?$string_output_adapter@_W@__crt_stdio_output@@@__crt_stdio_output@@IEAA@AEBV?$string_output_adapter@_W@1@AEB_KAEBQEB_WAEBQEAU__crt_locale_pointers@@AEBQEAD@Z 0000000180153a7c f i libucrt:output.obj
 0001:00152b20       ??$?0AEBV?$string_output_adapter@_W@__crt_stdio_output@@AEB_KAEBQEB_WAEBQEAU__crt_locale_pointers@@AEBQEAD@?$standard_base@_WV?$string_output_adapter@_W@__crt_stdio_output@@@__crt_stdio_output@@IEAA@AEBV?$string_output_adapter@_W@1@AEB_KAEBQEB_WAEBQEAU__crt_locale_pointers@@AEBQEAD@Z 0000000180153b20 f i libucrt:output.obj
 0001:00153fa4       ??$count@D@formatting_buffer@__crt_stdio_output@@QEBA_KXZ 0000000180154fa4 f i libucrt:output.obj
 0001:00153fc0       ??$count@_W@formatting_buffer@__crt_stdio_output@@QEBA_KXZ 0000000180154fc0 f i libucrt:output.obj
 0001:00153fdc       ??$data@D@formatting_buffer@__crt_stdio_output@@QEAAPEADXZ 0000000180154fdc f i libucrt:output.obj
 0001:00153fec       ??$data@_W@formatting_buffer@__crt_stdio_output@@QEAAPEA_WXZ 0000000180154fec f i libucrt:output.obj
 0001:00153ffc       ??$ensure_buffer_is_big_enough@D@formatting_buffer@__crt_stdio_output@@QEAA_N_K@Z 0000000180154ffc f i libucrt:output.obj
 0001:001540a4       ??$ensure_buffer_is_big_enough@_W@formatting_buffer@__crt_stdio_output@@QEAA_N_K@Z 00000001801550a4 f i libucrt:output.obj
 0001:00154150       ??$extract_argument_from_va_list@C_J@?$positional_parameter_base@DV?$stream_output_adapter@D@__crt_stdio_output@@@__crt_stdio_output@@IEAA_NAEA_J@Z 0000000180155150 f i libucrt:output.obj
 0001:0015420c       ??$extract_argument_from_va_list@C_J@?$positional_parameter_base@DV?$string_output_adapter@D@__crt_stdio_output@@@__crt_stdio_output@@IEAA_NAEA_J@Z 000000018015520c f i libucrt:output.obj
 0001:001542c8       ??$extract_argument_from_va_list@C_J@?$positional_parameter_base@_WV?$stream_output_adapter@_W@__crt_stdio_output@@@__crt_stdio_output@@IEAA_NAEA_J@Z 00000001801552c8 f i libucrt:output.obj
 0001:00154388       ??$extract_argument_from_va_list@C_J@?$positional_parameter_base@_WV?$string_output_adapter@_W@__crt_stdio_output@@@__crt_stdio_output@@IEAA_NAEA_J@Z 0000000180155388 f i libucrt:output.obj
 0001:00154448       ??$extract_argument_from_va_list@C_J@?$standard_base@DV?$stream_output_adapter@D@__crt_stdio_output@@@__crt_stdio_output@@IEAA_NAEA_J@Z 0000000180155448 f i libucrt:output.obj
 0001:0015445c       ??$extract_argument_from_va_list@C_J@?$standard_base@DV?$string_output_adapter@D@__crt_stdio_output@@@__crt_stdio_output@@IEAA_NAEA_J@Z 000000018015545c f i libucrt:output.obj
 0001:00154470       ??$extract_argument_from_va_list@C_J@?$standard_base@_WV?$stream_output_adapter@_W@__crt_stdio_output@@@__crt_stdio_output@@IEAA_NAEA_J@Z 0000000180155470 f i libucrt:output.obj
 0001:00154484       ??$extract_argument_from_va_list@C_J@?$standard_base@_WV?$string_output_adapter@_W@__crt_stdio_output@@@__crt_stdio_output@@IEAA_NAEA_J@Z 0000000180155484 f i libucrt:output.obj
 0001:00154498       ??$extract_argument_from_va_list@E_J@?$positional_parameter_base@DV?$stream_output_adapter@D@__crt_stdio_output@@@__crt_stdio_output@@IEAA_NAEA_J@Z 0000000180155498 f i libucrt:output.obj
 0001:00154554       ??$extract_argument_from_va_list@E_J@?$positional_parameter_base@DV?$string_output_adapter@D@__crt_stdio_output@@@__crt_stdio_output@@IEAA_NAEA_J@Z 0000000180155554 f i libucrt:output.obj
 0001:00154610       ??$extract_argument_from_va_list@E_J@?$positional_parameter_base@_WV?$stream_output_adapter@_W@__crt_stdio_output@@@__crt_stdio_output@@IEAA_NAEA_J@Z 0000000180155610 f i libucrt:output.obj
 0001:001546d0       ??$extract_argument_from_va_list@E_J@?$positional_parameter_base@_WV?$string_output_adapter@_W@__crt_stdio_output@@@__crt_stdio_output@@IEAA_NAEA_J@Z 00000001801556d0 f i libucrt:output.obj
 0001:00154790       ??$extract_argument_from_va_list@E_J@?$standard_base@DV?$stream_output_adapter@D@__crt_stdio_output@@@__crt_stdio_output@@IEAA_NAEA_J@Z 0000000180155790 f i libucrt:output.obj
 0001:001547a4       ??$extract_argument_from_va_list@E_J@?$standard_base@DV?$string_output_adapter@D@__crt_stdio_output@@@__crt_stdio_output@@IEAA_NAEA_J@Z 00000001801557a4 f i libucrt:output.obj
 0001:001547b8       ??$extract_argument_from_va_list@E_J@?$standard_base@_WV?$stream_output_adapter@_W@__crt_stdio_output@@@__crt_stdio_output@@IEAA_NAEA_J@Z 00000001801557b8 f i libucrt:output.obj
 0001:001547cc       ??$extract_argument_from_va_list@E_J@?$standard_base@_WV?$string_output_adapter@_W@__crt_stdio_output@@@__crt_stdio_output@@IEAA_NAEA_J@Z 00000001801557cc f i libucrt:output.obj
 0001:001547e0       ??$extract_argument_from_va_list@F_J@?$positional_parameter_base@DV?$stream_output_adapter@D@__crt_stdio_output@@@__crt_stdio_output@@IEAA_NAEA_J@Z 00000001801557e0 f i libucrt:output.obj
 0001:0015489c       ??$extract_argument_from_va_list@F_J@?$positional_parameter_base@DV?$string_output_adapter@D@__crt_stdio_output@@@__crt_stdio_output@@IEAA_NAEA_J@Z 000000018015589c f i libucrt:output.obj
 0001:00154958       ??$extract_argument_from_va_list@F_J@?$positional_parameter_base@_WV?$stream_output_adapter@_W@__crt_stdio_output@@@__crt_stdio_output@@IEAA_NAEA_J@Z 0000000180155958 f i libucrt:output.obj
 0001:00154a18       ??$extract_argument_from_va_list@F_J@?$positional_parameter_base@_WV?$string_output_adapter@_W@__crt_stdio_output@@@__crt_stdio_output@@IEAA_NAEA_J@Z 0000000180155a18 f i libucrt:output.obj
 0001:00154ad8       ??$extract_argument_from_va_list@F_J@?$standard_base@DV?$stream_output_adapter@D@__crt_stdio_output@@@__crt_stdio_output@@IEAA_NAEA_J@Z 0000000180155ad8 f i libucrt:output.obj
 0001:00154aec       ??$extract_argument_from_va_list@F_J@?$standard_base@DV?$string_output_adapter@D@__crt_stdio_output@@@__crt_stdio_output@@IEAA_NAEA_J@Z 0000000180155aec f i libucrt:output.obj
 0001:00154b00       ??$extract_argument_from_va_list@F_J@?$standard_base@_WV?$stream_output_adapter@_W@__crt_stdio_output@@@__crt_stdio_output@@IEAA_NAEA_J@Z 0000000180155b00 f i libucrt:output.obj
 0001:00154b14       ??$extract_argument_from_va_list@F_J@?$standard_base@_WV?$string_output_adapter@_W@__crt_stdio_output@@@__crt_stdio_output@@IEAA_NAEA_J@Z 0000000180155b14 f i libucrt:output.obj
 0001:00154b28       ??$extract_argument_from_va_list@GD@?$positional_parameter_base@DV?$stream_output_adapter@D@__crt_stdio_output@@@__crt_stdio_output@@IEAA_NAEAD@Z 0000000180155b28 f i libucrt:output.obj
 0001:00154be0       ??$extract_argument_from_va_list@GD@?$positional_parameter_base@DV?$string_output_adapter@D@__crt_stdio_output@@@__crt_stdio_output@@IEAA_NAEAD@Z 0000000180155be0 f i libucrt:output.obj
 0001:00154c98       ??$extract_argument_from_va_list@GD@?$standard_base@DV?$stream_output_adapter@D@__crt_stdio_output@@@__crt_stdio_output@@IEAA_NAEAD@Z 0000000180155c98 f i libucrt:output.obj
 0001:00154cac       ??$extract_argument_from_va_list@GD@?$standard_base@DV?$string_output_adapter@D@__crt_stdio_output@@@__crt_stdio_output@@IEAA_NAEAD@Z 0000000180155cac f i libucrt:output.obj
 0001:00154cc0       ??$extract_argument_from_va_list@G_J@?$positional_parameter_base@DV?$stream_output_adapter@D@__crt_stdio_output@@@__crt_stdio_output@@IEAA_NAEA_J@Z 0000000180155cc0 f i libucrt:output.obj
 0001:00154d7c       ??$extract_argument_from_va_list@G_J@?$positional_parameter_base@DV?$string_output_adapter@D@__crt_stdio_output@@@__crt_stdio_output@@IEAA_NAEA_J@Z 0000000180155d7c f i libucrt:output.obj
 0001:00154e38       ??$extract_argument_from_va_list@G_J@?$positional_parameter_base@_WV?$stream_output_adapter@_W@__crt_stdio_output@@@__crt_stdio_output@@IEAA_NAEA_J@Z 0000000180155e38 f i libucrt:output.obj
 0001:00154ef8       ??$extract_argument_from_va_list@G_J@?$positional_parameter_base@_WV?$string_output_adapter@_W@__crt_stdio_output@@@__crt_stdio_output@@IEAA_NAEA_J@Z 0000000180155ef8 f i libucrt:output.obj
 0001:00154fb8       ??$extract_argument_from_va_list@G_J@?$standard_base@DV?$stream_output_adapter@D@__crt_stdio_output@@@__crt_stdio_output@@IEAA_NAEA_J@Z 0000000180155fb8 f i libucrt:output.obj
 0001:00154fcc       ??$extract_argument_from_va_list@G_J@?$standard_base@DV?$string_output_adapter@D@__crt_stdio_output@@@__crt_stdio_output@@IEAA_NAEA_J@Z 0000000180155fcc f i libucrt:output.obj
 0001:00154fe0       ??$extract_argument_from_va_list@G_J@?$standard_base@_WV?$stream_output_adapter@_W@__crt_stdio_output@@@__crt_stdio_output@@IEAA_NAEA_J@Z 0000000180155fe0 f i libucrt:output.obj
 0001:00154ff4       ??$extract_argument_from_va_list@G_J@?$standard_base@_WV?$string_output_adapter@_W@__crt_stdio_output@@@__crt_stdio_output@@IEAA_NAEA_J@Z 0000000180155ff4 f i libucrt:output.obj
 0001:00155008       ??$extract_argument_from_va_list@H_J@?$positional_parameter_base@DV?$stream_output_adapter@D@__crt_stdio_output@@@__crt_stdio_output@@IEAA_NAEA_J@Z 0000000180156008 f i libucrt:output.obj
 0001:001550c4       ??$extract_argument_from_va_list@H_J@?$positional_parameter_base@DV?$string_output_adapter@D@__crt_stdio_output@@@__crt_stdio_output@@IEAA_NAEA_J@Z 00000001801560c4 f i libucrt:output.obj
 0001:00155180       ??$extract_argument_from_va_list@H_J@?$positional_parameter_base@_WV?$stream_output_adapter@_W@__crt_stdio_output@@@__crt_stdio_output@@IEAA_NAEA_J@Z 0000000180156180 f i libucrt:output.obj
 0001:0015523c       ??$extract_argument_from_va_list@H_J@?$positional_parameter_base@_WV?$string_output_adapter@_W@__crt_stdio_output@@@__crt_stdio_output@@IEAA_NAEA_J@Z 000000018015623c f i libucrt:output.obj
 0001:001552f8       ??$extract_argument_from_va_list@H_J@?$standard_base@DV?$stream_output_adapter@D@__crt_stdio_output@@@__crt_stdio_output@@IEAA_NAEA_J@Z 00000001801562f8 f i libucrt:output.obj
 0001:0015530c       ??$extract_argument_from_va_list@H_J@?$standard_base@DV?$string_output_adapter@D@__crt_stdio_output@@@__crt_stdio_output@@IEAA_NAEA_J@Z 000000018015630c f i libucrt:output.obj
 0001:00155320       ??$extract_argument_from_va_list@H_J@?$standard_base@_WV?$stream_output_adapter@_W@__crt_stdio_output@@@__crt_stdio_output@@IEAA_NAEA_J@Z 0000000180156320 f i libucrt:output.obj
 0001:00155334       ??$extract_argument_from_va_list@H_J@?$standard_base@_WV?$string_output_adapter@_W@__crt_stdio_output@@@__crt_stdio_output@@IEAA_NAEA_J@Z 0000000180156334 f i libucrt:output.obj
 0001:00155348       ??$extract_argument_from_va_list@I_J@?$positional_parameter_base@DV?$stream_output_adapter@D@__crt_stdio_output@@@__crt_stdio_output@@IEAA_NAEA_J@Z 0000000180156348 f i libucrt:output.obj
 0001:00155404       ??$extract_argument_from_va_list@I_J@?$positional_parameter_base@DV?$string_output_adapter@D@__crt_stdio_output@@@__crt_stdio_output@@IEAA_NAEA_J@Z 0000000180156404 f i libucrt:output.obj
 0001:001554c0       ??$extract_argument_from_va_list@I_J@?$positional_parameter_base@_WV?$stream_output_adapter@_W@__crt_stdio_output@@@__crt_stdio_output@@IEAA_NAEA_J@Z 00000001801564c0 f i libucrt:output.obj
 0001:0015557c       ??$extract_argument_from_va_list@I_J@?$positional_parameter_base@_WV?$string_output_adapter@_W@__crt_stdio_output@@@__crt_stdio_output@@IEAA_NAEA_J@Z 000000018015657c f i libucrt:output.obj
 0001:00155638       ??$extract_argument_from_va_list@I_J@?$standard_base@DV?$stream_output_adapter@D@__crt_stdio_output@@@__crt_stdio_output@@IEAA_NAEA_J@Z 0000000180156638 f i libucrt:output.obj
 0001:0015564c       ??$extract_argument_from_va_list@I_J@?$standard_base@DV?$string_output_adapter@D@__crt_stdio_output@@@__crt_stdio_output@@IEAA_NAEA_J@Z 000000018015664c f i libucrt:output.obj
 0001:00155660       ??$extract_argument_from_va_list@I_J@?$standard_base@_WV?$stream_output_adapter@_W@__crt_stdio_output@@@__crt_stdio_output@@IEAA_NAEA_J@Z 0000000180156660 f i libucrt:output.obj
 0001:00155674       ??$extract_argument_from_va_list@I_J@?$standard_base@_WV?$string_output_adapter@_W@__crt_stdio_output@@@__crt_stdio_output@@IEAA_NAEA_J@Z 0000000180156674 f i libucrt:output.obj
 0001:00155688       ??$extract_argument_from_va_list@PEADPEAD@?$positional_parameter_base@DV?$stream_output_adapter@D@__crt_stdio_output@@@__crt_stdio_output@@IEAA_NAEAPEAD@Z 0000000180156688 f i libucrt:output.obj
 0001:00155744       ??$extract_argument_from_va_list@PEADPEAD@?$positional_parameter_base@DV?$string_output_adapter@D@__crt_stdio_output@@@__crt_stdio_output@@IEAA_NAEAPEAD@Z 0000000180156744 f i libucrt:output.obj
 0001:00155800       ??$extract_argument_from_va_list@PEADPEAD@?$positional_parameter_base@_WV?$stream_output_adapter@_W@__crt_stdio_output@@@__crt_stdio_output@@IEAA_NAEAPEAD@Z 0000000180156800 f i libucrt:output.obj
 0001:001558bc       ??$extract_argument_from_va_list@PEADPEAD@?$positional_parameter_base@_WV?$string_output_adapter@_W@__crt_stdio_output@@@__crt_stdio_output@@IEAA_NAEAPEAD@Z 00000001801568bc f i libucrt:output.obj
 0001:00155978       ??$extract_argument_from_va_list@PEADPEAD@?$standard_base@DV?$stream_output_adapter@D@__crt_stdio_output@@@__crt_stdio_output@@IEAA_NAEAPEAD@Z 0000000180156978 f i libucrt:output.obj
 0001:0015598c       ??$extract_argument_from_va_list@PEADPEAD@?$standard_base@DV?$string_output_adapter@D@__crt_stdio_output@@@__crt_stdio_output@@IEAA_NAEAPEAD@Z 000000018015698c f i libucrt:output.obj
 0001:001559a0       ??$extract_argument_from_va_list@PEADPEAD@?$standard_base@_WV?$stream_output_adapter@_W@__crt_stdio_output@@@__crt_stdio_output@@IEAA_NAEAPEAD@Z 00000001801569a0 f i libucrt:output.obj
 0001:001559b4       ??$extract_argument_from_va_list@PEADPEAD@?$standard_base@_WV?$string_output_adapter@_W@__crt_stdio_output@@@__crt_stdio_output@@IEAA_NAEAPEAD@Z 00000001801569b4 f i libucrt:output.obj
 0001:001559c8       ??$extract_argument_from_va_list@PEAUansi_string@?1??type_case_Z@?$output_processor@DV?$stream_output_adapter@D@__crt_stdio_output@@V?$format_validation_base@DV?$stream_output_adapter@D@__crt_stdio_output@@@2@@__crt_stdio_output@@AEAA_NXZ@PEAU1?1??234@AEAA_NXZ@@?$standard_base@DV?$stream_output_adapter@D@__crt_stdio_output@@@__crt_stdio_output@@IEAA_NAEAPEAUansi_string@?1??type_case_Z@?$output_processor@DV?$stream_output_adapter@D@__crt_stdio_output@@V?$format_validation_base@DV?$stream_output_adapter@D@__crt_stdio_output@@@2@@1@AEAA_NXZ@@Z 00000001801569c8 f i libucrt:output.obj
 0001:001559dc       ??$extract_argument_from_va_list@PEAUansi_string@?1??type_case_Z@?$output_processor@DV?$stream_output_adapter@D@__crt_stdio_output@@V?$positional_parameter_base@DV?$stream_output_adapter@D@__crt_stdio_output@@@2@@__crt_stdio_output@@AEAA_NXZ@PEAU1?1??234@AEAA_NXZ@@?$positional_parameter_base@DV?$stream_output_adapter@D@__crt_stdio_output@@@__crt_stdio_output@@IEAA_NAEAPEAUansi_string@?1??type_case_Z@?$output_processor@DV?$stream_output_adapter@D@__crt_stdio_output@@V?$positional_parameter_base@DV?$stream_output_adapter@D@__crt_stdio_output@@@2@@1@AEAA_NXZ@@Z 00000001801569dc f i libucrt:output.obj
 0001:00155a98       ??$extract_argument_from_va_list@PEAUansi_string@?1??type_case_Z@?$output_processor@DV?$stream_output_adapter@D@__crt_stdio_output@@V?$positional_parameter_base@DV?$stream_output_adapter@D@__crt_stdio_output@@@2@@__crt_stdio_output@@AEAA_NXZ@PEAU1?1??234@AEAA_NXZ@@?$standard_base@DV?$stream_output_adapter@D@__crt_stdio_output@@@__crt_stdio_output@@IEAA_NAEAPEAUansi_string@?1??type_case_Z@?$output_processor@DV?$stream_output_adapter@D@__crt_stdio_output@@V?$positional_parameter_base@DV?$stream_output_adapter@D@__crt_stdio_output@@@2@@1@AEAA_NXZ@@Z 0000000180156a98 f i libucrt:output.obj
 0001:00155aac       ??$extract_argument_from_va_list@PEAUansi_string@?1??type_case_Z@?$output_processor@DV?$stream_output_adapter@D@__crt_stdio_output@@V?$standard_base@DV?$stream_output_adapter@D@__crt_stdio_output@@@2@@__crt_stdio_output@@AEAA_NXZ@PEAU1?1??234@AEAA_NXZ@@?$standard_base@DV?$stream_output_adapter@D@__crt_stdio_output@@@__crt_stdio_output@@IEAA_NAEAPEAUansi_string@?1??type_case_Z@?$output_processor@DV?$stream_output_adapter@D@__crt_stdio_output@@V?$standard_base@DV?$stream_output_adapter@D@__crt_stdio_output@@@2@@1@AEAA_NXZ@@Z 0000000180156aac f i libucrt:output.obj
 0001:00155ac0       ??$extract_argument_from_va_list@PEAUansi_string@?1??type_case_Z@?$output_processor@DV?$string_output_adapter@D@__crt_stdio_output@@V?$format_validation_base@DV?$string_output_adapter@D@__crt_stdio_output@@@2@@__crt_stdio_output@@AEAA_NXZ@PEAU1?1??234@AEAA_NXZ@@?$standard_base@DV?$string_output_adapter@D@__crt_stdio_output@@@__crt_stdio_output@@IEAA_NAEAPEAUansi_string@?1??type_case_Z@?$output_processor@DV?$string_output_adapter@D@__crt_stdio_output@@V?$format_validation_base@DV?$string_output_adapter@D@__crt_stdio_output@@@2@@1@AEAA_NXZ@@Z 0000000180156ac0 f i libucrt:output.obj
 0001:00155ad4       ??$extract_argument_from_va_list@PEAUansi_string@?1??type_case_Z@?$output_processor@DV?$string_output_adapter@D@__crt_stdio_output@@V?$positional_parameter_base@DV?$string_output_adapter@D@__crt_stdio_output@@@2@@__crt_stdio_output@@AEAA_NXZ@PEAU1?1??234@AEAA_NXZ@@?$positional_parameter_base@DV?$string_output_adapter@D@__crt_stdio_output@@@__crt_stdio_output@@IEAA_NAEAPEAUansi_string@?1??type_case_Z@?$output_processor@DV?$string_output_adapter@D@__crt_stdio_output@@V?$positional_parameter_base@DV?$string_output_adapter@D@__crt_stdio_output@@@2@@1@AEAA_NXZ@@Z 0000000180156ad4 f i libucrt:output.obj
 0001:00155b90       ??$extract_argument_from_va_list@PEAUansi_string@?1??type_case_Z@?$output_processor@DV?$string_output_adapter@D@__crt_stdio_output@@V?$positional_parameter_base@DV?$string_output_adapter@D@__crt_stdio_output@@@2@@__crt_stdio_output@@AEAA_NXZ@PEAU1?1??234@AEAA_NXZ@@?$standard_base@DV?$string_output_adapter@D@__crt_stdio_output@@@__crt_stdio_output@@IEAA_NAEAPEAUansi_string@?1??type_case_Z@?$output_processor@DV?$string_output_adapter@D@__crt_stdio_output@@V?$positional_parameter_base@DV?$string_output_adapter@D@__crt_stdio_output@@@2@@1@AEAA_NXZ@@Z 0000000180156b90 f i libucrt:output.obj
 0001:00155ba4       ??$extract_argument_from_va_list@PEAUansi_string@?1??type_case_Z@?$output_processor@DV?$string_output_adapter@D@__crt_stdio_output@@V?$standard_base@DV?$string_output_adapter@D@__crt_stdio_output@@@2@@__crt_stdio_output@@AEAA_NXZ@PEAU1?1??234@AEAA_NXZ@@?$standard_base@DV?$string_output_adapter@D@__crt_stdio_output@@@__crt_stdio_output@@IEAA_NAEAPEAUansi_string@?1??type_case_Z@?$output_processor@DV?$string_output_adapter@D@__crt_stdio_output@@V?$standard_base@DV?$string_output_adapter@D@__crt_stdio_output@@@2@@1@AEAA_NXZ@@Z 0000000180156ba4 f i libucrt:output.obj
 0001:00155bb8       ??$extract_argument_from_va_list@PEAUansi_string@?1??type_case_Z@?$output_processor@_WV?$stream_output_adapter@_W@__crt_stdio_output@@V?$format_validation_base@_WV?$stream_output_adapter@_W@__crt_stdio_output@@@2@@__crt_stdio_output@@AEAA_NXZ@PEAU1?1??234@AEAA_NXZ@@?$standard_base@_WV?$stream_output_adapter@_W@__crt_stdio_output@@@__crt_stdio_output@@IEAA_NAEAPEAUansi_string@?1??type_case_Z@?$output_processor@_WV?$stream_output_adapter@_W@__crt_stdio_output@@V?$format_validation_base@_WV?$stream_output_adapter@_W@__crt_stdio_output@@@2@@1@AEAA_NXZ@@Z 0000000180156bb8 f i libucrt:output.obj
 0001:00155bcc       ??$extract_argument_from_va_list@PEAUansi_string@?1??type_case_Z@?$output_processor@_WV?$stream_output_adapter@_W@__crt_stdio_output@@V?$positional_parameter_base@_WV?$stream_output_adapter@_W@__crt_stdio_output@@@2@@__crt_stdio_output@@AEAA_NXZ@PEAU1?1??234@AEAA_NXZ@@?$positional_parameter_base@_WV?$stream_output_adapter@_W@__crt_stdio_output@@@__crt_stdio_output@@IEAA_NAEAPEAUansi_string@?1??type_case_Z@?$output_processor@_WV?$stream_output_adapter@_W@__crt_stdio_output@@V?$positional_parameter_base@_WV?$stream_output_adapter@_W@__crt_stdio_output@@@2@@1@AEAA_NXZ@@Z 0000000180156bcc f i libucrt:output.obj
 0001:00155c88       ??$extract_argument_from_va_list@PEAUansi_string@?1??type_case_Z@?$output_processor@_WV?$stream_output_adapter@_W@__crt_stdio_output@@V?$positional_parameter_base@_WV?$stream_output_adapter@_W@__crt_stdio_output@@@2@@__crt_stdio_output@@AEAA_NXZ@PEAU1?1??234@AEAA_NXZ@@?$standard_base@_WV?$stream_output_adapter@_W@__crt_stdio_output@@@__crt_stdio_output@@IEAA_NAEAPEAUansi_string@?1??type_case_Z@?$output_processor@_WV?$stream_output_adapter@_W@__crt_stdio_output@@V?$positional_parameter_base@_WV?$stream_output_adapter@_W@__crt_stdio_output@@@2@@1@AEAA_NXZ@@Z 0000000180156c88 f i libucrt:output.obj
 0001:00155c9c       ??$extract_argument_from_va_list@PEAUansi_string@?1??type_case_Z@?$output_processor@_WV?$stream_output_adapter@_W@__crt_stdio_output@@V?$standard_base@_WV?$stream_output_adapter@_W@__crt_stdio_output@@@2@@__crt_stdio_output@@AEAA_NXZ@PEAU1?1??234@AEAA_NXZ@@?$standard_base@_WV?$stream_output_adapter@_W@__crt_stdio_output@@@__crt_stdio_output@@IEAA_NAEAPEAUansi_string@?1??type_case_Z@?$output_processor@_WV?$stream_output_adapter@_W@__crt_stdio_output@@V?$standard_base@_WV?$stream_output_adapter@_W@__crt_stdio_output@@@2@@1@AEAA_NXZ@@Z 0000000180156c9c f i libucrt:output.obj
 0001:00155cb0       ??$extract_argument_from_va_list@PEAUansi_string@?1??type_case_Z@?$output_processor@_WV?$string_output_adapter@_W@__crt_stdio_output@@V?$format_validation_base@_WV?$string_output_adapter@_W@__crt_stdio_output@@@2@@__crt_stdio_output@@AEAA_NXZ@PEAU1?1??234@AEAA_NXZ@@?$standard_base@_WV?$string_output_adapter@_W@__crt_stdio_output@@@__crt_stdio_output@@IEAA_NAEAPEAUansi_string@?1??type_case_Z@?$output_processor@_WV?$string_output_adapter@_W@__crt_stdio_output@@V?$format_validation_base@_WV?$string_output_adapter@_W@__crt_stdio_output@@@2@@1@AEAA_NXZ@@Z 0000000180156cb0 f i libucrt:output.obj
 0001:00155cc4       ??$extract_argument_from_va_list@PEAUansi_string@?1??type_case_Z@?$output_processor@_WV?$string_output_adapter@_W@__crt_stdio_output@@V?$positional_parameter_base@_WV?$string_output_adapter@_W@__crt_stdio_output@@@2@@__crt_stdio_output@@AEAA_NXZ@PEAU1?1??234@AEAA_NXZ@@?$positional_parameter_base@_WV?$string_output_adapter@_W@__crt_stdio_output@@@__crt_stdio_output@@IEAA_NAEAPEAUansi_string@?1??type_case_Z@?$output_processor@_WV?$string_output_adapter@_W@__crt_stdio_output@@V?$positional_parameter_base@_WV?$string_output_adapter@_W@__crt_stdio_output@@@2@@1@AEAA_NXZ@@Z 0000000180156cc4 f i libucrt:output.obj
 0001:00155d80       ??$extract_argument_from_va_list@PEAUansi_string@?1??type_case_Z@?$output_processor@_WV?$string_output_adapter@_W@__crt_stdio_output@@V?$positional_parameter_base@_WV?$string_output_adapter@_W@__crt_stdio_output@@@2@@__crt_stdio_output@@AEAA_NXZ@PEAU1?1??234@AEAA_NXZ@@?$standard_base@_WV?$string_output_adapter@_W@__crt_stdio_output@@@__crt_stdio_output@@IEAA_NAEAPEAUansi_string@?1??type_case_Z@?$output_processor@_WV?$string_output_adapter@_W@__crt_stdio_output@@V?$positional_parameter_base@_WV?$string_output_adapter@_W@__crt_stdio_output@@@2@@1@AEAA_NXZ@@Z 0000000180156d80 f i libucrt:output.obj
 0001:00155d94       ??$extract_argument_from_va_list@PEAUansi_string@?1??type_case_Z@?$output_processor@_WV?$string_output_adapter@_W@__crt_stdio_output@@V?$standard_base@_WV?$string_output_adapter@_W@__crt_stdio_output@@@2@@__crt_stdio_output@@AEAA_NXZ@PEAU1?1??234@AEAA_NXZ@@?$standard_base@_WV?$string_output_adapter@_W@__crt_stdio_output@@@__crt_stdio_output@@IEAA_NAEAPEAUansi_string@?1??type_case_Z@?$output_processor@_WV?$string_output_adapter@_W@__crt_stdio_output@@V?$standard_base@_WV?$string_output_adapter@_W@__crt_stdio_output@@@2@@1@AEAA_NXZ@@Z 0000000180156d94 f i libucrt:output.obj
 0001:00155da8       ??$extract_argument_from_va_list@PEAXPEAX@?$positional_parameter_base@DV?$stream_output_adapter@D@__crt_stdio_output@@@__crt_stdio_output@@IEAA_NAEAPEAX@Z 0000000180156da8 f i libucrt:output.obj
 0001:00155e64       ??$extract_argument_from_va_list@PEAXPEAX@?$positional_parameter_base@DV?$string_output_adapter@D@__crt_stdio_output@@@__crt_stdio_output@@IEAA_NAEAPEAX@Z 0000000180156e64 f i libucrt:output.obj
 0001:00155f20       ??$extract_argument_from_va_list@PEAXPEAX@?$positional_parameter_base@_WV?$stream_output_adapter@_W@__crt_stdio_output@@@__crt_stdio_output@@IEAA_NAEAPEAX@Z 0000000180156f20 f i libucrt:output.obj
 0001:00155fdc       ??$extract_argument_from_va_list@PEAXPEAX@?$positional_parameter_base@_WV?$string_output_adapter@_W@__crt_stdio_output@@@__crt_stdio_output@@IEAA_NAEAPEAX@Z 0000000180156fdc f i libucrt:output.obj
 0001:00156098       ??$extract_argument_from_va_list@PEAXPEAX@?$standard_base@DV?$stream_output_adapter@D@__crt_stdio_output@@@__crt_stdio_output@@IEAA_NAEAPEAX@Z 0000000180157098 f i libucrt:output.obj
 0001:001560ac       ??$extract_argument_from_va_list@PEAXPEAX@?$standard_base@DV?$string_output_adapter@D@__crt_stdio_output@@@__crt_stdio_output@@IEAA_NAEAPEAX@Z 00000001801570ac f i libucrt:output.obj
 0001:001560c0       ??$extract_argument_from_va_list@PEAXPEAX@?$standard_base@_WV?$stream_output_adapter@_W@__crt_stdio_output@@@__crt_stdio_output@@IEAA_NAEAPEAX@Z 00000001801570c0 f i libucrt:output.obj
 0001:001560d4       ??$extract_argument_from_va_list@PEAXPEAX@?$standard_base@_WV?$string_output_adapter@_W@__crt_stdio_output@@@__crt_stdio_output@@IEAA_NAEAPEAX@Z 00000001801570d4 f i libucrt:output.obj
 0001:001560e8       ??$extract_argument_from_va_list@U_CRT_DOUBLE@@U1@@?$positional_parameter_base@DV?$stream_output_adapter@D@__crt_stdio_output@@@__crt_stdio_output@@IEAA_NAEAU_CRT_DOUBLE@@@Z 00000001801570e8 f i libucrt:output.obj
 0001:001561a4       ??$extract_argument_from_va_list@U_CRT_DOUBLE@@U1@@?$positional_parameter_base@DV?$string_output_adapter@D@__crt_stdio_output@@@__crt_stdio_output@@IEAA_NAEAU_CRT_DOUBLE@@@Z 00000001801571a4 f i libucrt:output.obj
 0001:00156260       ??$extract_argument_from_va_list@U_CRT_DOUBLE@@U1@@?$positional_parameter_base@_WV?$stream_output_adapter@_W@__crt_stdio_output@@@__crt_stdio_output@@IEAA_NAEAU_CRT_DOUBLE@@@Z 0000000180157260 f i libucrt:output.obj
 0001:0015631c       ??$extract_argument_from_va_list@U_CRT_DOUBLE@@U1@@?$positional_parameter_base@_WV?$string_output_adapter@_W@__crt_stdio_output@@@__crt_stdio_output@@IEAA_NAEAU_CRT_DOUBLE@@@Z 000000018015731c f i libucrt:output.obj
 0001:001563d8       ??$extract_argument_from_va_list@U_CRT_DOUBLE@@U1@@?$standard_base@DV?$stream_output_adapter@D@__crt_stdio_output@@@__crt_stdio_output@@IEAA_NAEAU_CRT_DOUBLE@@@Z 00000001801573d8 f i libucrt:output.obj
 0001:001563f0       ??$extract_argument_from_va_list@U_CRT_DOUBLE@@U1@@?$standard_base@DV?$string_output_adapter@D@__crt_stdio_output@@@__crt_stdio_output@@IEAA_NAEAU_CRT_DOUBLE@@@Z 00000001801573f0 f i libucrt:output.obj
 0001:00156408       ??$extract_argument_from_va_list@U_CRT_DOUBLE@@U1@@?$standard_base@_WV?$stream_output_adapter@_W@__crt_stdio_output@@@__crt_stdio_output@@IEAA_NAEAU_CRT_DOUBLE@@@Z 0000000180157408 f i libucrt:output.obj
 0001:00156420       ??$extract_argument_from_va_list@U_CRT_DOUBLE@@U1@@?$standard_base@_WV?$string_output_adapter@_W@__crt_stdio_output@@@__crt_stdio_output@@IEAA_NAEAU_CRT_DOUBLE@@@Z 0000000180157420 f i libucrt:output.obj
 0001:00156438       ??$extract_argument_from_va_list@_J_J@?$positional_parameter_base@DV?$stream_output_adapter@D@__crt_stdio_output@@@__crt_stdio_output@@IEAA_NAEA_J@Z 0000000180157438 f i libucrt:output.obj
 0001:001564f4       ??$extract_argument_from_va_list@_J_J@?$positional_parameter_base@DV?$string_output_adapter@D@__crt_stdio_output@@@__crt_stdio_output@@IEAA_NAEA_J@Z 00000001801574f4 f i libucrt:output.obj
 0001:001565b0       ??$extract_argument_from_va_list@_J_J@?$positional_parameter_base@_WV?$stream_output_adapter@_W@__crt_stdio_output@@@__crt_stdio_output@@IEAA_NAEA_J@Z 00000001801575b0 f i libucrt:output.obj
 0001:0015666c       ??$extract_argument_from_va_list@_J_J@?$positional_parameter_base@_WV?$string_output_adapter@_W@__crt_stdio_output@@@__crt_stdio_output@@IEAA_NAEA_J@Z 000000018015766c f i libucrt:output.obj
 0001:00156728       ??$extract_argument_from_va_list@_J_J@?$standard_base@DV?$stream_output_adapter@D@__crt_stdio_output@@@__crt_stdio_output@@IEAA_NAEA_J@Z 0000000180157728 f i libucrt:output.obj
 0001:0015673c       ??$extract_argument_from_va_list@_J_J@?$standard_base@DV?$string_output_adapter@D@__crt_stdio_output@@@__crt_stdio_output@@IEAA_NAEA_J@Z 000000018015773c f i libucrt:output.obj
 0001:00156750       ??$extract_argument_from_va_list@_J_J@?$standard_base@_WV?$stream_output_adapter@_W@__crt_stdio_output@@@__crt_stdio_output@@IEAA_NAEA_J@Z 0000000180157750 f i libucrt:output.obj
 0001:00156764       ??$extract_argument_from_va_list@_J_J@?$standard_base@_WV?$string_output_adapter@_W@__crt_stdio_output@@@__crt_stdio_output@@IEAA_NAEA_J@Z 0000000180157764 f i libucrt:output.obj
 0001:00156778       ??$extract_argument_from_va_list@_K_J@?$positional_parameter_base@DV?$stream_output_adapter@D@__crt_stdio_output@@@__crt_stdio_output@@IEAA_NAEA_J@Z 0000000180157778 f i libucrt:output.obj
 0001:00156834       ??$extract_argument_from_va_list@_K_J@?$positional_parameter_base@DV?$string_output_adapter@D@__crt_stdio_output@@@__crt_stdio_output@@IEAA_NAEA_J@Z 0000000180157834 f i libucrt:output.obj
 0001:001568f0       ??$extract_argument_from_va_list@_K_J@?$positional_parameter_base@_WV?$stream_output_adapter@_W@__crt_stdio_output@@@__crt_stdio_output@@IEAA_NAEA_J@Z 00000001801578f0 f i libucrt:output.obj
 0001:001569ac       ??$extract_argument_from_va_list@_K_J@?$positional_parameter_base@_WV?$string_output_adapter@_W@__crt_stdio_output@@@__crt_stdio_output@@IEAA_NAEA_J@Z 00000001801579ac f i libucrt:output.obj
 0001:00156a68       ??$extract_argument_from_va_list@_K_J@?$standard_base@DV?$stream_output_adapter@D@__crt_stdio_output@@@__crt_stdio_output@@IEAA_NAEA_J@Z 0000000180157a68 f i libucrt:output.obj
 0001:00156a7c       ??$extract_argument_from_va_list@_K_J@?$standard_base@DV?$string_output_adapter@D@__crt_stdio_output@@@__crt_stdio_output@@IEAA_NAEA_J@Z 0000000180157a7c f i libucrt:output.obj
 0001:00156a90       ??$extract_argument_from_va_list@_K_J@?$standard_base@_WV?$stream_output_adapter@_W@__crt_stdio_output@@@__crt_stdio_output@@IEAA_NAEA_J@Z 0000000180157a90 f i libucrt:output.obj
 0001:00156aa4       ??$extract_argument_from_va_list@_K_J@?$standard_base@_WV?$string_output_adapter@_W@__crt_stdio_output@@@__crt_stdio_output@@IEAA_NAEA_J@Z 0000000180157aa4 f i libucrt:output.obj
 0001:00156ab8       ??$extract_argument_from_va_list@_W_W@?$positional_parameter_base@DV?$stream_output_adapter@D@__crt_stdio_output@@@__crt_stdio_output@@IEAA_NAEA_W@Z 0000000180157ab8 f i libucrt:output.obj
 0001:00156b74       ??$extract_argument_from_va_list@_W_W@?$positional_parameter_base@DV?$string_output_adapter@D@__crt_stdio_output@@@__crt_stdio_output@@IEAA_NAEA_W@Z 0000000180157b74 f i libucrt:output.obj
 0001:00156c30       ??$extract_argument_from_va_list@_W_W@?$positional_parameter_base@_WV?$stream_output_adapter@_W@__crt_stdio_output@@@__crt_stdio_output@@IEAA_NAEA_W@Z 0000000180157c30 f i libucrt:output.obj
 0001:00156cf0       ??$extract_argument_from_va_list@_W_W@?$positional_parameter_base@_WV?$string_output_adapter@_W@__crt_stdio_output@@@__crt_stdio_output@@IEAA_NAEA_W@Z 0000000180157cf0 f i libucrt:output.obj
 0001:00156db0       ??$extract_argument_from_va_list@_W_W@?$standard_base@DV?$stream_output_adapter@D@__crt_stdio_output@@@__crt_stdio_output@@IEAA_NAEA_W@Z 0000000180157db0 f i libucrt:output.obj
 0001:00156dc4       ??$extract_argument_from_va_list@_W_W@?$standard_base@DV?$string_output_adapter@D@__crt_stdio_output@@@__crt_stdio_output@@IEAA_NAEA_W@Z 0000000180157dc4 f i libucrt:output.obj
 0001:00156dd8       ??$extract_argument_from_va_list@_W_W@?$standard_base@_WV?$stream_output_adapter@_W@__crt_stdio_output@@@__crt_stdio_output@@IEAA_NAEA_W@Z 0000000180157dd8 f i libucrt:output.obj
 0001:00156dec       ??$extract_argument_from_va_list@_W_W@?$standard_base@_WV?$string_output_adapter@_W@__crt_stdio_output@@@__crt_stdio_output@@IEAA_NAEA_W@Z 0000000180157dec f i libucrt:output.obj
 0001:00156e00       ??$get_parameter_type@D@?$positional_parameter_base@DV?$stream_output_adapter@D@__crt_stdio_output@@@__crt_stdio_output@@CA?AW4parameter_type@01@PEAD@Z 0000000180157e00 f i libucrt:output.obj
 0001:00156e08       ??$get_parameter_type@D@?$positional_parameter_base@DV?$string_output_adapter@D@__crt_stdio_output@@@__crt_stdio_output@@CA?AW4parameter_type@01@PEAD@Z 0000000180157e08 f i libucrt:output.obj
 0001:00156e10       ??$get_parameter_type@D@?$positional_parameter_base@_WV?$stream_output_adapter@_W@__crt_stdio_output@@@__crt_stdio_output@@CA?AW4parameter_type@01@PEAD@Z 0000000180157e10 f i libucrt:output.obj
 0001:00156e18       ??$get_parameter_type@D@?$positional_parameter_base@_WV?$string_output_adapter@_W@__crt_stdio_output@@@__crt_stdio_output@@CA?AW4parameter_type@01@PEAD@Z 0000000180157e18 f i libucrt:output.obj
 0001:00156e20       ??$get_parameter_type@Uansi_string@?1??type_case_Z@?$output_processor@DV?$stream_output_adapter@D@__crt_stdio_output@@V?$positional_parameter_base@DV?$stream_output_adapter@D@__crt_stdio_output@@@2@@__crt_stdio_output@@AEAA_NXZ@@?$positional_parameter_base@DV?$stream_output_adapter@D@__crt_stdio_output@@@__crt_stdio_output@@CA?AW4parameter_type@01@PEAUansi_string@?1??type_case_Z@?$output_processor@DV?$stream_output_adapter@D@__crt_stdio_output@@V?$positional_parameter_base@DV?$stream_output_adapter@D@__crt_stdio_output@@@2@@1@AEAA_NXZ@@Z 0000000180157e20 f i libucrt:output.obj
 0001:00156e28       ??$get_parameter_type@Uansi_string@?1??type_case_Z@?$output_processor@DV?$string_output_adapter@D@__crt_stdio_output@@V?$positional_parameter_base@DV?$string_output_adapter@D@__crt_stdio_output@@@2@@__crt_stdio_output@@AEAA_NXZ@@?$positional_parameter_base@DV?$string_output_adapter@D@__crt_stdio_output@@@__crt_stdio_output@@CA?AW4parameter_type@01@PEAUansi_string@?1??type_case_Z@?$output_processor@DV?$string_output_adapter@D@__crt_stdio_output@@V?$positional_parameter_base@DV?$string_output_adapter@D@__crt_stdio_output@@@2@@1@AEAA_NXZ@@Z 0000000180157e28 f i libucrt:output.obj
 0001:00156e30       ??$get_parameter_type@Uansi_string@?1??type_case_Z@?$output_processor@_WV?$stream_output_adapter@_W@__crt_stdio_output@@V?$positional_parameter_base@_WV?$stream_output_adapter@_W@__crt_stdio_output@@@2@@__crt_stdio_output@@AEAA_NXZ@@?$positional_parameter_base@_WV?$stream_output_adapter@_W@__crt_stdio_output@@@__crt_stdio_output@@CA?AW4parameter_type@01@PEAUansi_string@?1??type_case_Z@?$output_processor@_WV?$stream_output_adapter@_W@__crt_stdio_output@@V?$positional_parameter_base@_WV?$stream_output_adapter@_W@__crt_stdio_output@@@2@@1@AEAA_NXZ@@Z 0000000180157e30 f i libucrt:output.obj
 0001:00156e38       ??$get_parameter_type@Uansi_string@?1??type_case_Z@?$output_processor@_WV?$string_output_adapter@_W@__crt_stdio_output@@V?$positional_parameter_base@_WV?$string_output_adapter@_W@__crt_stdio_output@@@2@@__crt_stdio_output@@AEAA_NXZ@@?$positional_parameter_base@_WV?$string_output_adapter@_W@__crt_stdio_output@@@__crt_stdio_output@@CA?AW4parameter_type@01@PEAUansi_string@?1??type_case_Z@?$output_processor@_WV?$string_output_adapter@_W@__crt_stdio_output@@V?$positional_parameter_base@_WV?$string_output_adapter@_W@__crt_stdio_output@@@2@@1@AEAA_NXZ@@Z 0000000180157e38 f i libucrt:output.obj
 0001:00156e40       ??$get_parameter_type@X@?$positional_parameter_base@DV?$stream_output_adapter@D@__crt_stdio_output@@@__crt_stdio_output@@CA?AW4parameter_type@01@PEAX@Z 0000000180157e40 f i libucrt:output.obj
 0001:00156e48       ??$get_parameter_type@X@?$positional_parameter_base@DV?$string_output_adapter@D@__crt_stdio_output@@@__crt_stdio_output@@CA?AW4parameter_type@01@PEAX@Z 0000000180157e48 f i libucrt:output.obj
 0001:00156e50       ??$get_parameter_type@X@?$positional_parameter_base@_WV?$stream_output_adapter@_W@__crt_stdio_output@@@__crt_stdio_output@@CA?AW4parameter_type@01@PEAX@Z 0000000180157e50 f i libucrt:output.obj
 0001:00156e58       ??$get_parameter_type@X@?$positional_parameter_base@_WV?$string_output_adapter@_W@__crt_stdio_output@@@__crt_stdio_output@@CA?AW4parameter_type@01@PEAX@Z 0000000180157e58 f i libucrt:output.obj
 0001:00156e60       ??$is_character_specifier@D@?$positional_parameter_base@DV?$stream_output_adapter@D@__crt_stdio_output@@@__crt_stdio_output@@CA_ND@Z 0000000180157e60 f i libucrt:output.obj
 0001:00156e6c       ??$is_character_specifier@D@?$positional_parameter_base@DV?$string_output_adapter@D@__crt_stdio_output@@@__crt_stdio_output@@CA_ND@Z 0000000180157e6c f i libucrt:output.obj
 0001:00156e78       ??$is_character_specifier@_W@?$positional_parameter_base@_WV?$stream_output_adapter@_W@__crt_stdio_output@@@__crt_stdio_output@@CA_N_W@Z 0000000180157e78 f i libucrt:output.obj
 0001:00156e88       ??$is_character_specifier@_W@?$positional_parameter_base@_WV?$string_output_adapter@_W@__crt_stdio_output@@@__crt_stdio_output@@CA_N_W@Z 0000000180157e88 f i libucrt:output.obj
 0001:00156e98       ??$is_integral_specifier@D@?$positional_parameter_base@DV?$stream_output_adapter@D@__crt_stdio_output@@@__crt_stdio_output@@CA_ND@Z 0000000180157e98 f i libucrt:output.obj
 0001:00156ebc       ??$is_integral_specifier@D@?$positional_parameter_base@DV?$string_output_adapter@D@__crt_stdio_output@@@__crt_stdio_output@@CA_ND@Z 0000000180157ebc f i libucrt:output.obj
 0001:00156ee0       ??$is_integral_specifier@_W@?$positional_parameter_base@_WV?$stream_output_adapter@_W@__crt_stdio_output@@@__crt_stdio_output@@CA_N_W@Z 0000000180157ee0 f i libucrt:output.obj
 0001:00156f08       ??$is_integral_specifier@_W@?$positional_parameter_base@_WV?$string_output_adapter@_W@__crt_stdio_output@@@__crt_stdio_output@@CA_N_W@Z 0000000180157f08 f i libucrt:output.obj
 0001:00156f30       ??$is_pointer_specifier@D@?$positional_parameter_base@DV?$stream_output_adapter@D@__crt_stdio_output@@@__crt_stdio_output@@CA_ND@Z 0000000180157f30 f i libucrt:output.obj
 0001:00156f38       ??$is_pointer_specifier@D@?$positional_parameter_base@DV?$string_output_adapter@D@__crt_stdio_output@@@__crt_stdio_output@@CA_ND@Z 0000000180157f38 f i libucrt:output.obj
 0001:00156f40       ??$is_pointer_specifier@_W@?$positional_parameter_base@_WV?$stream_output_adapter@_W@__crt_stdio_output@@@__crt_stdio_output@@CA_N_W@Z 0000000180157f40 f i libucrt:output.obj
 0001:00156f48       ??$is_pointer_specifier@_W@?$positional_parameter_base@_WV?$string_output_adapter@_W@__crt_stdio_output@@@__crt_stdio_output@@CA_N_W@Z 0000000180157f48 f i libucrt:output.obj
 0001:00156f50       ??$is_string_specifier@D@?$positional_parameter_base@DV?$stream_output_adapter@D@__crt_stdio_output@@@__crt_stdio_output@@CA_ND@Z 0000000180157f50 f i libucrt:output.obj
 0001:00156f5c       ??$is_string_specifier@D@?$positional_parameter_base@DV?$string_output_adapter@D@__crt_stdio_output@@@__crt_stdio_output@@CA_ND@Z 0000000180157f5c f i libucrt:output.obj
 0001:00156f68       ??$is_string_specifier@_W@?$positional_parameter_base@_WV?$stream_output_adapter@_W@__crt_stdio_output@@@__crt_stdio_output@@CA_N_W@Z 0000000180157f68 f i libucrt:output.obj
 0001:00156f78       ??$is_string_specifier@_W@?$positional_parameter_base@_WV?$string_output_adapter@_W@__crt_stdio_output@@@__crt_stdio_output@@CA_N_W@Z 0000000180157f78 f i libucrt:output.obj
 0001:00156f88       ??$is_wide_character_specifier@D@__crt_stdio_output@@YA_N_KDW4length_modifier@0@@Z 0000000180157f88 f i libucrt:output.obj
 0001:00156fb0       ??$is_wide_character_specifier@_W@__crt_stdio_output@@YA_N_K_WW4length_modifier@0@@Z 0000000180157fb0 f i libucrt:output.obj
 0001:00156ff0       ??$peek_va_arg@C@__crt_stdio_output@@YACPEAD@Z 0000000180157ff0 f i libucrt:output.obj
 0001:00156ff4       ??$peek_va_arg@E@__crt_stdio_output@@YAEPEAD@Z 0000000180157ff4 f i libucrt:output.obj
 0001:00156ff8       ??$peek_va_arg@F@__crt_stdio_output@@YAFPEAD@Z 0000000180157ff8 f i libucrt:output.obj
 0001:00156ffc       ??$peek_va_arg@G@__crt_stdio_output@@YAGPEAD@Z 0000000180157ffc f i libucrt:output.obj
 0001:00157000       ??$peek_va_arg@H@__crt_stdio_output@@YAHPEAD@Z 0000000180158000 f i libucrt:output.obj
 0001:00157004       ??$peek_va_arg@I@__crt_stdio_output@@YAIPEAD@Z 0000000180158004 f i libucrt:output.obj
 0001:00157008       ??$peek_va_arg@PEAD@__crt_stdio_output@@YAPEADPEAD@Z 0000000180158008 f i libucrt:output.obj
 0001:0015700c       ??$peek_va_arg@PEAUansi_string@?1??type_case_Z@?$output_processor@DV?$stream_output_adapter@D@__crt_stdio_output@@V?$positional_parameter_base@DV?$stream_output_adapter@D@__crt_stdio_output@@@2@@__crt_stdio_output@@AEAA_NXZ@@__crt_stdio_output@@YAPEAUansi_string@?1??type_case_Z@?$output_processor@DV?$stream_output_adapter@D@__crt_stdio_output@@V?$positional_parameter_base@DV?$stream_output_adapter@D@__crt_stdio_output@@@2@@0@AEAA_NXZ@PEAD@Z 000000018015800c f i libucrt:output.obj
 0001:00157010       ??$peek_va_arg@PEAUansi_string@?1??type_case_Z@?$output_processor@DV?$string_output_adapter@D@__crt_stdio_output@@V?$positional_parameter_base@DV?$string_output_adapter@D@__crt_stdio_output@@@2@@__crt_stdio_output@@AEAA_NXZ@@__crt_stdio_output@@YAPEAUansi_string@?1??type_case_Z@?$output_processor@DV?$string_output_adapter@D@__crt_stdio_output@@V?$positional_parameter_base@DV?$string_output_adapter@D@__crt_stdio_output@@@2@@0@AEAA_NXZ@PEAD@Z 0000000180158010 f i libucrt:output.obj
 0001:00157014       ??$peek_va_arg@PEAUansi_string@?1??type_case_Z@?$output_processor@_WV?$stream_output_adapter@_W@__crt_stdio_output@@V?$positional_parameter_base@_WV?$stream_output_adapter@_W@__crt_stdio_output@@@2@@__crt_stdio_output@@AEAA_NXZ@@__crt_stdio_output@@YAPEAUansi_string@?1??type_case_Z@?$output_processor@_WV?$stream_output_adapter@_W@__crt_stdio_output@@V?$positional_parameter_base@_WV?$stream_output_adapter@_W@__crt_stdio_output@@@2@@0@AEAA_NXZ@PEAD@Z 0000000180158014 f i libucrt:output.obj
 0001:00157018       ??$peek_va_arg@PEAUansi_string@?1??type_case_Z@?$output_processor@_WV?$string_output_adapter@_W@__crt_stdio_output@@V?$positional_parameter_base@_WV?$string_output_adapter@_W@__crt_stdio_output@@@2@@__crt_stdio_output@@AEAA_NXZ@@__crt_stdio_output@@YAPEAUansi_string@?1??type_case_Z@?$output_processor@_WV?$string_output_adapter@_W@__crt_stdio_output@@V?$positional_parameter_base@_WV?$string_output_adapter@_W@__crt_stdio_output@@@2@@0@AEAA_NXZ@PEAD@Z 0000000180158018 f i libucrt:output.obj
 0001:0015701c       ??$peek_va_arg@PEAX@__crt_stdio_output@@YAPEAXPEAD@Z 000000018015801c f i libucrt:output.obj
 0001:00157020       ??$peek_va_arg@U_CRT_DOUBLE@@@__crt_stdio_output@@YA?AU_CRT_DOUBLE@@PEAD@Z 0000000180158020 f i libucrt:output.obj
 0001:00157024       ??$peek_va_arg@_J@__crt_stdio_output@@YA_JPEAD@Z 0000000180158024 f i libucrt:output.obj
 0001:00157028       ??$peek_va_arg@_K@__crt_stdio_output@@YA_KPEAD@Z 0000000180158028 f i libucrt:output.obj
 0001:0015702c       ??$peek_va_arg@_W@__crt_stdio_output@@YA_WPEAD@Z 000000018015802c f i libucrt:output.obj
 0001:00157030       ??$puttc_nolock@AEBDPEAU_iobuf@@@?$__crt_char_traits@D@@SAHAEBD$$QEAPEAU_iobuf@@@Z 0000000180158030 f i libucrt:output.obj
 0001:0015703c       ??$puttc_nolock@AEB_WPEAU_iobuf@@@?$__crt_char_traits@_W@@SAGAEB_W$$QEAPEAU_iobuf@@@Z 000000018015803c f i libucrt:output.obj
 0001:00157048       ??$read_va_arg@C@__crt_stdio_output@@YACAEAPEAD@Z 0000000180158048 f i libucrt:output.obj
 0001:00157054       ??$read_va_arg@E@__crt_stdio_output@@YAEAEAPEAD@Z 0000000180158054 f i libucrt:output.obj
 0001:00157060       ??$read_va_arg@F@__crt_stdio_output@@YAFAEAPEAD@Z 0000000180158060 f i libucrt:output.obj
 0001:0015706c       ??$read_va_arg@G@__crt_stdio_output@@YAGAEAPEAD@Z 000000018015806c f i libucrt:output.obj
 0001:00157078       ??$read_va_arg@H@__crt_stdio_output@@YAHAEAPEAD@Z 0000000180158078 f i libucrt:output.obj
 0001:00157084       ??$read_va_arg@I@__crt_stdio_output@@YAIAEAPEAD@Z 0000000180158084 f i libucrt:output.obj
 0001:00157090       ??$read_va_arg@PEAD@__crt_stdio_output@@YAPEADAEAPEAD@Z 0000000180158090 f i libucrt:output.obj
 0001:0015709c       ??$read_va_arg@PEAUansi_string@?1??type_case_Z@?$output_processor@DV?$stream_output_adapter@D@__crt_stdio_output@@V?$format_validation_base@DV?$stream_output_adapter@D@__crt_stdio_output@@@2@@__crt_stdio_output@@AEAA_NXZ@@__crt_stdio_output@@YAPEAUansi_string@?1??type_case_Z@?$output_processor@DV?$stream_output_adapter@D@__crt_stdio_output@@V?$format_validation_base@DV?$stream_output_adapter@D@__crt_stdio_output@@@2@@0@AEAA_NXZ@AEAPEAD@Z 000000018015809c f i libucrt:output.obj
 0001:001570a8       ??$read_va_arg@PEAUansi_string@?1??type_case_Z@?$output_processor@DV?$stream_output_adapter@D@__crt_stdio_output@@V?$positional_parameter_base@DV?$stream_output_adapter@D@__crt_stdio_output@@@2@@__crt_stdio_output@@AEAA_NXZ@@__crt_stdio_output@@YAPEAUansi_string@?1??type_case_Z@?$output_processor@DV?$stream_output_adapter@D@__crt_stdio_output@@V?$positional_parameter_base@DV?$stream_output_adapter@D@__crt_stdio_output@@@2@@0@AEAA_NXZ@AEAPEAD@Z 00000001801580a8 f i libucrt:output.obj
 0001:001570b4       ??$read_va_arg@PEAUansi_string@?1??type_case_Z@?$output_processor@DV?$stream_output_adapter@D@__crt_stdio_output@@V?$standard_base@DV?$stream_output_adapter@D@__crt_stdio_output@@@2@@__crt_stdio_output@@AEAA_NXZ@@__crt_stdio_output@@YAPEAUansi_string@?1??type_case_Z@?$output_processor@DV?$stream_output_adapter@D@__crt_stdio_output@@V?$standard_base@DV?$stream_output_adapter@D@__crt_stdio_output@@@2@@0@AEAA_NXZ@AEAPEAD@Z 00000001801580b4 f i libucrt:output.obj
 0001:001570c0       ??$read_va_arg@PEAUansi_string@?1??type_case_Z@?$output_processor@DV?$string_output_adapter@D@__crt_stdio_output@@V?$format_validation_base@DV?$string_output_adapter@D@__crt_stdio_output@@@2@@__crt_stdio_output@@AEAA_NXZ@@__crt_stdio_output@@YAPEAUansi_string@?1??type_case_Z@?$output_processor@DV?$string_output_adapter@D@__crt_stdio_output@@V?$format_validation_base@DV?$string_output_adapter@D@__crt_stdio_output@@@2@@0@AEAA_NXZ@AEAPEAD@Z 00000001801580c0 f i libucrt:output.obj
 0001:001570cc       ??$read_va_arg@PEAUansi_string@?1??type_case_Z@?$output_processor@DV?$string_output_adapter@D@__crt_stdio_output@@V?$positional_parameter_base@DV?$string_output_adapter@D@__crt_stdio_output@@@2@@__crt_stdio_output@@AEAA_NXZ@@__crt_stdio_output@@YAPEAUansi_string@?1??type_case_Z@?$output_processor@DV?$string_output_adapter@D@__crt_stdio_output@@V?$positional_parameter_base@DV?$string_output_adapter@D@__crt_stdio_output@@@2@@0@AEAA_NXZ@AEAPEAD@Z 00000001801580cc f i libucrt:output.obj
 0001:001570d8       ??$read_va_arg@PEAUansi_string@?1??type_case_Z@?$output_processor@DV?$string_output_adapter@D@__crt_stdio_output@@V?$standard_base@DV?$string_output_adapter@D@__crt_stdio_output@@@2@@__crt_stdio_output@@AEAA_NXZ@@__crt_stdio_output@@YAPEAUansi_string@?1??type_case_Z@?$output_processor@DV?$string_output_adapter@D@__crt_stdio_output@@V?$standard_base@DV?$string_output_adapter@D@__crt_stdio_output@@@2@@0@AEAA_NXZ@AEAPEAD@Z 00000001801580d8 f i libucrt:output.obj
 0001:001570e4       ??$read_va_arg@PEAUansi_string@?1??type_case_Z@?$output_processor@_WV?$stream_output_adapter@_W@__crt_stdio_output@@V?$format_validation_base@_WV?$stream_output_adapter@_W@__crt_stdio_output@@@2@@__crt_stdio_output@@AEAA_NXZ@@__crt_stdio_output@@YAPEAUansi_string@?1??type_case_Z@?$output_processor@_WV?$stream_output_adapter@_W@__crt_stdio_output@@V?$format_validation_base@_WV?$stream_output_adapter@_W@__crt_stdio_output@@@2@@0@AEAA_NXZ@AEAPEAD@Z 00000001801580e4 f i libucrt:output.obj
 0001:001570f0       ??$read_va_arg@PEAUansi_string@?1??type_case_Z@?$output_processor@_WV?$stream_output_adapter@_W@__crt_stdio_output@@V?$positional_parameter_base@_WV?$stream_output_adapter@_W@__crt_stdio_output@@@2@@__crt_stdio_output@@AEAA_NXZ@@__crt_stdio_output@@YAPEAUansi_string@?1??type_case_Z@?$output_processor@_WV?$stream_output_adapter@_W@__crt_stdio_output@@V?$positional_parameter_base@_WV?$stream_output_adapter@_W@__crt_stdio_output@@@2@@0@AEAA_NXZ@AEAPEAD@Z 00000001801580f0 f i libucrt:output.obj
 0001:001570fc       ??$read_va_arg@PEAUansi_string@?1??type_case_Z@?$output_processor@_WV?$stream_output_adapter@_W@__crt_stdio_output@@V?$standard_base@_WV?$stream_output_adapter@_W@__crt_stdio_output@@@2@@__crt_stdio_output@@AEAA_NXZ@@__crt_stdio_output@@YAPEAUansi_string@?1??type_case_Z@?$output_processor@_WV?$stream_output_adapter@_W@__crt_stdio_output@@V?$standard_base@_WV?$stream_output_adapter@_W@__crt_stdio_output@@@2@@0@AEAA_NXZ@AEAPEAD@Z 00000001801580fc f i libucrt:output.obj
 0001:00157108       ??$read_va_arg@PEAUansi_string@?1??type_case_Z@?$output_processor@_WV?$string_output_adapter@_W@__crt_stdio_output@@V?$format_validation_base@_WV?$string_output_adapter@_W@__crt_stdio_output@@@2@@__crt_stdio_output@@AEAA_NXZ@@__crt_stdio_output@@YAPEAUansi_string@?1??type_case_Z@?$output_processor@_WV?$string_output_adapter@_W@__crt_stdio_output@@V?$format_validation_base@_WV?$string_output_adapter@_W@__crt_stdio_output@@@2@@0@AEAA_NXZ@AEAPEAD@Z 0000000180158108 f i libucrt:output.obj
 0001:00157114       ??$read_va_arg@PEAUansi_string@?1??type_case_Z@?$output_processor@_WV?$string_output_adapter@_W@__crt_stdio_output@@V?$positional_parameter_base@_WV?$string_output_adapter@_W@__crt_stdio_output@@@2@@__crt_stdio_output@@AEAA_NXZ@@__crt_stdio_output@@YAPEAUansi_string@?1??type_case_Z@?$output_processor@_WV?$string_output_adapter@_W@__crt_stdio_output@@V?$positional_parameter_base@_WV?$string_output_adapter@_W@__crt_stdio_output@@@2@@0@AEAA_NXZ@AEAPEAD@Z 0000000180158114 f i libucrt:output.obj
 0001:00157120       ??$read_va_arg@PEAUansi_string@?1??type_case_Z@?$output_processor@_WV?$string_output_adapter@_W@__crt_stdio_output@@V?$standard_base@_WV?$string_output_adapter@_W@__crt_stdio_output@@@2@@__crt_stdio_output@@AEAA_NXZ@@__crt_stdio_output@@YAPEAUansi_string@?1??type_case_Z@?$output_processor@_WV?$string_output_adapter@_W@__crt_stdio_output@@V?$standard_base@_WV?$string_output_adapter@_W@__crt_stdio_output@@@2@@0@AEAA_NXZ@AEAPEAD@Z 0000000180158120 f i libucrt:output.obj
 0001:0015712c       ??$read_va_arg@PEAX@__crt_stdio_output@@YAPEAXAEAPEAD@Z 000000018015812c f i libucrt:output.obj
 0001:00157138       ??$read_va_arg@U_CRT_DOUBLE@@@__crt_stdio_output@@YA?AU_CRT_DOUBLE@@AEAPEAD@Z 0000000180158138 f i libucrt:output.obj
 0001:00157144       ??$read_va_arg@_J@__crt_stdio_output@@YA_JAEAPEAD@Z 0000000180158144 f i libucrt:output.obj
 0001:00157150       ??$read_va_arg@_K@__crt_stdio_output@@YA_KAEAPEAD@Z 0000000180158150 f i libucrt:output.obj
 0001:0015715c       ??$read_va_arg@_W@__crt_stdio_output@@YA_WAEAPEAD@Z 000000018015815c f i libucrt:output.obj
 0001:00157168       ??$scratch_count@D@formatting_buffer@__crt_stdio_output@@QEBA_KXZ 0000000180158168 f i libucrt:output.obj
 0001:00157184       ??$scratch_data@D@formatting_buffer@__crt_stdio_output@@QEAAPEADXZ 0000000180158184 f i libucrt:output.obj
 0001:001571a8       ??$tcstol@AEAPEBDPEAPEADH@?$__crt_char_traits@D@@SAJAEAPEBD$$QEAPEAPEAD$$QEAH@Z 00000001801581a8 f i libucrt:output.obj
 0001:001571b8       ??$tcstol@AEAPEB_WPEAPEA_WH@?$__crt_char_traits@_W@@SAJAEAPEB_W$$QEAPEAPEA_W$$QEAH@Z 00000001801581b8 f i libucrt:output.obj
 0001:001571c8       ??$tcstol@PEBDPEAPEADH@?$__crt_char_traits@D@@SAJ$$QEAPEBD$$QEAPEAPEAD$$QEAH@Z 00000001801581c8 f i libucrt:output.obj
 0001:001571d8       ??$tcstol@PEB_WPEAPEA_WH@?$__crt_char_traits@_W@@SAJ$$QEAPEB_W$$QEAPEAPEA_W$$QEAH@Z 00000001801581d8 f i libucrt:output.obj
 0001:001571e8       ??$type_case_integer_parse_into_buffer@I@?$output_processor@DV?$stream_output_adapter@D@__crt_stdio_output@@V?$format_validation_base@DV?$stream_output_adapter@D@__crt_stdio_output@@@2@@__crt_stdio_output@@AEAAXII_N@Z 00000001801581e8 f i libucrt:output.obj
 0001:00157270       ??$type_case_integer_parse_into_buffer@I@?$output_processor@DV?$stream_output_adapter@D@__crt_stdio_output@@V?$positional_parameter_base@DV?$stream_output_adapter@D@__crt_stdio_output@@@2@@__crt_stdio_output@@AEAAXII_N@Z 0000000180158270 f i libucrt:output.obj
 0001:001572f8       ??$type_case_integer_parse_into_buffer@I@?$output_processor@DV?$stream_output_adapter@D@__crt_stdio_output@@V?$standard_base@DV?$stream_output_adapter@D@__crt_stdio_output@@@2@@__crt_stdio_output@@AEAAXII_N@Z 00000001801582f8 f i libucrt:output.obj
 0001:00157380       ??$type_case_integer_parse_into_buffer@I@?$output_processor@DV?$string_output_adapter@D@__crt_stdio_output@@V?$format_validation_base@DV?$string_output_adapter@D@__crt_stdio_output@@@2@@__crt_stdio_output@@AEAAXII_N@Z 0000000180158380 f i libucrt:output.obj
 0001:00157408       ??$type_case_integer_parse_into_buffer@I@?$output_processor@DV?$string_output_adapter@D@__crt_stdio_output@@V?$positional_parameter_base@DV?$string_output_adapter@D@__crt_stdio_output@@@2@@__crt_stdio_output@@AEAAXII_N@Z 0000000180158408 f i libucrt:output.obj
 0001:00157490       ??$type_case_integer_parse_into_buffer@I@?$output_processor@DV?$string_output_adapter@D@__crt_stdio_output@@V?$standard_base@DV?$string_output_adapter@D@__crt_stdio_output@@@2@@__crt_stdio_output@@AEAAXII_N@Z 0000000180158490 f i libucrt:output.obj
 0001:00157518       ??$type_case_integer_parse_into_buffer@I@?$output_processor@_WV?$stream_output_adapter@_W@__crt_stdio_output@@V?$format_validation_base@_WV?$stream_output_adapter@_W@__crt_stdio_output@@@2@@__crt_stdio_output@@AEAAXII_N@Z 0000000180158518 f i libucrt:output.obj
 0001:001575bc       ??$type_case_integer_parse_into_buffer@I@?$output_processor@_WV?$stream_output_adapter@_W@__crt_stdio_output@@V?$positional_parameter_base@_WV?$stream_output_adapter@_W@__crt_stdio_output@@@2@@__crt_stdio_output@@AEAAXII_N@Z 00000001801585bc f i libucrt:output.obj
 0001:00157660       ??$type_case_integer_parse_into_buffer@I@?$output_processor@_WV?$stream_output_adapter@_W@__crt_stdio_output@@V?$standard_base@_WV?$stream_output_adapter@_W@__crt_stdio_output@@@2@@__crt_stdio_output@@AEAAXII_N@Z 0000000180158660 f i libucrt:output.obj
 0001:00157704       ??$type_case_integer_parse_into_buffer@I@?$output_processor@_WV?$string_output_adapter@_W@__crt_stdio_output@@V?$format_validation_base@_WV?$string_output_adapter@_W@__crt_stdio_output@@@2@@__crt_stdio_output@@AEAAXII_N@Z 0000000180158704 f i libucrt:output.obj
 0001:001577a8       ??$type_case_integer_parse_into_buffer@I@?$output_processor@_WV?$string_output_adapter@_W@__crt_stdio_output@@V?$positional_parameter_base@_WV?$string_output_adapter@_W@__crt_stdio_output@@@2@@__crt_stdio_output@@AEAAXII_N@Z 00000001801587a8 f i libucrt:output.obj
 0001:0015784c       ??$type_case_integer_parse_into_buffer@I@?$output_processor@_WV?$string_output_adapter@_W@__crt_stdio_output@@V?$standard_base@_WV?$string_output_adapter@_W@__crt_stdio_output@@@2@@__crt_stdio_output@@AEAAXII_N@Z 000000018015884c f i libucrt:output.obj
 0001:001578f0       ??$type_case_integer_parse_into_buffer@_K@?$output_processor@DV?$stream_output_adapter@D@__crt_stdio_output@@V?$format_validation_base@DV?$stream_output_adapter@D@__crt_stdio_output@@@2@@__crt_stdio_output@@AEAAX_KI_N@Z 00000001801588f0 f i libucrt:output.obj
 0001:00157980       ??$type_case_integer_parse_into_buffer@_K@?$output_processor@DV?$stream_output_adapter@D@__crt_stdio_output@@V?$positional_parameter_base@DV?$stream_output_adapter@D@__crt_stdio_output@@@2@@__crt_stdio_output@@AEAAX_KI_N@Z 0000000180158980 f i libucrt:output.obj
 0001:00157a10       ??$type_case_integer_parse_into_buffer@_K@?$output_processor@DV?$stream_output_adapter@D@__crt_stdio_output@@V?$standard_base@DV?$stream_output_adapter@D@__crt_stdio_output@@@2@@__crt_stdio_output@@AEAAX_KI_N@Z 0000000180158a10 f i libucrt:output.obj
 0001:00157aa0       ??$type_case_integer_parse_into_buffer@_K@?$output_processor@DV?$string_output_adapter@D@__crt_stdio_output@@V?$format_validation_base@DV?$string_output_adapter@D@__crt_stdio_output@@@2@@__crt_stdio_output@@AEAAX_KI_N@Z 0000000180158aa0 f i libucrt:output.obj
 0001:00157b30       ??$type_case_integer_parse_into_buffer@_K@?$output_processor@DV?$string_output_adapter@D@__crt_stdio_output@@V?$positional_parameter_base@DV?$string_output_adapter@D@__crt_stdio_output@@@2@@__crt_stdio_output@@AEAAX_KI_N@Z 0000000180158b30 f i libucrt:output.obj
 0001:00157bc0       ??$type_case_integer_parse_into_buffer@_K@?$output_processor@DV?$string_output_adapter@D@__crt_stdio_output@@V?$standard_base@DV?$string_output_adapter@D@__crt_stdio_output@@@2@@__crt_stdio_output@@AEAAX_KI_N@Z 0000000180158bc0 f i libucrt:output.obj
 0001:00157c50       ??$type_case_integer_parse_into_buffer@_K@?$output_processor@_WV?$stream_output_adapter@_W@__crt_stdio_output@@V?$format_validation_base@_WV?$stream_output_adapter@_W@__crt_stdio_output@@@2@@__crt_stdio_output@@AEAAX_KI_N@Z 0000000180158c50 f i libucrt:output.obj
 0001:00157cf4       ??$type_case_integer_parse_into_buffer@_K@?$output_processor@_WV?$stream_output_adapter@_W@__crt_stdio_output@@V?$positional_parameter_base@_WV?$stream_output_adapter@_W@__crt_stdio_output@@@2@@__crt_stdio_output@@AEAAX_KI_N@Z 0000000180158cf4 f i libucrt:output.obj
 0001:00157d98       ??$type_case_integer_parse_into_buffer@_K@?$output_processor@_WV?$stream_output_adapter@_W@__crt_stdio_output@@V?$standard_base@_WV?$stream_output_adapter@_W@__crt_stdio_output@@@2@@__crt_stdio_output@@AEAAX_KI_N@Z 0000000180158d98 f i libucrt:output.obj
 0001:00157e3c       ??$type_case_integer_parse_into_buffer@_K@?$output_processor@_WV?$string_output_adapter@_W@__crt_stdio_output@@V?$format_validation_base@_WV?$string_output_adapter@_W@__crt_stdio_output@@@2@@__crt_stdio_output@@AEAAX_KI_N@Z 0000000180158e3c f i libucrt:output.obj
 0001:00157ee0       ??$type_case_integer_parse_into_buffer@_K@?$output_processor@_WV?$string_output_adapter@_W@__crt_stdio_output@@V?$positional_parameter_base@_WV?$string_output_adapter@_W@__crt_stdio_output@@@2@@__crt_stdio_output@@AEAAX_KI_N@Z 0000000180158ee0 f i libucrt:output.obj
 0001:00157f84       ??$type_case_integer_parse_into_buffer@_K@?$output_processor@_WV?$string_output_adapter@_W@__crt_stdio_output@@V?$standard_base@_WV?$string_output_adapter@_W@__crt_stdio_output@@@2@@__crt_stdio_output@@AEAAX_KI_N@Z 0000000180158f84 f i libucrt:output.obj
 0001:00158028       ??$write_multiple_characters@V?$stream_output_adapter@D@__crt_stdio_output@@D@__crt_stdio_output@@YAXAEBV?$stream_output_adapter@D@0@DHQEAH@Z 0000000180159028 f i libucrt:output.obj
 0001:001580b4       ??$write_multiple_characters@V?$stream_output_adapter@_W@__crt_stdio_output@@D@__crt_stdio_output@@YAXAEBV?$stream_output_adapter@_W@0@DHQEAH@Z 00000001801590b4 f i libucrt:output.obj
 0001:00158148       ??$write_multiple_characters@V?$string_output_adapter@D@__crt_stdio_output@@D@__crt_stdio_output@@YAXAEBV?$string_output_adapter@D@0@DHQEAH@Z 0000000180159148 f i libucrt:output.obj
 0001:001581c0       ??$write_multiple_characters@V?$string_output_adapter@_W@__crt_stdio_output@@D@__crt_stdio_output@@YAXAEBV?$string_output_adapter@_W@0@DHQEAH@Z 00000001801591c0 f i libucrt:output.obj
 0001:001583a0       ??0?$common_data@D@__crt_stdio_output@@IEAA@XZ 00000001801593a0 f i libucrt:output.obj
 0001:001583dc       ??0?$common_data@_W@__crt_stdio_output@@IEAA@XZ 00000001801593dc f i libucrt:output.obj
 0001:0015841c       ??0?$output_adapter_data@DV?$stream_output_adapter@D@__crt_stdio_output@@@__crt_stdio_output@@IEAA@AEBV?$stream_output_adapter@D@1@_KQEBDQEAU__crt_locale_pointers@@QEAD@Z 000000018015941c f i libucrt:output.obj
 0001:0015847c       ??0?$output_adapter_data@DV?$string_output_adapter@D@__crt_stdio_output@@@__crt_stdio_output@@IEAA@AEBV?$string_output_adapter@D@1@_KQEBDQEAU__crt_locale_pointers@@QEAD@Z 000000018015947c f i libucrt:output.obj
 0001:001584dc       ??0?$output_adapter_data@_WV?$stream_output_adapter@_W@__crt_stdio_output@@@__crt_stdio_output@@IEAA@AEBV?$stream_output_adapter@_W@1@_KQEB_WQEAU__crt_locale_pointers@@QEAD@Z 00000001801594dc f i libucrt:output.obj
 0001:00158540       ??0?$output_adapter_data@_WV?$string_output_adapter@_W@__crt_stdio_output@@@__crt_stdio_output@@IEAA@AEBV?$string_output_adapter@_W@1@_KQEB_WQEAU__crt_locale_pointers@@QEAD@Z 0000000180159540 f i libucrt:output.obj
 0001:001585a4       ??0?$output_processor@DV?$stream_output_adapter@D@__crt_stdio_output@@V?$format_validation_base@DV?$stream_output_adapter@D@__crt_stdio_output@@@2@@__crt_stdio_output@@QEAA@AEBV?$stream_output_adapter@D@1@_KQEBDQEAU__crt_locale_pointers@@QEAD@Z 00000001801595a4 f i libucrt:output.obj
 0001:00158610       ??0?$output_processor@DV?$stream_output_adapter@D@__crt_stdio_output@@V?$positional_parameter_base@DV?$stream_output_adapter@D@__crt_stdio_output@@@2@@__crt_stdio_output@@QEAA@AEBV?$stream_output_adapter@D@1@_KQEBDQEAU__crt_locale_pointers@@QEAD@Z 0000000180159610 f i libucrt:output.obj
 0001:00158698       ??0?$output_processor@DV?$stream_output_adapter@D@__crt_stdio_output@@V?$standard_base@DV?$stream_output_adapter@D@__crt_stdio_output@@@2@@__crt_stdio_output@@QEAA@AEBV?$stream_output_adapter@D@1@_KQEBDQEAU__crt_locale_pointers@@QEAD@Z 0000000180159698 f i libucrt:output.obj
 0001:00158704       ??0?$output_processor@DV?$string_output_adapter@D@__crt_stdio_output@@V?$format_validation_base@DV?$string_output_adapter@D@__crt_stdio_output@@@2@@__crt_stdio_output@@QEAA@AEBV?$string_output_adapter@D@1@_KQEBDQEAU__crt_locale_pointers@@QEAD@Z 0000000180159704 f i libucrt:output.obj
 0001:00158770       ??0?$output_processor@DV?$string_output_adapter@D@__crt_stdio_output@@V?$positional_parameter_base@DV?$string_output_adapter@D@__crt_stdio_output@@@2@@__crt_stdio_output@@QEAA@AEBV?$string_output_adapter@D@1@_KQEBDQEAU__crt_locale_pointers@@QEAD@Z 0000000180159770 f i libucrt:output.obj
 0001:001587f8       ??0?$output_processor@DV?$string_output_adapter@D@__crt_stdio_output@@V?$standard_base@DV?$string_output_adapter@D@__crt_stdio_output@@@2@@__crt_stdio_output@@QEAA@AEBV?$string_output_adapter@D@1@_KQEBDQEAU__crt_locale_pointers@@QEAD@Z 00000001801597f8 f i libucrt:output.obj
 0001:00158864       ??0?$output_processor@_WV?$stream_output_adapter@_W@__crt_stdio_output@@V?$format_validation_base@_WV?$stream_output_adapter@_W@__crt_stdio_output@@@2@@__crt_stdio_output@@QEAA@AEBV?$stream_output_adapter@_W@1@_KQEB_WQEAU__crt_locale_pointers@@QEAD@Z 0000000180159864 f i libucrt:output.obj
 0001:001588d4       ??0?$output_processor@_WV?$stream_output_adapter@_W@__crt_stdio_output@@V?$positional_parameter_base@_WV?$stream_output_adapter@_W@__crt_stdio_output@@@2@@__crt_stdio_output@@QEAA@AEBV?$stream_output_adapter@_W@1@_KQEB_WQEAU__crt_locale_pointers@@QEAD@Z 00000001801598d4 f i libucrt:output.obj
 0001:00158960       ??0?$output_processor@_WV?$stream_output_adapter@_W@__crt_stdio_output@@V?$standard_base@_WV?$stream_output_adapter@_W@__crt_stdio_output@@@2@@__crt_stdio_output@@QEAA@AEBV?$stream_output_adapter@_W@1@_KQEB_WQEAU__crt_locale_pointers@@QEAD@Z 0000000180159960 f i libucrt:output.obj
 0001:001589d0       ??0?$output_processor@_WV?$string_output_adapter@_W@__crt_stdio_output@@V?$format_validation_base@_WV?$string_output_adapter@_W@__crt_stdio_output@@@2@@__crt_stdio_output@@QEAA@AEBV?$string_output_adapter@_W@1@_KQEB_WQEAU__crt_locale_pointers@@QEAD@Z 00000001801599d0 f i libucrt:output.obj
 0001:00158a40       ??0?$output_processor@_WV?$string_output_adapter@_W@__crt_stdio_output@@V?$positional_parameter_base@_WV?$string_output_adapter@_W@__crt_stdio_output@@@2@@__crt_stdio_output@@QEAA@AEBV?$string_output_adapter@_W@1@_KQEB_WQEAU__crt_locale_pointers@@QEAD@Z 0000000180159a40 f i libucrt:output.obj
 0001:00158acc       ??0?$output_processor@_WV?$string_output_adapter@_W@__crt_stdio_output@@V?$standard_base@_WV?$string_output_adapter@_W@__crt_stdio_output@@@2@@__crt_stdio_output@@QEAA@AEBV?$string_output_adapter@_W@1@_KQEB_WQEAU__crt_locale_pointers@@QEAD@Z 0000000180159acc f i libucrt:output.obj
 0001:00158b3c       ??0?$stream_output_adapter@D@__crt_stdio_output@@QEAA@QEAU_iobuf@@@Z 0000000180159b3c f i libucrt:output.obj
 0001:00158b44       ??0?$stream_output_adapter@_W@__crt_stdio_output@@QEAA@QEAU_iobuf@@@Z 0000000180159b44 f i libucrt:output.obj
 0001:00158b4c       ??0?$string_output_adapter@D@__crt_stdio_output@@QEAA@QEAU?$string_output_adapter_context@D@1@@Z 0000000180159b4c f i libucrt:output.obj
 0001:00158b54       ??0?$string_output_adapter@_W@__crt_stdio_output@@QEAA@QEAU?$string_output_adapter_context@_W@1@@Z 0000000180159b54 f i libucrt:output.obj
 0001:00158b5c       ??0_LocaleUpdate@@QEAA@QEAU__crt_locale_pointers@@@Z 0000000180159b5c f i libucrt:output.obj
 0001:00158bf8       ??0__acrt_stdio_temporary_buffering_guard@@QEAA@QEAU_iobuf@@@Z 0000000180159bf8 f i libucrt:output.obj
 0001:00158c18       ??0__crt_deferred_errno_cache@@QEAA@XZ 0000000180159c18 f i libucrt:output.obj
 0001:00158c20       ??0__crt_errno_guard@@QEAA@QEAH@Z 0000000180159c20 f i libucrt:output.obj
 0001:00158c30       ??0__crt_stdio_stream@@QEAA@QEAU_iobuf@@@Z 0000000180159c30 f i libucrt:output.obj
 0001:00158c40       ??0formatting_buffer@__crt_stdio_output@@QEAA@XZ 0000000180159c40 f i libucrt:output.obj
 0001:00158c54       ??1?$common_data@D@__crt_stdio_output@@QEAA@XZ 0000000180159c54 f i libucrt:output.obj
 0001:00158c78       ??1?$common_data@_W@__crt_stdio_output@@QEAA@XZ 0000000180159c78 f i libucrt:output.obj
 0001:00158c9c       ??1?$format_validation_base@DV?$stream_output_adapter@D@__crt_stdio_output@@@__crt_stdio_output@@QEAA@XZ 0000000180159c9c f i libucrt:output.obj
 0001:00158cc0       ??1?$format_validation_base@DV?$string_output_adapter@D@__crt_stdio_output@@@__crt_stdio_output@@QEAA@XZ 0000000180159cc0 f i libucrt:output.obj
 0001:00158ce4       ??1?$format_validation_base@_WV?$stream_output_adapter@_W@__crt_stdio_output@@@__crt_stdio_output@@QEAA@XZ 0000000180159ce4 f i libucrt:output.obj
 0001:00158d08       ??1?$format_validation_base@_WV?$string_output_adapter@_W@__crt_stdio_output@@@__crt_stdio_output@@QEAA@XZ 0000000180159d08 f i libucrt:output.obj
 0001:00158d2c       ??1?$output_adapter_data@DV?$stream_output_adapter@D@__crt_stdio_output@@@__crt_stdio_output@@QEAA@XZ 0000000180159d2c f i libucrt:output.obj
 0001:00158d50       ??1?$output_adapter_data@DV?$string_output_adapter@D@__crt_stdio_output@@@__crt_stdio_output@@QEAA@XZ 0000000180159d50 f i libucrt:output.obj
 0001:00158d74       ??1?$output_adapter_data@_WV?$stream_output_adapter@_W@__crt_stdio_output@@@__crt_stdio_output@@QEAA@XZ 0000000180159d74 f i libucrt:output.obj
 0001:00158d98       ??1?$output_adapter_data@_WV?$string_output_adapter@_W@__crt_stdio_output@@@__crt_stdio_output@@QEAA@XZ 0000000180159d98 f i libucrt:output.obj
 0001:00158dbc       ??1?$output_processor@DV?$stream_output_adapter@D@__crt_stdio_output@@V?$format_validation_base@DV?$stream_output_adapter@D@__crt_stdio_output@@@2@@__crt_stdio_output@@QEAA@XZ 0000000180159dbc f i libucrt:output.obj
 0001:00158de0       ??1?$output_processor@DV?$stream_output_adapter@D@__crt_stdio_output@@V?$positional_parameter_base@DV?$stream_output_adapter@D@__crt_stdio_output@@@2@@__crt_stdio_output@@QEAA@XZ 0000000180159de0 f i libucrt:output.obj
 0001:00158e04       ??1?$output_processor@DV?$stream_output_adapter@D@__crt_stdio_output@@V?$standard_base@DV?$stream_output_adapter@D@__crt_stdio_output@@@2@@__crt_stdio_output@@QEAA@XZ 0000000180159e04 f i libucrt:output.obj
 0001:00158e28       ??1?$output_processor@DV?$string_output_adapter@D@__crt_stdio_output@@V?$format_validation_base@DV?$string_output_adapter@D@__crt_stdio_output@@@2@@__crt_stdio_output@@QEAA@XZ 0000000180159e28 f i libucrt:output.obj
 0001:00158e4c       ??1?$output_processor@DV?$string_output_adapter@D@__crt_stdio_output@@V?$positional_parameter_base@DV?$string_output_adapter@D@__crt_stdio_output@@@2@@__crt_stdio_output@@QEAA@XZ 0000000180159e4c f i libucrt:output.obj
 0001:00158e70       ??1?$output_processor@DV?$string_output_adapter@D@__crt_stdio_output@@V?$standard_base@DV?$string_output_adapter@D@__crt_stdio_output@@@2@@__crt_stdio_output@@QEAA@XZ 0000000180159e70 f i libucrt:output.obj
 0001:00158e94       ??1?$output_processor@_WV?$stream_output_adapter@_W@__crt_stdio_output@@V?$format_validation_base@_WV?$stream_output_adapter@_W@__crt_stdio_output@@@2@@__crt_stdio_output@@QEAA@XZ 0000000180159e94 f i libucrt:output.obj
 0001:00158eb8       ??1?$output_processor@_WV?$stream_output_adapter@_W@__crt_stdio_output@@V?$positional_parameter_base@_WV?$stream_output_adapter@_W@__crt_stdio_output@@@2@@__crt_stdio_output@@QEAA@XZ 0000000180159eb8 f i libucrt:output.obj
 0001:00158edc       ??1?$output_processor@_WV?$stream_output_adapter@_W@__crt_stdio_output@@V?$standard_base@_WV?$stream_output_adapter@_W@__crt_stdio_output@@@2@@__crt_stdio_output@@QEAA@XZ 0000000180159edc f i libucrt:output.obj
 0001:00158f00       ??1?$output_processor@_WV?$string_output_adapter@_W@__crt_stdio_output@@V?$format_validation_base@_WV?$string_output_adapter@_W@__crt_stdio_output@@@2@@__crt_stdio_output@@QEAA@XZ 0000000180159f00 f i libucrt:output.obj
 0001:00158f24       ??1?$output_processor@_WV?$string_output_adapter@_W@__crt_stdio_output@@V?$positional_parameter_base@_WV?$string_output_adapter@_W@__crt_stdio_output@@@2@@__crt_stdio_output@@QEAA@XZ 0000000180159f24 f i libucrt:output.obj
 0001:00158f48       ??1?$output_processor@_WV?$string_output_adapter@_W@__crt_stdio_output@@V?$standard_base@_WV?$string_output_adapter@_W@__crt_stdio_output@@@2@@__crt_stdio_output@@QEAA@XZ 0000000180159f48 f i libucrt:output.obj
 0001:00158f6c       ??1?$positional_parameter_base@DV?$stream_output_adapter@D@__crt_stdio_output@@@__crt_stdio_output@@QEAA@XZ 0000000180159f6c f i libucrt:output.obj
 0001:00158f90       ??1?$positional_parameter_base@DV?$string_output_adapter@D@__crt_stdio_output@@@__crt_stdio_output@@QEAA@XZ 0000000180159f90 f i libucrt:output.obj
 0001:00158fb4       ??1?$positional_parameter_base@_WV?$stream_output_adapter@_W@__crt_stdio_output@@@__crt_stdio_output@@QEAA@XZ 0000000180159fb4 f i libucrt:output.obj
 0001:00158fd8       ??1?$positional_parameter_base@_WV?$string_output_adapter@_W@__crt_stdio_output@@@__crt_stdio_output@@QEAA@XZ 0000000180159fd8 f i libucrt:output.obj
 0001:00158ffc       ??1?$standard_base@DV?$stream_output_adapter@D@__crt_stdio_output@@@__crt_stdio_output@@QEAA@XZ 0000000180159ffc f i libucrt:output.obj
 0001:00159020       ??1?$standard_base@DV?$string_output_adapter@D@__crt_stdio_output@@@__crt_stdio_output@@QEAA@XZ 000000018015a020 f i libucrt:output.obj
 0001:00159044       ??1?$standard_base@_WV?$stream_output_adapter@_W@__crt_stdio_output@@@__crt_stdio_output@@QEAA@XZ 000000018015a044 f i libucrt:output.obj
 0001:00159068       ??1?$standard_base@_WV?$string_output_adapter@_W@__crt_stdio_output@@@__crt_stdio_output@@QEAA@XZ 000000018015a068 f i libucrt:output.obj
 0001:0015908c       ??1_LocaleUpdate@@QEAA@XZ  000000018015a08c f i libucrt:output.obj
 0001:001590a0       ??1__acrt_stdio_temporary_buffering_guard@@QEAA@XZ 000000018015a0a0 f i libucrt:output.obj
 0001:001590ac       ??1__crt_errno_guard@@QEAA@XZ 000000018015a0ac f i libucrt:output.obj
 0001:001590c0       ??1formatting_buffer@__crt_stdio_output@@QEAA@XZ 000000018015a0c0 f i libucrt:output.obj
 0001:001590e4       ??4?$__crt_unique_heap_ptr@DU__crt_internal_free_policy@@@@QEAAAEAV0@$$QEAV0@@Z 000000018015a0e4 f i libucrt:output.obj
 0001:00159118       ??A?$spectre_mitigated_lookup_table@Ustate_transition_pair@__crt_stdio_output@@$0IA@@__crt_stdio_output@@QEBAAEBUstate_transition_pair@1@_K@Z 000000018015a118 f i libucrt:output.obj
 0001:00159120       ??C__crt_stdio_stream@@QEBAPEAU__crt_stdio_stream_data@@XZ 000000018015a120 f i libucrt:output.obj
 0001:001598e8       ?GetLocaleT@_LocaleUpdate@@QEAAPEAU__crt_locale_pointers@@XZ 000000018015a8e8 f i libucrt:output.obj
 0001:001598f0       ?adjust_hexit@?$output_processor@DV?$stream_output_adapter@D@__crt_stdio_output@@V?$format_validation_base@DV?$stream_output_adapter@D@__crt_stdio_output@@@2@@__crt_stdio_output@@CADH_N@Z 000000018015a8f0 f i libucrt:output.obj
 0001:001598fc       ?adjust_hexit@?$output_processor@DV?$stream_output_adapter@D@__crt_stdio_output@@V?$positional_parameter_base@DV?$stream_output_adapter@D@__crt_stdio_output@@@2@@__crt_stdio_output@@CADH_N@Z 000000018015a8fc f i libucrt:output.obj
 0001:00159908       ?adjust_hexit@?$output_processor@DV?$stream_output_adapter@D@__crt_stdio_output@@V?$standard_base@DV?$stream_output_adapter@D@__crt_stdio_output@@@2@@__crt_stdio_output@@CADH_N@Z 000000018015a908 f i libucrt:output.obj
 0001:00159914       ?adjust_hexit@?$output_processor@DV?$string_output_adapter@D@__crt_stdio_output@@V?$format_validation_base@DV?$string_output_adapter@D@__crt_stdio_output@@@2@@__crt_stdio_output@@CADH_N@Z 000000018015a914 f i libucrt:output.obj
 0001:00159920       ?adjust_hexit@?$output_processor@DV?$string_output_adapter@D@__crt_stdio_output@@V?$positional_parameter_base@DV?$string_output_adapter@D@__crt_stdio_output@@@2@@__crt_stdio_output@@CADH_N@Z 000000018015a920 f i libucrt:output.obj
 0001:0015992c       ?adjust_hexit@?$output_processor@DV?$string_output_adapter@D@__crt_stdio_output@@V?$standard_base@DV?$string_output_adapter@D@__crt_stdio_output@@@2@@__crt_stdio_output@@CADH_N@Z 000000018015a92c f i libucrt:output.obj
 0001:00159938       ?adjust_hexit@?$output_processor@_WV?$stream_output_adapter@_W@__crt_stdio_output@@V?$format_validation_base@_WV?$stream_output_adapter@_W@__crt_stdio_output@@@2@@__crt_stdio_output@@CADH_N@Z 000000018015a938 f i libucrt:output.obj
 0001:00159944       ?adjust_hexit@?$output_processor@_WV?$stream_output_adapter@_W@__crt_stdio_output@@V?$positional_parameter_base@_WV?$stream_output_adapter@_W@__crt_stdio_output@@@2@@__crt_stdio_output@@CADH_N@Z 000000018015a944 f i libucrt:output.obj
 0001:00159950       ?adjust_hexit@?$output_processor@_WV?$stream_output_adapter@_W@__crt_stdio_output@@V?$standard_base@_WV?$stream_output_adapter@_W@__crt_stdio_output@@@2@@__crt_stdio_output@@CADH_N@Z 000000018015a950 f i libucrt:output.obj
 0001:0015995c       ?adjust_hexit@?$output_processor@_WV?$string_output_adapter@_W@__crt_stdio_output@@V?$format_validation_base@_WV?$string_output_adapter@_W@__crt_stdio_output@@@2@@__crt_stdio_output@@CADH_N@Z 000000018015a95c f i libucrt:output.obj
 0001:00159968       ?adjust_hexit@?$output_processor@_WV?$string_output_adapter@_W@__crt_stdio_output@@V?$positional_parameter_base@_WV?$string_output_adapter@_W@__crt_stdio_output@@@2@@__crt_stdio_output@@CADH_N@Z 000000018015a968 f i libucrt:output.obj
 0001:00159974       ?adjust_hexit@?$output_processor@_WV?$string_output_adapter@_W@__crt_stdio_output@@V?$standard_base@_WV?$string_output_adapter@_W@__crt_stdio_output@@@2@@__crt_stdio_output@@CADH_N@Z 000000018015a974 f i libucrt:output.obj
 0001:00159980       ?advance_to_next_pass@?$positional_parameter_base@DV?$stream_output_adapter@D@__crt_stdio_output@@@__crt_stdio_output@@IEAA_NXZ 000000018015a980 f i libucrt:output.obj
 0001:001599d0       ?advance_to_next_pass@?$positional_parameter_base@DV?$string_output_adapter@D@__crt_stdio_output@@@__crt_stdio_output@@IEAA_NXZ 000000018015a9d0 f i libucrt:output.obj
 0001:00159a20       ?advance_to_next_pass@?$positional_parameter_base@_WV?$stream_output_adapter@_W@__crt_stdio_output@@@__crt_stdio_output@@IEAA_NXZ 000000018015aa20 f i libucrt:output.obj
 0001:00159a70       ?advance_to_next_pass@?$positional_parameter_base@_WV?$string_output_adapter@_W@__crt_stdio_output@@@__crt_stdio_output@@IEAA_NXZ 000000018015aa70 f i libucrt:output.obj
 0001:00159ac0       ?advance_to_next_pass@?$standard_base@DV?$stream_output_adapter@D@__crt_stdio_output@@@__crt_stdio_output@@IEAA_NXZ 000000018015aac0 f i libucrt:output.obj
 0001:00159ad4       ?advance_to_next_pass@?$standard_base@DV?$string_output_adapter@D@__crt_stdio_output@@@__crt_stdio_output@@IEAA_NXZ 000000018015aad4 f i libucrt:output.obj
 0001:00159ae8       ?advance_to_next_pass@?$standard_base@_WV?$stream_output_adapter@_W@__crt_stdio_output@@@__crt_stdio_output@@IEAA_NXZ 000000018015aae8 f i libucrt:output.obj
 0001:00159afc       ?advance_to_next_pass@?$standard_base@_WV?$string_output_adapter@_W@__crt_stdio_output@@@__crt_stdio_output@@IEAA_NXZ 000000018015aafc f i libucrt:output.obj
 0001:00159b10       ?crop_zeroes@__crt_stdio_output@@YAXPEADQEAU__crt_locale_pointers@@@Z 000000018015ab10 f i libucrt:output.obj
 0001:00159ba4       ?find_next_state@?$output_processor@DV?$stream_output_adapter@D@__crt_stdio_output@@V?$format_validation_base@DV?$stream_output_adapter@D@__crt_stdio_output@@@2@@__crt_stdio_output@@AEBA?AW4state@2@DW432@@Z 000000018015aba4 f i libucrt:output.obj
 0001:00159bd4       ?find_next_state@?$output_processor@DV?$stream_output_adapter@D@__crt_stdio_output@@V?$positional_parameter_base@DV?$stream_output_adapter@D@__crt_stdio_output@@@2@@__crt_stdio_output@@AEBA?AW4state@2@DW432@@Z 000000018015abd4 f i libucrt:output.obj
 0001:00159c04       ?find_next_state@?$output_processor@DV?$stream_output_adapter@D@__crt_stdio_output@@V?$standard_base@DV?$stream_output_adapter@D@__crt_stdio_output@@@2@@__crt_stdio_output@@AEBA?AW4state@2@DW432@@Z 000000018015ac04 f i libucrt:output.obj
 0001:00159c34       ?find_next_state@?$output_processor@DV?$string_output_adapter@D@__crt_stdio_output@@V?$format_validation_base@DV?$string_output_adapter@D@__crt_stdio_output@@@2@@__crt_stdio_output@@AEBA?AW4state@2@DW432@@Z 000000018015ac34 f i libucrt:output.obj
 0001:00159c64       ?find_next_state@?$output_processor@DV?$string_output_adapter@D@__crt_stdio_output@@V?$positional_parameter_base@DV?$string_output_adapter@D@__crt_stdio_output@@@2@@__crt_stdio_output@@AEBA?AW4state@2@DW432@@Z 000000018015ac64 f i libucrt:output.obj
 0001:00159c94       ?find_next_state@?$output_processor@DV?$string_output_adapter@D@__crt_stdio_output@@V?$standard_base@DV?$string_output_adapter@D@__crt_stdio_output@@@2@@__crt_stdio_output@@AEBA?AW4state@2@DW432@@Z 000000018015ac94 f i libucrt:output.obj
 0001:00159cc4       ?find_next_state@?$output_processor@_WV?$stream_output_adapter@_W@__crt_stdio_output@@V?$format_validation_base@_WV?$stream_output_adapter@_W@__crt_stdio_output@@@2@@__crt_stdio_output@@AEBA?AW4state@2@_WW432@@Z 000000018015acc4 f i libucrt:output.obj
 0001:00159cfc       ?find_next_state@?$output_processor@_WV?$stream_output_adapter@_W@__crt_stdio_output@@V?$positional_parameter_base@_WV?$stream_output_adapter@_W@__crt_stdio_output@@@2@@__crt_stdio_output@@AEBA?AW4state@2@_WW432@@Z 000000018015acfc f i libucrt:output.obj
 0001:00159d34       ?find_next_state@?$output_processor@_WV?$stream_output_adapter@_W@__crt_stdio_output@@V?$standard_base@_WV?$stream_output_adapter@_W@__crt_stdio_output@@@2@@__crt_stdio_output@@AEBA?AW4state@2@_WW432@@Z 000000018015ad34 f i libucrt:output.obj
 0001:00159d6c       ?find_next_state@?$output_processor@_WV?$string_output_adapter@_W@__crt_stdio_output@@V?$format_validation_base@_WV?$string_output_adapter@_W@__crt_stdio_output@@@2@@__crt_stdio_output@@AEBA?AW4state@2@_WW432@@Z 000000018015ad6c f i libucrt:output.obj
 0001:00159da4       ?find_next_state@?$output_processor@_WV?$string_output_adapter@_W@__crt_stdio_output@@V?$positional_parameter_base@_WV?$string_output_adapter@_W@__crt_stdio_output@@@2@@__crt_stdio_output@@AEBA?AW4state@2@_WW432@@Z 000000018015ada4 f i libucrt:output.obj
 0001:00159ddc       ?find_next_state@?$output_processor@_WV?$string_output_adapter@_W@__crt_stdio_output@@V?$standard_base@_WV?$string_output_adapter@_W@__crt_stdio_output@@@2@@__crt_stdio_output@@AEBA?AW4state@2@_WW432@@Z 000000018015addc f i libucrt:output.obj
 0001:00159e20       ?force_decimal_point@__crt_stdio_output@@YAXPEADQEAU__crt_locale_pointers@@@Z 000000018015ae20 f i libucrt:output.obj
 0001:00159e98       ?get@__crt_deferred_errno_cache@@QEAAAEAHXZ 000000018015ae98 f i libucrt:output.obj
 0001:00159eb8       ?get_flags@__crt_stdio_stream@@QEBAJXZ 000000018015aeb8 f i libucrt:output.obj
 0001:00159ec0       ?get_parameter_type@?$positional_parameter_base@DV?$stream_output_adapter@D@__crt_stdio_output@@@__crt_stdio_output@@CA?AW4parameter_type@12@F@Z 000000018015aec0 f i libucrt:output.obj
 0001:00159ec8       ?get_parameter_type@?$positional_parameter_base@DV?$stream_output_adapter@D@__crt_stdio_output@@@__crt_stdio_output@@CA?AW4parameter_type@12@G@Z 000000018015aec8 f i libucrt:output.obj
 0001:00159ed0       ?get_parameter_type@?$positional_parameter_base@DV?$stream_output_adapter@D@__crt_stdio_output@@@__crt_stdio_output@@CA?AW4parameter_type@12@H@Z 000000018015aed0 f i libucrt:output.obj
 0001:00159ed8       ?get_parameter_type@?$positional_parameter_base@DV?$stream_output_adapter@D@__crt_stdio_output@@@__crt_stdio_output@@CA?AW4parameter_type@12@I@Z 000000018015aed8 f i libucrt:output.obj
 0001:00159ee0       ?get_parameter_type@?$positional_parameter_base@DV?$stream_output_adapter@D@__crt_stdio_output@@@__crt_stdio_output@@CA?AW4parameter_type@12@U_CRT_DOUBLE@@@Z 000000018015aee0 f i libucrt:output.obj
 0001:00159ee8       ?get_parameter_type@?$positional_parameter_base@DV?$stream_output_adapter@D@__crt_stdio_output@@@__crt_stdio_output@@CA?AW4parameter_type@12@_J@Z 000000018015aee8 f i libucrt:output.obj
 0001:00159ef0       ?get_parameter_type@?$positional_parameter_base@DV?$stream_output_adapter@D@__crt_stdio_output@@@__crt_stdio_output@@CA?AW4parameter_type@12@_K@Z 000000018015aef0 f i libucrt:output.obj
 0001:00159ef8       ?get_parameter_type@?$positional_parameter_base@DV?$stream_output_adapter@D@__crt_stdio_output@@@__crt_stdio_output@@CA?AW4parameter_type@12@_W@Z 000000018015aef8 f i libucrt:output.obj
 0001:00159f00       ?get_parameter_type@?$positional_parameter_base@DV?$string_output_adapter@D@__crt_stdio_output@@@__crt_stdio_output@@CA?AW4parameter_type@12@F@Z 000000018015af00 f i libucrt:output.obj
 0001:00159f08       ?get_parameter_type@?$positional_parameter_base@DV?$string_output_adapter@D@__crt_stdio_output@@@__crt_stdio_output@@CA?AW4parameter_type@12@G@Z 000000018015af08 f i libucrt:output.obj
 0001:00159f10       ?get_parameter_type@?$positional_parameter_base@DV?$string_output_adapter@D@__crt_stdio_output@@@__crt_stdio_output@@CA?AW4parameter_type@12@H@Z 000000018015af10 f i libucrt:output.obj
 0001:00159f18       ?get_parameter_type@?$positional_parameter_base@DV?$string_output_adapter@D@__crt_stdio_output@@@__crt_stdio_output@@CA?AW4parameter_type@12@I@Z 000000018015af18 f i libucrt:output.obj
 0001:00159f20       ?get_parameter_type@?$positional_parameter_base@DV?$string_output_adapter@D@__crt_stdio_output@@@__crt_stdio_output@@CA?AW4parameter_type@12@U_CRT_DOUBLE@@@Z 000000018015af20 f i libucrt:output.obj
 0001:00159f28       ?get_parameter_type@?$positional_parameter_base@DV?$string_output_adapter@D@__crt_stdio_output@@@__crt_stdio_output@@CA?AW4parameter_type@12@_J@Z 000000018015af28 f i libucrt:output.obj
 0001:00159f30       ?get_parameter_type@?$positional_parameter_base@DV?$string_output_adapter@D@__crt_stdio_output@@@__crt_stdio_output@@CA?AW4parameter_type@12@_K@Z 000000018015af30 f i libucrt:output.obj
 0001:00159f38       ?get_parameter_type@?$positional_parameter_base@DV?$string_output_adapter@D@__crt_stdio_output@@@__crt_stdio_output@@CA?AW4parameter_type@12@_W@Z 000000018015af38 f i libucrt:output.obj
 0001:00159f40       ?get_parameter_type@?$positional_parameter_base@_WV?$stream_output_adapter@_W@__crt_stdio_output@@@__crt_stdio_output@@CA?AW4parameter_type@12@F@Z 000000018015af40 f i libucrt:output.obj
 0001:00159f48       ?get_parameter_type@?$positional_parameter_base@_WV?$stream_output_adapter@_W@__crt_stdio_output@@@__crt_stdio_output@@CA?AW4parameter_type@12@G@Z 000000018015af48 f i libucrt:output.obj
 0001:00159f50       ?get_parameter_type@?$positional_parameter_base@_WV?$stream_output_adapter@_W@__crt_stdio_output@@@__crt_stdio_output@@CA?AW4parameter_type@12@H@Z 000000018015af50 f i libucrt:output.obj
 0001:00159f58       ?get_parameter_type@?$positional_parameter_base@_WV?$stream_output_adapter@_W@__crt_stdio_output@@@__crt_stdio_output@@CA?AW4parameter_type@12@I@Z 000000018015af58 f i libucrt:output.obj
 0001:00159f60       ?get_parameter_type@?$positional_parameter_base@_WV?$stream_output_adapter@_W@__crt_stdio_output@@@__crt_stdio_output@@CA?AW4parameter_type@12@U_CRT_DOUBLE@@@Z 000000018015af60 f i libucrt:output.obj
 0001:00159f68       ?get_parameter_type@?$positional_parameter_base@_WV?$stream_output_adapter@_W@__crt_stdio_output@@@__crt_stdio_output@@CA?AW4parameter_type@12@_J@Z 000000018015af68 f i libucrt:output.obj
 0001:00159f70       ?get_parameter_type@?$positional_parameter_base@_WV?$stream_output_adapter@_W@__crt_stdio_output@@@__crt_stdio_output@@CA?AW4parameter_type@12@_K@Z 000000018015af70 f i libucrt:output.obj
 0001:00159f78       ?get_parameter_type@?$positional_parameter_base@_WV?$stream_output_adapter@_W@__crt_stdio_output@@@__crt_stdio_output@@CA?AW4parameter_type@12@_W@Z 000000018015af78 f i libucrt:output.obj
 0001:00159f80       ?get_parameter_type@?$positional_parameter_base@_WV?$string_output_adapter@_W@__crt_stdio_output@@@__crt_stdio_output@@CA?AW4parameter_type@12@F@Z 000000018015af80 f i libucrt:output.obj
 0001:00159f88       ?get_parameter_type@?$positional_parameter_base@_WV?$string_output_adapter@_W@__crt_stdio_output@@@__crt_stdio_output@@CA?AW4parameter_type@12@G@Z 000000018015af88 f i libucrt:output.obj
 0001:00159f90       ?get_parameter_type@?$positional_parameter_base@_WV?$string_output_adapter@_W@__crt_stdio_output@@@__crt_stdio_output@@CA?AW4parameter_type@12@H@Z 000000018015af90 f i libucrt:output.obj
 0001:00159f98       ?get_parameter_type@?$positional_parameter_base@_WV?$string_output_adapter@_W@__crt_stdio_output@@@__crt_stdio_output@@CA?AW4parameter_type@12@I@Z 000000018015af98 f i libucrt:output.obj
 0001:00159fa0       ?get_parameter_type@?$positional_parameter_base@_WV?$string_output_adapter@_W@__crt_stdio_output@@@__crt_stdio_output@@CA?AW4parameter_type@12@U_CRT_DOUBLE@@@Z 000000018015afa0 f i libucrt:output.obj
 0001:00159fa8       ?get_parameter_type@?$positional_parameter_base@_WV?$string_output_adapter@_W@__crt_stdio_output@@@__crt_stdio_output@@CA?AW4parameter_type@12@_J@Z 000000018015afa8 f i libucrt:output.obj
 0001:00159fb0       ?get_parameter_type@?$positional_parameter_base@_WV?$string_output_adapter@_W@__crt_stdio_output@@@__crt_stdio_output@@CA?AW4parameter_type@12@_K@Z 000000018015afb0 f i libucrt:output.obj
 0001:00159fb8       ?get_parameter_type@?$positional_parameter_base@_WV?$string_output_adapter@_W@__crt_stdio_output@@@__crt_stdio_output@@CA?AW4parameter_type@12@_W@Z 000000018015afb8 f i libucrt:output.obj
 0001:00159fc0       ?has_flag@?$output_processor@DV?$stream_output_adapter@D@__crt_stdio_output@@V?$format_validation_base@DV?$stream_output_adapter@D@__crt_stdio_output@@@2@@__crt_stdio_output@@AEBA_NI@Z 000000018015afc0 f i libucrt:output.obj
 0001:00159fc8       ?has_flag@?$output_processor@DV?$stream_output_adapter@D@__crt_stdio_output@@V?$positional_parameter_base@DV?$stream_output_adapter@D@__crt_stdio_output@@@2@@__crt_stdio_output@@AEBA_NI@Z 000000018015afc8 f i libucrt:output.obj
 0001:00159fd0       ?has_flag@?$output_processor@DV?$stream_output_adapter@D@__crt_stdio_output@@V?$standard_base@DV?$stream_output_adapter@D@__crt_stdio_output@@@2@@__crt_stdio_output@@AEBA_NI@Z 000000018015afd0 f i libucrt:output.obj
 0001:00159fd8       ?has_flag@?$output_processor@DV?$string_output_adapter@D@__crt_stdio_output@@V?$format_validation_base@DV?$string_output_adapter@D@__crt_stdio_output@@@2@@__crt_stdio_output@@AEBA_NI@Z 000000018015afd8 f i libucrt:output.obj
 0001:00159fe0       ?has_flag@?$output_processor@DV?$string_output_adapter@D@__crt_stdio_output@@V?$positional_parameter_base@DV?$string_output_adapter@D@__crt_stdio_output@@@2@@__crt_stdio_output@@AEBA_NI@Z 000000018015afe0 f i libucrt:output.obj
 0001:00159fe8       ?has_flag@?$output_processor@DV?$string_output_adapter@D@__crt_stdio_output@@V?$standard_base@DV?$string_output_adapter@D@__crt_stdio_output@@@2@@__crt_stdio_output@@AEBA_NI@Z 000000018015afe8 f i libucrt:output.obj
 0001:00159ff0       ?has_flag@?$output_processor@_WV?$stream_output_adapter@_W@__crt_stdio_output@@V?$format_validation_base@_WV?$stream_output_adapter@_W@__crt_stdio_output@@@2@@__crt_stdio_output@@AEBA_NI@Z 000000018015aff0 f i libucrt:output.obj
 0001:00159ff8       ?has_flag@?$output_processor@_WV?$stream_output_adapter@_W@__crt_stdio_output@@V?$positional_parameter_base@_WV?$stream_output_adapter@_W@__crt_stdio_output@@@2@@__crt_stdio_output@@AEBA_NI@Z 000000018015aff8 f i libucrt:output.obj
 0001:0015a000       ?has_flag@?$output_processor@_WV?$stream_output_adapter@_W@__crt_stdio_output@@V?$standard_base@_WV?$stream_output_adapter@_W@__crt_stdio_output@@@2@@__crt_stdio_output@@AEBA_NI@Z 000000018015b000 f i libucrt:output.obj
 0001:0015a008       ?has_flag@?$output_processor@_WV?$string_output_adapter@_W@__crt_stdio_output@@V?$format_validation_base@_WV?$string_output_adapter@_W@__crt_stdio_output@@@2@@__crt_stdio_output@@AEBA_NI@Z 000000018015b008 f i libucrt:output.obj
 0001:0015a010       ?has_flag@?$output_processor@_WV?$string_output_adapter@_W@__crt_stdio_output@@V?$positional_parameter_base@_WV?$string_output_adapter@_W@__crt_stdio_output@@@2@@__crt_stdio_output@@AEBA_NI@Z 000000018015b010 f i libucrt:output.obj
 0001:0015a018       ?has_flag@?$output_processor@_WV?$string_output_adapter@_W@__crt_stdio_output@@V?$standard_base@_WV?$string_output_adapter@_W@__crt_stdio_output@@@2@@__crt_stdio_output@@AEBA_NI@Z 000000018015b018 f i libucrt:output.obj
 0001:0015a020       ?is_positional_parameter_reappearance_consistent@?$positional_parameter_base@DV?$stream_output_adapter@D@__crt_stdio_output@@@__crt_stdio_output@@AEAA_NAEBUparameter_data@12@W4parameter_type@12@DW4length_modifier@2@@Z 000000018015b020 f i libucrt:output.obj
 0001:0015a1c0       ?is_positional_parameter_reappearance_consistent@?$positional_parameter_base@DV?$string_output_adapter@D@__crt_stdio_output@@@__crt_stdio_output@@AEAA_NAEBUparameter_data@12@W4parameter_type@12@DW4length_modifier@2@@Z 000000018015b1c0 f i libucrt:output.obj
 0001:0015a360       ?is_positional_parameter_reappearance_consistent@?$positional_parameter_base@_WV?$stream_output_adapter@_W@__crt_stdio_output@@@__crt_stdio_output@@AEAA_NAEBUparameter_data@12@W4parameter_type@12@_WW4length_modifier@2@@Z 000000018015b360 f i libucrt:output.obj
 0001:0015a4cc       ?is_positional_parameter_reappearance_consistent@?$positional_parameter_base@_WV?$string_output_adapter@_W@__crt_stdio_output@@@__crt_stdio_output@@AEAA_NAEBUparameter_data@12@W4parameter_type@12@_WW4length_modifier@2@@Z 000000018015b4cc f i libucrt:output.obj
 0001:0015a638       ?is_string_backed@__crt_stdio_stream@@QEBA_NXZ 000000018015b638 f i libucrt:output.obj
 0001:0015a644       ?narrow_null_string@?$output_processor@DV?$stream_output_adapter@D@__crt_stdio_output@@V?$format_validation_base@DV?$stream_output_adapter@D@__crt_stdio_output@@@2@@__crt_stdio_output@@CAPEADXZ 000000018015b644 f i libucrt:output.obj
 0001:0015a64c       ?narrow_null_string@?$output_processor@DV?$stream_output_adapter@D@__crt_stdio_output@@V?$positional_parameter_base@DV?$stream_output_adapter@D@__crt_stdio_output@@@2@@__crt_stdio_output@@CAPEADXZ 000000018015b64c f i libucrt:output.obj
 0001:0015a654       ?narrow_null_string@?$output_processor@DV?$stream_output_adapter@D@__crt_stdio_output@@V?$standard_base@DV?$stream_output_adapter@D@__crt_stdio_output@@@2@@__crt_stdio_output@@CAPEADXZ 000000018015b654 f i libucrt:output.obj
 0001:0015a65c       ?narrow_null_string@?$output_processor@DV?$string_output_adapter@D@__crt_stdio_output@@V?$format_validation_base@DV?$string_output_adapter@D@__crt_stdio_output@@@2@@__crt_stdio_output@@CAPEADXZ 000000018015b65c f i libucrt:output.obj
 0001:0015a664       ?narrow_null_string@?$output_processor@DV?$string_output_adapter@D@__crt_stdio_output@@V?$positional_parameter_base@DV?$string_output_adapter@D@__crt_stdio_output@@@2@@__crt_stdio_output@@CAPEADXZ 000000018015b664 f i libucrt:output.obj
 0001:0015a66c       ?narrow_null_string@?$output_processor@DV?$string_output_adapter@D@__crt_stdio_output@@V?$standard_base@DV?$string_output_adapter@D@__crt_stdio_output@@@2@@__crt_stdio_output@@CAPEADXZ 000000018015b66c f i libucrt:output.obj
 0001:0015a674       ?narrow_null_string@?$output_processor@_WV?$stream_output_adapter@_W@__crt_stdio_output@@V?$format_validation_base@_WV?$stream_output_adapter@_W@__crt_stdio_output@@@2@@__crt_stdio_output@@CAPEADXZ 000000018015b674 f i libucrt:output.obj
 0001:0015a67c       ?narrow_null_string@?$output_processor@_WV?$stream_output_adapter@_W@__crt_stdio_output@@V?$positional_parameter_base@_WV?$stream_output_adapter@_W@__crt_stdio_output@@@2@@__crt_stdio_output@@CAPEADXZ 000000018015b67c f i libucrt:output.obj
 0001:0015a684       ?narrow_null_string@?$output_processor@_WV?$stream_output_adapter@_W@__crt_stdio_output@@V?$standard_base@_WV?$stream_output_adapter@_W@__crt_stdio_output@@@2@@__crt_stdio_output@@CAPEADXZ 000000018015b684 f i libucrt:output.obj
 0001:0015a68c       ?narrow_null_string@?$output_processor@_WV?$string_output_adapter@_W@__crt_stdio_output@@V?$format_validation_base@_WV?$string_output_adapter@_W@__crt_stdio_output@@@2@@__crt_stdio_output@@CAPEADXZ 000000018015b68c f i libucrt:output.obj
 0001:0015a694       ?narrow_null_string@?$output_processor@_WV?$string_output_adapter@_W@__crt_stdio_output@@V?$positional_parameter_base@_WV?$string_output_adapter@_W@__crt_stdio_output@@@2@@__crt_stdio_output@@CAPEADXZ 000000018015b694 f i libucrt:output.obj
 0001:0015a69c       ?narrow_null_string@?$output_processor@_WV?$string_output_adapter@_W@__crt_stdio_output@@V?$standard_base@_WV?$string_output_adapter@_W@__crt_stdio_output@@@2@@__crt_stdio_output@@CAPEADXZ 000000018015b69c f i libucrt:output.obj
 0001:0015a6a4       ?parse_int_from_format_string@?$output_processor@DV?$stream_output_adapter@D@__crt_stdio_output@@V?$format_validation_base@DV?$stream_output_adapter@D@__crt_stdio_output@@@2@@__crt_stdio_output@@AEAA_NQEAH@Z 000000018015b6a4 f i libucrt:output.obj
 0001:0015a748       ?parse_int_from_format_string@?$output_processor@DV?$stream_output_adapter@D@__crt_stdio_output@@V?$positional_parameter_base@DV?$stream_output_adapter@D@__crt_stdio_output@@@2@@__crt_stdio_output@@AEAA_NQEAH@Z 000000018015b748 f i libucrt:output.obj
 0001:0015a7ec       ?parse_int_from_format_string@?$output_processor@DV?$stream_output_adapter@D@__crt_stdio_output@@V?$standard_base@DV?$stream_output_adapter@D@__crt_stdio_output@@@2@@__crt_stdio_output@@AEAA_NQEAH@Z 000000018015b7ec f i libucrt:output.obj
 0001:0015a890       ?parse_int_from_format_string@?$output_processor@DV?$string_output_adapter@D@__crt_stdio_output@@V?$format_validation_base@DV?$string_output_adapter@D@__crt_stdio_output@@@2@@__crt_stdio_output@@AEAA_NQEAH@Z 000000018015b890 f i libucrt:output.obj
 0001:0015a934       ?parse_int_from_format_string@?$output_processor@DV?$string_output_adapter@D@__crt_stdio_output@@V?$positional_parameter_base@DV?$string_output_adapter@D@__crt_stdio_output@@@2@@__crt_stdio_output@@AEAA_NQEAH@Z 000000018015b934 f i libucrt:output.obj
 0001:0015a9d8       ?parse_int_from_format_string@?$output_processor@DV?$string_output_adapter@D@__crt_stdio_output@@V?$standard_base@DV?$string_output_adapter@D@__crt_stdio_output@@@2@@__crt_stdio_output@@AEAA_NQEAH@Z 000000018015b9d8 f i libucrt:output.obj
 0001:0015aa7c       ?parse_int_from_format_string@?$output_processor@_WV?$stream_output_adapter@_W@__crt_stdio_output@@V?$format_validation_base@_WV?$stream_output_adapter@_W@__crt_stdio_output@@@2@@__crt_stdio_output@@AEAA_NQEAH@Z 000000018015ba7c f i libucrt:output.obj
 0001:0015ab20       ?parse_int_from_format_string@?$output_processor@_WV?$stream_output_adapter@_W@__crt_stdio_output@@V?$positional_parameter_base@_WV?$stream_output_adapter@_W@__crt_stdio_output@@@2@@__crt_stdio_output@@AEAA_NQEAH@Z 000000018015bb20 f i libucrt:output.obj
 0001:0015abc4       ?parse_int_from_format_string@?$output_processor@_WV?$stream_output_adapter@_W@__crt_stdio_output@@V?$standard_base@_WV?$stream_output_adapter@_W@__crt_stdio_output@@@2@@__crt_stdio_output@@AEAA_NQEAH@Z 000000018015bbc4 f i libucrt:output.obj
 0001:0015ac68       ?parse_int_from_format_string@?$output_processor@_WV?$string_output_adapter@_W@__crt_stdio_output@@V?$format_validation_base@_WV?$string_output_adapter@_W@__crt_stdio_output@@@2@@__crt_stdio_output@@AEAA_NQEAH@Z 000000018015bc68 f i libucrt:output.obj
 0001:0015ad0c       ?parse_int_from_format_string@?$output_processor@_WV?$string_output_adapter@_W@__crt_stdio_output@@V?$positional_parameter_base@_WV?$string_output_adapter@_W@__crt_stdio_output@@@2@@__crt_stdio_output@@AEAA_NQEAH@Z 000000018015bd0c f i libucrt:output.obj
 0001:0015adb0       ?parse_int_from_format_string@?$output_processor@_WV?$string_output_adapter@_W@__crt_stdio_output@@V?$standard_base@_WV?$string_output_adapter@_W@__crt_stdio_output@@@2@@__crt_stdio_output@@AEAA_NQEAH@Z 000000018015bdb0 f i libucrt:output.obj
 0001:0015ae54       ?process@?$output_processor@DV?$stream_output_adapter@D@__crt_stdio_output@@V?$format_validation_base@DV?$stream_output_adapter@D@__crt_stdio_output@@@2@@__crt_stdio_output@@QEAAHXZ 000000018015be54 f i libucrt:output.obj
 0001:0015b078       ?process@?$output_processor@DV?$stream_output_adapter@D@__crt_stdio_output@@V?$positional_parameter_base@DV?$stream_output_adapter@D@__crt_stdio_output@@@2@@__crt_stdio_output@@QEAAHXZ 000000018015c078 f i libucrt:output.obj
 0001:0015b31c       ?process@?$output_processor@DV?$stream_output_adapter@D@__crt_stdio_output@@V?$standard_base@DV?$stream_output_adapter@D@__crt_stdio_output@@@2@@__crt_stdio_output@@QEAAHXZ 000000018015c31c f i libucrt:output.obj
 0001:0015b530       ?process@?$output_processor@DV?$string_output_adapter@D@__crt_stdio_output@@V?$format_validation_base@DV?$string_output_adapter@D@__crt_stdio_output@@@2@@__crt_stdio_output@@QEAAHXZ 000000018015c530 f i libucrt:output.obj
 0001:0015b744       ?process@?$output_processor@DV?$string_output_adapter@D@__crt_stdio_output@@V?$positional_parameter_base@DV?$string_output_adapter@D@__crt_stdio_output@@@2@@__crt_stdio_output@@QEAAHXZ 000000018015c744 f i libucrt:output.obj
 0001:0015b9d8       ?process@?$output_processor@DV?$string_output_adapter@D@__crt_stdio_output@@V?$standard_base@DV?$string_output_adapter@D@__crt_stdio_output@@@2@@__crt_stdio_output@@QEAAHXZ 000000018015c9d8 f i libucrt:output.obj
 0001:0015bbe0       ?process@?$output_processor@_WV?$stream_output_adapter@_W@__crt_stdio_output@@V?$format_validation_base@_WV?$stream_output_adapter@_W@__crt_stdio_output@@@2@@__crt_stdio_output@@QEAAHXZ 000000018015cbe0 f i libucrt:output.obj
 0001:0015be64       ?process@?$output_processor@_WV?$stream_output_adapter@_W@__crt_stdio_output@@V?$positional_parameter_base@_WV?$stream_output_adapter@_W@__crt_stdio_output@@@2@@__crt_stdio_output@@QEAAHXZ 000000018015ce64 f i libucrt:output.obj
 0001:0015c120       ?process@?$output_processor@_WV?$stream_output_adapter@_W@__crt_stdio_output@@V?$standard_base@_WV?$stream_output_adapter@_W@__crt_stdio_output@@@2@@__crt_stdio_output@@QEAAHXZ 000000018015d120 f i libucrt:output.obj
 0001:0015c398       ?process@?$output_processor@_WV?$string_output_adapter@_W@__crt_stdio_output@@V?$format_validation_base@_WV?$string_output_adapter@_W@__crt_stdio_output@@@2@@__crt_stdio_output@@QEAAHXZ 000000018015d398 f i libucrt:output.obj
 0001:0015c610       ?process@?$output_processor@_WV?$string_output_adapter@_W@__crt_stdio_output@@V?$positional_parameter_base@_WV?$string_output_adapter@_W@__crt_stdio_output@@@2@@__crt_stdio_output@@QEAAHXZ 000000018015d610 f i libucrt:output.obj
 0001:0015c8cc       ?process@?$output_processor@_WV?$string_output_adapter@_W@__crt_stdio_output@@V?$standard_base@_WV?$string_output_adapter@_W@__crt_stdio_output@@@2@@__crt_stdio_output@@QEAAHXZ 000000018015d8cc f i libucrt:output.obj
 0001:0015cb38       ?public_stream@__crt_stdio_stream@@QEBAPEAU_iobuf@@XZ 000000018015db38 f i libucrt:output.obj
 0001:0015cb3c       ?set_flag@?$output_processor@DV?$stream_output_adapter@D@__crt_stdio_output@@V?$format_validation_base@DV?$stream_output_adapter@D@__crt_stdio_output@@@2@@__crt_stdio_output@@AEAAXI@Z 000000018015db3c f i libucrt:output.obj
 0001:0015cb40       ?set_flag@?$output_processor@DV?$stream_output_adapter@D@__crt_stdio_output@@V?$positional_parameter_base@DV?$stream_output_adapter@D@__crt_stdio_output@@@2@@__crt_stdio_output@@AEAAXI@Z 000000018015db40 f i libucrt:output.obj
 0001:0015cb44       ?set_flag@?$output_processor@DV?$stream_output_adapter@D@__crt_stdio_output@@V?$standard_base@DV?$stream_output_adapter@D@__crt_stdio_output@@@2@@__crt_stdio_output@@AEAAXI@Z 000000018015db44 f i libucrt:output.obj
 0001:0015cb48       ?set_flag@?$output_processor@DV?$string_output_adapter@D@__crt_stdio_output@@V?$format_validation_base@DV?$string_output_adapter@D@__crt_stdio_output@@@2@@__crt_stdio_output@@AEAAXI@Z 000000018015db48 f i libucrt:output.obj
 0001:0015cb4c       ?set_flag@?$output_processor@DV?$string_output_adapter@D@__crt_stdio_output@@V?$positional_parameter_base@DV?$string_output_adapter@D@__crt_stdio_output@@@2@@__crt_stdio_output@@AEAAXI@Z 000000018015db4c f i libucrt:output.obj
 0001:0015cb50       ?set_flag@?$output_processor@DV?$string_output_adapter@D@__crt_stdio_output@@V?$standard_base@DV?$string_output_adapter@D@__crt_stdio_output@@@2@@__crt_stdio_output@@AEAAXI@Z 000000018015db50 f i libucrt:output.obj
 0001:0015cb54       ?set_flag@?$output_processor@_WV?$stream_output_adapter@_W@__crt_stdio_output@@V?$format_validation_base@_WV?$stream_output_adapter@_W@__crt_stdio_output@@@2@@__crt_stdio_output@@AEAAXI@Z 000000018015db54 f i libucrt:output.obj
 0001:0015cb58       ?set_flag@?$output_processor@_WV?$stream_output_adapter@_W@__crt_stdio_output@@V?$positional_parameter_base@_WV?$stream_output_adapter@_W@__crt_stdio_output@@@2@@__crt_stdio_output@@AEAAXI@Z 000000018015db58 f i libucrt:output.obj
 0001:0015cb5c       ?set_flag@?$output_processor@_WV?$stream_output_adapter@_W@__crt_stdio_output@@V?$standard_base@_WV?$stream_output_adapter@_W@__crt_stdio_output@@@2@@__crt_stdio_output@@AEAAXI@Z 000000018015db5c f i libucrt:output.obj
 0001:0015cb60       ?set_flag@?$output_processor@_WV?$string_output_adapter@_W@__crt_stdio_output@@V?$format_validation_base@_WV?$string_output_adapter@_W@__crt_stdio_output@@@2@@__crt_stdio_output@@AEAAXI@Z 000000018015db60 f i libucrt:output.obj
 0001:0015cb64       ?set_flag@?$output_processor@_WV?$string_output_adapter@_W@__crt_stdio_output@@V?$positional_parameter_base@_WV?$string_output_adapter@_W@__crt_stdio_output@@@2@@__crt_stdio_output@@AEAAXI@Z 000000018015db64 f i libucrt:output.obj
 0001:0015cb68       ?set_flag@?$output_processor@_WV?$string_output_adapter@_W@__crt_stdio_output@@V?$standard_base@_WV?$string_output_adapter@_W@__crt_stdio_output@@@2@@__crt_stdio_output@@AEAAXI@Z 000000018015db68 f i libucrt:output.obj
 0001:0015cb6c       ?should_format@?$positional_parameter_base@DV?$stream_output_adapter@D@__crt_stdio_output@@@__crt_stdio_output@@IEAA_NXZ 000000018015db6c f i libucrt:output.obj
 0001:0015cb84       ?should_format@?$positional_parameter_base@DV?$string_output_adapter@D@__crt_stdio_output@@@__crt_stdio_output@@IEAA_NXZ 000000018015db84 f i libucrt:output.obj
 0001:0015cb9c       ?should_format@?$positional_parameter_base@_WV?$stream_output_adapter@_W@__crt_stdio_output@@@__crt_stdio_output@@IEAA_NXZ 000000018015db9c f i libucrt:output.obj
 0001:0015cbb4       ?should_format@?$positional_parameter_base@_WV?$string_output_adapter@_W@__crt_stdio_output@@@__crt_stdio_output@@IEAA_NXZ 000000018015dbb4 f i libucrt:output.obj
 0001:0015cbcc       ?should_format@?$standard_base@DV?$stream_output_adapter@D@__crt_stdio_output@@@__crt_stdio_output@@IEAA_NXZ 000000018015dbcc f i libucrt:output.obj
 0001:0015cbd0       ?should_format@?$standard_base@DV?$string_output_adapter@D@__crt_stdio_output@@@__crt_stdio_output@@IEAA_NXZ 000000018015dbd0 f i libucrt:output.obj
 0001:0015cbd4       ?should_format@?$standard_base@_WV?$stream_output_adapter@_W@__crt_stdio_output@@@__crt_stdio_output@@IEAA_NXZ 000000018015dbd4 f i libucrt:output.obj
 0001:0015cbd8       ?should_format@?$standard_base@_WV?$string_output_adapter@_W@__crt_stdio_output@@@__crt_stdio_output@@IEAA_NXZ 000000018015dbd8 f i libucrt:output.obj
 0001:0015cbdc       ?should_skip_normal_state_processing@?$positional_parameter_base@DV?$stream_output_adapter@D@__crt_stdio_output@@@__crt_stdio_output@@IEAA_NXZ 000000018015dbdc f i libucrt:output.obj
 0001:0015cc04       ?should_skip_normal_state_processing@?$positional_parameter_base@DV?$string_output_adapter@D@__crt_stdio_output@@@__crt_stdio_output@@IEAA_NXZ 000000018015dc04 f i libucrt:output.obj
 0001:0015cc2c       ?should_skip_normal_state_processing@?$positional_parameter_base@_WV?$stream_output_adapter@_W@__crt_stdio_output@@@__crt_stdio_output@@IEAA_NXZ 000000018015dc2c f i libucrt:output.obj
 0001:0015cc54       ?should_skip_normal_state_processing@?$positional_parameter_base@_WV?$string_output_adapter@_W@__crt_stdio_output@@@__crt_stdio_output@@IEAA_NXZ 000000018015dc54 f i libucrt:output.obj
 0001:0015cc7c       ?should_skip_normal_state_processing@?$standard_base@DV?$stream_output_adapter@D@__crt_stdio_output@@@__crt_stdio_output@@IEAA_NXZ 000000018015dc7c f i libucrt:output.obj
 0001:0015cc80       ?should_skip_normal_state_processing@?$standard_base@DV?$string_output_adapter@D@__crt_stdio_output@@@__crt_stdio_output@@IEAA_NXZ 000000018015dc80 f i libucrt:output.obj
 0001:0015cc84       ?should_skip_normal_state_processing@?$standard_base@_WV?$stream_output_adapter@_W@__crt_stdio_output@@@__crt_stdio_output@@IEAA_NXZ 000000018015dc84 f i libucrt:output.obj
 0001:0015cc88       ?should_skip_normal_state_processing@?$standard_base@_WV?$string_output_adapter@_W@__crt_stdio_output@@@__crt_stdio_output@@IEAA_NXZ 000000018015dc88 f i libucrt:output.obj
 0001:0015cc8c       ?should_skip_type_state_output@?$positional_parameter_base@DV?$stream_output_adapter@D@__crt_stdio_output@@@__crt_stdio_output@@IEBA_NXZ 000000018015dc8c f i libucrt:output.obj
 0001:0015cca8       ?should_skip_type_state_output@?$positional_parameter_base@DV?$string_output_adapter@D@__crt_stdio_output@@@__crt_stdio_output@@IEBA_NXZ 000000018015dca8 f i libucrt:output.obj
 0001:0015ccc4       ?should_skip_type_state_output@?$positional_parameter_base@_WV?$stream_output_adapter@_W@__crt_stdio_output@@@__crt_stdio_output@@IEBA_NXZ 000000018015dcc4 f i libucrt:output.obj
 0001:0015cce0       ?should_skip_type_state_output@?$positional_parameter_base@_WV?$string_output_adapter@_W@__crt_stdio_output@@@__crt_stdio_output@@IEBA_NXZ 000000018015dce0 f i libucrt:output.obj
 0001:0015ccfc       ?should_skip_type_state_output@?$standard_base@DV?$stream_output_adapter@D@__crt_stdio_output@@@__crt_stdio_output@@IEBA_NXZ 000000018015dcfc f i libucrt:output.obj
 0001:0015cd00       ?should_skip_type_state_output@?$standard_base@DV?$string_output_adapter@D@__crt_stdio_output@@@__crt_stdio_output@@IEBA_NXZ 000000018015dd00 f i libucrt:output.obj
 0001:0015cd04       ?should_skip_type_state_output@?$standard_base@_WV?$stream_output_adapter@_W@__crt_stdio_output@@@__crt_stdio_output@@IEBA_NXZ 000000018015dd04 f i libucrt:output.obj
 0001:0015cd08       ?should_skip_type_state_output@?$standard_base@_WV?$string_output_adapter@_W@__crt_stdio_output@@@__crt_stdio_output@@IEBA_NXZ 000000018015dd08 f i libucrt:output.obj
 0001:0015cd0c       ?state_case_dot@?$output_processor@DV?$stream_output_adapter@D@__crt_stdio_output@@V?$format_validation_base@DV?$stream_output_adapter@D@__crt_stdio_output@@@2@@__crt_stdio_output@@AEAA_NXZ 000000018015dd0c f i libucrt:output.obj
 0001:0015cd14       ?state_case_dot@?$output_processor@DV?$stream_output_adapter@D@__crt_stdio_output@@V?$positional_parameter_base@DV?$stream_output_adapter@D@__crt_stdio_output@@@2@@__crt_stdio_output@@AEAA_NXZ 000000018015dd14 f i libucrt:output.obj
 0001:0015cd1c       ?state_case_dot@?$output_processor@DV?$stream_output_adapter@D@__crt_stdio_output@@V?$standard_base@DV?$stream_output_adapter@D@__crt_stdio_output@@@2@@__crt_stdio_output@@AEAA_NXZ 000000018015dd1c f i libucrt:output.obj
 0001:0015cd24       ?state_case_dot@?$output_processor@DV?$string_output_adapter@D@__crt_stdio_output@@V?$format_validation_base@DV?$string_output_adapter@D@__crt_stdio_output@@@2@@__crt_stdio_output@@AEAA_NXZ 000000018015dd24 f i libucrt:output.obj
 0001:0015cd2c       ?state_case_dot@?$output_processor@DV?$string_output_adapter@D@__crt_stdio_output@@V?$positional_parameter_base@DV?$string_output_adapter@D@__crt_stdio_output@@@2@@__crt_stdio_output@@AEAA_NXZ 000000018015dd2c f i libucrt:output.obj
 0001:0015cd34       ?state_case_dot@?$output_processor@DV?$string_output_adapter@D@__crt_stdio_output@@V?$standard_base@DV?$string_output_adapter@D@__crt_stdio_output@@@2@@__crt_stdio_output@@AEAA_NXZ 000000018015dd34 f i libucrt:output.obj
 0001:0015cd3c       ?state_case_dot@?$output_processor@_WV?$stream_output_adapter@_W@__crt_stdio_output@@V?$format_validation_base@_WV?$stream_output_adapter@_W@__crt_stdio_output@@@2@@__crt_stdio_output@@AEAA_NXZ 000000018015dd3c f i libucrt:output.obj
 0001:0015cd44       ?state_case_dot@?$output_processor@_WV?$stream_output_adapter@_W@__crt_stdio_output@@V?$positional_parameter_base@_WV?$stream_output_adapter@_W@__crt_stdio_output@@@2@@__crt_stdio_output@@AEAA_NXZ 000000018015dd44 f i libucrt:output.obj
 0001:0015cd4c       ?state_case_dot@?$output_processor@_WV?$stream_output_adapter@_W@__crt_stdio_output@@V?$standard_base@_WV?$stream_output_adapter@_W@__crt_stdio_output@@@2@@__crt_stdio_output@@AEAA_NXZ 000000018015dd4c f i libucrt:output.obj
 0001:0015cd54       ?state_case_dot@?$output_processor@_WV?$string_output_adapter@_W@__crt_stdio_output@@V?$format_validation_base@_WV?$string_output_adapter@_W@__crt_stdio_output@@@2@@__crt_stdio_output@@AEAA_NXZ 000000018015dd54 f i libucrt:output.obj
 0001:0015cd5c       ?state_case_dot@?$output_processor@_WV?$string_output_adapter@_W@__crt_stdio_output@@V?$positional_parameter_base@_WV?$string_output_adapter@_W@__crt_stdio_output@@@2@@__crt_stdio_output@@AEAA_NXZ 000000018015dd5c f i libucrt:output.obj
 0001:0015cd64       ?state_case_dot@?$output_processor@_WV?$string_output_adapter@_W@__crt_stdio_output@@V?$standard_base@_WV?$string_output_adapter@_W@__crt_stdio_output@@@2@@__crt_stdio_output@@AEAA_NXZ 000000018015dd64 f i libucrt:output.obj
 0001:0015cd6c       ?state_case_flag@?$output_processor@DV?$stream_output_adapter@D@__crt_stdio_output@@V?$format_validation_base@DV?$stream_output_adapter@D@__crt_stdio_output@@@2@@__crt_stdio_output@@AEAA_NXZ 000000018015dd6c f i libucrt:output.obj
 0001:0015cda4       ?state_case_flag@?$output_processor@DV?$stream_output_adapter@D@__crt_stdio_output@@V?$positional_parameter_base@DV?$stream_output_adapter@D@__crt_stdio_output@@@2@@__crt_stdio_output@@AEAA_NXZ 000000018015dda4 f i libucrt:output.obj
 0001:0015cddc       ?state_case_flag@?$output_processor@DV?$stream_output_adapter@D@__crt_stdio_output@@V?$standard_base@DV?$stream_output_adapter@D@__crt_stdio_output@@@2@@__crt_stdio_output@@AEAA_NXZ 000000018015dddc f i libucrt:output.obj
 0001:0015ce14       ?state_case_flag@?$output_processor@DV?$string_output_adapter@D@__crt_stdio_output@@V?$format_validation_base@DV?$string_output_adapter@D@__crt_stdio_output@@@2@@__crt_stdio_output@@AEAA_NXZ 000000018015de14 f i libucrt:output.obj
 0001:0015ce4c       ?state_case_flag@?$output_processor@DV?$string_output_adapter@D@__crt_stdio_output@@V?$positional_parameter_base@DV?$string_output_adapter@D@__crt_stdio_output@@@2@@__crt_stdio_output@@AEAA_NXZ 000000018015de4c f i libucrt:output.obj
 0001:0015ce84       ?state_case_flag@?$output_processor@DV?$string_output_adapter@D@__crt_stdio_output@@V?$standard_base@DV?$string_output_adapter@D@__crt_stdio_output@@@2@@__crt_stdio_output@@AEAA_NXZ 000000018015de84 f i libucrt:output.obj
 0001:0015cebc       ?state_case_flag@?$output_processor@_WV?$stream_output_adapter@_W@__crt_stdio_output@@V?$format_validation_base@_WV?$stream_output_adapter@_W@__crt_stdio_output@@@2@@__crt_stdio_output@@AEAA_NXZ 000000018015debc f i libucrt:output.obj
 0001:0015cf00       ?state_case_flag@?$output_processor@_WV?$stream_output_adapter@_W@__crt_stdio_output@@V?$positional_parameter_base@_WV?$stream_output_adapter@_W@__crt_stdio_output@@@2@@__crt_stdio_output@@AEAA_NXZ 000000018015df00 f i libucrt:output.obj
 0001:0015cf44       ?state_case_flag@?$output_processor@_WV?$stream_output_adapter@_W@__crt_stdio_output@@V?$standard_base@_WV?$stream_output_adapter@_W@__crt_stdio_output@@@2@@__crt_stdio_output@@AEAA_NXZ 000000018015df44 f i libucrt:output.obj
 0001:0015cf88       ?state_case_flag@?$output_processor@_WV?$string_output_adapter@_W@__crt_stdio_output@@V?$format_validation_base@_WV?$string_output_adapter@_W@__crt_stdio_output@@@2@@__crt_stdio_output@@AEAA_NXZ 000000018015df88 f i libucrt:output.obj
 0001:0015cfcc       ?state_case_flag@?$output_processor@_WV?$string_output_adapter@_W@__crt_stdio_output@@V?$positional_parameter_base@_WV?$string_output_adapter@_W@__crt_stdio_output@@@2@@__crt_stdio_output@@AEAA_NXZ 000000018015dfcc f i libucrt:output.obj
 0001:0015d010       ?state_case_flag@?$output_processor@_WV?$string_output_adapter@_W@__crt_stdio_output@@V?$standard_base@_WV?$string_output_adapter@_W@__crt_stdio_output@@@2@@__crt_stdio_output@@AEAA_NXZ 000000018015e010 f i libucrt:output.obj
 0001:0015d054       ?state_case_normal@?$output_processor@DV?$stream_output_adapter@D@__crt_stdio_output@@V?$format_validation_base@DV?$stream_output_adapter@D@__crt_stdio_output@@@2@@__crt_stdio_output@@AEAA_NXZ 000000018015e054 f i libucrt:output.obj
 0001:0015d0c4       ?state_case_normal@?$output_processor@DV?$stream_output_adapter@D@__crt_stdio_output@@V?$positional_parameter_base@DV?$stream_output_adapter@D@__crt_stdio_output@@@2@@__crt_stdio_output@@AEAA_NXZ 000000018015e0c4 f i libucrt:output.obj
 0001:0015d158       ?state_case_normal@?$output_processor@DV?$stream_output_adapter@D@__crt_stdio_output@@V?$standard_base@DV?$stream_output_adapter@D@__crt_stdio_output@@@2@@__crt_stdio_output@@AEAA_NXZ 000000018015e158 f i libucrt:output.obj
 0001:0015d1c8       ?state_case_normal@?$output_processor@DV?$string_output_adapter@D@__crt_stdio_output@@V?$format_validation_base@DV?$string_output_adapter@D@__crt_stdio_output@@@2@@__crt_stdio_output@@AEAA_NXZ 000000018015e1c8 f i libucrt:output.obj
 0001:0015d23c       ?state_case_normal@?$output_processor@DV?$string_output_adapter@D@__crt_stdio_output@@V?$positional_parameter_base@DV?$string_output_adapter@D@__crt_stdio_output@@@2@@__crt_stdio_output@@AEAA_NXZ 000000018015e23c f i libucrt:output.obj
 0001:0015d2d4       ?state_case_normal@?$output_processor@DV?$string_output_adapter@D@__crt_stdio_output@@V?$standard_base@DV?$string_output_adapter@D@__crt_stdio_output@@@2@@__crt_stdio_output@@AEAA_NXZ 000000018015e2d4 f i libucrt:output.obj
 0001:0015d348       ?state_case_normal@?$output_processor@_WV?$stream_output_adapter@_W@__crt_stdio_output@@V?$format_validation_base@_WV?$stream_output_adapter@_W@__crt_stdio_output@@@2@@__crt_stdio_output@@AEAA_NXZ 000000018015e348 f i libucrt:output.obj
 0001:0015d3a0       ?state_case_normal@?$output_processor@_WV?$stream_output_adapter@_W@__crt_stdio_output@@V?$positional_parameter_base@_WV?$stream_output_adapter@_W@__crt_stdio_output@@@2@@__crt_stdio_output@@AEAA_NXZ 000000018015e3a0 f i libucrt:output.obj
 0001:0015d41c       ?state_case_normal@?$output_processor@_WV?$stream_output_adapter@_W@__crt_stdio_output@@V?$standard_base@_WV?$stream_output_adapter@_W@__crt_stdio_output@@@2@@__crt_stdio_output@@AEAA_NXZ 000000018015e41c f i libucrt:output.obj
 0001:0015d474       ?state_case_normal@?$output_processor@_WV?$string_output_adapter@_W@__crt_stdio_output@@V?$format_validation_base@_WV?$string_output_adapter@_W@__crt_stdio_output@@@2@@__crt_stdio_output@@AEAA_NXZ 000000018015e474 f i libucrt:output.obj
 0001:0015d4c8       ?state_case_normal@?$output_processor@_WV?$string_output_adapter@_W@__crt_stdio_output@@V?$positional_parameter_base@_WV?$string_output_adapter@_W@__crt_stdio_output@@@2@@__crt_stdio_output@@AEAA_NXZ 000000018015e4c8 f i libucrt:output.obj
 0001:0015d540       ?state_case_normal@?$output_processor@_WV?$string_output_adapter@_W@__crt_stdio_output@@V?$standard_base@_WV?$string_output_adapter@_W@__crt_stdio_output@@@2@@__crt_stdio_output@@AEAA_NXZ 000000018015e540 f i libucrt:output.obj
 0001:0015d594       ?state_case_normal_common@?$output_processor@DV?$stream_output_adapter@D@__crt_stdio_output@@V?$format_validation_base@DV?$stream_output_adapter@D@__crt_stdio_output@@@2@@__crt_stdio_output@@AEAA_NXZ 000000018015e594 f i libucrt:output.obj
 0001:0015d5f0       ?state_case_normal_common@?$output_processor@DV?$stream_output_adapter@D@__crt_stdio_output@@V?$positional_parameter_base@DV?$stream_output_adapter@D@__crt_stdio_output@@@2@@__crt_stdio_output@@AEAA_NXZ 000000018015e5f0 f i libucrt:output.obj
 0001:0015d64c       ?state_case_normal_common@?$output_processor@DV?$stream_output_adapter@D@__crt_stdio_output@@V?$standard_base@DV?$stream_output_adapter@D@__crt_stdio_output@@@2@@__crt_stdio_output@@AEAA_NXZ 000000018015e64c f i libucrt:output.obj
 0001:0015d6a8       ?state_case_normal_common@?$output_processor@DV?$string_output_adapter@D@__crt_stdio_output@@V?$format_validation_base@DV?$string_output_adapter@D@__crt_stdio_output@@@2@@__crt_stdio_output@@AEAA_NXZ 000000018015e6a8 f i libucrt:output.obj
 0001:0015d708       ?state_case_normal_common@?$output_processor@DV?$string_output_adapter@D@__crt_stdio_output@@V?$positional_parameter_base@DV?$string_output_adapter@D@__crt_stdio_output@@@2@@__crt_stdio_output@@AEAA_NXZ 000000018015e708 f i libucrt:output.obj
 0001:0015d768       ?state_case_normal_common@?$output_processor@DV?$string_output_adapter@D@__crt_stdio_output@@V?$standard_base@DV?$string_output_adapter@D@__crt_stdio_output@@@2@@__crt_stdio_output@@AEAA_NXZ 000000018015e768 f i libucrt:output.obj
 0001:0015d7c8       ?state_case_normal_common@?$output_processor@_WV?$stream_output_adapter@_W@__crt_stdio_output@@V?$format_validation_base@_WV?$stream_output_adapter@_W@__crt_stdio_output@@@2@@__crt_stdio_output@@AEAA_NXZ 000000018015e7c8 f i libucrt:output.obj
 0001:0015d820       ?state_case_normal_common@?$output_processor@_WV?$stream_output_adapter@_W@__crt_stdio_output@@V?$positional_parameter_base@_WV?$stream_output_adapter@_W@__crt_stdio_output@@@2@@__crt_stdio_output@@AEAA_NXZ 000000018015e820 f i libucrt:output.obj
 0001:0015d878       ?state_case_normal_common@?$output_processor@_WV?$stream_output_adapter@_W@__crt_stdio_output@@V?$standard_base@_WV?$stream_output_adapter@_W@__crt_stdio_output@@@2@@__crt_stdio_output@@AEAA_NXZ 000000018015e878 f i libucrt:output.obj
 0001:0015d8d0       ?state_case_normal_common@?$output_processor@_WV?$string_output_adapter@_W@__crt_stdio_output@@V?$format_validation_base@_WV?$string_output_adapter@_W@__crt_stdio_output@@@2@@__crt_stdio_output@@AEAA_NXZ 000000018015e8d0 f i libucrt:output.obj
 0001:0015d924       ?state_case_normal_common@?$output_processor@_WV?$string_output_adapter@_W@__crt_stdio_output@@V?$positional_parameter_base@_WV?$string_output_adapter@_W@__crt_stdio_output@@@2@@__crt_stdio_output@@AEAA_NXZ 000000018015e924 f i libucrt:output.obj
 0001:0015d978       ?state_case_normal_common@?$output_processor@_WV?$string_output_adapter@_W@__crt_stdio_output@@V?$standard_base@_WV?$string_output_adapter@_W@__crt_stdio_output@@@2@@__crt_stdio_output@@AEAA_NXZ 000000018015e978 f i libucrt:output.obj
 0001:0015d9cc       ?state_case_normal_tchar@?$output_processor@DV?$stream_output_adapter@D@__crt_stdio_output@@V?$format_validation_base@DV?$stream_output_adapter@D@__crt_stdio_output@@@2@@__crt_stdio_output@@AEAA_ND@Z 000000018015e9cc f i libucrt:output.obj
 0001:0015da70       ?state_case_normal_tchar@?$output_processor@DV?$stream_output_adapter@D@__crt_stdio_output@@V?$positional_parameter_base@DV?$stream_output_adapter@D@__crt_stdio_output@@@2@@__crt_stdio_output@@AEAA_ND@Z 000000018015ea70 f i libucrt:output.obj
 0001:0015db14       ?state_case_normal_tchar@?$output_processor@DV?$stream_output_adapter@D@__crt_stdio_output@@V?$standard_base@DV?$stream_output_adapter@D@__crt_stdio_output@@@2@@__crt_stdio_output@@AEAA_ND@Z 000000018015eb14 f i libucrt:output.obj
 0001:0015dbb8       ?state_case_normal_tchar@?$output_processor@DV?$string_output_adapter@D@__crt_stdio_output@@V?$format_validation_base@DV?$string_output_adapter@D@__crt_stdio_output@@@2@@__crt_stdio_output@@AEAA_ND@Z 000000018015ebb8 f i libucrt:output.obj
 0001:0015dc60       ?state_case_normal_tchar@?$output_processor@DV?$string_output_adapter@D@__crt_stdio_output@@V?$positional_parameter_base@DV?$string_output_adapter@D@__crt_stdio_output@@@2@@__crt_stdio_output@@AEAA_ND@Z 000000018015ec60 f i libucrt:output.obj
 0001:0015dd08       ?state_case_normal_tchar@?$output_processor@DV?$string_output_adapter@D@__crt_stdio_output@@V?$standard_base@DV?$string_output_adapter@D@__crt_stdio_output@@@2@@__crt_stdio_output@@AEAA_ND@Z 000000018015ed08 f i libucrt:output.obj
 0001:0015ddb0       ?state_case_normal_tchar@?$output_processor@_WV?$stream_output_adapter@_W@__crt_stdio_output@@V?$format_validation_base@_WV?$stream_output_adapter@_W@__crt_stdio_output@@@2@@__crt_stdio_output@@AEAA_N_W@Z 000000018015edb0 f i libucrt:output.obj
 0001:0015ddb8       ?state_case_normal_tchar@?$output_processor@_WV?$stream_output_adapter@_W@__crt_stdio_output@@V?$positional_parameter_base@_WV?$stream_output_adapter@_W@__crt_stdio_output@@@2@@__crt_stdio_output@@AEAA_N_W@Z 000000018015edb8 f i libucrt:output.obj
 0001:0015ddc0       ?state_case_normal_tchar@?$output_processor@_WV?$stream_output_adapter@_W@__crt_stdio_output@@V?$standard_base@_WV?$stream_output_adapter@_W@__crt_stdio_output@@@2@@__crt_stdio_output@@AEAA_N_W@Z 000000018015edc0 f i libucrt:output.obj
 0001:0015ddc8       ?state_case_normal_tchar@?$output_processor@_WV?$string_output_adapter@_W@__crt_stdio_output@@V?$format_validation_base@_WV?$string_output_adapter@_W@__crt_stdio_output@@@2@@__crt_stdio_output@@AEAA_N_W@Z 000000018015edc8 f i libucrt:output.obj
 0001:0015ddd0       ?state_case_normal_tchar@?$output_processor@_WV?$string_output_adapter@_W@__crt_stdio_output@@V?$positional_parameter_base@_WV?$string_output_adapter@_W@__crt_stdio_output@@@2@@__crt_stdio_output@@AEAA_N_W@Z 000000018015edd0 f i libucrt:output.obj
 0001:0015ddd8       ?state_case_normal_tchar@?$output_processor@_WV?$string_output_adapter@_W@__crt_stdio_output@@V?$standard_base@_WV?$string_output_adapter@_W@__crt_stdio_output@@@2@@__crt_stdio_output@@AEAA_N_W@Z 000000018015edd8 f i libucrt:output.obj
 0001:0015dde0       ?state_case_percent@?$output_processor@DV?$stream_output_adapter@D@__crt_stdio_output@@V?$format_validation_base@DV?$stream_output_adapter@D@__crt_stdio_output@@@2@@__crt_stdio_output@@AEAA_NXZ 000000018015ede0 f i libucrt:output.obj
 0001:0015ddf8       ?state_case_percent@?$output_processor@DV?$stream_output_adapter@D@__crt_stdio_output@@V?$positional_parameter_base@DV?$stream_output_adapter@D@__crt_stdio_output@@@2@@__crt_stdio_output@@AEAA_NXZ 000000018015edf8 f i libucrt:output.obj
 0001:0015de10       ?state_case_percent@?$output_processor@DV?$stream_output_adapter@D@__crt_stdio_output@@V?$standard_base@DV?$stream_output_adapter@D@__crt_stdio_output@@@2@@__crt_stdio_output@@AEAA_NXZ 000000018015ee10 f i libucrt:output.obj
 0001:0015de28       ?state_case_percent@?$output_processor@DV?$string_output_adapter@D@__crt_stdio_output@@V?$format_validation_base@DV?$string_output_adapter@D@__crt_stdio_output@@@2@@__crt_stdio_output@@AEAA_NXZ 000000018015ee28 f i libucrt:output.obj
 0001:0015de40       ?state_case_percent@?$output_processor@DV?$string_output_adapter@D@__crt_stdio_output@@V?$positional_parameter_base@DV?$string_output_adapter@D@__crt_stdio_output@@@2@@__crt_stdio_output@@AEAA_NXZ 000000018015ee40 f i libucrt:output.obj
 0001:0015de58       ?state_case_percent@?$output_processor@DV?$string_output_adapter@D@__crt_stdio_output@@V?$standard_base@DV?$string_output_adapter@D@__crt_stdio_output@@@2@@__crt_stdio_output@@AEAA_NXZ 000000018015ee58 f i libucrt:output.obj
 0001:0015de70       ?state_case_percent@?$output_processor@_WV?$stream_output_adapter@_W@__crt_stdio_output@@V?$format_validation_base@_WV?$stream_output_adapter@_W@__crt_stdio_output@@@2@@__crt_stdio_output@@AEAA_NXZ 000000018015ee70 f i libucrt:output.obj
 0001:0015de88       ?state_case_percent@?$output_processor@_WV?$stream_output_adapter@_W@__crt_stdio_output@@V?$positional_parameter_base@_WV?$stream_output_adapter@_W@__crt_stdio_output@@@2@@__crt_stdio_output@@AEAA_NXZ 000000018015ee88 f i libucrt:output.obj
 0001:0015dea0       ?state_case_percent@?$output_processor@_WV?$stream_output_adapter@_W@__crt_stdio_output@@V?$standard_base@_WV?$stream_output_adapter@_W@__crt_stdio_output@@@2@@__crt_stdio_output@@AEAA_NXZ 000000018015eea0 f i libucrt:output.obj
 0001:0015deb8       ?state_case_percent@?$output_processor@_WV?$string_output_adapter@_W@__crt_stdio_output@@V?$format_validation_base@_WV?$string_output_adapter@_W@__crt_stdio_output@@@2@@__crt_stdio_output@@AEAA_NXZ 000000018015eeb8 f i libucrt:output.obj
 0001:0015ded0       ?state_case_percent@?$output_processor@_WV?$string_output_adapter@_W@__crt_stdio_output@@V?$positional_parameter_base@_WV?$string_output_adapter@_W@__crt_stdio_output@@@2@@__crt_stdio_output@@AEAA_NXZ 000000018015eed0 f i libucrt:output.obj
 0001:0015dee8       ?state_case_percent@?$output_processor@_WV?$string_output_adapter@_W@__crt_stdio_output@@V?$standard_base@_WV?$string_output_adapter@_W@__crt_stdio_output@@@2@@__crt_stdio_output@@AEAA_NXZ 000000018015eee8 f i libucrt:output.obj
 0001:0015df00       ?state_case_precision@?$output_processor@DV?$stream_output_adapter@D@__crt_stdio_output@@V?$format_validation_base@DV?$stream_output_adapter@D@__crt_stdio_output@@@2@@__crt_stdio_output@@AEAA_NXZ 000000018015ef00 f i libucrt:output.obj
 0001:0015df28       ?state_case_precision@?$output_processor@DV?$stream_output_adapter@D@__crt_stdio_output@@V?$positional_parameter_base@DV?$stream_output_adapter@D@__crt_stdio_output@@@2@@__crt_stdio_output@@AEAA_NXZ 000000018015ef28 f i libucrt:output.obj
 0001:0015df74       ?state_case_precision@?$output_processor@DV?$stream_output_adapter@D@__crt_stdio_output@@V?$standard_base@DV?$stream_output_adapter@D@__crt_stdio_output@@@2@@__crt_stdio_output@@AEAA_NXZ 000000018015ef74 f i libucrt:output.obj
 0001:0015df9c       ?state_case_precision@?$output_processor@DV?$string_output_adapter@D@__crt_stdio_output@@V?$format_validation_base@DV?$string_output_adapter@D@__crt_stdio_output@@@2@@__crt_stdio_output@@AEAA_NXZ 000000018015ef9c f i libucrt:output.obj
 0001:0015dfc4       ?state_case_precision@?$output_processor@DV?$string_output_adapter@D@__crt_stdio_output@@V?$positional_parameter_base@DV?$string_output_adapter@D@__crt_stdio_output@@@2@@__crt_stdio_output@@AEAA_NXZ 000000018015efc4 f i libucrt:output.obj
 0001:0015e010       ?state_case_precision@?$output_processor@DV?$string_output_adapter@D@__crt_stdio_output@@V?$standard_base@DV?$string_output_adapter@D@__crt_stdio_output@@@2@@__crt_stdio_output@@AEAA_NXZ 000000018015f010 f i libucrt:output.obj
 0001:0015e038       ?state_case_precision@?$output_processor@_WV?$stream_output_adapter@_W@__crt_stdio_output@@V?$format_validation_base@_WV?$stream_output_adapter@_W@__crt_stdio_output@@@2@@__crt_stdio_output@@AEAA_NXZ 000000018015f038 f i libucrt:output.obj
 0001:0015e060       ?state_case_precision@?$output_processor@_WV?$stream_output_adapter@_W@__crt_stdio_output@@V?$positional_parameter_base@_WV?$stream_output_adapter@_W@__crt_stdio_output@@@2@@__crt_stdio_output@@AEAA_NXZ 000000018015f060 f i libucrt:output.obj
 0001:0015e0ac       ?state_case_precision@?$output_processor@_WV?$stream_output_adapter@_W@__crt_stdio_output@@V?$standard_base@_WV?$stream_output_adapter@_W@__crt_stdio_output@@@2@@__crt_stdio_output@@AEAA_NXZ 000000018015f0ac f i libucrt:output.obj
 0001:0015e0d4       ?state_case_precision@?$output_processor@_WV?$string_output_adapter@_W@__crt_stdio_output@@V?$format_validation_base@_WV?$string_output_adapter@_W@__crt_stdio_output@@@2@@__crt_stdio_output@@AEAA_NXZ 000000018015f0d4 f i libucrt:output.obj
 0001:0015e0fc       ?state_case_precision@?$output_processor@_WV?$string_output_adapter@_W@__crt_stdio_output@@V?$positional_parameter_base@_WV?$string_output_adapter@_W@__crt_stdio_output@@@2@@__crt_stdio_output@@AEAA_NXZ 000000018015f0fc f i libucrt:output.obj
 0001:0015e148       ?state_case_precision@?$output_processor@_WV?$string_output_adapter@_W@__crt_stdio_output@@V?$standard_base@_WV?$string_output_adapter@_W@__crt_stdio_output@@@2@@__crt_stdio_output@@AEAA_NXZ 000000018015f148 f i libucrt:output.obj
 0001:0015e170       ?state_case_size@?$output_processor@DV?$stream_output_adapter@D@__crt_stdio_output@@V?$format_validation_base@DV?$stream_output_adapter@D@__crt_stdio_output@@@2@@__crt_stdio_output@@AEAA_NXZ 000000018015f170 f i libucrt:output.obj
 0001:0015e2e0       ?state_case_size@?$output_processor@DV?$stream_output_adapter@D@__crt_stdio_output@@V?$positional_parameter_base@DV?$stream_output_adapter@D@__crt_stdio_output@@@2@@__crt_stdio_output@@AEAA_NXZ 000000018015f2e0 f i libucrt:output.obj
 0001:0015e450       ?state_case_size@?$output_processor@DV?$stream_output_adapter@D@__crt_stdio_output@@V?$standard_base@DV?$stream_output_adapter@D@__crt_stdio_output@@@2@@__crt_stdio_output@@AEAA_NXZ 000000018015f450 f i libucrt:output.obj
 0001:0015e5c0       ?state_case_size@?$output_processor@DV?$string_output_adapter@D@__crt_stdio_output@@V?$format_validation_base@DV?$string_output_adapter@D@__crt_stdio_output@@@2@@__crt_stdio_output@@AEAA_NXZ 000000018015f5c0 f i libucrt:output.obj
 0001:0015e730       ?state_case_size@?$output_processor@DV?$string_output_adapter@D@__crt_stdio_output@@V?$positional_parameter_base@DV?$string_output_adapter@D@__crt_stdio_output@@@2@@__crt_stdio_output@@AEAA_NXZ 000000018015f730 f i libucrt:output.obj
 0001:0015e8a0       ?state_case_size@?$output_processor@DV?$string_output_adapter@D@__crt_stdio_output@@V?$standard_base@DV?$string_output_adapter@D@__crt_stdio_output@@@2@@__crt_stdio_output@@AEAA_NXZ 000000018015f8a0 f i libucrt:output.obj
 0001:0015ea10       ?state_case_size@?$output_processor@_WV?$stream_output_adapter@_W@__crt_stdio_output@@V?$format_validation_base@_WV?$stream_output_adapter@_W@__crt_stdio_output@@@2@@__crt_stdio_output@@AEAA_NXZ 000000018015fa10 f i libucrt:output.obj
 0001:0015eba4       ?state_case_size@?$output_processor@_WV?$stream_output_adapter@_W@__crt_stdio_output@@V?$positional_parameter_base@_WV?$stream_output_adapter@_W@__crt_stdio_output@@@2@@__crt_stdio_output@@AEAA_NXZ 000000018015fba4 f i libucrt:output.obj
 0001:0015ed38       ?state_case_size@?$output_processor@_WV?$stream_output_adapter@_W@__crt_stdio_output@@V?$standard_base@_WV?$stream_output_adapter@_W@__crt_stdio_output@@@2@@__crt_stdio_output@@AEAA_NXZ 000000018015fd38 f i libucrt:output.obj
 0001:0015eecc       ?state_case_size@?$output_processor@_WV?$string_output_adapter@_W@__crt_stdio_output@@V?$format_validation_base@_WV?$string_output_adapter@_W@__crt_stdio_output@@@2@@__crt_stdio_output@@AEAA_NXZ 000000018015fecc f i libucrt:output.obj
 0001:0015f060       ?state_case_size@?$output_processor@_WV?$string_output_adapter@_W@__crt_stdio_output@@V?$positional_parameter_base@_WV?$string_output_adapter@_W@__crt_stdio_output@@@2@@__crt_stdio_output@@AEAA_NXZ 0000000180160060 f i libucrt:output.obj
 0001:0015f1f4       ?state_case_size@?$output_processor@_WV?$string_output_adapter@_W@__crt_stdio_output@@V?$standard_base@_WV?$string_output_adapter@_W@__crt_stdio_output@@@2@@__crt_stdio_output@@AEAA_NXZ 00000001801601f4 f i libucrt:output.obj
 0001:0015f388       ?state_case_type@?$output_processor@DV?$stream_output_adapter@D@__crt_stdio_output@@V?$format_validation_base@DV?$stream_output_adapter@D@__crt_stdio_output@@@2@@__crt_stdio_output@@AEAA_NXZ 0000000180160388 f i libucrt:output.obj
 0001:0015f60c       ?state_case_type@?$output_processor@DV?$stream_output_adapter@D@__crt_stdio_output@@V?$positional_parameter_base@DV?$stream_output_adapter@D@__crt_stdio_output@@@2@@__crt_stdio_output@@AEAA_NXZ 000000018016060c f i libucrt:output.obj
 0001:0015f8a8       ?state_case_type@?$output_processor@DV?$stream_output_adapter@D@__crt_stdio_output@@V?$standard_base@DV?$stream_output_adapter@D@__crt_stdio_output@@@2@@__crt_stdio_output@@AEAA_NXZ 00000001801608a8 f i libucrt:output.obj
 0001:0015fb2c       ?state_case_type@?$output_processor@DV?$string_output_adapter@D@__crt_stdio_output@@V?$format_validation_base@DV?$string_output_adapter@D@__crt_stdio_output@@@2@@__crt_stdio_output@@AEAA_NXZ 0000000180160b2c f i libucrt:output.obj
 0001:0015fd94       ?state_case_type@?$output_processor@DV?$string_output_adapter@D@__crt_stdio_output@@V?$positional_parameter_base@DV?$string_output_adapter@D@__crt_stdio_output@@@2@@__crt_stdio_output@@AEAA_NXZ 0000000180160d94 f i libucrt:output.obj
 0001:00160010       ?state_case_type@?$output_processor@DV?$string_output_adapter@D@__crt_stdio_output@@V?$standard_base@DV?$string_output_adapter@D@__crt_stdio_output@@@2@@__crt_stdio_output@@AEAA_NXZ 0000000180161010 f i libucrt:output.obj
 0001:00160278       ?state_case_type@?$output_processor@_WV?$stream_output_adapter@_W@__crt_stdio_output@@V?$format_validation_base@_WV?$stream_output_adapter@_W@__crt_stdio_output@@@2@@__crt_stdio_output@@AEAA_NXZ 0000000180161278 f i libucrt:output.obj
 0001:00160558       ?state_case_type@?$output_processor@_WV?$stream_output_adapter@_W@__crt_stdio_output@@V?$positional_parameter_base@_WV?$stream_output_adapter@_W@__crt_stdio_output@@@2@@__crt_stdio_output@@AEAA_NXZ 0000000180161558 f i libucrt:output.obj
 0001:0016084c       ?state_case_type@?$output_processor@_WV?$stream_output_adapter@_W@__crt_stdio_output@@V?$standard_base@_WV?$stream_output_adapter@_W@__crt_stdio_output@@@2@@__crt_stdio_output@@AEAA_NXZ 000000018016184c f i libucrt:output.obj
 0001:00160b2c       ?state_case_type@?$output_processor@_WV?$string_output_adapter@_W@__crt_stdio_output@@V?$format_validation_base@_WV?$string_output_adapter@_W@__crt_stdio_output@@@2@@__crt_stdio_output@@AEAA_NXZ 0000000180161b2c f i libucrt:output.obj
 0001:00160df8       ?state_case_type@?$output_processor@_WV?$string_output_adapter@_W@__crt_stdio_output@@V?$positional_parameter_base@_WV?$string_output_adapter@_W@__crt_stdio_output@@@2@@__crt_stdio_output@@AEAA_NXZ 0000000180161df8 f i libucrt:output.obj
 0001:001610d8       ?state_case_type@?$output_processor@_WV?$string_output_adapter@_W@__crt_stdio_output@@V?$standard_base@_WV?$string_output_adapter@_W@__crt_stdio_output@@@2@@__crt_stdio_output@@AEAA_NXZ 00000001801620d8 f i libucrt:output.obj
 0001:001613a4       ?state_case_width@?$output_processor@DV?$stream_output_adapter@D@__crt_stdio_output@@V?$format_validation_base@DV?$stream_output_adapter@D@__crt_stdio_output@@@2@@__crt_stdio_output@@AEAA_NXZ 00000001801623a4 f i libucrt:output.obj
 0001:001613d8       ?state_case_width@?$output_processor@DV?$stream_output_adapter@D@__crt_stdio_output@@V?$positional_parameter_base@DV?$stream_output_adapter@D@__crt_stdio_output@@@2@@__crt_stdio_output@@AEAA_NXZ 00000001801623d8 f i libucrt:output.obj
 0001:00161428       ?state_case_width@?$output_processor@DV?$stream_output_adapter@D@__crt_stdio_output@@V?$standard_base@DV?$stream_output_adapter@D@__crt_stdio_output@@@2@@__crt_stdio_output@@AEAA_NXZ 0000000180162428 f i libucrt:output.obj
 0001:0016145c       ?state_case_width@?$output_processor@DV?$string_output_adapter@D@__crt_stdio_output@@V?$format_validation_base@DV?$string_output_adapter@D@__crt_stdio_output@@@2@@__crt_stdio_output@@AEAA_NXZ 000000018016245c f i libucrt:output.obj
 0001:00161490       ?state_case_width@?$output_processor@DV?$string_output_adapter@D@__crt_stdio_output@@V?$positional_parameter_base@DV?$string_output_adapter@D@__crt_stdio_output@@@2@@__crt_stdio_output@@AEAA_NXZ 0000000180162490 f i libucrt:output.obj
 0001:001614e0       ?state_case_width@?$output_processor@DV?$string_output_adapter@D@__crt_stdio_output@@V?$standard_base@DV?$string_output_adapter@D@__crt_stdio_output@@@2@@__crt_stdio_output@@AEAA_NXZ 00000001801624e0 f i libucrt:output.obj
 0001:00161514       ?state_case_width@?$output_processor@_WV?$stream_output_adapter@_W@__crt_stdio_output@@V?$format_validation_base@_WV?$stream_output_adapter@_W@__crt_stdio_output@@@2@@__crt_stdio_output@@AEAA_NXZ 0000000180162514 f i libucrt:output.obj
 0001:00161548       ?state_case_width@?$output_processor@_WV?$stream_output_adapter@_W@__crt_stdio_output@@V?$positional_parameter_base@_WV?$stream_output_adapter@_W@__crt_stdio_output@@@2@@__crt_stdio_output@@AEAA_NXZ 0000000180162548 f i libucrt:output.obj
 0001:0016159c       ?state_case_width@?$output_processor@_WV?$stream_output_adapter@_W@__crt_stdio_output@@V?$standard_base@_WV?$stream_output_adapter@_W@__crt_stdio_output@@@2@@__crt_stdio_output@@AEAA_NXZ 000000018016259c f i libucrt:output.obj
 0001:001615d0       ?state_case_width@?$output_processor@_WV?$string_output_adapter@_W@__crt_stdio_output@@V?$format_validation_base@_WV?$string_output_adapter@_W@__crt_stdio_output@@@2@@__crt_stdio_output@@AEAA_NXZ 00000001801625d0 f i libucrt:output.obj
 0001:00161604       ?state_case_width@?$output_processor@_WV?$string_output_adapter@_W@__crt_stdio_output@@V?$positional_parameter_base@_WV?$string_output_adapter@_W@__crt_stdio_output@@@2@@__crt_stdio_output@@AEAA_NXZ 0000000180162604 f i libucrt:output.obj
 0001:00161658       ?state_case_width@?$output_processor@_WV?$string_output_adapter@_W@__crt_stdio_output@@V?$standard_base@_WV?$string_output_adapter@_W@__crt_stdio_output@@@2@@__crt_stdio_output@@AEAA_NXZ 0000000180162658 f i libucrt:output.obj
 0001:0016168c       ?state_count@?$format_validation_base@DV?$stream_output_adapter@D@__crt_stdio_output@@@__crt_stdio_output@@KAIXZ 000000018016268c f i libucrt:output.obj
 0001:00161694       ?state_count@?$format_validation_base@DV?$string_output_adapter@D@__crt_stdio_output@@@__crt_stdio_output@@KAIXZ 0000000180162694 f i libucrt:output.obj
 0001:0016169c       ?state_count@?$format_validation_base@_WV?$stream_output_adapter@_W@__crt_stdio_output@@@__crt_stdio_output@@KAIXZ 000000018016269c f i libucrt:output.obj
 0001:001616a4       ?state_count@?$format_validation_base@_WV?$string_output_adapter@_W@__crt_stdio_output@@@__crt_stdio_output@@KAIXZ 00000001801626a4 f i libucrt:output.obj
 0001:001616ac       ?state_count@?$standard_base@DV?$stream_output_adapter@D@__crt_stdio_output@@@__crt_stdio_output@@KAIXZ 00000001801626ac f i libucrt:output.obj
 0001:001616b4       ?state_count@?$standard_base@DV?$string_output_adapter@D@__crt_stdio_output@@@__crt_stdio_output@@KAIXZ 00000001801626b4 f i libucrt:output.obj
 0001:001616bc       ?state_count@?$standard_base@_WV?$stream_output_adapter@_W@__crt_stdio_output@@@__crt_stdio_output@@KAIXZ 00000001801626bc f i libucrt:output.obj
 0001:001616c4       ?state_count@?$standard_base@_WV?$string_output_adapter@_W@__crt_stdio_output@@@__crt_stdio_output@@KAIXZ 00000001801626c4 f i libucrt:output.obj
 0001:001616cc       ?state_transition_table@?$format_validation_base@DV?$stream_output_adapter@D@__crt_stdio_output@@@__crt_stdio_output@@KAAEBV?$spectre_mitigated_lookup_table@Ustate_transition_pair@__crt_stdio_output@@$0IA@@2@XZ 00000001801626cc f i libucrt:output.obj
 0001:001616d4       ?state_transition_table@?$format_validation_base@DV?$string_output_adapter@D@__crt_stdio_output@@@__crt_stdio_output@@KAAEBV?$spectre_mitigated_lookup_table@Ustate_transition_pair@__crt_stdio_output@@$0IA@@2@XZ 00000001801626d4 f i libucrt:output.obj
 0001:001616dc       ?state_transition_table@?$format_validation_base@_WV?$stream_output_adapter@_W@__crt_stdio_output@@@__crt_stdio_output@@KAAEBV?$spectre_mitigated_lookup_table@Ustate_transition_pair@__crt_stdio_output@@$0IA@@2@XZ 00000001801626dc f i libucrt:output.obj
 0001:001616e4       ?state_transition_table@?$format_validation_base@_WV?$string_output_adapter@_W@__crt_stdio_output@@@__crt_stdio_output@@KAAEBV?$spectre_mitigated_lookup_table@Ustate_transition_pair@__crt_stdio_output@@$0IA@@2@XZ 00000001801626e4 f i libucrt:output.obj
 0001:001616ec       ?state_transition_table@?$standard_base@DV?$stream_output_adapter@D@__crt_stdio_output@@@__crt_stdio_output@@KAAEBV?$spectre_mitigated_lookup_table@Ustate_transition_pair@__crt_stdio_output@@$0IA@@2@XZ 00000001801626ec f i libucrt:output.obj
 0001:001616f4       ?state_transition_table@?$standard_base@DV?$string_output_adapter@D@__crt_stdio_output@@@__crt_stdio_output@@KAAEBV?$spectre_mitigated_lookup_table@Ustate_transition_pair@__crt_stdio_output@@$0IA@@2@XZ 00000001801626f4 f i libucrt:output.obj
 0001:001616fc       ?state_transition_table@?$standard_base@_WV?$stream_output_adapter@_W@__crt_stdio_output@@@__crt_stdio_output@@KAAEBV?$spectre_mitigated_lookup_table@Ustate_transition_pair@__crt_stdio_output@@$0IA@@2@XZ 00000001801626fc f i libucrt:output.obj
 0001:00161704       ?state_transition_table@?$standard_base@_WV?$string_output_adapter@_W@__crt_stdio_output@@@__crt_stdio_output@@KAAEBV?$spectre_mitigated_lookup_table@Ustate_transition_pair@__crt_stdio_output@@$0IA@@2@XZ 0000000180162704 f i libucrt:output.obj
 0001:0016170c       ?tchar_string@?$common_data@D@__crt_stdio_output@@IEAAAEAPEADD@Z 000000018016270c f i libucrt:output.obj
 0001:00161714       ?tchar_string@?$common_data@D@__crt_stdio_output@@IEAAAEAPEADXZ 0000000180162714 f i libucrt:output.obj
 0001:0016171c       ?tchar_string@?$common_data@_W@__crt_stdio_output@@IEAAAEAPEA_WXZ 000000018016271c f i libucrt:output.obj
 0001:00161724       ?tchar_string@?$common_data@_W@__crt_stdio_output@@IEAAAEAPEA_W_W@Z 0000000180162724 f i libucrt:output.obj
 0001:00161730       ?to_integer_size@__crt_stdio_output@@YA_KW4length_modifier@1@@Z 0000000180162730 f i libucrt:output.obj
 0001:00161798       ?type_case_X@?$output_processor@DV?$stream_output_adapter@D@__crt_stdio_output@@V?$format_validation_base@DV?$stream_output_adapter@D@__crt_stdio_output@@@2@@__crt_stdio_output@@AEAA_NXZ 0000000180162798 f i libucrt:output.obj
 0001:001617a8       ?type_case_X@?$output_processor@DV?$stream_output_adapter@D@__crt_stdio_output@@V?$positional_parameter_base@DV?$stream_output_adapter@D@__crt_stdio_output@@@2@@__crt_stdio_output@@AEAA_NXZ 00000001801627a8 f i libucrt:output.obj
 0001:001617b8       ?type_case_X@?$output_processor@DV?$stream_output_adapter@D@__crt_stdio_output@@V?$standard_base@DV?$stream_output_adapter@D@__crt_stdio_output@@@2@@__crt_stdio_output@@AEAA_NXZ 00000001801627b8 f i libucrt:output.obj
 0001:001617c8       ?type_case_X@?$output_processor@DV?$string_output_adapter@D@__crt_stdio_output@@V?$format_validation_base@DV?$string_output_adapter@D@__crt_stdio_output@@@2@@__crt_stdio_output@@AEAA_NXZ 00000001801627c8 f i libucrt:output.obj
 0001:001617d8       ?type_case_X@?$output_processor@DV?$string_output_adapter@D@__crt_stdio_output@@V?$positional_parameter_base@DV?$string_output_adapter@D@__crt_stdio_output@@@2@@__crt_stdio_output@@AEAA_NXZ 00000001801627d8 f i libucrt:output.obj
 0001:001617e8       ?type_case_X@?$output_processor@DV?$string_output_adapter@D@__crt_stdio_output@@V?$standard_base@DV?$string_output_adapter@D@__crt_stdio_output@@@2@@__crt_stdio_output@@AEAA_NXZ 00000001801627e8 f i libucrt:output.obj
 0001:001617f8       ?type_case_X@?$output_processor@_WV?$stream_output_adapter@_W@__crt_stdio_output@@V?$format_validation_base@_WV?$stream_output_adapter@_W@__crt_stdio_output@@@2@@__crt_stdio_output@@AEAA_NXZ 00000001801627f8 f i libucrt:output.obj
 0001:00161808       ?type_case_X@?$output_processor@_WV?$stream_output_adapter@_W@__crt_stdio_output@@V?$positional_parameter_base@_WV?$stream_output_adapter@_W@__crt_stdio_output@@@2@@__crt_stdio_output@@AEAA_NXZ 0000000180162808 f i libucrt:output.obj
 0001:00161818       ?type_case_X@?$output_processor@_WV?$stream_output_adapter@_W@__crt_stdio_output@@V?$standard_base@_WV?$stream_output_adapter@_W@__crt_stdio_output@@@2@@__crt_stdio_output@@AEAA_NXZ 0000000180162818 f i libucrt:output.obj
 0001:00161828       ?type_case_X@?$output_processor@_WV?$string_output_adapter@_W@__crt_stdio_output@@V?$format_validation_base@_WV?$string_output_adapter@_W@__crt_stdio_output@@@2@@__crt_stdio_output@@AEAA_NXZ 0000000180162828 f i libucrt:output.obj
 0001:00161838       ?type_case_X@?$output_processor@_WV?$string_output_adapter@_W@__crt_stdio_output@@V?$positional_parameter_base@_WV?$string_output_adapter@_W@__crt_stdio_output@@@2@@__crt_stdio_output@@AEAA_NXZ 0000000180162838 f i libucrt:output.obj
 0001:00161848       ?type_case_X@?$output_processor@_WV?$string_output_adapter@_W@__crt_stdio_output@@V?$standard_base@_WV?$string_output_adapter@_W@__crt_stdio_output@@@2@@__crt_stdio_output@@AEAA_NXZ 0000000180162848 f i libucrt:output.obj
 0001:00161858       ?type_case_Z@?$output_processor@DV?$stream_output_adapter@D@__crt_stdio_output@@V?$format_validation_base@DV?$stream_output_adapter@D@__crt_stdio_output@@@2@@__crt_stdio_output@@AEAA_NXZ 0000000180162858 f i libucrt:output.obj
 0001:001618cc       ?type_case_Z@?$output_processor@DV?$stream_output_adapter@D@__crt_stdio_output@@V?$positional_parameter_base@DV?$stream_output_adapter@D@__crt_stdio_output@@@2@@__crt_stdio_output@@AEAA_NXZ 00000001801628cc f i libucrt:output.obj
 0001:0016196c       ?type_case_Z@?$output_processor@DV?$stream_output_adapter@D@__crt_stdio_output@@V?$standard_base@DV?$stream_output_adapter@D@__crt_stdio_output@@@2@@__crt_stdio_output@@AEAA_NXZ 000000018016296c f i libucrt:output.obj
 0001:001619e0       ?type_case_Z@?$output_processor@DV?$string_output_adapter@D@__crt_stdio_output@@V?$format_validation_base@DV?$string_output_adapter@D@__crt_stdio_output@@@2@@__crt_stdio_output@@AEAA_NXZ 00000001801629e0 f i libucrt:output.obj
 0001:00161a54       ?type_case_Z@?$output_processor@DV?$string_output_adapter@D@__crt_stdio_output@@V?$positional_parameter_base@DV?$string_output_adapter@D@__crt_stdio_output@@@2@@__crt_stdio_output@@AEAA_NXZ 0000000180162a54 f i libucrt:output.obj
 0001:00161af4       ?type_case_Z@?$output_processor@DV?$string_output_adapter@D@__crt_stdio_output@@V?$standard_base@DV?$string_output_adapter@D@__crt_stdio_output@@@2@@__crt_stdio_output@@AEAA_NXZ 0000000180162af4 f i libucrt:output.obj
 0001:00161b68       ?type_case_Z@?$output_processor@_WV?$stream_output_adapter@_W@__crt_stdio_output@@V?$format_validation_base@_WV?$stream_output_adapter@_W@__crt_stdio_output@@@2@@__crt_stdio_output@@AEAA_NXZ 0000000180162b68 f i libucrt:output.obj
 0001:00161be4       ?type_case_Z@?$output_processor@_WV?$stream_output_adapter@_W@__crt_stdio_output@@V?$positional_parameter_base@_WV?$stream_output_adapter@_W@__crt_stdio_output@@@2@@__crt_stdio_output@@AEAA_NXZ 0000000180162be4 f i libucrt:output.obj
 0001:00161c7c       ?type_case_Z@?$output_processor@_WV?$stream_output_adapter@_W@__crt_stdio_output@@V?$standard_base@_WV?$stream_output_adapter@_W@__crt_stdio_output@@@2@@__crt_stdio_output@@AEAA_NXZ 0000000180162c7c f i libucrt:output.obj
 0001:00161cf8       ?type_case_Z@?$output_processor@_WV?$string_output_adapter@_W@__crt_stdio_output@@V?$format_validation_base@_WV?$string_output_adapter@_W@__crt_stdio_output@@@2@@__crt_stdio_output@@AEAA_NXZ 0000000180162cf8 f i libucrt:output.obj
 0001:00161d74       ?type_case_Z@?$output_processor@_WV?$string_output_adapter@_W@__crt_stdio_output@@V?$positional_parameter_base@_WV?$string_output_adapter@_W@__crt_stdio_output@@@2@@__crt_stdio_output@@AEAA_NXZ 0000000180162d74 f i libucrt:output.obj
 0001:00161e0c       ?type_case_Z@?$output_processor@_WV?$string_output_adapter@_W@__crt_stdio_output@@V?$standard_base@_WV?$string_output_adapter@_W@__crt_stdio_output@@@2@@__crt_stdio_output@@AEAA_NXZ 0000000180162e0c f i libucrt:output.obj
 0001:00161e88       ?type_case_a@?$output_processor@DV?$stream_output_adapter@D@__crt_stdio_output@@V?$format_validation_base@DV?$stream_output_adapter@D@__crt_stdio_output@@@2@@__crt_stdio_output@@AEAA_NXZ 0000000180162e88 f i libucrt:output.obj
 0001:00162044       ?type_case_a@?$output_processor@DV?$stream_output_adapter@D@__crt_stdio_output@@V?$positional_parameter_base@DV?$stream_output_adapter@D@__crt_stdio_output@@@2@@__crt_stdio_output@@AEAA_NXZ 0000000180163044 f i libucrt:output.obj
 0001:0016223c       ?type_case_a@?$output_processor@DV?$stream_output_adapter@D@__crt_stdio_output@@V?$standard_base@DV?$stream_output_adapter@D@__crt_stdio_output@@@2@@__crt_stdio_output@@AEAA_NXZ 000000018016323c f i libucrt:output.obj
 0001:001623f8       ?type_case_a@?$output_processor@DV?$string_output_adapter@D@__crt_stdio_output@@V?$format_validation_base@DV?$string_output_adapter@D@__crt_stdio_output@@@2@@__crt_stdio_output@@AEAA_NXZ 00000001801633f8 f i libucrt:output.obj
 0001:001625b4       ?type_case_a@?$output_processor@DV?$string_output_adapter@D@__crt_stdio_output@@V?$positional_parameter_base@DV?$string_output_adapter@D@__crt_stdio_output@@@2@@__crt_stdio_output@@AEAA_NXZ 00000001801635b4 f i libucrt:output.obj
 0001:001627ac       ?type_case_a@?$output_processor@DV?$string_output_adapter@D@__crt_stdio_output@@V?$standard_base@DV?$string_output_adapter@D@__crt_stdio_output@@@2@@__crt_stdio_output@@AEAA_NXZ 00000001801637ac f i libucrt:output.obj
 0001:00162968       ?type_case_a@?$output_processor@_WV?$stream_output_adapter@_W@__crt_stdio_output@@V?$format_validation_base@_WV?$stream_output_adapter@_W@__crt_stdio_output@@@2@@__crt_stdio_output@@AEAA_NXZ 0000000180163968 f i libucrt:output.obj
 0001:00162b48       ?type_case_a@?$output_processor@_WV?$stream_output_adapter@_W@__crt_stdio_output@@V?$positional_parameter_base@_WV?$stream_output_adapter@_W@__crt_stdio_output@@@2@@__crt_stdio_output@@AEAA_NXZ 0000000180163b48 f i libucrt:output.obj
 0001:00162d64       ?type_case_a@?$output_processor@_WV?$stream_output_adapter@_W@__crt_stdio_output@@V?$standard_base@_WV?$stream_output_adapter@_W@__crt_stdio_output@@@2@@__crt_stdio_output@@AEAA_NXZ 0000000180163d64 f i libucrt:output.obj
 0001:00162f44       ?type_case_a@?$output_processor@_WV?$string_output_adapter@_W@__crt_stdio_output@@V?$format_validation_base@_WV?$string_output_adapter@_W@__crt_stdio_output@@@2@@__crt_stdio_output@@AEAA_NXZ 0000000180163f44 f i libucrt:output.obj
 0001:00163124       ?type_case_a@?$output_processor@_WV?$string_output_adapter@_W@__crt_stdio_output@@V?$positional_parameter_base@_WV?$string_output_adapter@_W@__crt_stdio_output@@@2@@__crt_stdio_output@@AEAA_NXZ 0000000180164124 f i libucrt:output.obj
 0001:00163340       ?type_case_a@?$output_processor@_WV?$string_output_adapter@_W@__crt_stdio_output@@V?$standard_base@_WV?$string_output_adapter@_W@__crt_stdio_output@@@2@@__crt_stdio_output@@AEAA_NXZ 0000000180164340 f i libucrt:output.obj
 0001:00163520       ?type_case_c@?$output_processor@DV?$stream_output_adapter@D@__crt_stdio_output@@V?$format_validation_base@DV?$stream_output_adapter@D@__crt_stdio_output@@@2@@__crt_stdio_output@@AEAA_NXZ 0000000180164520 f i libucrt:output.obj
 0001:00163528       ?type_case_c@?$output_processor@DV?$stream_output_adapter@D@__crt_stdio_output@@V?$positional_parameter_base@DV?$stream_output_adapter@D@__crt_stdio_output@@@2@@__crt_stdio_output@@AEAA_NXZ 0000000180164528 f i libucrt:output.obj
 0001:00163530       ?type_case_c@?$output_processor@DV?$stream_output_adapter@D@__crt_stdio_output@@V?$standard_base@DV?$stream_output_adapter@D@__crt_stdio_output@@@2@@__crt_stdio_output@@AEAA_NXZ 0000000180164530 f i libucrt:output.obj
 0001:00163538       ?type_case_c@?$output_processor@DV?$string_output_adapter@D@__crt_stdio_output@@V?$format_validation_base@DV?$string_output_adapter@D@__crt_stdio_output@@@2@@__crt_stdio_output@@AEAA_NXZ 0000000180164538 f i libucrt:output.obj
 0001:00163540       ?type_case_c@?$output_processor@DV?$string_output_adapter@D@__crt_stdio_output@@V?$positional_parameter_base@DV?$string_output_adapter@D@__crt_stdio_output@@@2@@__crt_stdio_output@@AEAA_NXZ 0000000180164540 f i libucrt:output.obj
 0001:00163548       ?type_case_c@?$output_processor@DV?$string_output_adapter@D@__crt_stdio_output@@V?$standard_base@DV?$string_output_adapter@D@__crt_stdio_output@@@2@@__crt_stdio_output@@AEAA_NXZ 0000000180164548 f i libucrt:output.obj
 0001:00163550       ?type_case_c@?$output_processor@_WV?$stream_output_adapter@_W@__crt_stdio_output@@V?$format_validation_base@_WV?$stream_output_adapter@_W@__crt_stdio_output@@@2@@__crt_stdio_output@@AEAA_NXZ 0000000180164550 f i libucrt:output.obj
 0001:00163558       ?type_case_c@?$output_processor@_WV?$stream_output_adapter@_W@__crt_stdio_output@@V?$positional_parameter_base@_WV?$stream_output_adapter@_W@__crt_stdio_output@@@2@@__crt_stdio_output@@AEAA_NXZ 0000000180164558 f i libucrt:output.obj
 0001:00163560       ?type_case_c@?$output_processor@_WV?$stream_output_adapter@_W@__crt_stdio_output@@V?$standard_base@_WV?$stream_output_adapter@_W@__crt_stdio_output@@@2@@__crt_stdio_output@@AEAA_NXZ 0000000180164560 f i libucrt:output.obj
 0001:00163568       ?type_case_c@?$output_processor@_WV?$string_output_adapter@_W@__crt_stdio_output@@V?$format_validation_base@_WV?$string_output_adapter@_W@__crt_stdio_output@@@2@@__crt_stdio_output@@AEAA_NXZ 0000000180164568 f i libucrt:output.obj
 0001:00163570       ?type_case_c@?$output_processor@_WV?$string_output_adapter@_W@__crt_stdio_output@@V?$positional_parameter_base@_WV?$string_output_adapter@_W@__crt_stdio_output@@@2@@__crt_stdio_output@@AEAA_NXZ 0000000180164570 f i libucrt:output.obj
 0001:00163578       ?type_case_c@?$output_processor@_WV?$string_output_adapter@_W@__crt_stdio_output@@V?$standard_base@_WV?$string_output_adapter@_W@__crt_stdio_output@@@2@@__crt_stdio_output@@AEAA_NXZ 0000000180164578 f i libucrt:output.obj
 0001:00163580       ?type_case_c_tchar@?$output_processor@DV?$stream_output_adapter@D@__crt_stdio_output@@V?$format_validation_base@DV?$stream_output_adapter@D@__crt_stdio_output@@@2@@__crt_stdio_output@@AEAA_ND@Z 0000000180164580 f i libucrt:output.obj
 0001:00163648       ?type_case_c_tchar@?$output_processor@DV?$stream_output_adapter@D@__crt_stdio_output@@V?$positional_parameter_base@DV?$stream_output_adapter@D@__crt_stdio_output@@@2@@__crt_stdio_output@@AEAA_ND@Z 0000000180164648 f i libucrt:output.obj
 0001:00163754       ?type_case_c_tchar@?$output_processor@DV?$stream_output_adapter@D@__crt_stdio_output@@V?$standard_base@DV?$stream_output_adapter@D@__crt_stdio_output@@@2@@__crt_stdio_output@@AEAA_ND@Z 0000000180164754 f i libucrt:output.obj
 0001:0016381c       ?type_case_c_tchar@?$output_processor@DV?$string_output_adapter@D@__crt_stdio_output@@V?$format_validation_base@DV?$string_output_adapter@D@__crt_stdio_output@@@2@@__crt_stdio_output@@AEAA_ND@Z 000000018016481c f i libucrt:output.obj
 0001:001638e4       ?type_case_c_tchar@?$output_processor@DV?$string_output_adapter@D@__crt_stdio_output@@V?$positional_parameter_base@DV?$string_output_adapter@D@__crt_stdio_output@@@2@@__crt_stdio_output@@AEAA_ND@Z 00000001801648e4 f i libucrt:output.obj
 0001:001639f0       ?type_case_c_tchar@?$output_processor@DV?$string_output_adapter@D@__crt_stdio_output@@V?$standard_base@DV?$string_output_adapter@D@__crt_stdio_output@@@2@@__crt_stdio_output@@AEAA_ND@Z 00000001801649f0 f i libucrt:output.obj
 0001:00163ab8       ?type_case_c_tchar@?$output_processor@_WV?$stream_output_adapter@_W@__crt_stdio_output@@V?$format_validation_base@_WV?$stream_output_adapter@_W@__crt_stdio_output@@@2@@__crt_stdio_output@@AEAA_N_W@Z 0000000180164ab8 f i libucrt:output.obj
 0001:00163b60       ?type_case_c_tchar@?$output_processor@_WV?$stream_output_adapter@_W@__crt_stdio_output@@V?$positional_parameter_base@_WV?$stream_output_adapter@_W@__crt_stdio_output@@@2@@__crt_stdio_output@@AEAA_N_W@Z 0000000180164b60 f i libucrt:output.obj
 0001:00163c2c       ?type_case_c_tchar@?$output_processor@_WV?$stream_output_adapter@_W@__crt_stdio_output@@V?$standard_base@_WV?$stream_output_adapter@_W@__crt_stdio_output@@@2@@__crt_stdio_output@@AEAA_N_W@Z 0000000180164c2c f i libucrt:output.obj
 0001:00163cd4       ?type_case_c_tchar@?$output_processor@_WV?$string_output_adapter@_W@__crt_stdio_output@@V?$format_validation_base@_WV?$string_output_adapter@_W@__crt_stdio_output@@@2@@__crt_stdio_output@@AEAA_N_W@Z 0000000180164cd4 f i libucrt:output.obj
 0001:00163d7c       ?type_case_c_tchar@?$output_processor@_WV?$string_output_adapter@_W@__crt_stdio_output@@V?$positional_parameter_base@_WV?$string_output_adapter@_W@__crt_stdio_output@@@2@@__crt_stdio_output@@AEAA_N_W@Z 0000000180164d7c f i libucrt:output.obj
 0001:00163e48       ?type_case_c_tchar@?$output_processor@_WV?$string_output_adapter@_W@__crt_stdio_output@@V?$standard_base@_WV?$string_output_adapter@_W@__crt_stdio_output@@@2@@__crt_stdio_output@@AEAA_N_W@Z 0000000180164e48 f i libucrt:output.obj
 0001:00163ef0       ?type_case_d@?$output_processor@DV?$stream_output_adapter@D@__crt_stdio_output@@V?$format_validation_base@DV?$stream_output_adapter@D@__crt_stdio_output@@@2@@__crt_stdio_output@@AEAA_NXZ 0000000180164ef0 f i libucrt:output.obj
 0001:00163f00       ?type_case_d@?$output_processor@DV?$stream_output_adapter@D@__crt_stdio_output@@V?$positional_parameter_base@DV?$stream_output_adapter@D@__crt_stdio_output@@@2@@__crt_stdio_output@@AEAA_NXZ 0000000180164f00 f i libucrt:output.obj
 0001:00163f10       ?type_case_d@?$output_processor@DV?$stream_output_adapter@D@__crt_stdio_output@@V?$standard_base@DV?$stream_output_adapter@D@__crt_stdio_output@@@2@@__crt_stdio_output@@AEAA_NXZ 0000000180164f10 f i libucrt:output.obj
 0001:00163f20       ?type_case_d@?$output_processor@DV?$string_output_adapter@D@__crt_stdio_output@@V?$format_validation_base@DV?$string_output_adapter@D@__crt_stdio_output@@@2@@__crt_stdio_output@@AEAA_NXZ 0000000180164f20 f i libucrt:output.obj
 0001:00163f30       ?type_case_d@?$output_processor@DV?$string_output_adapter@D@__crt_stdio_output@@V?$positional_parameter_base@DV?$string_output_adapter@D@__crt_stdio_output@@@2@@__crt_stdio_output@@AEAA_NXZ 0000000180164f30 f i libucrt:output.obj
 0001:00163f40       ?type_case_d@?$output_processor@DV?$string_output_adapter@D@__crt_stdio_output@@V?$standard_base@DV?$string_output_adapter@D@__crt_stdio_output@@@2@@__crt_stdio_output@@AEAA_NXZ 0000000180164f40 f i libucrt:output.obj
 0001:00163f50       ?type_case_d@?$output_processor@_WV?$stream_output_adapter@_W@__crt_stdio_output@@V?$format_validation_base@_WV?$stream_output_adapter@_W@__crt_stdio_output@@@2@@__crt_stdio_output@@AEAA_NXZ 0000000180164f50 f i libucrt:output.obj
 0001:00163f60       ?type_case_d@?$output_processor@_WV?$stream_output_adapter@_W@__crt_stdio_output@@V?$positional_parameter_base@_WV?$stream_output_adapter@_W@__crt_stdio_output@@@2@@__crt_stdio_output@@AEAA_NXZ 0000000180164f60 f i libucrt:output.obj
 0001:00163f70       ?type_case_d@?$output_processor@_WV?$stream_output_adapter@_W@__crt_stdio_output@@V?$standard_base@_WV?$stream_output_adapter@_W@__crt_stdio_output@@@2@@__crt_stdio_output@@AEAA_NXZ 0000000180164f70 f i libucrt:output.obj
 0001:00163f80       ?type_case_d@?$output_processor@_WV?$string_output_adapter@_W@__crt_stdio_output@@V?$format_validation_base@_WV?$string_output_adapter@_W@__crt_stdio_output@@@2@@__crt_stdio_output@@AEAA_NXZ 0000000180164f80 f i libucrt:output.obj
 0001:00163f90       ?type_case_d@?$output_processor@_WV?$string_output_adapter@_W@__crt_stdio_output@@V?$positional_parameter_base@_WV?$string_output_adapter@_W@__crt_stdio_output@@@2@@__crt_stdio_output@@AEAA_NXZ 0000000180164f90 f i libucrt:output.obj
 0001:00163fa0       ?type_case_d@?$output_processor@_WV?$string_output_adapter@_W@__crt_stdio_output@@V?$standard_base@_WV?$string_output_adapter@_W@__crt_stdio_output@@@2@@__crt_stdio_output@@AEAA_NXZ 0000000180164fa0 f i libucrt:output.obj
 0001:00163fb0       ?type_case_integer@?$output_processor@DV?$stream_output_adapter@D@__crt_stdio_output@@V?$format_validation_base@DV?$stream_output_adapter@D@__crt_stdio_output@@@2@@__crt_stdio_output@@AEAA_NI_N@Z 0000000180164fb0 f i libucrt:output.obj
 0001:00164130       ?type_case_integer@?$output_processor@DV?$stream_output_adapter@D@__crt_stdio_output@@V?$positional_parameter_base@DV?$stream_output_adapter@D@__crt_stdio_output@@@2@@__crt_stdio_output@@AEAA_NI_N@Z 0000000180165130 f i libucrt:output.obj
 0001:001642d8       ?type_case_integer@?$output_processor@DV?$stream_output_adapter@D@__crt_stdio_output@@V?$standard_base@DV?$stream_output_adapter@D@__crt_stdio_output@@@2@@__crt_stdio_output@@AEAA_NI_N@Z 00000001801652d8 f i libucrt:output.obj
 0001:00164458       ?type_case_integer@?$output_processor@DV?$string_output_adapter@D@__crt_stdio_output@@V?$format_validation_base@DV?$string_output_adapter@D@__crt_stdio_output@@@2@@__crt_stdio_output@@AEAA_NI_N@Z 0000000180165458 f i libucrt:output.obj
 0001:001645d8       ?type_case_integer@?$output_processor@DV?$string_output_adapter@D@__crt_stdio_output@@V?$positional_parameter_base@DV?$string_output_adapter@D@__crt_stdio_output@@@2@@__crt_stdio_output@@AEAA_NI_N@Z 00000001801655d8 f i libucrt:output.obj
 0001:00164780       ?type_case_integer@?$output_processor@DV?$string_output_adapter@D@__crt_stdio_output@@V?$standard_base@DV?$string_output_adapter@D@__crt_stdio_output@@@2@@__crt_stdio_output@@AEAA_NI_N@Z 0000000180165780 f i libucrt:output.obj
 0001:00164900       ?type_case_integer@?$output_processor@_WV?$stream_output_adapter@_W@__crt_stdio_output@@V?$format_validation_base@_WV?$stream_output_adapter@_W@__crt_stdio_output@@@2@@__crt_stdio_output@@AEAA_NI_N@Z 0000000180165900 f i libucrt:output.obj
 0001:00164a88       ?type_case_integer@?$output_processor@_WV?$stream_output_adapter@_W@__crt_stdio_output@@V?$positional_parameter_base@_WV?$stream_output_adapter@_W@__crt_stdio_output@@@2@@__crt_stdio_output@@AEAA_NI_N@Z 0000000180165a88 f i libucrt:output.obj
 0001:00164c38       ?type_case_integer@?$output_processor@_WV?$stream_output_adapter@_W@__crt_stdio_output@@V?$standard_base@_WV?$stream_output_adapter@_W@__crt_stdio_output@@@2@@__crt_stdio_output@@AEAA_NI_N@Z 0000000180165c38 f i libucrt:output.obj
 0001:00164dc0       ?type_case_integer@?$output_processor@_WV?$string_output_adapter@_W@__crt_stdio_output@@V?$format_validation_base@_WV?$string_output_adapter@_W@__crt_stdio_output@@@2@@__crt_stdio_output@@AEAA_NI_N@Z 0000000180165dc0 f i libucrt:output.obj
 0001:00164f48       ?type_case_integer@?$output_processor@_WV?$string_output_adapter@_W@__crt_stdio_output@@V?$positional_parameter_base@_WV?$string_output_adapter@_W@__crt_stdio_output@@@2@@__crt_stdio_output@@AEAA_NI_N@Z 0000000180165f48 f i libucrt:output.obj
 0001:001650f8       ?type_case_integer@?$output_processor@_WV?$string_output_adapter@_W@__crt_stdio_output@@V?$standard_base@_WV?$string_output_adapter@_W@__crt_stdio_output@@@2@@__crt_stdio_output@@AEAA_NI_N@Z 00000001801660f8 f i libucrt:output.obj
 0001:00165280       ?type_case_n@?$output_processor@DV?$stream_output_adapter@D@__crt_stdio_output@@V?$format_validation_base@DV?$stream_output_adapter@D@__crt_stdio_output@@@2@@__crt_stdio_output@@AEAA_NXZ 0000000180166280 f i libucrt:output.obj
 0001:00165308       ?type_case_n@?$output_processor@DV?$stream_output_adapter@D@__crt_stdio_output@@V?$positional_parameter_base@DV?$stream_output_adapter@D@__crt_stdio_output@@@2@@__crt_stdio_output@@AEAA_NXZ 0000000180166308 f i libucrt:output.obj
 0001:001653b8       ?type_case_n@?$output_processor@DV?$stream_output_adapter@D@__crt_stdio_output@@V?$standard_base@DV?$stream_output_adapter@D@__crt_stdio_output@@@2@@__crt_stdio_output@@AEAA_NXZ 00000001801663b8 f i libucrt:output.obj
 0001:00165440       ?type_case_n@?$output_processor@DV?$string_output_adapter@D@__crt_stdio_output@@V?$format_validation_base@DV?$string_output_adapter@D@__crt_stdio_output@@@2@@__crt_stdio_output@@AEAA_NXZ 0000000180166440 f i libucrt:output.obj
 0001:001654c8       ?type_case_n@?$output_processor@DV?$string_output_adapter@D@__crt_stdio_output@@V?$positional_parameter_base@DV?$string_output_adapter@D@__crt_stdio_output@@@2@@__crt_stdio_output@@AEAA_NXZ 00000001801664c8 f i libucrt:output.obj
 0001:00165578       ?type_case_n@?$output_processor@DV?$string_output_adapter@D@__crt_stdio_output@@V?$standard_base@DV?$string_output_adapter@D@__crt_stdio_output@@@2@@__crt_stdio_output@@AEAA_NXZ 0000000180166578 f i libucrt:output.obj
 0001:00165600       ?type_case_n@?$output_processor@_WV?$stream_output_adapter@_W@__crt_stdio_output@@V?$format_validation_base@_WV?$stream_output_adapter@_W@__crt_stdio_output@@@2@@__crt_stdio_output@@AEAA_NXZ 0000000180166600 f i libucrt:output.obj
 0001:00165688       ?type_case_n@?$output_processor@_WV?$stream_output_adapter@_W@__crt_stdio_output@@V?$positional_parameter_base@_WV?$stream_output_adapter@_W@__crt_stdio_output@@@2@@__crt_stdio_output@@AEAA_NXZ 0000000180166688 f i libucrt:output.obj
 0001:00165738       ?type_case_n@?$output_processor@_WV?$stream_output_adapter@_W@__crt_stdio_output@@V?$standard_base@_WV?$stream_output_adapter@_W@__crt_stdio_output@@@2@@__crt_stdio_output@@AEAA_NXZ 0000000180166738 f i libucrt:output.obj
 0001:001657c0       ?type_case_n@?$output_processor@_WV?$string_output_adapter@_W@__crt_stdio_output@@V?$format_validation_base@_WV?$string_output_adapter@_W@__crt_stdio_output@@@2@@__crt_stdio_output@@AEAA_NXZ 00000001801667c0 f i libucrt:output.obj
 0001:00165848       ?type_case_n@?$output_processor@_WV?$string_output_adapter@_W@__crt_stdio_output@@V?$positional_parameter_base@_WV?$string_output_adapter@_W@__crt_stdio_output@@@2@@__crt_stdio_output@@AEAA_NXZ 0000000180166848 f i libucrt:output.obj
 0001:001658f8       ?type_case_n@?$output_processor@_WV?$string_output_adapter@_W@__crt_stdio_output@@V?$standard_base@_WV?$string_output_adapter@_W@__crt_stdio_output@@@2@@__crt_stdio_output@@AEAA_NXZ 00000001801668f8 f i libucrt:output.obj
 0001:00165980       ?type_case_o@?$output_processor@DV?$stream_output_adapter@D@__crt_stdio_output@@V?$format_validation_base@DV?$stream_output_adapter@D@__crt_stdio_output@@@2@@__crt_stdio_output@@AEAA_NXZ 0000000180166980 f i libucrt:output.obj
 0001:001659a0       ?type_case_o@?$output_processor@DV?$stream_output_adapter@D@__crt_stdio_output@@V?$positional_parameter_base@DV?$stream_output_adapter@D@__crt_stdio_output@@@2@@__crt_stdio_output@@AEAA_NXZ 00000001801669a0 f i libucrt:output.obj
 0001:001659c0       ?type_case_o@?$output_processor@DV?$stream_output_adapter@D@__crt_stdio_output@@V?$standard_base@DV?$stream_output_adapter@D@__crt_stdio_output@@@2@@__crt_stdio_output@@AEAA_NXZ 00000001801669c0 f i libucrt:output.obj
 0001:001659e0       ?type_case_o@?$output_processor@DV?$string_output_adapter@D@__crt_stdio_output@@V?$format_validation_base@DV?$string_output_adapter@D@__crt_stdio_output@@@2@@__crt_stdio_output@@AEAA_NXZ 00000001801669e0 f i libucrt:output.obj
 0001:00165a00       ?type_case_o@?$output_processor@DV?$string_output_adapter@D@__crt_stdio_output@@V?$positional_parameter_base@DV?$string_output_adapter@D@__crt_stdio_output@@@2@@__crt_stdio_output@@AEAA_NXZ 0000000180166a00 f i libucrt:output.obj
 0001:00165a20       ?type_case_o@?$output_processor@DV?$string_output_adapter@D@__crt_stdio_output@@V?$standard_base@DV?$string_output_adapter@D@__crt_stdio_output@@@2@@__crt_stdio_output@@AEAA_NXZ 0000000180166a20 f i libucrt:output.obj
 0001:00165a40       ?type_case_o@?$output_processor@_WV?$stream_output_adapter@_W@__crt_stdio_output@@V?$format_validation_base@_WV?$stream_output_adapter@_W@__crt_stdio_output@@@2@@__crt_stdio_output@@AEAA_NXZ 0000000180166a40 f i libucrt:output.obj
 0001:00165a60       ?type_case_o@?$output_processor@_WV?$stream_output_adapter@_W@__crt_stdio_output@@V?$positional_parameter_base@_WV?$stream_output_adapter@_W@__crt_stdio_output@@@2@@__crt_stdio_output@@AEAA_NXZ 0000000180166a60 f i libucrt:output.obj
 0001:00165a80       ?type_case_o@?$output_processor@_WV?$stream_output_adapter@_W@__crt_stdio_output@@V?$standard_base@_WV?$stream_output_adapter@_W@__crt_stdio_output@@@2@@__crt_stdio_output@@AEAA_NXZ 0000000180166a80 f i libucrt:output.obj
 0001:00165aa0       ?type_case_o@?$output_processor@_WV?$string_output_adapter@_W@__crt_stdio_output@@V?$format_validation_base@_WV?$string_output_adapter@_W@__crt_stdio_output@@@2@@__crt_stdio_output@@AEAA_NXZ 0000000180166aa0 f i libucrt:output.obj
 0001:00165ac0       ?type_case_o@?$output_processor@_WV?$string_output_adapter@_W@__crt_stdio_output@@V?$positional_parameter_base@_WV?$string_output_adapter@_W@__crt_stdio_output@@@2@@__crt_stdio_output@@AEAA_NXZ 0000000180166ac0 f i libucrt:output.obj
 0001:00165ae0       ?type_case_o@?$output_processor@_WV?$string_output_adapter@_W@__crt_stdio_output@@V?$standard_base@_WV?$string_output_adapter@_W@__crt_stdio_output@@@2@@__crt_stdio_output@@AEAA_NXZ 0000000180166ae0 f i libucrt:output.obj
 0001:00165b00       ?type_case_p@?$output_processor@DV?$stream_output_adapter@D@__crt_stdio_output@@V?$format_validation_base@DV?$stream_output_adapter@D@__crt_stdio_output@@@2@@__crt_stdio_output@@AEAA_NXZ 0000000180166b00 f i libucrt:output.obj
 0001:00165b18       ?type_case_p@?$output_processor@DV?$stream_output_adapter@D@__crt_stdio_output@@V?$positional_parameter_base@DV?$stream_output_adapter@D@__crt_stdio_output@@@2@@__crt_stdio_output@@AEAA_NXZ 0000000180166b18 f i libucrt:output.obj
 0001:00165b30       ?type_case_p@?$output_processor@DV?$stream_output_adapter@D@__crt_stdio_output@@V?$standard_base@DV?$stream_output_adapter@D@__crt_stdio_output@@@2@@__crt_stdio_output@@AEAA_NXZ 0000000180166b30 f i libucrt:output.obj
 0001:00165b48       ?type_case_p@?$output_processor@DV?$string_output_adapter@D@__crt_stdio_output@@V?$format_validation_base@DV?$string_output_adapter@D@__crt_stdio_output@@@2@@__crt_stdio_output@@AEAA_NXZ 0000000180166b48 f i libucrt:output.obj
 0001:00165b60       ?type_case_p@?$output_processor@DV?$string_output_adapter@D@__crt_stdio_output@@V?$positional_parameter_base@DV?$string_output_adapter@D@__crt_stdio_output@@@2@@__crt_stdio_output@@AEAA_NXZ 0000000180166b60 f i libucrt:output.obj
 0001:00165b78       ?type_case_p@?$output_processor@DV?$string_output_adapter@D@__crt_stdio_output@@V?$standard_base@DV?$string_output_adapter@D@__crt_stdio_output@@@2@@__crt_stdio_output@@AEAA_NXZ 0000000180166b78 f i libucrt:output.obj
 0001:00165b90       ?type_case_p@?$output_processor@_WV?$stream_output_adapter@_W@__crt_stdio_output@@V?$format_validation_base@_WV?$stream_output_adapter@_W@__crt_stdio_output@@@2@@__crt_stdio_output@@AEAA_NXZ 0000000180166b90 f i libucrt:output.obj
 0001:00165ba8       ?type_case_p@?$output_processor@_WV?$stream_output_adapter@_W@__crt_stdio_output@@V?$positional_parameter_base@_WV?$stream_output_adapter@_W@__crt_stdio_output@@@2@@__crt_stdio_output@@AEAA_NXZ 0000000180166ba8 f i libucrt:output.obj
 0001:00165bc0       ?type_case_p@?$output_processor@_WV?$stream_output_adapter@_W@__crt_stdio_output@@V?$standard_base@_WV?$stream_output_adapter@_W@__crt_stdio_output@@@2@@__crt_stdio_output@@AEAA_NXZ 0000000180166bc0 f i libucrt:output.obj
 0001:00165bd8       ?type_case_p@?$output_processor@_WV?$string_output_adapter@_W@__crt_stdio_output@@V?$format_validation_base@_WV?$string_output_adapter@_W@__crt_stdio_output@@@2@@__crt_stdio_output@@AEAA_NXZ 0000000180166bd8 f i libucrt:output.obj
 0001:00165bf0       ?type_case_p@?$output_processor@_WV?$string_output_adapter@_W@__crt_stdio_output@@V?$positional_parameter_base@_WV?$string_output_adapter@_W@__crt_stdio_output@@@2@@__crt_stdio_output@@AEAA_NXZ 0000000180166bf0 f i libucrt:output.obj
 0001:00165c08       ?type_case_p@?$output_processor@_WV?$string_output_adapter@_W@__crt_stdio_output@@V?$standard_base@_WV?$string_output_adapter@_W@__crt_stdio_output@@@2@@__crt_stdio_output@@AEAA_NXZ 0000000180166c08 f i libucrt:output.obj
 0001:00165c20       ?type_case_s@?$output_processor@DV?$stream_output_adapter@D@__crt_stdio_output@@V?$format_validation_base@DV?$stream_output_adapter@D@__crt_stdio_output@@@2@@__crt_stdio_output@@AEAA_NXZ 0000000180166c20 f i libucrt:output.obj
 0001:00165cb8       ?type_case_s@?$output_processor@DV?$stream_output_adapter@D@__crt_stdio_output@@V?$positional_parameter_base@DV?$stream_output_adapter@D@__crt_stdio_output@@@2@@__crt_stdio_output@@AEAA_NXZ 0000000180166cb8 f i libucrt:output.obj
 0001:00165d70       ?type_case_s@?$output_processor@DV?$stream_output_adapter@D@__crt_stdio_output@@V?$standard_base@DV?$stream_output_adapter@D@__crt_stdio_output@@@2@@__crt_stdio_output@@AEAA_NXZ 0000000180166d70 f i libucrt:output.obj
 0001:00165e08       ?type_case_s@?$output_processor@DV?$string_output_adapter@D@__crt_stdio_output@@V?$format_validation_base@DV?$string_output_adapter@D@__crt_stdio_output@@@2@@__crt_stdio_output@@AEAA_NXZ 0000000180166e08 f i libucrt:output.obj
 0001:00165ea0       ?type_case_s@?$output_processor@DV?$string_output_adapter@D@__crt_stdio_output@@V?$positional_parameter_base@DV?$string_output_adapter@D@__crt_stdio_output@@@2@@__crt_stdio_output@@AEAA_NXZ 0000000180166ea0 f i libucrt:output.obj
 0001:00165f58       ?type_case_s@?$output_processor@DV?$string_output_adapter@D@__crt_stdio_output@@V?$standard_base@DV?$string_output_adapter@D@__crt_stdio_output@@@2@@__crt_stdio_output@@AEAA_NXZ 0000000180166f58 f i libucrt:output.obj
 0001:00165ff0       ?type_case_s@?$output_processor@_WV?$stream_output_adapter@_W@__crt_stdio_output@@V?$format_validation_base@_WV?$stream_output_adapter@_W@__crt_stdio_output@@@2@@__crt_stdio_output@@AEAA_NXZ 0000000180166ff0 f i libucrt:output.obj
 0001:001660b8       ?type_case_s@?$output_processor@_WV?$stream_output_adapter@_W@__crt_stdio_output@@V?$positional_parameter_base@_WV?$stream_output_adapter@_W@__crt_stdio_output@@@2@@__crt_stdio_output@@AEAA_NXZ 00000001801670b8 f i libucrt:output.obj
 0001:001661a4       ?type_case_s@?$output_processor@_WV?$stream_output_adapter@_W@__crt_stdio_output@@V?$standard_base@_WV?$stream_output_adapter@_W@__crt_stdio_output@@@2@@__crt_stdio_output@@AEAA_NXZ 00000001801671a4 f i libucrt:output.obj
 0001:0016626c       ?type_case_s@?$output_processor@_WV?$string_output_adapter@_W@__crt_stdio_output@@V?$format_validation_base@_WV?$string_output_adapter@_W@__crt_stdio_output@@@2@@__crt_stdio_output@@AEAA_NXZ 000000018016726c f i libucrt:output.obj
 0001:00166334       ?type_case_s@?$output_processor@_WV?$string_output_adapter@_W@__crt_stdio_output@@V?$positional_parameter_base@_WV?$string_output_adapter@_W@__crt_stdio_output@@@2@@__crt_stdio_output@@AEAA_NXZ 0000000180167334 f i libucrt:output.obj
 0001:00166420       ?type_case_s@?$output_processor@_WV?$string_output_adapter@_W@__crt_stdio_output@@V?$standard_base@_WV?$string_output_adapter@_W@__crt_stdio_output@@@2@@__crt_stdio_output@@AEAA_NXZ 0000000180167420 f i libucrt:output.obj
 0001:001664e8       ?type_case_s_compute_narrow_string_length@?$output_processor@DV?$stream_output_adapter@D@__crt_stdio_output@@V?$format_validation_base@DV?$stream_output_adapter@D@__crt_stdio_output@@@2@@__crt_stdio_output@@AEBAHHD@Z 00000001801674e8 f i libucrt:output.obj
 0001:001664f4       ?type_case_s_compute_narrow_string_length@?$output_processor@DV?$stream_output_adapter@D@__crt_stdio_output@@V?$positional_parameter_base@DV?$stream_output_adapter@D@__crt_stdio_output@@@2@@__crt_stdio_output@@AEBAHHD@Z 00000001801674f4 f i libucrt:output.obj
 0001:00166500       ?type_case_s_compute_narrow_string_length@?$output_processor@DV?$stream_output_adapter@D@__crt_stdio_output@@V?$standard_base@DV?$stream_output_adapter@D@__crt_stdio_output@@@2@@__crt_stdio_output@@AEBAHHD@Z 0000000180167500 f i libucrt:output.obj
 0001:0016650c       ?type_case_s_compute_narrow_string_length@?$output_processor@DV?$string_output_adapter@D@__crt_stdio_output@@V?$format_validation_base@DV?$string_output_adapter@D@__crt_stdio_output@@@2@@__crt_stdio_output@@AEBAHHD@Z 000000018016750c f i libucrt:output.obj
 0001:00166518       ?type_case_s_compute_narrow_string_length@?$output_processor@DV?$string_output_adapter@D@__crt_stdio_output@@V?$positional_parameter_base@DV?$string_output_adapter@D@__crt_stdio_output@@@2@@__crt_stdio_output@@AEBAHHD@Z 0000000180167518 f i libucrt:output.obj
 0001:00166524       ?type_case_s_compute_narrow_string_length@?$output_processor@DV?$string_output_adapter@D@__crt_stdio_output@@V?$standard_base@DV?$string_output_adapter@D@__crt_stdio_output@@@2@@__crt_stdio_output@@AEBAHHD@Z 0000000180167524 f i libucrt:output.obj
 0001:00166530       ?type_case_s_compute_narrow_string_length@?$output_processor@_WV?$stream_output_adapter@_W@__crt_stdio_output@@V?$format_validation_base@_WV?$stream_output_adapter@_W@__crt_stdio_output@@@2@@__crt_stdio_output@@AEBAHH_W@Z 0000000180167530 f i libucrt:output.obj
 0001:00166584       ?type_case_s_compute_narrow_string_length@?$output_processor@_WV?$stream_output_adapter@_W@__crt_stdio_output@@V?$positional_parameter_base@_WV?$stream_output_adapter@_W@__crt_stdio_output@@@2@@__crt_stdio_output@@AEBAHH_W@Z 0000000180167584 f i libucrt:output.obj
 0001:001665d8       ?type_case_s_compute_narrow_string_length@?$output_processor@_WV?$stream_output_adapter@_W@__crt_stdio_output@@V?$standard_base@_WV?$stream_output_adapter@_W@__crt_stdio_output@@@2@@__crt_stdio_output@@AEBAHH_W@Z 00000001801675d8 f i libucrt:output.obj
 0001:0016662c       ?type_case_s_compute_narrow_string_length@?$output_processor@_WV?$string_output_adapter@_W@__crt_stdio_output@@V?$format_validation_base@_WV?$string_output_adapter@_W@__crt_stdio_output@@@2@@__crt_stdio_output@@AEBAHH_W@Z 000000018016762c f i libucrt:output.obj
 0001:00166680       ?type_case_s_compute_narrow_string_length@?$output_processor@_WV?$string_output_adapter@_W@__crt_stdio_output@@V?$positional_parameter_base@_WV?$string_output_adapter@_W@__crt_stdio_output@@@2@@__crt_stdio_output@@AEBAHH_W@Z 0000000180167680 f i libucrt:output.obj
 0001:001666d4       ?type_case_s_compute_narrow_string_length@?$output_processor@_WV?$string_output_adapter@_W@__crt_stdio_output@@V?$standard_base@_WV?$string_output_adapter@_W@__crt_stdio_output@@@2@@__crt_stdio_output@@AEBAHH_W@Z 00000001801676d4 f i libucrt:output.obj
 0001:00166728       ?type_case_u@?$output_processor@DV?$stream_output_adapter@D@__crt_stdio_output@@V?$format_validation_base@DV?$stream_output_adapter@D@__crt_stdio_output@@@2@@__crt_stdio_output@@AEAA_NXZ 0000000180167728 f i libucrt:output.obj
 0001:00166734       ?type_case_u@?$output_processor@DV?$stream_output_adapter@D@__crt_stdio_output@@V?$positional_parameter_base@DV?$stream_output_adapter@D@__crt_stdio_output@@@2@@__crt_stdio_output@@AEAA_NXZ 0000000180167734 f i libucrt:output.obj
 0001:00166740       ?type_case_u@?$output_processor@DV?$stream_output_adapter@D@__crt_stdio_output@@V?$standard_base@DV?$stream_output_adapter@D@__crt_stdio_output@@@2@@__crt_stdio_output@@AEAA_NXZ 0000000180167740 f i libucrt:output.obj
 0001:0016674c       ?type_case_u@?$output_processor@DV?$string_output_adapter@D@__crt_stdio_output@@V?$format_validation_base@DV?$string_output_adapter@D@__crt_stdio_output@@@2@@__crt_stdio_output@@AEAA_NXZ 000000018016774c f i libucrt:output.obj
 0001:00166758       ?type_case_u@?$output_processor@DV?$string_output_adapter@D@__crt_stdio_output@@V?$positional_parameter_base@DV?$string_output_adapter@D@__crt_stdio_output@@@2@@__crt_stdio_output@@AEAA_NXZ 0000000180167758 f i libucrt:output.obj
 0001:00166764       ?type_case_u@?$output_processor@DV?$string_output_adapter@D@__crt_stdio_output@@V?$standard_base@DV?$string_output_adapter@D@__crt_stdio_output@@@2@@__crt_stdio_output@@AEAA_NXZ 0000000180167764 f i libucrt:output.obj
 0001:00166770       ?type_case_u@?$output_processor@_WV?$stream_output_adapter@_W@__crt_stdio_output@@V?$format_validation_base@_WV?$stream_output_adapter@_W@__crt_stdio_output@@@2@@__crt_stdio_output@@AEAA_NXZ 0000000180167770 f i libucrt:output.obj
 0001:0016677c       ?type_case_u@?$output_processor@_WV?$stream_output_adapter@_W@__crt_stdio_output@@V?$positional_parameter_base@_WV?$stream_output_adapter@_W@__crt_stdio_output@@@2@@__crt_stdio_output@@AEAA_NXZ 000000018016777c f i libucrt:output.obj
 0001:00166788       ?type_case_u@?$output_processor@_WV?$stream_output_adapter@_W@__crt_stdio_output@@V?$standard_base@_WV?$stream_output_adapter@_W@__crt_stdio_output@@@2@@__crt_stdio_output@@AEAA_NXZ 0000000180167788 f i libucrt:output.obj
 0001:00166794       ?type_case_u@?$output_processor@_WV?$string_output_adapter@_W@__crt_stdio_output@@V?$format_validation_base@_WV?$string_output_adapter@_W@__crt_stdio_output@@@2@@__crt_stdio_output@@AEAA_NXZ 0000000180167794 f i libucrt:output.obj
 0001:001667a0       ?type_case_u@?$output_processor@_WV?$string_output_adapter@_W@__crt_stdio_output@@V?$positional_parameter_base@_WV?$string_output_adapter@_W@__crt_stdio_output@@@2@@__crt_stdio_output@@AEAA_NXZ 00000001801677a0 f i libucrt:output.obj
 0001:001667ac       ?type_case_u@?$output_processor@_WV?$string_output_adapter@_W@__crt_stdio_output@@V?$standard_base@_WV?$string_output_adapter@_W@__crt_stdio_output@@@2@@__crt_stdio_output@@AEAA_NXZ 00000001801677ac f i libucrt:output.obj
 0001:001667b8       ?type_case_x@?$output_processor@DV?$stream_output_adapter@D@__crt_stdio_output@@V?$format_validation_base@DV?$stream_output_adapter@D@__crt_stdio_output@@@2@@__crt_stdio_output@@AEAA_NXZ 00000001801677b8 f i libucrt:output.obj
 0001:001667c4       ?type_case_x@?$output_processor@DV?$stream_output_adapter@D@__crt_stdio_output@@V?$positional_parameter_base@DV?$stream_output_adapter@D@__crt_stdio_output@@@2@@__crt_stdio_output@@AEAA_NXZ 00000001801677c4 f i libucrt:output.obj
 0001:001667d0       ?type_case_x@?$output_processor@DV?$stream_output_adapter@D@__crt_stdio_output@@V?$standard_base@DV?$stream_output_adapter@D@__crt_stdio_output@@@2@@__crt_stdio_output@@AEAA_NXZ 00000001801677d0 f i libucrt:output.obj
 0001:001667dc       ?type_case_x@?$output_processor@DV?$string_output_adapter@D@__crt_stdio_output@@V?$format_validation_base@DV?$string_output_adapter@D@__crt_stdio_output@@@2@@__crt_stdio_output@@AEAA_NXZ 00000001801677dc f i libucrt:output.obj
 0001:001667e8       ?type_case_x@?$output_processor@DV?$string_output_adapter@D@__crt_stdio_output@@V?$positional_parameter_base@DV?$string_output_adapter@D@__crt_stdio_output@@@2@@__crt_stdio_output@@AEAA_NXZ 00000001801677e8 f i libucrt:output.obj
 0001:001667f4       ?type_case_x@?$output_processor@DV?$string_output_adapter@D@__crt_stdio_output@@V?$standard_base@DV?$string_output_adapter@D@__crt_stdio_output@@@2@@__crt_stdio_output@@AEAA_NXZ 00000001801677f4 f i libucrt:output.obj
 0001:00166800       ?type_case_x@?$output_processor@_WV?$stream_output_adapter@_W@__crt_stdio_output@@V?$format_validation_base@_WV?$stream_output_adapter@_W@__crt_stdio_output@@@2@@__crt_stdio_output@@AEAA_NXZ 0000000180167800 f i libucrt:output.obj
 0001:0016680c       ?type_case_x@?$output_processor@_WV?$stream_output_adapter@_W@__crt_stdio_output@@V?$positional_parameter_base@_WV?$stream_output_adapter@_W@__crt_stdio_output@@@2@@__crt_stdio_output@@AEAA_NXZ 000000018016780c f i libucrt:output.obj
 0001:00166818       ?type_case_x@?$output_processor@_WV?$stream_output_adapter@_W@__crt_stdio_output@@V?$standard_base@_WV?$stream_output_adapter@_W@__crt_stdio_output@@@2@@__crt_stdio_output@@AEAA_NXZ 0000000180167818 f i libucrt:output.obj
 0001:00166824       ?type_case_x@?$output_processor@_WV?$string_output_adapter@_W@__crt_stdio_output@@V?$format_validation_base@_WV?$string_output_adapter@_W@__crt_stdio_output@@@2@@__crt_stdio_output@@AEAA_NXZ 0000000180167824 f i libucrt:output.obj
 0001:00166830       ?type_case_x@?$output_processor@_WV?$string_output_adapter@_W@__crt_stdio_output@@V?$positional_parameter_base@_WV?$string_output_adapter@_W@__crt_stdio_output@@@2@@__crt_stdio_output@@AEAA_NXZ 0000000180167830 f i libucrt:output.obj
 0001:0016683c       ?type_case_x@?$output_processor@_WV?$string_output_adapter@_W@__crt_stdio_output@@V?$standard_base@_WV?$string_output_adapter@_W@__crt_stdio_output@@@2@@__crt_stdio_output@@AEAA_NXZ 000000018016783c f i libucrt:output.obj
 0001:00166848       ?unset_flag@?$output_processor@DV?$stream_output_adapter@D@__crt_stdio_output@@V?$format_validation_base@DV?$stream_output_adapter@D@__crt_stdio_output@@@2@@__crt_stdio_output@@AEAAXI@Z 0000000180167848 f i libucrt:output.obj
 0001:00166850       ?unset_flag@?$output_processor@DV?$stream_output_adapter@D@__crt_stdio_output@@V?$positional_parameter_base@DV?$stream_output_adapter@D@__crt_stdio_output@@@2@@__crt_stdio_output@@AEAAXI@Z 0000000180167850 f i libucrt:output.obj
 0001:00166858       ?unset_flag@?$output_processor@DV?$stream_output_adapter@D@__crt_stdio_output@@V?$standard_base@DV?$stream_output_adapter@D@__crt_stdio_output@@@2@@__crt_stdio_output@@AEAAXI@Z 0000000180167858 f i libucrt:output.obj
 0001:00166860       ?unset_flag@?$output_processor@DV?$string_output_adapter@D@__crt_stdio_output@@V?$format_validation_base@DV?$string_output_adapter@D@__crt_stdio_output@@@2@@__crt_stdio_output@@AEAAXI@Z 0000000180167860 f i libucrt:output.obj
 0001:00166868       ?unset_flag@?$output_processor@DV?$string_output_adapter@D@__crt_stdio_output@@V?$positional_parameter_base@DV?$string_output_adapter@D@__crt_stdio_output@@@2@@__crt_stdio_output@@AEAAXI@Z 0000000180167868 f i libucrt:output.obj
 0001:00166870       ?unset_flag@?$output_processor@DV?$string_output_adapter@D@__crt_stdio_output@@V?$standard_base@DV?$string_output_adapter@D@__crt_stdio_output@@@2@@__crt_stdio_output@@AEAAXI@Z 0000000180167870 f i libucrt:output.obj
 0001:00166878       ?unset_flag@?$output_processor@_WV?$stream_output_adapter@_W@__crt_stdio_output@@V?$format_validation_base@_WV?$stream_output_adapter@_W@__crt_stdio_output@@@2@@__crt_stdio_output@@AEAAXI@Z 0000000180167878 f i libucrt:output.obj
 0001:00166880       ?unset_flag@?$output_processor@_WV?$stream_output_adapter@_W@__crt_stdio_output@@V?$positional_parameter_base@_WV?$stream_output_adapter@_W@__crt_stdio_output@@@2@@__crt_stdio_output@@AEAAXI@Z 0000000180167880 f i libucrt:output.obj
 0001:00166888       ?unset_flag@?$output_processor@_WV?$stream_output_adapter@_W@__crt_stdio_output@@V?$standard_base@_WV?$stream_output_adapter@_W@__crt_stdio_output@@@2@@__crt_stdio_output@@AEAAXI@Z 0000000180167888 f i libucrt:output.obj
 0001:00166890       ?unset_flag@?$output_processor@_WV?$string_output_adapter@_W@__crt_stdio_output@@V?$format_validation_base@_WV?$string_output_adapter@_W@__crt_stdio_output@@@2@@__crt_stdio_output@@AEAAXI@Z 0000000180167890 f i libucrt:output.obj
 0001:00166898       ?unset_flag@?$output_processor@_WV?$string_output_adapter@_W@__crt_stdio_output@@V?$positional_parameter_base@_WV?$string_output_adapter@_W@__crt_stdio_output@@@2@@__crt_stdio_output@@AEAAXI@Z 0000000180167898 f i libucrt:output.obj
 0001:001668a0       ?unset_flag@?$output_processor@_WV?$string_output_adapter@_W@__crt_stdio_output@@V?$standard_base@_WV?$string_output_adapter@_W@__crt_stdio_output@@@2@@__crt_stdio_output@@AEAAXI@Z 00000001801678a0 f i libucrt:output.obj
 0001:001668a8       ?update_field_width@?$positional_parameter_base@DV?$stream_output_adapter@D@__crt_stdio_output@@@__crt_stdio_output@@IEAA_NXZ 00000001801678a8 f i libucrt:output.obj
 0001:001669c0       ?update_field_width@?$positional_parameter_base@DV?$string_output_adapter@D@__crt_stdio_output@@@__crt_stdio_output@@IEAA_NXZ 00000001801679c0 f i libucrt:output.obj
 0001:00166ad8       ?update_field_width@?$positional_parameter_base@_WV?$stream_output_adapter@_W@__crt_stdio_output@@@__crt_stdio_output@@IEAA_NXZ 0000000180167ad8 f i libucrt:output.obj
 0001:00166bf0       ?update_field_width@?$positional_parameter_base@_WV?$string_output_adapter@_W@__crt_stdio_output@@@__crt_stdio_output@@IEAA_NXZ 0000000180167bf0 f i libucrt:output.obj
 0001:00166d08       ?update_field_width@?$standard_base@DV?$stream_output_adapter@D@__crt_stdio_output@@@__crt_stdio_output@@IEAA_NXZ 0000000180167d08 f i libucrt:output.obj
 0001:00166d1c       ?update_field_width@?$standard_base@DV?$string_output_adapter@D@__crt_stdio_output@@@__crt_stdio_output@@IEAA_NXZ 0000000180167d1c f i libucrt:output.obj
 0001:00166d30       ?update_field_width@?$standard_base@_WV?$stream_output_adapter@_W@__crt_stdio_output@@@__crt_stdio_output@@IEAA_NXZ 0000000180167d30 f i libucrt:output.obj
 0001:00166d44       ?update_field_width@?$standard_base@_WV?$string_output_adapter@_W@__crt_stdio_output@@@__crt_stdio_output@@IEAA_NXZ 0000000180167d44 f i libucrt:output.obj
 0001:00166d58       ?update_precision@?$positional_parameter_base@DV?$stream_output_adapter@D@__crt_stdio_output@@@__crt_stdio_output@@IEAA_NXZ 0000000180167d58 f i libucrt:output.obj
 0001:00166e70       ?update_precision@?$positional_parameter_base@DV?$string_output_adapter@D@__crt_stdio_output@@@__crt_stdio_output@@IEAA_NXZ 0000000180167e70 f i libucrt:output.obj
 0001:00166f88       ?update_precision@?$positional_parameter_base@_WV?$stream_output_adapter@_W@__crt_stdio_output@@@__crt_stdio_output@@IEAA_NXZ 0000000180167f88 f i libucrt:output.obj
 0001:001670a0       ?update_precision@?$positional_parameter_base@_WV?$string_output_adapter@_W@__crt_stdio_output@@@__crt_stdio_output@@IEAA_NXZ 00000001801680a0 f i libucrt:output.obj
 0001:001671b8       ?update_precision@?$standard_base@DV?$stream_output_adapter@D@__crt_stdio_output@@@__crt_stdio_output@@IEAA_NXZ 00000001801681b8 f i libucrt:output.obj
 0001:001671cc       ?update_precision@?$standard_base@DV?$string_output_adapter@D@__crt_stdio_output@@@__crt_stdio_output@@IEAA_NXZ 00000001801681cc f i libucrt:output.obj
 0001:001671e0       ?update_precision@?$standard_base@_WV?$stream_output_adapter@_W@__crt_stdio_output@@@__crt_stdio_output@@IEAA_NXZ 00000001801681e0 f i libucrt:output.obj
 0001:001671f4       ?update_precision@?$standard_base@_WV?$string_output_adapter@_W@__crt_stdio_output@@@__crt_stdio_output@@IEAA_NXZ 00000001801681f4 f i libucrt:output.obj
 0001:00167208       ?valid@__crt_stdio_stream@@QEBA_NXZ 0000000180168208 f i libucrt:output.obj
 0001:00167210       ?validate@?$stream_output_adapter@D@__crt_stdio_output@@QEBA_NXZ 0000000180168210 f i libucrt:output.obj
 0001:0016723c       ?validate@?$stream_output_adapter@_W@__crt_stdio_output@@QEBA_NXZ 000000018016823c f i libucrt:output.obj
 0001:00167264       ?validate@?$string_output_adapter@D@__crt_stdio_output@@QEBA_NXZ 0000000180168264 f i libucrt:output.obj
 0001:0016728c       ?validate@?$string_output_adapter@_W@__crt_stdio_output@@QEBA_NXZ 000000018016828c f i libucrt:output.obj
 0001:001672b4       ?validate_and_store_parameter_data@?$positional_parameter_base@DV?$stream_output_adapter@D@__crt_stdio_output@@@__crt_stdio_output@@AEAA_NAEAUparameter_data@12@W4parameter_type@12@DW4length_modifier@2@@Z 00000001801682b4 f i libucrt:output.obj
 0001:001672f4       ?validate_and_store_parameter_data@?$positional_parameter_base@DV?$string_output_adapter@D@__crt_stdio_output@@@__crt_stdio_output@@AEAA_NAEAUparameter_data@12@W4parameter_type@12@DW4length_modifier@2@@Z 00000001801682f4 f i libucrt:output.obj
 0001:00167334       ?validate_and_store_parameter_data@?$positional_parameter_base@_WV?$stream_output_adapter@_W@__crt_stdio_output@@@__crt_stdio_output@@AEAA_NAEAUparameter_data@12@W4parameter_type@12@_WW4length_modifier@2@@Z 0000000180168334 f i libucrt:output.obj
 0001:00167374       ?validate_and_store_parameter_data@?$positional_parameter_base@_WV?$string_output_adapter@_W@__crt_stdio_output@@@__crt_stdio_output@@AEAA_NAEAUparameter_data@12@W4parameter_type@12@_WW4length_modifier@2@@Z 0000000180168374 f i libucrt:output.obj
 0001:001673b4       ?validate_and_update_state_at_beginning_of_format_character@?$positional_parameter_base@DV?$stream_output_adapter@D@__crt_stdio_output@@@__crt_stdio_output@@IEAA_NXZ 00000001801683b4 f i libucrt:output.obj
 0001:001674c0       ?validate_and_update_state_at_beginning_of_format_character@?$positional_parameter_base@DV?$string_output_adapter@D@__crt_stdio_output@@@__crt_stdio_output@@IEAA_NXZ 00000001801684c0 f i libucrt:output.obj
 0001:001675cc       ?validate_and_update_state_at_beginning_of_format_character@?$positional_parameter_base@_WV?$stream_output_adapter@_W@__crt_stdio_output@@@__crt_stdio_output@@IEAA_NXZ 00000001801685cc f i libucrt:output.obj
 0001:001676e0       ?validate_and_update_state_at_beginning_of_format_character@?$positional_parameter_base@_WV?$string_output_adapter@_W@__crt_stdio_output@@@__crt_stdio_output@@IEAA_NXZ 00000001801686e0 f i libucrt:output.obj
 0001:001677f4       ?validate_and_update_state_at_beginning_of_format_character@?$standard_base@DV?$stream_output_adapter@D@__crt_stdio_output@@@__crt_stdio_output@@IEAA_NXZ 00000001801687f4 f i libucrt:output.obj
 0001:001677f8       ?validate_and_update_state_at_beginning_of_format_character@?$standard_base@DV?$string_output_adapter@D@__crt_stdio_output@@@__crt_stdio_output@@IEAA_NXZ 00000001801687f8 f i libucrt:output.obj
 0001:001677fc       ?validate_and_update_state_at_beginning_of_format_character@?$standard_base@_WV?$stream_output_adapter@_W@__crt_stdio_output@@@__crt_stdio_output@@IEAA_NXZ 00000001801687fc f i libucrt:output.obj
 0001:00167800       ?validate_and_update_state_at_beginning_of_format_character@?$standard_base@_WV?$string_output_adapter@_W@__crt_stdio_output@@@__crt_stdio_output@@IEAA_NXZ 0000000180168800 f i libucrt:output.obj
 0001:00167804       ?validate_and_update_state_at_end_of_format_string@?$format_validation_base@DV?$stream_output_adapter@D@__crt_stdio_output@@@__crt_stdio_output@@IEBA_NXZ 0000000180168804 f i libucrt:output.obj
 0001:00167830       ?validate_and_update_state_at_end_of_format_string@?$format_validation_base@DV?$string_output_adapter@D@__crt_stdio_output@@@__crt_stdio_output@@IEBA_NXZ 0000000180168830 f i libucrt:output.obj
 0001:0016785c       ?validate_and_update_state_at_end_of_format_string@?$format_validation_base@_WV?$stream_output_adapter@_W@__crt_stdio_output@@@__crt_stdio_output@@IEBA_NXZ 000000018016885c f i libucrt:output.obj
 0001:00167888       ?validate_and_update_state_at_end_of_format_string@?$format_validation_base@_WV?$string_output_adapter@_W@__crt_stdio_output@@@__crt_stdio_output@@IEBA_NXZ 0000000180168888 f i libucrt:output.obj
 0001:001678b4       ?validate_and_update_state_at_end_of_format_string@?$positional_parameter_base@DV?$stream_output_adapter@D@__crt_stdio_output@@@__crt_stdio_output@@IEAA_NXZ 00000001801688b4 f i libucrt:output.obj
 0001:00167950       ?validate_and_update_state_at_end_of_format_string@?$positional_parameter_base@DV?$string_output_adapter@D@__crt_stdio_output@@@__crt_stdio_output@@IEAA_NXZ 0000000180168950 f i libucrt:output.obj
 0001:001679ec       ?validate_and_update_state_at_end_of_format_string@?$positional_parameter_base@_WV?$stream_output_adapter@_W@__crt_stdio_output@@@__crt_stdio_output@@IEAA_NXZ 00000001801689ec f i libucrt:output.obj
 0001:00167a88       ?validate_and_update_state_at_end_of_format_string@?$positional_parameter_base@_WV?$string_output_adapter@_W@__crt_stdio_output@@@__crt_stdio_output@@IEAA_NXZ 0000000180168a88 f i libucrt:output.obj
 0001:00167b24       ?validate_and_update_state_at_end_of_format_string@?$standard_base@DV?$stream_output_adapter@D@__crt_stdio_output@@@__crt_stdio_output@@IEBA_NXZ 0000000180168b24 f i libucrt:output.obj
 0001:00167b28       ?validate_and_update_state_at_end_of_format_string@?$standard_base@DV?$string_output_adapter@D@__crt_stdio_output@@@__crt_stdio_output@@IEBA_NXZ 0000000180168b28 f i libucrt:output.obj
 0001:00167b2c       ?validate_and_update_state_at_end_of_format_string@?$standard_base@_WV?$stream_output_adapter@_W@__crt_stdio_output@@@__crt_stdio_output@@IEBA_NXZ 0000000180168b2c f i libucrt:output.obj
 0001:00167b30       ?validate_and_update_state_at_end_of_format_string@?$standard_base@_WV?$string_output_adapter@_W@__crt_stdio_output@@@__crt_stdio_output@@IEBA_NXZ 0000000180168b30 f i libucrt:output.obj
 0001:00167b34       ?validate_state_for_type_case_a@?$positional_parameter_base@DV?$stream_output_adapter@D@__crt_stdio_output@@@__crt_stdio_output@@IEAA_NXZ 0000000180168b34 f i libucrt:output.obj
 0001:00167bd0       ?validate_state_for_type_case_a@?$positional_parameter_base@DV?$string_output_adapter@D@__crt_stdio_output@@@__crt_stdio_output@@IEAA_NXZ 0000000180168bd0 f i libucrt:output.obj
 0001:00167c6c       ?validate_state_for_type_case_a@?$positional_parameter_base@_WV?$stream_output_adapter@_W@__crt_stdio_output@@@__crt_stdio_output@@IEAA_NXZ 0000000180168c6c f i libucrt:output.obj
 0001:00167d0c       ?validate_state_for_type_case_a@?$positional_parameter_base@_WV?$string_output_adapter@_W@__crt_stdio_output@@@__crt_stdio_output@@IEAA_NXZ 0000000180168d0c f i libucrt:output.obj
 0001:00167dac       ?validate_state_for_type_case_a@?$standard_base@DV?$stream_output_adapter@D@__crt_stdio_output@@@__crt_stdio_output@@IEBA_NXZ 0000000180168dac f i libucrt:output.obj
 0001:00167db0       ?validate_state_for_type_case_a@?$standard_base@DV?$string_output_adapter@D@__crt_stdio_output@@@__crt_stdio_output@@IEBA_NXZ 0000000180168db0 f i libucrt:output.obj
 0001:00167db4       ?validate_state_for_type_case_a@?$standard_base@_WV?$stream_output_adapter@_W@__crt_stdio_output@@@__crt_stdio_output@@IEBA_NXZ 0000000180168db4 f i libucrt:output.obj
 0001:00167db8       ?validate_state_for_type_case_a@?$standard_base@_WV?$string_output_adapter@_W@__crt_stdio_output@@@__crt_stdio_output@@IEBA_NXZ 0000000180168db8 f i libucrt:output.obj
 0001:00167dbc       ?validate_stream_is_ansi_if_required@?$__acrt_stdio_char_traits@D@@SA_NQEAU_iobuf@@@Z 0000000180168dbc f i libucrt:output.obj
 0001:00167e58       ?validate_stream_is_ansi_if_required@?$__acrt_stdio_char_traits@_W@@SA_NQEAU_iobuf@@@Z 0000000180168e58 f i libucrt:output.obj
 0001:00167e5c       ?wide_null_string@?$output_processor@DV?$stream_output_adapter@D@__crt_stdio_output@@V?$format_validation_base@DV?$stream_output_adapter@D@__crt_stdio_output@@@2@@__crt_stdio_output@@CAPEA_WXZ 0000000180168e5c f i libucrt:output.obj
 0001:00167e64       ?wide_null_string@?$output_processor@DV?$stream_output_adapter@D@__crt_stdio_output@@V?$positional_parameter_base@DV?$stream_output_adapter@D@__crt_stdio_output@@@2@@__crt_stdio_output@@CAPEA_WXZ 0000000180168e64 f i libucrt:output.obj
 0001:00167e6c       ?wide_null_string@?$output_processor@DV?$stream_output_adapter@D@__crt_stdio_output@@V?$standard_base@DV?$stream_output_adapter@D@__crt_stdio_output@@@2@@__crt_stdio_output@@CAPEA_WXZ 0000000180168e6c f i libucrt:output.obj
 0001:00167e74       ?wide_null_string@?$output_processor@DV?$string_output_adapter@D@__crt_stdio_output@@V?$format_validation_base@DV?$string_output_adapter@D@__crt_stdio_output@@@2@@__crt_stdio_output@@CAPEA_WXZ 0000000180168e74 f i libucrt:output.obj
 0001:00167e7c       ?wide_null_string@?$output_processor@DV?$string_output_adapter@D@__crt_stdio_output@@V?$positional_parameter_base@DV?$string_output_adapter@D@__crt_stdio_output@@@2@@__crt_stdio_output@@CAPEA_WXZ 0000000180168e7c f i libucrt:output.obj
 0001:00167e84       ?wide_null_string@?$output_processor@DV?$string_output_adapter@D@__crt_stdio_output@@V?$standard_base@DV?$string_output_adapter@D@__crt_stdio_output@@@2@@__crt_stdio_output@@CAPEA_WXZ 0000000180168e84 f i libucrt:output.obj
 0001:00167e8c       ?wide_null_string@?$output_processor@_WV?$stream_output_adapter@_W@__crt_stdio_output@@V?$format_validation_base@_WV?$stream_output_adapter@_W@__crt_stdio_output@@@2@@__crt_stdio_output@@CAPEA_WXZ 0000000180168e8c f i libucrt:output.obj
 0001:00167e94       ?wide_null_string@?$output_processor@_WV?$stream_output_adapter@_W@__crt_stdio_output@@V?$positional_parameter_base@_WV?$stream_output_adapter@_W@__crt_stdio_output@@@2@@__crt_stdio_output@@CAPEA_WXZ 0000000180168e94 f i libucrt:output.obj
 0001:00167e9c       ?wide_null_string@?$output_processor@_WV?$stream_output_adapter@_W@__crt_stdio_output@@V?$standard_base@_WV?$stream_output_adapter@_W@__crt_stdio_output@@@2@@__crt_stdio_output@@CAPEA_WXZ 0000000180168e9c f i libucrt:output.obj
 0001:00167ea4       ?wide_null_string@?$output_processor@_WV?$string_output_adapter@_W@__crt_stdio_output@@V?$format_validation_base@_WV?$string_output_adapter@_W@__crt_stdio_output@@@2@@__crt_stdio_output@@CAPEA_WXZ 0000000180168ea4 f i libucrt:output.obj
 0001:00167eac       ?wide_null_string@?$output_processor@_WV?$string_output_adapter@_W@__crt_stdio_output@@V?$positional_parameter_base@_WV?$string_output_adapter@_W@__crt_stdio_output@@@2@@__crt_stdio_output@@CAPEA_WXZ 0000000180168eac f i libucrt:output.obj
 0001:00167eb4       ?wide_null_string@?$output_processor@_WV?$string_output_adapter@_W@__crt_stdio_output@@V?$standard_base@_WV?$string_output_adapter@_W@__crt_stdio_output@@@2@@__crt_stdio_output@@CAPEA_WXZ 0000000180168eb4 f i libucrt:output.obj
 0001:00167ebc       ?write_character@?$output_adapter_common@DV?$stream_output_adapter@D@__crt_stdio_output@@@__crt_stdio_output@@QEBAXDQEAH@Z 0000000180168ebc f i libucrt:output.obj
 0001:00167f04       ?write_character@?$output_adapter_common@_WV?$stream_output_adapter@_W@__crt_stdio_output@@@__crt_stdio_output@@QEBAX_WQEAH@Z 0000000180168f04 f i libucrt:output.obj
 0001:00167f50       ?write_character@?$string_output_adapter@D@__crt_stdio_output@@QEBA_NDQEAH@Z 0000000180168f50 f i libucrt:output.obj
 0001:00167f98       ?write_character@?$string_output_adapter@_W@__crt_stdio_output@@QEBA_N_WQEAH@Z 0000000180168f98 f i libucrt:output.obj
 0001:00167fe0       ?write_character_without_count_update@?$stream_output_adapter@D@__crt_stdio_output@@QEBA_ND@Z 0000000180168fe0 f i libucrt:output.obj
 0001:00168020       ?write_character_without_count_update@?$stream_output_adapter@_W@__crt_stdio_output@@QEBA_N_W@Z 0000000180169020 f i libucrt:output.obj
 0001:00168060       ?write_stored_string_tchar@?$output_processor@DV?$stream_output_adapter@D@__crt_stdio_output@@V?$format_validation_base@DV?$stream_output_adapter@D@__crt_stdio_output@@@2@@__crt_stdio_output@@AEAA_ND@Z 0000000180169060 f i libucrt:output.obj
 0001:00168184       ?write_stored_string_tchar@?$output_processor@DV?$stream_output_adapter@D@__crt_stdio_output@@V?$positional_parameter_base@DV?$stream_output_adapter@D@__crt_stdio_output@@@2@@__crt_stdio_output@@AEAA_ND@Z 0000000180169184 f i libucrt:output.obj
 0001:001682a8       ?write_stored_string_tchar@?$output_processor@DV?$stream_output_adapter@D@__crt_stdio_output@@V?$standard_base@DV?$stream_output_adapter@D@__crt_stdio_output@@@2@@__crt_stdio_output@@AEAA_ND@Z 00000001801692a8 f i libucrt:output.obj
 0001:001683cc       ?write_stored_string_tchar@?$output_processor@DV?$string_output_adapter@D@__crt_stdio_output@@V?$format_validation_base@DV?$string_output_adapter@D@__crt_stdio_output@@@2@@__crt_stdio_output@@AEAA_ND@Z 00000001801693cc f i libucrt:output.obj
 0001:001684a8       ?write_stored_string_tchar@?$output_processor@DV?$string_output_adapter@D@__crt_stdio_output@@V?$positional_parameter_base@DV?$string_output_adapter@D@__crt_stdio_output@@@2@@__crt_stdio_output@@AEAA_ND@Z 00000001801694a8 f i libucrt:output.obj
 0001:00168584       ?write_stored_string_tchar@?$output_processor@DV?$string_output_adapter@D@__crt_stdio_output@@V?$standard_base@DV?$string_output_adapter@D@__crt_stdio_output@@@2@@__crt_stdio_output@@AEAA_ND@Z 0000000180169584 f i libucrt:output.obj
 0001:00168660       ?write_stored_string_tchar@?$output_processor@_WV?$stream_output_adapter@_W@__crt_stdio_output@@V?$format_validation_base@_WV?$stream_output_adapter@_W@__crt_stdio_output@@@2@@__crt_stdio_output@@AEAA_N_W@Z 0000000180169660 f i libucrt:output.obj
 0001:00168764       ?write_stored_string_tchar@?$output_processor@_WV?$stream_output_adapter@_W@__crt_stdio_output@@V?$positional_parameter_base@_WV?$stream_output_adapter@_W@__crt_stdio_output@@@2@@__crt_stdio_output@@AEAA_N_W@Z 0000000180169764 f i libucrt:output.obj
 0001:00168868       ?write_stored_string_tchar@?$output_processor@_WV?$stream_output_adapter@_W@__crt_stdio_output@@V?$standard_base@_WV?$stream_output_adapter@_W@__crt_stdio_output@@@2@@__crt_stdio_output@@AEAA_N_W@Z 0000000180169868 f i libucrt:output.obj
 0001:0016896c       ?write_stored_string_tchar@?$output_processor@_WV?$string_output_adapter@_W@__crt_stdio_output@@V?$format_validation_base@_WV?$string_output_adapter@_W@__crt_stdio_output@@@2@@__crt_stdio_output@@AEAA_N_W@Z 000000018016996c f i libucrt:output.obj
 0001:00168a54       ?write_stored_string_tchar@?$output_processor@_WV?$string_output_adapter@_W@__crt_stdio_output@@V?$positional_parameter_base@_WV?$string_output_adapter@_W@__crt_stdio_output@@@2@@__crt_stdio_output@@AEAA_N_W@Z 0000000180169a54 f i libucrt:output.obj
 0001:00168b3c       ?write_stored_string_tchar@?$output_processor@_WV?$string_output_adapter@_W@__crt_stdio_output@@V?$standard_base@_WV?$string_output_adapter@_W@__crt_stdio_output@@@2@@__crt_stdio_output@@AEAA_N_W@Z 0000000180169b3c f i libucrt:output.obj
 0001:00168c24       ?write_string@?$stream_output_adapter@D@__crt_stdio_output@@QEBAXQEBDHQEAHAEAV__crt_deferred_errno_cache@@@Z 0000000180169c24 f i libucrt:output.obj
 0001:00168c48       ?write_string@?$stream_output_adapter@_W@__crt_stdio_output@@QEBAXQEB_WHQEAHAEAV__crt_deferred_errno_cache@@@Z 0000000180169c48 f i libucrt:output.obj
 0001:00168c6c       ?write_string@?$string_output_adapter@D@__crt_stdio_output@@QEBAXQEBDHQEAHAEAV__crt_deferred_errno_cache@@@Z 0000000180169c6c f i libucrt:output.obj
 0001:00168d10       ?write_string@?$string_output_adapter@_W@__crt_stdio_output@@QEBAXQEB_WHQEAHAEAV__crt_deferred_errno_cache@@@Z 0000000180169d10 f i libucrt:output.obj
 0001:00168db8       ?write_string_impl@?$output_adapter_common@DV?$stream_output_adapter@D@__crt_stdio_output@@@__crt_stdio_output@@IEBAXQEBDHQEAHAEAV__crt_deferred_errno_cache@@@Z 0000000180169db8 f i libucrt:output.obj
 0001:00168eb0       ?write_string_impl@?$output_adapter_common@_WV?$stream_output_adapter@_W@__crt_stdio_output@@@__crt_stdio_output@@IEBAXQEB_WHQEAHAEAV__crt_deferred_errno_cache@@@Z 0000000180169eb0 f i libucrt:output.obj
 0001:00168fb0       __acrt_disable_global_locale_sync 0000000180169fb0 f i libucrt:output.obj
 0001:00168fb8       __acrt_enable_global_locale_sync 0000000180169fb8 f i libucrt:output.obj
 0001:00168fc4       __acrt_isleadbyte_l_noupdate 0000000180169fc4 f i libucrt:output.obj
 0001:00168fe8       __acrt_locale_changed      0000000180169fe8 f i libucrt:output.obj
 0001:00168ff4       __acrt_locale_get_ctype_array_value 0000000180169ff4 f i libucrt:output.obj
 0001:0016900c       __stdio_common_vfprintf    000000018016a00c f   libucrt:output.obj
 0001:00169098       __stdio_common_vfprintf_p  000000018016a098 f   libucrt:output.obj
 0001:00169124       __stdio_common_vfprintf_s  000000018016a124 f   libucrt:output.obj
 0001:001691b0       __stdio_common_vfwprintf   000000018016a1b0 f   libucrt:output.obj
 0001:0016923c       __stdio_common_vfwprintf_p 000000018016a23c f   libucrt:output.obj
 0001:001692c8       __stdio_common_vfwprintf_s 000000018016a2c8 f   libucrt:output.obj
 0001:00169354       __stdio_common_vsnprintf_s 000000018016a354 f   libucrt:output.obj
 0001:001694a0       __stdio_common_vsnwprintf_s 000000018016a4a0 f   libucrt:output.obj
 0001:001695fc       __stdio_common_vsprintf    000000018016a5fc f   libucrt:output.obj
 0001:00169604       __stdio_common_vsprintf_p  000000018016a604 f   libucrt:output.obj
 0001:0016960c       __stdio_common_vsprintf_s  000000018016a60c f   libucrt:output.obj
 0001:00169670       __stdio_common_vswprintf   000000018016a670 f   libucrt:output.obj
