 PhysXCooking_64

 Timestamp is 5ee82d08 (Mon Jun 15 19:23:04 2020)

 Preferred load address is 0000000180000000

 Start         Length     Name                   Class
 0001:00000000 000003c0H .text$di                CODE
 0001:000003c0 0007b7d0H .text$mn                CODE
 0001:0007bb90 00000040H .text$mn$00             CODE
 0001:0007bbd0 000009f0H .text$x                 CODE
 0002:00000000 000002d0H .idata$5                DATA
 0002:000002d0 00000028H .00cfg                  DATA
 0002:000002f8 00000008H .CRT$XCA                DATA
 0002:00000300 000001e0H .CRT$XCU                DATA
 0002:000004e0 00000008H .CRT$XCZ                DATA
 0002:000004e8 00000008H .CRT$XIA                DATA
 0002:000004f0 00000018H .CRT$XIC                DATA
 0002:00000508 00000008H .CRT$XIZ                DATA
 0002:00000510 00000008H .CRT$XPA                DATA
 0002:00000518 00000010H .CRT$XPX                DATA
 0002:00000528 00000008H .CRT$XPXA               DATA
 0002:00000530 00000008H .CRT$XPZ                DATA
 0002:00000538 00000008H .CRT$XTA                DATA
 0002:00000540 00000010H .CRT$XTZ                DATA
 0002:00000548 00000000H .gfids$y                DATA
 0002:00000550 0000d6a8H .rdata                  DATA
 0002:0000dbf8 00000464H .rdata$r                DATA
 0002:0000e05c 000003e4H .rdata$zzzdbg           DATA
 0002:0000e440 00000008H .rtc$IAA                DATA
 0002:0000e448 00000008H .rtc$IZZ                DATA
 0002:0000e450 00000008H .rtc$TAA                DATA
 0002:0000e458 00000008H .rtc$TZZ                DATA
 0002:0000e460 00008d28H .xdata                  DATA
 0002:00017188 00000084H .xdata$x                DATA
 0002:0001720c 00000040H .didat$2                DATA
 0002:0001724c 00000024H .didat$3                DATA
 0002:00017270 00000198H .didat$4                DATA
 0002:00017408 000009c0H .didat$6                DATA
 0002:00017dc8 00000198H .didat$7                DATA
 0002:00017f60 00001d00H .edata                  DATA
 0002:00019c60 00000014H .idata$2                DATA
 0002:00019c74 00000014H .idata$3                DATA
 0002:00019c88 000002d0H .idata$4                DATA
 0002:00019f58 00000694H .idata$6                DATA
 0003:00000000 00000aa0H .data                   DATA
 0003:00000aa0 00000798H .data$r                 DATA
 0003:00001238 00000198H .didat$5                DATA
 0003:000013d0 00001e60H .bss                    DATA
 0004:00000000 00006888H .pdata                  DATA
 0005:00000000 000022a4H _RDATA                  DATA
 0006:00000000 000000a0H .rsrc$01                DATA
 0006:000000a0 000004b0H .rsrc$02                DATA

  Address         Publics by Value              Rva+Base               Lib:Object

 0000:00000000       __guard_fids_table         0000000000000000     <absolute>
 0000:00000000       __hybrid_auxiliary_iat     0000000000000000     <absolute>
 0000:00000000       ___safe_se_handler_count   0000000000000000     <absolute>
 0000:00000000       __guard_longjmp_count      0000000000000000     <absolute>
 0000:00000000       __guard_iat_count          0000000000000000     <absolute>
 0000:00000000       __enclave_config           0000000000000000     <absolute>
 0000:00000000       __hybrid_code_map_count    0000000000000000     <absolute>
 0000:00000000       __guard_longjmp_table      0000000000000000     <absolute>
 0000:00000000       __guard_iat_table          0000000000000000     <absolute>
 0000:00000000       __arm64x_native_entrypoint 0000000000000000     <absolute>
 0000:00000000       __guard_eh_cont_count      0000000000000000     <absolute>
 0000:00000000       __guard_eh_cont_table      0000000000000000     <absolute>
 0000:00000000       ___safe_se_handler_table   0000000000000000     <absolute>
 0000:00000000       __guard_fids_count         0000000000000000     <absolute>
 0000:00000000       __hybrid_code_map          0000000000000000     <absolute>
 0000:00000000       __x64_code_ranges_to_entry_points 0000000000000000     <absolute>
 0000:00000000       __arm64x_redirection_metadata 0000000000000000     <absolute>
 0000:00000000       __AbsoluteZero             0000000000000000     <absolute>
 0000:00000000       __dynamic_value_reloc_table 0000000000000000     <absolute>
 0000:00000000       __volatile_metadata        0000000000000000     <absolute>
 0000:00000100       __guard_flags              0000000000000100     <absolute>
 0000:00000000       __ImageBase                0000000180000000     <linker-defined>
 0001:000003c0       ?ComputeNbBoundaryEdges@AdjTriangle@physx@@QEBAIXZ 00000001800013c0 f   Adjacencies.obj
 0001:00000410       ?ComputeNbNeighbors@AdjTriangle@physx@@QEBAIXZ 0000000180001410 f   Adjacencies.obj
 0001:00000460       ?HasNeighbor@AdjTriangle@physx@@QEBA_NIPEAI@Z 0000000180001460 f   Adjacencies.obj
 0001:000004d0       ?Flip@AdjTriangle@physx@@QEAAXXZ 00000001800014d0 f   Adjacencies.obj
 0001:000004f0       ??0Adjacencies@physx@@QEAA@XZ 00000001800014f0 f   Adjacencies.obj
 0001:00000510       ??1Adjacencies@physx@@QEAA@XZ 0000000180001510 f   Adjacencies.obj
 0001:00000580       ?Load@Adjacencies@physx@@QEAA_NAEAVPxInputStream@2@@Z 0000000180001580 f   Adjacencies.obj
 0001:00000660       ?ComputeNbBoundaryEdges@Adjacencies@physx@@QEBAIXZ 0000000180001660 f   Adjacencies.obj
 0001:000006e0       ?GetBoundaryVertices@Adjacencies@physx@@QEBA_NIPEA_NPEBU?$TriangleT@I@Gu@2@@Z 00000001800016e0 f   Adjacencies.obj
 0001:00000850       ?MakeLastRef@Adjacencies@physx@@QEAA_NAEAVAdjTriangle@2@IPEAU?$TriangleT@I@Gu@2@@Z 0000000180001850 f   Adjacencies.obj
 0001:00000aa0       ?AssignNewEdgeCode@Adjacencies@physx@@AEAAXIE@Z 0000000180001aa0 f   Adjacencies.obj
 0001:00000af0       ??0AdjacenciesBuilder@physx@@QEAA@XZ 0000000180001af0 f   Adjacencies.obj
 0001:00000b10       ??1AdjacenciesBuilder@physx@@QEAA@XZ 0000000180001b10 f   Adjacencies.obj
 0001:00000b20       ?Init@AdjacenciesBuilder@physx@@QEAA_NAEBUADJACENCIESCREATE@2@@Z 0000000180001b20 f   Adjacencies.obj
 0001:00000e90       ??$?_UV?$ReflectionAllocator@VAdjTriangle@physx@@@shdfnd@physx@@@UserAllocated@shdfnd@physx@@SAPEAX_KV?$ReflectionAllocator@VAdjTriangle@physx@@@12@PEBDH@Z 0000000180001e90 f i Adjacencies.obj
 0001:00000f30       ??0AdjEdge@@QEAA@XZ        0000000180001f30 f i Adjacencies.obj
 0001:00000f40       ??0AdjTriangle@physx@@QEAA@XZ 0000000180001f40 f i Adjacencies.obj
 0001:00000f50       ??0Allocator@shdfnd@physx@@QEAA@PEBD@Z 0000000180001f50 f i Adjacencies.obj
 0001:00000f60       ??0PxFoundation@physx@@QEAA@AEBV01@@Z 0000000180001f60 f i Adjacencies.obj
 0001:00000f70       ??0PxFoundation@physx@@QEAA@XZ 0000000180001f70 f i Adjacencies.obj
 0001:00000f80       ??1AdjEdge@@QEAA@XZ        0000000180001f80 f i Adjacencies.obj
 0001:00000f90       ??1AdjTriangle@physx@@QEAA@XZ 0000000180001f90 f i Adjacencies.obj
 0001:00000fa0       ??1PxFoundation@physx@@MEAA@XZ 0000000180001fa0 f i Adjacencies.obj
 0001:00000fb0       ??4Allocator@shdfnd@physx@@QEAAAEAV012@$$QEAV012@@Z 0000000180001fb0 f i Adjacencies.obj
 0001:00000fc0       ??4Allocator@shdfnd@physx@@QEAAAEAV012@AEBV012@@Z 0000000180001fc0 f i Adjacencies.obj
 0001:00000fd0       ??4MutexImpl@shdfnd@physx@@QEAAAEAV012@AEBV012@@Z 0000000180001fd0 f i Adjacencies.obj
 0001:00000fe0       ??4PxFoundation@physx@@QEAAAEAV01@AEBV01@@Z 0000000180001fe0 f i Adjacencies.obj
 0001:00000ff0       ??_EAdjEdge@@QEAAPEAXI@Z   0000000180001ff0 f i Adjacencies.obj
 0001:00001070       ??_EAdjTriangle@physx@@QEAAPEAXI@Z 0000000180002070 f i Adjacencies.obj
 0001:000010f0       ??_EPxFoundation@physx@@MEAAPEAXI@Z 00000001800020f0 f i Adjacencies.obj
 0001:00001180       ??_FAllocator@shdfnd@physx@@QEAAXXZ 0000000180002180 f i Adjacencies.obj
 0001:00001190       ??_GPxFoundation@physx@@MEAAPEAXI@Z 0000000180002190 f i Adjacencies.obj
 0001:000011c0       ??_H@YAXPEAX_K1P6APEAX0@Z@Z 00000001800021c0 f i Adjacencies.obj
 0001:00001210       ??_I@YAXPEAX_K1P6AX0@Z@Z   0000000180002210 f i Adjacencies.obj
 0001:000014d0       ?GetNbHits@RadixSort@Cm@physx@@QEBAIXZ 00000001800024d0 f i Adjacencies.obj
 0001:000014e0       ?GetNbTotalCalls@RadixSort@Cm@physx@@QEBAIXZ 00000001800024e0 f i Adjacencies.obj
 0001:000014f0       ?GetRanks@RadixSort@Cm@physx@@QEBAPEBIXZ 00000001800024f0 f i Adjacencies.obj
 0001:00001500       ?GetRecyclable@RadixSort@Cm@physx@@QEBAPEAIXZ 0000000180002500 f i Adjacencies.obj
 0001:00001750       ?__empty_global_delete@@YAXPEAX@Z 0000000180002750 f i Adjacencies.obj
 0001:00001760       ?__empty_global_delete@@YAXPEAX_K@Z 0000000180002760 f i Adjacencies.obj
 0001:00001770       ?getAllocator@Foundation@shdfnd@physx@@QEAAAEAVPxAllocatorCallback@3@XZ 0000000180002770 f i Adjacencies.obj
 0001:00001780       ?getAllocatorCallback@Foundation@shdfnd@physx@@UEAAAEAVPxAllocatorCallback@3@XZ 0000000180002780 f i Adjacencies.obj
 0001:00001790       ?getErrorCallback@Foundation@shdfnd@physx@@UEAAAEAVPxErrorCallback@3@XZ 0000000180002790 f i Adjacencies.obj
 0001:000017a0       ?getErrorLevel@Foundation@shdfnd@physx@@UEBA?AW4Enum@PxErrorCode@3@XZ 00000001800027a0 f i Adjacencies.obj
 0001:000017b0       ?getInternalErrorCallback@Foundation@shdfnd@physx@@QEAAAEAVPxErrorCallback@3@XZ 00000001800027b0 f i Adjacencies.obj
 0001:000017c0       ?getNamedAllocMap@Foundation@shdfnd@physx@@QEAAAEAV?$HashMap@PEBVNamedAllocator@shdfnd@physx@@PEBDU?$Hash@PEBVNamedAllocator@shdfnd@physx@@@23@VNonTrackingAllocator@23@@23@XZ 00000001800027c0 f i Adjacencies.obj
 0001:000017d0       ?getNamedAllocMutex@Foundation@shdfnd@physx@@QEAAAEAV?$MutexT@VAllocator@shdfnd@physx@@@23@XZ 00000001800027d0 f i Adjacencies.obj
 0001:000017e0       ?getReportAllocationNames@Foundation@shdfnd@physx@@UEBA_NXZ 00000001800027e0 f i Adjacencies.obj
 0001:000017f0       ?getTempAllocFreeTable@Foundation@shdfnd@physx@@QEAAAEAV?$Array@PEATTempAllocatorChunk@shdfnd@physx@@VAllocator@23@@23@XZ 00000001800027f0 f i Adjacencies.obj
 0001:00001800       ?getTempAllocMutex@Foundation@shdfnd@physx@@QEAAAEAV?$MutexT@VAllocator@shdfnd@physx@@@23@XZ 0000000180002800 f i Adjacencies.obj
 0001:00001810       ?invalidateRanks@RadixSort@Cm@physx@@QEAAXXZ 0000000180002810 f i Adjacencies.obj
 0001:00001820       ?setErrorLevel@Foundation@shdfnd@physx@@UEAAXW4Enum@PxErrorCode@3@@Z 0000000180002820 f i Adjacencies.obj
 0001:00001830       ?setReportAllocationNames@Foundation@shdfnd@physx@@UEAAX_N@Z 0000000180002830 f i Adjacencies.obj
 0001:00001840       PxCreateCooking            0000000180002840 f   Cooking.obj
 0001:00001930       ?release@Cooking@physx@@UEAAXXZ 0000000180002930 f   Cooking.obj
 0001:00001960       ?setParams@Cooking@physx@@UEAAXAEBUPxCookingParams@2@@Z 0000000180002960 f   Cooking.obj
 0001:000019c0       ?getParams@Cooking@physx@@UEBAAEBUPxCookingParams@2@XZ 00000001800029c0 f   Cooking.obj
 0001:000019d0       ?platformMismatch@Cooking@physx@@UEBA_NXZ 00000001800029d0 f   Cooking.obj
 0001:000019e0       ?cookTriangleMesh@Cooking@physx@@UEBA_NAEBVPxTriangleMeshDesc@2@AEAVPxOutputStream@2@PEAW4Enum@PxTriangleMeshCookingResult@2@@Z 00000001800029e0 f   Cooking.obj
 0001:00001b20       ?createTriangleMesh@Cooking@physx@@UEBAPEAVPxTriangleMesh@2@AEBVPxTriangleMeshDesc@2@AEAVPxPhysicsInsertionCallback@2@PEAW4Enum@PxTriangleMeshCookingResult@2@@Z 0000000180002b20 f   Cooking.obj
 0001:00001c80       ?validateTriangleMesh@Cooking@physx@@UEBA_NAEBVPxTriangleMeshDesc@2@@Z 0000000180002c80 f   Cooking.obj
 0001:00001d90       ?cookConvexMesh@Cooking@physx@@UEBA_NAEBVPxConvexMeshDesc@2@AEAVPxOutputStream@2@PEAW4Enum@PxConvexMeshCookingResult@2@@Z 0000000180002d90 f   Cooking.obj
 0001:00001f80       ?createConvexMesh@Cooking@physx@@UEBAPEAVPxConvexMesh@2@AEBVPxConvexMeshDesc@2@AEAVPxPhysicsInsertionCallback@2@PEAW4Enum@PxConvexMeshCookingResult@2@@Z 0000000180002f80 f   Cooking.obj
 0001:00002180       ?validateConvexMesh@Cooking@physx@@UEBA_NAEBVPxConvexMeshDesc@2@@Z 0000000180003180 f   Cooking.obj
 0001:000021f0       ?computeHullPolygons@Cooking@physx@@UEBA_NAEBVPxSimpleTriangleMesh@2@AEAVPxAllocatorCallback@2@AEAIAEAPEAVPxVec3@2@2AEAPEAI2AEAPEAUPxHullPolygon@2@@Z 00000001800031f0 f   Cooking.obj
 0001:000023d0       ?cookHeightField@Cooking@physx@@UEBA_NAEBVPxHeightFieldDesc@2@AEAVPxOutputStream@2@@Z 00000001800033d0 f   Cooking.obj
 0001:000024b0       ?createHeightField@Cooking@physx@@UEBAPEAVPxHeightField@2@AEBVPxHeightFieldDesc@2@AEAVPxPhysicsInsertionCallback@2@@Z 00000001800034b0 f   Cooking.obj
 0001:00002610       ?cookBVHStructure@Cooking@physx@@UEBA_NAEBVPxBVHStructureDesc@2@AEAVPxOutputStream@2@@Z 0000000180003610 f   Cooking.obj
 0001:000026c0       ?createBVHStructure@Cooking@physx@@UEBAPEAVPxBVHStructure@2@AEBVPxBVHStructureDesc@2@AEAVPxPhysicsInsertionCallback@2@@Z 00000001800036c0 f   Cooking.obj
 0001:00002770       ?cookConvexMeshInternal@Cooking@physx@@AEBA_NAEBVPxConvexMeshDesc@2@AEAVConvexMeshBuilder@2@PEAVConvexHullLib@2@PEAW4Enum@PxConvexMeshCookingResult@2@@Z 0000000180003770 f   Cooking.obj
 0001:000029e0       ?cookTriangleMesh@Cooking@physx@@AEBA_NAEAVTriangleMeshBuilder@2@AEBVPxTriangleMeshDesc@2@AEAVPxOutputStream@2@PEAW4Enum@PxTriangleMeshCookingResult@2@@Z 00000001800039e0 f   Cooking.obj
 0001:00002a80       ?createTriangleMesh@Cooking@physx@@AEBAPEAVPxTriangleMesh@2@AEAVTriangleMeshBuilder@2@AEBVPxTriangleMeshDesc@2@AEAVPxPhysicsInsertionCallback@2@PEAW4Enum@PxTriangleMeshCookingResult@2@@Z 0000000180003a80 f   Cooking.obj
 0001:00002b30       ??0DebugText@Cm@physx@@QEAA@$$QEAU012@@Z 0000000180003b30 f i Cooking.obj
 0001:00002c10       ??0DebugText@Cm@physx@@QEAA@AEBU012@@Z 0000000180003c10 f i Cooking.obj
 0001:00002cf0       ??0HeightFieldData@Gu@physx@@QEAA@$$QEAU012@@Z 0000000180003cf0 f i Cooking.obj
 0001:00002d50       ??0HeightFieldData@Gu@physx@@QEAA@AEBU012@@Z 0000000180003d50 f i Cooking.obj
 0001:00002db0       ??0HeightFieldData@Gu@physx@@QEAA@W4PxEMPTY@2@@Z 0000000180003db0 f i Cooking.obj
 0001:00002dc0       ??0HeightFieldData@Gu@physx@@QEAA@XZ 0000000180003dc0 f i Cooking.obj
 0001:00002dd0       ??0RenderOutput@Cm@physx@@QEAA@AEAVRenderBuffer@12@@Z 0000000180003dd0 f i Cooking.obj
 0001:00002e20       ??0RenderOutput@Cm@physx@@QEAA@AEBV012@@Z 0000000180003e20 f i Cooking.obj
 0001:00002ec0       ??1HeightFieldData@Gu@physx@@QEAA@XZ 0000000180003ec0 f i Cooking.obj
 0001:00002ed0       ??1PxBase@physx@@MEAA@XZ   0000000180003ed0 f i Cooking.obj
 0001:00002ee0       ??1PxConvexMesh@physx@@MEAA@XZ 0000000180003ee0 f i Cooking.obj
 0001:00002ef0       ??1PxCooking@physx@@MEAA@XZ 0000000180003ef0 f i Cooking.obj
 0001:00002f00       ??1PxHeightField@physx@@MEAA@XZ 0000000180003f00 f i Cooking.obj
 0001:00002f10       ??4DebugText@Cm@physx@@QEAAAEAU012@$$QEAU012@@Z 0000000180003f10 f i Cooking.obj
 0001:00003040       ??4DebugText@Cm@physx@@QEAAAEAU012@AEBU012@@Z 0000000180004040 f i Cooking.obj
 0001:00003170       ??4FPUGuard@shdfnd@physx@@QEAAAEAV012@AEBV012@@Z 0000000180004170 f i Cooking.obj
 0001:00003190       ??4HeightFieldData@Gu@physx@@QEAAAEAU012@$$QEAU012@@Z 0000000180004190 f i Cooking.obj
 0001:000031f0       ??4HeightFieldData@Gu@physx@@QEAAAEAU012@AEBU012@@Z 00000001800041f0 f i Cooking.obj
 0001:00003250       ??_ECooking@physx@@UEAAPEAXI@Z 0000000180004250 f i Cooking.obj
 0001:00003250       ??_GCooking@physx@@UEAAPEAXI@Z 0000000180004250 f i Cooking.obj
 0001:000032a0       ??_EPxBase@physx@@MEAAPEAXI@Z 00000001800042a0 f i Cooking.obj
 0001:000032a0       ??_GPxBase@physx@@MEAAPEAXI@Z 00000001800042a0 f i Cooking.obj
 0001:000032d0       ??_EPxCooking@physx@@MEAAPEAXI@Z 00000001800042d0 f i Cooking.obj
 0001:000032d0       ??_GPxCooking@physx@@MEAAPEAXI@Z 00000001800042d0 f i Cooking.obj
 0001:00003300       ?allocate@?$Array@UPxDebugLine@physx@@V?$ReflectionAllocator@UPxDebugLine@physx@@@shdfnd@2@@shdfnd@physx@@IEAAPEAUPxDebugLine@3@I@Z 0000000180004300 f i Cooking.obj
 0001:000033a0       ?copy@?$Array@UPxDebugLine@physx@@V?$ReflectionAllocator@UPxDebugLine@physx@@@shdfnd@2@@shdfnd@physx@@KAXPEAUPxDebugLine@3@0PEBU43@@Z 00000001800043a0 f i Cooking.obj
 0001:00003550       ?getConcreteTypeName@PxConvexMesh@physx@@UEBAPEBDXZ 0000000180004550 f i Cooking.obj
 0001:00003560       ?getConcreteTypeName@PxHeightField@physx@@UEBAPEBDXZ 0000000180004560 f i Cooking.obj
 0001:00003570       ?getConvexEdgeThreshold@HeightField@Gu@physx@@UEBAMXZ 0000000180004570 f i Cooking.obj
 0001:00003580       ?getFlags@HeightField@Gu@physx@@UEBA?AV?$PxFlags@W4Enum@PxHeightFieldFlag@physx@@G@3@XZ 0000000180004580 f i Cooking.obj
 0001:00003590       ?getFormat@HeightField@Gu@physx@@UEBA?AW4Enum@PxHeightFieldFormat@3@XZ 0000000180004590 f i Cooking.obj
 0001:000035a0       ?getHeight@HeightField@Gu@physx@@UEBAMMM@Z 00000001800045a0 f i Cooking.obj
 0001:000035e0       ?getHeightInternal2@HeightField@Gu@physx@@QEBAMIMM@Z 00000001800045e0 f i Cooking.obj
 0001:00003750       ?getIndexBuffer@ConvexMesh@Gu@physx@@UEBAPEBEXZ 0000000180004750 f i Cooking.obj
 0001:00003790       ?getNbColumns@HeightField@Gu@physx@@UEBAIXZ 0000000180004790 f i Cooking.obj
 0001:000037a0       ?getNbPolygons@ConvexMesh@Gu@physx@@UEBAIXZ 00000001800047a0 f i Cooking.obj
 0001:000037b0       ?getNbRows@HeightField@Gu@physx@@UEBAIXZ 00000001800047b0 f i Cooking.obj
 0001:000037c0       ?getNbVertices@ConvexMesh@Gu@physx@@UEBAIXZ 00000001800047c0 f i Cooking.obj
 0001:000037d0       ?getPaddedBounds@HeightFieldData@Gu@physx@@QEBAAEBVCenterExtentsPadded@23@XZ 00000001800047d0 f i Cooking.obj
 0001:000037e0       ?getSample@HeightField@Gu@physx@@UEBAAEBUPxHeightFieldSample@3@II@Z 00000001800047e0 f i Cooking.obj
 0001:000037f0       ?getSampleStride@HeightField@Gu@physx@@UEBAIXZ 00000001800047f0 f i Cooking.obj
 0001:00003800       ?getTimestamp@HeightField@Gu@physx@@UEBAIXZ 0000000180004800 f i Cooking.obj
 0001:00003810       ?getTriangleMaterialIndex@HeightField@Gu@physx@@UEBAGI@Z 0000000180004810 f i Cooking.obj
 0001:00003840       ?getTriangleNormal@HeightField@Gu@physx@@UEBA?AVPxVec3@3@I@Z 0000000180004840 f i Cooking.obj
 0001:00003940       ?getVertices@ConvexMesh@Gu@physx@@UEBAPEBVPxVec3@3@XZ 0000000180004940 f i Cooking.obj
 0001:00003960       ?isKindOf@PxBase@physx@@MEBA_NPEBD@Z 0000000180004960 f i Cooking.obj
 0001:00003990       ?isKindOf@PxConvexMesh@physx@@MEBA_NPEBD@Z 0000000180004990 f i Cooking.obj
 0001:000039e0       ?isKindOf@PxHeightField@physx@@MEBA_NPEBD@Z 00000001800049e0 f i Cooking.obj
 0001:00003a30       ?isReleasable@PxBase@physx@@UEBA_NXZ 0000000180004a30 f i Cooking.obj
 0001:00003a40       ?outputSegment@RenderOutput@Cm@physx@@QEAAXAEBVPxVec3@3@0@Z 0000000180004a40 f i Cooking.obj
 0001:00003b00       ?preExportDataReset@ConvexMesh@Gu@physx@@QEAAXXZ 0000000180004b00 f i Cooking.obj
 0001:00003b10       ?preExportDataReset@HeightField@Gu@physx@@QEAAXXZ 0000000180004b10 f i Cooking.obj
 0001:00003b20       ?recreate@?$Array@UPxDebugLine@physx@@V?$ReflectionAllocator@UPxDebugLine@physx@@@shdfnd@2@@shdfnd@physx@@IEAAXI@Z 0000000180004b20 f i Cooking.obj
 0001:00003bb0       ?reserveSegments@RenderOutput@Cm@physx@@QEAAPEAUPxDebugLine@3@I@Z 0000000180004bb0 f i Cooking.obj
 0001:00003c20       ??0ReducedVertexCloud@physx@@QEAA@PEBVPxVec3@1@I@Z 0000000180004c20 f   CookingUtils.obj
 0001:00003c40       ??1ReducedVertexCloud@physx@@QEAA@XZ 0000000180004c40 f   CookingUtils.obj
 0001:00003c50       ?Clean@ReducedVertexCloud@physx@@QEAAAEAV12@XZ 0000000180004c50 f   CookingUtils.obj
 0001:00003cc0       ?Reduce@ReducedVertexCloud@physx@@QEAA_NPEAUREDUCEDCLOUD@2@@Z 0000000180004cc0 f   CookingUtils.obj
 0001:00003fe0       ??0EdgeList@Gu@physx@@QEAA@XZ 0000000180004fe0 f   EdgeList.obj
 0001:00004000       ??1EdgeList@Gu@physx@@QEAA@XZ 0000000180005000 f   EdgeList.obj
 0001:000040b0       ?load@EdgeList@Gu@physx@@QEAA_NAEAVPxInputStream@3@@Z 00000001800050b0 f   EdgeList.obj
 0001:000042a0       ??0EdgeListBuilder@Gu@physx@@QEAA@XZ 00000001800052a0 f   EdgeList.obj
 0001:000042c0       ??1EdgeListBuilder@Gu@physx@@QEAA@XZ 00000001800052c0 f   EdgeList.obj
 0001:000042d0       ?init@EdgeListBuilder@Gu@physx@@QEAA_NAEBUEDGELISTCREATE@23@@Z 00000001800052d0 f   EdgeList.obj
 0001:00004410       ?createFacesToEdges@EdgeListBuilder@Gu@physx@@AEAA_NIPEBIPEBG@Z 0000000180005410 f   EdgeList.obj
 0001:00004890       ?createEdgesToFaces@EdgeListBuilder@Gu@physx@@AEAA_NIPEBIPEBG@Z 0000000180005890 f   EdgeList.obj
 0001:00004af0       ?computeActiveEdges@EdgeListBuilder@Gu@physx@@AEAA_NIPEBIPEBGPEBVPxVec3@3@M@Z 0000000180005af0 f   EdgeList.obj
 0001:000060a0       ??$?_UI@@YAPEAX_KV?$ReflectionAllocator@I@shdfnd@physx@@PEBDH@Z 00000001800070a0 f i EdgeList.obj
 0001:00006140       ??0PxVec3@physx@@QEAA@XZ   0000000180007140 f i EdgeList.obj
 0001:00006150       ??0MeshCleaner@physx@@QEAA@IPEBVPxVec3@1@IPEBIM@Z 0000000180007150 f   MeshCleaner.obj
 0001:00006af0       ??1MeshCleaner@physx@@QEAA@XZ 0000000180007af0 f   MeshCleaner.obj
 0001:00006b80       ?createQuantizer@physx@@YAPEAVQuantizer@1@XZ 0000000180007b80 f   Quantizer.obj
 0001:00006c30       ?kmeans_cluster3d@@YAIPEBVPxVec3@physx@@IIPEAV12@PEAIMM@Z 0000000180007c30 f   Quantizer.obj
 0001:00006c40       ??$kmeans_cluster@VPxVec3@physx@@M@@YAIPEBVPxVec3@physx@@IIPEAV01@PEAIMM@Z 0000000180007c40 f i Quantizer.obj
 0001:00007560       ??1Quantizer@physx@@MEAA@XZ 0000000180008560 f i Quantizer.obj
 0001:00007570       ??1QuantizerImpl@@EEAA@XZ  0000000180008570 f i Quantizer.obj
 0001:000075f0       ??_EQuantizer@physx@@MEAAPEAXI@Z 00000001800085f0 f i Quantizer.obj
 0001:000075f0       ??_GQuantizer@physx@@MEAAPEAXI@Z 00000001800085f0 f i Quantizer.obj
 0001:00007620       ??_GQuantizerImpl@@EEAAPEAXI@Z 0000000180008620 f i Quantizer.obj
 0001:00007620       ??_EQuantizerImpl@@EEAAPEAXI@Z 0000000180008620 f i Quantizer.obj
 0001:000076f0       ?getDenormalizeCenter@QuantizerImpl@@UEBAAEBVPxVec3@physx@@XZ 00000001800086f0 f i Quantizer.obj
 0001:00007700       ?getDenormalizeScale@QuantizerImpl@@UEBAAEBVPxVec3@physx@@XZ 0000000180008700 f i Quantizer.obj
 0001:00007710       ?growAndPushBack@?$Array@VPxVec3@physx@@V?$ReflectionAllocator@VPxVec3@physx@@@shdfnd@2@@shdfnd@physx@@IEAAAEAVPxVec3@3@AEBV43@@Z 0000000180008710 f i Quantizer.obj
 0001:000078e0       ?kmeansQuantize3D@QuantizerImpl@@UEAAPEBVPxVec3@physx@@IPEBV23@I_NIAEAI@Z 00000001800088e0 f i Quantizer.obj
 0001:00007b40       ?normalizeInput@QuantizerImpl@@AEAAXIPEBVPxVec3@physx@@I@Z 0000000180008b40 f i Quantizer.obj
 0001:00007f70       ?release@QuantizerImpl@@UEAAXXZ 0000000180008f70 f i Quantizer.obj
 0001:00007f90       ??0BVHStructureBuilder@physx@@QEAA@XZ 0000000180008f90 f   BVHStructureBuilder.obj
 0001:00007fb0       ??1BVHStructureBuilder@physx@@QEAA@XZ 0000000180008fb0 f   BVHStructureBuilder.obj
 0001:00008040       ?loadFromDesc@BVHStructureBuilder@physx@@QEAA_NAEBVPxBVHStructureDesc@2@@Z 0000000180009040 f   BVHStructureBuilder.obj
 0001:000083d0       ?save@BVHStructureBuilder@physx@@QEBA_NAEAVPxOutputStream@2@_N@Z 00000001800093d0 f   BVHStructureBuilder.obj
 0001:00008560       ?moveData@BVHStructureBuilder@physx@@QEAAXAEAUBVHStructureData@Gu@2@@Z 0000000180009560 f   BVHStructureBuilder.obj
 0001:000085a0       ?flatten@@YAXAEBVNodeAllocator@Gu@physx@@PEAUBVHNode@23@@Z 00000001800095a0 f   BVHStructureBuilder.obj
 0001:00008750       ??$copy@V?$ReflectionAllocator@USlab@NodeAllocator@Gu@physx@@@shdfnd@physx@@@?$Array@USlab@NodeAllocator@Gu@physx@@V?$ReflectionAllocator@USlab@NodeAllocator@Gu@physx@@@shdfnd@4@@shdfnd@physx@@IEAAXAEBV012@@Z 0000000180009750 f i BVHStructureBuilder.obj
 0001:000087d0       ??0AABBTreeBuildNode@Gu@physx@@QEAA@AEBV012@@Z 00000001800097d0 f i BVHStructureBuilder.obj
 0001:00008810       ??0AABBTreeBuildNode@Gu@physx@@QEAA@XZ 0000000180009810 f i BVHStructureBuilder.obj
 0001:00008820       ??0AABBTreeBuildParams@Gu@physx@@QEAA@IIPEBVPxBounds3@2@@Z 0000000180009820 f i BVHStructureBuilder.obj
 0001:00008840       ??0BuildStats@Gu@physx@@QEAA@XZ 0000000180009840 f i BVHStructureBuilder.obj
 0001:00008850       ??0NodeAllocator@Gu@physx@@QEAA@AEBV012@@Z 0000000180009850 f i BVHStructureBuilder.obj
 0001:00008890       ??1AABBTreeBuildNode@Gu@physx@@QEAA@XZ 0000000180009890 f i BVHStructureBuilder.obj
 0001:000088a0       ??1AABBTreeBuildParams@Gu@physx@@QEAA@XZ 00000001800098a0 f i BVHStructureBuilder.obj
 0001:00008900       ??4AABBTreeBuildNode@Gu@physx@@QEAAAEAV012@AEBV012@@Z 0000000180009900 f i BVHStructureBuilder.obj
 0001:00008940       ??4AABBTreeBuildParams@Gu@physx@@QEAAAEAV012@AEBV012@@Z 0000000180009940 f i BVHStructureBuilder.obj
 0001:00008960       ??4BuildStats@Gu@physx@@QEAAAEAU012@$$QEAU012@@Z 0000000180009960 f i BVHStructureBuilder.obj
 0001:00008970       ??4BuildStats@Gu@physx@@QEAAAEAU012@AEBU012@@Z 0000000180009970 f i BVHStructureBuilder.obj
 0001:00008980       ??4NodeAllocator@Gu@physx@@QEAAAEAV012@AEBV012@@Z 0000000180009980 f i BVHStructureBuilder.obj
 0001:00008a30       ??_FAABBTreeBuildParams@Gu@physx@@QEAAXXZ 0000000180009a30 f i BVHStructureBuilder.obj
 0001:00008a50       ?__global_array_delete@@YAXPEAX@Z 0000000180009a50 f i BVHStructureBuilder.obj
 0001:00008a60       ?__global_array_delete@@YAXPEAX_K@Z 0000000180009a60 f i BVHStructureBuilder.obj
 0001:00008a70       ?__global_delete@@YAXPEAX@Z 0000000180009a70 f i BVHStructureBuilder.obj
 0001:00008a80       ?__global_delete@@YAXPEAX_K@Z 0000000180009a80 f i BVHStructureBuilder.obj
 0001:00008a90       ?allocate@?$Array@USlab@NodeAllocator@Gu@physx@@V?$ReflectionAllocator@USlab@NodeAllocator@Gu@physx@@@shdfnd@4@@shdfnd@physx@@IEAAPEAUSlab@NodeAllocator@Gu@3@I@Z 0000000180009a90 f i BVHStructureBuilder.obj
 0001:00008b30       ?getAABB@AABBTreeBuildNode@Gu@physx@@QEBAAEBVPxBounds3@3@XZ 0000000180009b30 f i BVHStructureBuilder.obj
 0001:00008b40       ?getCount@BuildStats@Gu@physx@@QEBAIXZ 0000000180009b40 f i BVHStructureBuilder.obj
 0001:00008b50       ?getNbPrimitives@AABBTreeBuildNode@Gu@physx@@QEBAIXZ 0000000180009b50 f i BVHStructureBuilder.obj
 0001:00008b60       ?getNbRuntimePrimitives@AABBTreeBuildNode@Gu@physx@@QEBAIXZ 0000000180009b60 f i BVHStructureBuilder.obj
 0001:00008b70       ?getNeg@AABBTreeBuildNode@Gu@physx@@QEBAPEBV123@XZ 0000000180009b70 f i BVHStructureBuilder.obj
 0001:00008b90       ?getPos@AABBTreeBuildNode@Gu@physx@@QEBAPEBV123@XZ 0000000180009b90 f i BVHStructureBuilder.obj
 0001:00008ba0       ?getPrimitives@AABBTreeBuildNode@Gu@physx@@QEAAPEAIPEAI@Z 0000000180009ba0 f i BVHStructureBuilder.obj
 0001:00008bb0       ?getPrimitives@AABBTreeBuildNode@Gu@physx@@QEBAPEBIPEBI@Z 0000000180009bb0 f i BVHStructureBuilder.obj
 0001:00008bc0       ?increaseCount@BuildStats@Gu@physx@@QEAAXI@Z 0000000180009bc0 f i BVHStructureBuilder.obj
 0001:00008bd0       ?isLeaf@AABBTreeBuildNode@Gu@physx@@QEBA_NXZ 0000000180009bd0 f i BVHStructureBuilder.obj
 0001:00008be0       ?recreate@?$Array@USlab@NodeAllocator@Gu@physx@@V?$ReflectionAllocator@USlab@NodeAllocator@Gu@physx@@@shdfnd@4@@shdfnd@physx@@IEAAXI@Z 0000000180009be0 f i BVHStructureBuilder.obj
 0001:00008c90       ?reset@AABBTreeBuildParams@Gu@physx@@QEAAXXZ 0000000180009c90 f i BVHStructureBuilder.obj
 0001:00008cf0       ?reset@BuildStats@Gu@physx@@QEAAXXZ 0000000180009cf0 f i BVHStructureBuilder.obj
 0001:00008d00       ?setCount@BuildStats@Gu@physx@@QEAAXI@Z 0000000180009d00 f i BVHStructureBuilder.obj
 0001:00008d10       ?setNbRunTimePrimitives@AABBTreeBuildNode@Gu@physx@@QEAAXI@Z 0000000180009d10 f i BVHStructureBuilder.obj
 0001:00008d20       ?saveHeightField@physx@@YA_NAEBVHeightField@Gu@1@AEAVPxOutputStream@1@_N@Z 0000000180009d20 f   HeightFieldCooking.obj
 0001:00008f60       ?buildFromTriangles@RTreeCooker@physx@@SAXAEAURTree@Gu@2@PEBVPxVec3@2@IPEBGPEBIIAEAV?$Array@IV?$ReflectionAllocator@I@shdfnd@physx@@@shdfnd@2@PEAURemapCallback@12@MW4Enum@PxMeshCookingHint@2@@Z 0000000180009f60 f   RTreeCooking.obj
 0001:00009200       ??$partition@UBoundsLTE@physx@@@quickSelect@physx@@YAIPEIAIIIIAEBUBoundsLTE@1@@Z 000000018000a200 f i RTreeCooking.obj
 0001:00009380       ??$quickSelectFirstK@UBoundsLTE@physx@@@quickSelect@physx@@YAXPEIAIIIIAEBUBoundsLTE@1@@Z 000000018000a380 f i RTreeCooking.obj
 0001:00009560       ??$smallSort@I$$CBUSortBoundsPredicate@physx@@@internal@shdfnd@physx@@YAXPEAIHHAEBUSortBoundsPredicate@2@@Z 000000018000a560 f i RTreeCooking.obj
 0001:00009830       ??$sort@I@shdfnd@physx@@YAXPEAII@Z 000000018000a830 f i RTreeCooking.obj
 0001:00009850       ??$sort@IU?$Less@I@shdfnd@physx@@V?$ReflectionAllocator@I@23@@shdfnd@physx@@YAXPEAIIAEBU?$Less@I@01@AEBV?$ReflectionAllocator@I@01@I@Z 000000018000a850 f i RTreeCooking.obj
 0001:00009ca0       ??$sort@IUSortBoundsPredicate@physx@@@shdfnd@physx@@YAXPEAIIAEBUSortBoundsPredicate@1@@Z 000000018000aca0 f i RTreeCooking.obj
 0001:00009cc0       ??$sort@IUSortBoundsPredicate@physx@@V?$ReflectionAllocator@I@shdfnd@2@@shdfnd@physx@@YAXPEAIIAEBUSortBoundsPredicate@1@AEBV?$ReflectionAllocator@I@01@I@Z 000000018000acc0 f i RTreeCooking.obj
 0001:0000a1c0       ?allocate@?$Array@UInterval@physx@@V?$InlineAllocator@$0CAAA@V?$ReflectionAllocator@UInterval@physx@@@shdfnd@physx@@@shdfnd@2@@shdfnd@physx@@IEAAPEAUInterval@3@I@Z 000000018000b1c0 f i RTreeCooking.obj
 0001:0000a280       ?allocate@?$Array@UPxBounds3V@physx@@V?$ReflectionAllocator@UPxBounds3V@physx@@@shdfnd@2@@shdfnd@physx@@IEAAPEAUPxBounds3V@3@I@Z 000000018000b280 f i RTreeCooking.obj
 0001:0000a320       ?allocate@?$Array@URTreeNodeNQ@physx@@V?$ReflectionAllocator@URTreeNodeNQ@physx@@@shdfnd@2@@shdfnd@physx@@IEAAPEAURTreeNodeNQ@3@I@Z 000000018000b320 f i RTreeCooking.obj
 0001:0000a3c0       ?allocate@?$Array@URTreeNodeQ@Gu@physx@@V?$ReflectionAllocator@URTreeNodeQ@Gu@physx@@@shdfnd@3@@shdfnd@physx@@IEAAPEAURTreeNodeQ@Gu@3@I@Z 000000018000b3c0 f i RTreeCooking.obj
 0001:0000a460       ?allocate@?$Array@VPxVec3@physx@@V?$ReflectionAllocator@VPxVec3@physx@@@shdfnd@2@@shdfnd@physx@@IEAAPEAVPxVec3@3@I@Z 000000018000b460 f i RTreeCooking.obj
 0001:0000a500       ?allocate@?$ReflectionAllocator@I@shdfnd@physx@@QEAAPEAX_KPEBDH@Z 000000018000b500 f i RTreeCooking.obj
 0001:0000b1d0       ?copy@?$Array@URTreeNodeNQ@physx@@V?$ReflectionAllocator@URTreeNodeNQ@physx@@@shdfnd@2@@shdfnd@physx@@KAXPEAURTreeNodeNQ@3@0PEBU43@@Z 000000018000c1d0 f i RTreeCooking.obj
 0001:0000b390       ?copy@?$Array@VPxVec3@physx@@V?$ReflectionAllocator@VPxVec3@physx@@@shdfnd@2@@shdfnd@physx@@KAXPEAVPxVec3@3@0PEBV43@@Z 000000018000c390 f i RTreeCooking.obj
 0001:0000b460       ?growAndPushBack@?$Array@IV?$ReflectionAllocator@I@shdfnd@physx@@@shdfnd@physx@@IEAAAEAIAEBI@Z 000000018000c460 f i RTreeCooking.obj
 0001:0000b530       ?growAndPushBack@?$Array@UInterval@physx@@V?$InlineAllocator@$0CAAA@V?$ReflectionAllocator@UInterval@physx@@@shdfnd@physx@@@shdfnd@2@@shdfnd@physx@@IEAAAEAUInterval@3@AEBU43@@Z 000000018000c530 f i RTreeCooking.obj
 0001:0000b610       ?growAndPushBack@?$Array@UPxBounds3V@physx@@V?$ReflectionAllocator@UPxBounds3V@physx@@@shdfnd@2@@shdfnd@physx@@IEAAAEAUPxBounds3V@3@AEBU43@@Z 000000018000c610 f i RTreeCooking.obj
 0001:0000b6e0       ?growAndPushBack@?$Array@URTreeNodeNQ@physx@@V?$ReflectionAllocator@URTreeNodeNQ@physx@@@shdfnd@2@@shdfnd@physx@@IEAAAEAURTreeNodeNQ@3@AEBU43@@Z 000000018000c6e0 f i RTreeCooking.obj
 0001:0000b7b0       ?growAndPushBack@?$Array@URTreeNodeQ@Gu@physx@@V?$ReflectionAllocator@URTreeNodeQ@Gu@physx@@@shdfnd@3@@shdfnd@physx@@IEAAAEAURTreeNodeQ@Gu@3@AEBU453@@Z 000000018000c7b0 f i RTreeCooking.obj
 0001:0000b890       ?recreate@?$Array@IV?$ReflectionAllocator@I@shdfnd@physx@@@shdfnd@physx@@IEAAXI@Z 000000018000c890 f i RTreeCooking.obj
 0001:0000b950       ?recreate@?$Array@UPxBounds3V@physx@@V?$ReflectionAllocator@UPxBounds3V@physx@@@shdfnd@2@@shdfnd@physx@@IEAAXI@Z 000000018000c950 f i RTreeCooking.obj
 0001:0000ba00       ?recreate@?$Array@URTreeNodeNQ@physx@@V?$ReflectionAllocator@URTreeNodeNQ@physx@@@shdfnd@2@@shdfnd@physx@@IEAAXI@Z 000000018000ca00 f i RTreeCooking.obj
 0001:0000ba90       ?recreate@?$Array@URTreeNodeQ@Gu@physx@@V?$ReflectionAllocator@URTreeNodeQ@Gu@physx@@@shdfnd@3@@shdfnd@physx@@IEAAXI@Z 000000018000ca90 f i RTreeCooking.obj
 0001:0000bb50       ?recreate@?$Array@VPxVec3@physx@@V?$ReflectionAllocator@VPxVec3@physx@@@shdfnd@2@@shdfnd@physx@@IEAAXI@Z 000000018000cb50 f i RTreeCooking.obj
 0001:0000bbe0       ?resize@?$Array@IV?$ReflectionAllocator@I@shdfnd@physx@@@shdfnd@physx@@QEAAXIAEBI@Z 000000018000cbe0 f i RTreeCooking.obj
 0001:0000bca0       ?resizeUninitialized@?$Array@URTreeNodeNQ@physx@@V?$ReflectionAllocator@URTreeNodeNQ@physx@@@shdfnd@2@@shdfnd@physx@@QEAAXI@Z 000000018000cca0 f i RTreeCooking.obj
 0001:0000bce0       ?sort4@SubSortQuick@physx@@QEAAXPEIAIIAEAV?$Array@URTreeNodeNQ@physx@@V?$ReflectionAllocator@URTreeNodeNQ@physx@@@shdfnd@2@@shdfnd@2@AEAIAEAUPxBounds3V@2@I@Z 000000018000cce0 f i RTreeCooking.obj
 0001:0000c070       ?sort4@SubSortSAH@physx@@QEAAXPEAIIAEAV?$Array@URTreeNodeNQ@physx@@V?$ReflectionAllocator@URTreeNodeNQ@physx@@@shdfnd@2@@shdfnd@2@AEAIIPEAURTreeNodeNQ@2@@Z 000000018000d070 f i RTreeCooking.obj
 0001:0000c740       ?split@SubSortSAH@physx@@QEAAIPEAII@Z 000000018000d740 f i RTreeCooking.obj
 0001:0000ce70       ?computeLocalBounds@MeshBulider@physx@@IEAAXAEAVMeshDataBase@Gu@2@@Z 000000018000de70 f   MeshBuilder.obj
 0001:0000cf00       ??0TriangleMeshBuilder@physx@@QEAA@AEAVTriangleMeshData@Gu@1@AEBUPxCookingParams@1@@Z 000000018000df00 f   TriangleMeshBuilder.obj
 0001:0000cf30       ??1TriangleMeshBuilder@physx@@UEAA@XZ 000000018000df30 f   TriangleMeshBuilder.obj
 0001:0000cfa0       ?cleanMesh@TriangleMeshBuilder@physx@@QEAA_N_NPEAW4Enum@PxTriangleMeshCookingResult@2@@Z 000000018000dfa0 f   TriangleMeshBuilder.obj
 0001:0000d4a0       ?remapTopology@TriangleMeshBuilder@physx@@QEAAXPEBI@Z 000000018000e4a0 f   TriangleMeshBuilder.obj
 0001:0000d7a0       ?createSharedEdgeData@TriangleMeshBuilder@physx@@QEAAX_N0@Z 000000018000e7a0 f   TriangleMeshBuilder.obj
 0001:0000dc60       ?recordTriangleIndices@TriangleMeshBuilder@physx@@QEAAXXZ 000000018000ec60 f   TriangleMeshBuilder.obj
 0001:0000dd60       ?createGRBMidPhaseAndData@TriangleMeshBuilder@physx@@QEAAXI@Z 000000018000ed60 f   TriangleMeshBuilder.obj
 0001:0000dff0       ?createGRBData@TriangleMeshBuilder@physx@@QEAAXXZ 000000018000eff0 f   TriangleMeshBuilder.obj
 0001:0000e0f0       ?loadFromDesc@TriangleMeshBuilder@physx@@QEAA_NAEBVPxTriangleMeshDesc@2@PEAW4Enum@PxTriangleMeshCookingResult@2@_N@Z 000000018000f0f0 f   TriangleMeshBuilder.obj
 0001:0000e570       ?save@TriangleMeshBuilder@physx@@QEBA_NAEAVPxOutputStream@2@_NAEBUPxCookingParams@2@@Z 000000018000f570 f   TriangleMeshBuilder.obj
 0001:0000eb50       ?checkMeshIndicesSize@TriangleMeshBuilder@physx@@QEAAXXZ 000000018000fb50 f   TriangleMeshBuilder.obj
 0001:0000ec60       ?importMesh@TriangleMeshBuilder@physx@@IEAA_NAEBVPxTriangleMeshDesc@2@AEBUPxCookingParams@2@PEAW4Enum@PxTriangleMeshCookingResult@2@_N@Z 000000018000fc60 f   TriangleMeshBuilder.obj
 0001:0000efe0       ?releaseEdgeList@TriangleMeshBuilder@physx@@IEAAXXZ 000000018000ffe0 f   TriangleMeshBuilder.obj
 0001:0000f040       ?createEdgeList@TriangleMeshBuilder@physx@@IEAAXXZ 0000000180010040 f   TriangleMeshBuilder.obj
 0001:0000f160       ??0RTreeTriangleMeshBuilder@physx@@QEAA@AEBUPxCookingParams@1@@Z 0000000180010160 f   TriangleMeshBuilder.obj
 0001:0000f220       ??1RTreeTriangleMeshBuilder@physx@@UEAA@XZ 0000000180010220 f   TriangleMeshBuilder.obj
 0001:0000f250       ?createMidPhaseStructure@RTreeTriangleMeshBuilder@physx@@UEAAXXZ 0000000180010250 f   TriangleMeshBuilder.obj
 0001:0000f330       ?saveMidPhaseStructure@RTreeTriangleMeshBuilder@physx@@UEBAXAEAVPxOutputStream@2@_N@Z 0000000180010330 f   TriangleMeshBuilder.obj
 0001:0000f570       ??0BV4TriangleMeshBuilder@physx@@QEAA@AEBUPxCookingParams@1@@Z 0000000180010570 f   TriangleMeshBuilder.obj
 0001:0000f640       ??1BV4TriangleMeshBuilder@physx@@UEAA@XZ 0000000180010640 f   TriangleMeshBuilder.obj
 0001:0000f6a0       ?createMidPhaseStructure@BV4TriangleMeshBuilder@physx@@UEAAXXZ 00000001800106a0 f   TriangleMeshBuilder.obj
 0001:0000f970       ?saveMidPhaseStructure@BV4TriangleMeshBuilder@physx@@UEBAXAEAVPxOutputStream@2@_N@Z 0000000180010970 f   TriangleMeshBuilder.obj
 0001:0000fb10       ?onMeshIndexFormatChange@BV4TriangleMeshBuilder@physx@@UEAAXXZ 0000000180010b10 f   TriangleMeshBuilder.obj
 0001:0000fb50       ?createMidPhaseStructure@BV32TriangleMeshBuilder@physx@@SAXAEBUPxCookingParams@2@AEAVTriangleMeshData@Gu@2@AEAVBV32Tree@52@@Z 0000000180010b50 f   TriangleMeshBuilder.obj
 0001:0000fd30       ?saveMidPhaseStructure@BV32TriangleMeshBuilder@physx@@SAXPEAVBV32Tree@Gu@2@AEAVPxOutputStream@2@_N@Z 0000000180010d30 f   TriangleMeshBuilder.obj
 0001:0000fed0       ?findSharpVertices@GrbTrimeshCookerHelper@physx@@YAXAEAV?$Array@USortedNeighbor@GrbTrimeshCookerHelper@physx@@V?$ReflectionAllocator@USortedNeighbor@GrbTrimeshCookerHelper@physx@@@shdfnd@3@@shdfnd@2@AEAV?$Array@USharpEdgeRange@GrbTrimeshCookerHelper@physx@@V?$ReflectionAllocator@USharpEdgeRange@GrbTrimeshCookerHelper@physx@@@shdfnd@3@@42@PEBUuint3@2@PEBUuint4@2@II@Z 0000000180010ed0 f   TriangleMeshBuilder.obj
 0001:00010270       ?buildVertexConnectionNew_p1@GrbTrimeshCookerHelper@physx@@YAIAEAV?$Array@USortedNeighbor@GrbTrimeshCookerHelper@physx@@V?$ReflectionAllocator@USortedNeighbor@GrbTrimeshCookerHelper@physx@@@shdfnd@3@@shdfnd@2@AEAV?$Array@USharpEdgeRange@GrbTrimeshCookerHelper@physx@@V?$ReflectionAllocator@USharpEdgeRange@GrbTrimeshCookerHelper@physx@@@shdfnd@3@@42@PEBUuint3@2@PEBUuint4@2@II@Z 0000000180011270 f   TriangleMeshBuilder.obj
 0001:00010400       ?buildVertexConnectionNew_p2@GrbTrimeshCookerHelper@physx@@YAXPEAI00AEAV?$Array@USortedNeighbor@GrbTrimeshCookerHelper@physx@@V?$ReflectionAllocator@USortedNeighbor@GrbTrimeshCookerHelper@physx@@@shdfnd@3@@shdfnd@2@AEAV?$Array@USharpEdgeRange@GrbTrimeshCookerHelper@physx@@V?$ReflectionAllocator@USharpEdgeRange@GrbTrimeshCookerHelper@physx@@@shdfnd@3@@42@I@Z 0000000180011400 f   TriangleMeshBuilder.obj
 0001:000104b0       ??$?_UG@@YAPEAX_KV?$ReflectionAllocator@G@shdfnd@physx@@PEBDH@Z 00000001800114b0 f i TriangleMeshBuilder.obj
 0001:00010550       ??$median3@USortedNeighbor@GrbTrimeshCookerHelper@physx@@$$CBU?$Less@USortedNeighbor@GrbTrimeshCookerHelper@physx@@@shdfnd@3@@internal@shdfnd@physx@@YAXPEAUSortedNeighbor@GrbTrimeshCookerHelper@2@HHAEBU?$Less@USortedNeighbor@GrbTrimeshCookerHelper@physx@@@12@@Z 0000000180011550 f i TriangleMeshBuilder.obj
 0001:00010680       ??$sort@UEdgeTriLookup@physx@@@shdfnd@physx@@YAXPEAUEdgeTriLookup@1@I@Z 0000000180011680 f i TriangleMeshBuilder.obj
 0001:000106a0       ??$sort@UEdgeTriLookup@physx@@U?$Less@UEdgeTriLookup@physx@@@shdfnd@2@V?$ReflectionAllocator@UEdgeTriLookup@physx@@@42@@shdfnd@physx@@YAXPEAUEdgeTriLookup@1@IAEBU?$Less@UEdgeTriLookup@physx@@@01@AEBV?$ReflectionAllocator@UEdgeTriLookup@physx@@@01@I@Z 00000001800116a0 f i TriangleMeshBuilder.obj
 0001:00010c20       ??$sort@USortedNeighbor@GrbTrimeshCookerHelper@physx@@@shdfnd@physx@@YAXPEAUSortedNeighbor@GrbTrimeshCookerHelper@1@I@Z 0000000180011c20 f i TriangleMeshBuilder.obj
 0001:00010c40       ??$sort@USortedNeighbor@GrbTrimeshCookerHelper@physx@@U?$Less@USortedNeighbor@GrbTrimeshCookerHelper@physx@@@shdfnd@3@V?$ReflectionAllocator@USortedNeighbor@GrbTrimeshCookerHelper@physx@@@53@@shdfnd@physx@@YAXPEAUSortedNeighbor@GrbTrimeshCookerHelper@1@IAEBU?$Less@USortedNeighbor@GrbTrimeshCookerHelper@physx@@@01@AEBV?$ReflectionAllocator@USortedNeighbor@GrbTrimeshCookerHelper@physx@@@01@I@Z 0000000180011c40 f i TriangleMeshBuilder.obj
 0001:00011140       ??0PxVec4@physx@@QEAA@XZ   0000000180012140 f i TriangleMeshBuilder.obj
 0001:00011150       ??1BV4TriangleData@Gu@physx@@UEAA@XZ 0000000180012150 f i TriangleMeshBuilder.obj
 0001:00011190       ??1MeshDataBase@Gu@physx@@UEAA@XZ 0000000180012190 f i TriangleMeshBuilder.obj
 0001:00011270       ??1RTreeTriangleData@Gu@physx@@UEAA@XZ 0000000180012270 f i TriangleMeshBuilder.obj
 0001:000112e0       ??1RemapCallback@RTreeCooker@physx@@UEAA@XZ 00000001800122e0 f i TriangleMeshBuilder.obj
 0001:000112f0       ??1TriangleMeshData@Gu@physx@@UEAA@XZ 00000001800122f0 f i TriangleMeshBuilder.obj
 0001:000113c0       ??_GBV4TriangleData@Gu@physx@@UEAAPEAXI@Z 00000001800123c0 f i TriangleMeshBuilder.obj
 0001:000113c0       ??_EBV4TriangleData@Gu@physx@@UEAAPEAXI@Z 00000001800123c0 f i TriangleMeshBuilder.obj
 0001:00011440       ??_GBV4TriangleMeshBuilder@physx@@UEAAPEAXI@Z 0000000180012440 f i TriangleMeshBuilder.obj
 0001:00011440       ??_EBV4TriangleMeshBuilder@physx@@UEAAPEAXI@Z 0000000180012440 f i TriangleMeshBuilder.obj
 0001:000114c0       ??_GMeshDataBase@Gu@physx@@UEAAPEAXI@Z 00000001800124c0 f i TriangleMeshBuilder.obj
 0001:000114c0       ??_EMeshDataBase@Gu@physx@@UEAAPEAXI@Z 00000001800124c0 f i TriangleMeshBuilder.obj
 0001:00011520       ??_GRTreeCookerRemap@physx@@UEAAPEAXI@Z 0000000180012520 f i TriangleMeshBuilder.obj
 0001:00011520       ??_ERTreeCookerRemap@physx@@UEAAPEAXI@Z 0000000180012520 f i TriangleMeshBuilder.obj
 0001:00011550       ??_ERTreeTriangleData@Gu@physx@@UEAAPEAXI@Z 0000000180012550 f i TriangleMeshBuilder.obj
 0001:00011550       ??_GRTreeTriangleData@Gu@physx@@UEAAPEAXI@Z 0000000180012550 f i TriangleMeshBuilder.obj
 0001:000115b0       ??_ERTreeTriangleMeshBuilder@physx@@UEAAPEAXI@Z 00000001800125b0 f i TriangleMeshBuilder.obj
 0001:000115b0       ??_GRTreeTriangleMeshBuilder@physx@@UEAAPEAXI@Z 00000001800125b0 f i TriangleMeshBuilder.obj
 0001:00011600       ??_ERemapCallback@RTreeCooker@physx@@UEAAPEAXI@Z 0000000180012600 f i TriangleMeshBuilder.obj
 0001:00011600       ??_GRemapCallback@RTreeCooker@physx@@UEAAPEAXI@Z 0000000180012600 f i TriangleMeshBuilder.obj
 0001:00011630       ??_GTriangleMeshBuilder@physx@@UEAAPEAXI@Z 0000000180012630 f i TriangleMeshBuilder.obj
 0001:00011630       ??_ETriangleMeshBuilder@physx@@UEAAPEAXI@Z 0000000180012630 f i TriangleMeshBuilder.obj
 0001:00011670       ??_ETriangleMeshData@Gu@physx@@UEAAPEAXI@Z 0000000180012670 f i TriangleMeshBuilder.obj
 0001:00011670       ??_GTriangleMeshData@Gu@physx@@UEAAPEAXI@Z 0000000180012670 f i TriangleMeshBuilder.obj
 0001:000116d0       ?allocate@?$ReflectionAllocator@USortedNeighbor@GrbTrimeshCookerHelper@physx@@@shdfnd@physx@@QEAAPEAX_KPEBDH@Z 00000001800126d0 f i TriangleMeshBuilder.obj
 0001:00011770       ?allocateTriangles@TriangleMeshData@Gu@physx@@QEAAPEAXI_NI@Z 0000000180012770 f i TriangleMeshBuilder.obj
 0001:00011850       ?allocateVertices@MeshDataBase@Gu@physx@@QEAAPEAVPxVec3@3@I@Z 0000000180012850 f i TriangleMeshBuilder.obj
 0001:00011f80       ?getMidphaseID@BV4TriangleMeshBuilder@physx@@UEBA?AW4Enum@PxMeshMidPhase@2@XZ 0000000180012f80 f i TriangleMeshBuilder.obj
 0001:00011f90       ?getMidphaseID@RTreeTriangleMeshBuilder@physx@@UEBA?AW4Enum@PxMeshMidPhase@2@XZ 0000000180012f90 f i TriangleMeshBuilder.obj
 0001:00011fa0       ?growAndPushBack@?$Array@USortedNeighbor@GrbTrimeshCookerHelper@physx@@V?$ReflectionAllocator@USortedNeighbor@GrbTrimeshCookerHelper@physx@@@shdfnd@3@@shdfnd@physx@@IEAAAEAUSortedNeighbor@GrbTrimeshCookerHelper@3@AEBU453@@Z 0000000180012fa0 f i TriangleMeshBuilder.obj
 0001:000120a0       ?onMeshIndexFormatChange@TriangleMeshBuilder@physx@@UEAAXXZ 00000001800130a0 f i TriangleMeshBuilder.obj
 0001:000120b0       ?recreate@?$Array@USharpEdgeRange@GrbTrimeshCookerHelper@physx@@V?$ReflectionAllocator@USharpEdgeRange@GrbTrimeshCookerHelper@physx@@@shdfnd@3@@shdfnd@physx@@IEAAXI@Z 00000001800130b0 f i TriangleMeshBuilder.obj
 0001:000121c0       ?recreate@?$Array@USortedNeighbor@GrbTrimeshCookerHelper@physx@@V?$ReflectionAllocator@USortedNeighbor@GrbTrimeshCookerHelper@physx@@@shdfnd@3@@shdfnd@physx@@IEAAXI@Z 00000001800131c0 f i TriangleMeshBuilder.obj
 0001:00012290       ?remap@RTreeCookerRemap@physx@@UEAAXPEAIII@Z 0000000180013290 f i TriangleMeshBuilder.obj
 0001:000122b0       ?resize@?$Array@USharpEdgeRange@GrbTrimeshCookerHelper@physx@@V?$ReflectionAllocator@USharpEdgeRange@GrbTrimeshCookerHelper@physx@@@shdfnd@3@@shdfnd@physx@@QEAAXIAEBUSharpEdgeRange@GrbTrimeshCookerHelper@3@@Z 00000001800132b0 f i TriangleMeshBuilder.obj
 0001:00012370       ?resizeUninitialized@?$Array@USortedNeighbor@GrbTrimeshCookerHelper@physx@@V?$ReflectionAllocator@USortedNeighbor@GrbTrimeshCookerHelper@physx@@@shdfnd@3@@shdfnd@physx@@QEAAXI@Z 0000000180013370 f i TriangleMeshBuilder.obj
 0001:000123b0       ??0BigConvexDataBuilder@physx@@QEAA@PEBUConvexHullData@Gu@1@PEAVBigConvexData@1@PEBVPxVec3@1@@Z 00000001800133b0 f   BigConvexDataBuilder.obj
 0001:000123d0       ??1BigConvexDataBuilder@physx@@QEAA@XZ 00000001800133d0 f   BigConvexDataBuilder.obj
 0001:000123e0       ?precompute@BigConvexDataBuilder@physx@@QEAA_NI@Z 00000001800133e0 f   BigConvexDataBuilder.obj
 0001:00013030       ?initialize@BigConvexDataBuilder@physx@@QEAA_NXZ 0000000180014030 f   BigConvexDataBuilder.obj
 0001:000130e0       ?save@BigConvexDataBuilder@physx@@QEBA_NAEAVPxOutputStream@2@_N@Z 00000001800140e0 f   BigConvexDataBuilder.obj
 0001:00013320       ?computeValencies@BigConvexDataBuilder@physx@@QEAA_NAEBVConvexHullBuilder@2@@Z 0000000180014320 f   BigConvexDataBuilder.obj
 0001:00013710       ?saveValencies@BigConvexDataBuilder@physx@@QEBA_NAEAVPxOutputStream@2@_N@Z 0000000180014710 f   BigConvexDataBuilder.obj
 0001:000138c0       ??0BigConvexData@physx@@QEAA@W4PxEMPTY@1@@Z 00000001800148c0 f i BigConvexDataBuilder.obj
 0001:000138d0       ??4BigConvexData@physx@@QEAAAEAV01@AEBV01@@Z 00000001800148d0 f i BigConvexDataBuilder.obj
 0001:000138f0       ?GetAdjacentVerts@BigConvexData@physx@@QEBAPEBEXZ 00000001800148f0 f i BigConvexDataBuilder.obj
 0001:00013900       ?GetNbNeighbors@BigConvexData@physx@@QEBAGI@Z 0000000180014900 f i BigConvexDataBuilder.obj
 0001:00013910       ?GetNbSamples@BigConvexData@physx@@QEBAIXZ 0000000180014910 f i BigConvexDataBuilder.obj
 0001:00013920       ?GetNbVerts@BigConvexData@physx@@QEBAIXZ 0000000180014920 f i BigConvexDataBuilder.obj
 0001:00013930       ?GetNeighbors@BigConvexData@physx@@QEBAPEBEI@Z 0000000180014930 f i BigConvexDataBuilder.obj
 0001:00013940       ?GetOffset@BigConvexData@physx@@QEBAGI@Z 0000000180014940 f i BigConvexDataBuilder.obj
 0001:00013950       ?GetSubdiv@BigConvexData@physx@@QEBAIXZ 0000000180014950 f i BigConvexDataBuilder.obj
 0001:00013960       ?GetValencies@BigConvexData@physx@@QEBAPEBUValency@Gu@2@XZ 0000000180014960 f i BigConvexDataBuilder.obj
 0001:00013970       ?GetValency@BigConvexData@physx@@QEBAGI@Z 0000000180014970 f i BigConvexDataBuilder.obj
 0001:00013980       ??0ConvexHullBuilder@physx@@QEAA@PEAUConvexHullData@Gu@1@_N@Z 0000000180014980 f   ConvexHullBuilder.obj
 0001:000139b0       ??1ConvexHullBuilder@physx@@QEAA@XZ 00000001800149b0 f   ConvexHullBuilder.obj
 0001:00013ac0       ?init@ConvexHullBuilder@physx@@QEAA_NIPEBVPxVec3@2@PEBIIIPEBUPxHullPolygon@2@_NPEAVConvexHullLib@2@@Z 0000000180014ac0 f   ConvexHullBuilder.obj
 0001:00014400       ?save@ConvexHullBuilder@physx@@QEBA_NAEAVPxOutputStream@2@_N@Z 0000000180015400 f   ConvexHullBuilder.obj
 0001:00014720       ?copy@ConvexHullBuilder@physx@@QEAA_NAEAUConvexHullData@Gu@2@AEAI@Z 0000000180015720 f   ConvexHullBuilder.obj
 0001:000149a0       ?createEdgeList@ConvexHullBuilder@physx@@QEAA_N_NI@Z 00000001800159a0 f   ConvexHullBuilder.obj
 0001:00015220       ?checkHullPolygons@ConvexHullBuilder@physx@@QEBA_NXZ 0000000180016220 f   ConvexHullBuilder.obj
 0001:00015810       ?calculateVertexMapTable@ConvexHullBuilder@physx@@QEAA_NI_N@Z 0000000180016810 f   ConvexHullBuilder.obj
 0001:00015a20       ?computeGeomCenter@ConvexHullBuilder@physx@@IEBA_NAEAVPxVec3@2@IPEAUHullTriangleData@2@@Z 0000000180016a20 f   ConvexHullBuilder.obj
 0001:00015ce0       ??$?_UE@@YAPEAX_KV?$ReflectionAllocator@E@shdfnd@physx@@PEBDH@Z 0000000180016ce0 f i ConvexHullBuilder.obj
 0001:00015d80       ??1ConvexHullLib@physx@@UEAA@XZ 0000000180016d80 f   ConvexHullLib.obj
 0001:00015de0       ?cleanupVertices@ConvexHullLib@physx@@IEAA_NIPEBVPxVec3@2@IAEAIPEAV32@AEAV32@3@Z 0000000180016de0 f   ConvexHullLib.obj
 0001:00016270       ?shiftAndcleanupVertices@ConvexHullLib@physx@@IEAA_NIPEBVPxVec3@2@IAEAIPEAV32@AEAV32@3@Z 0000000180017270 f   ConvexHullLib.obj
 0001:00016750       ?swapLargestFace@ConvexHullLib@physx@@IEAAXAEAVPxConvexMeshDesc@2@@Z 0000000180017750 f   ConvexHullLib.obj
 0001:00016940       ?shiftConvexMeshDesc@ConvexHullLib@physx@@IEAAXAEAVPxConvexMeshDesc@2@@Z 0000000180017940 f   ConvexHullLib.obj
 0001:00016a00       ??_GConvexHullLib@physx@@UEAAPEAXI@Z 0000000180017a00 f i ConvexHullLib.obj
 0001:00016a00       ??_EConvexHullLib@physx@@UEAAPEAXI@Z 0000000180017a00 f i ConvexHullLib.obj
 0001:00016f70       ??0ConvexHull@physx@@QEAA@AEBVPxVec3@1@0AEBV?$Array@VPxPlane@physx@@V?$ReflectionAllocator@VPxPlane@physx@@@shdfnd@2@@shdfnd@1@@Z 0000000180017f70 f   ConvexHullUtils.obj
 0001:00017930       ??0ConvexHull@physx@@QEAA@AEBVPxVec3@1@AEBVPxTransform@1@AEBV?$Array@VPxPlane@physx@@V?$ReflectionAllocator@VPxPlane@physx@@@shdfnd@2@@shdfnd@1@@Z 0000000180018930 f   ConvexHullUtils.obj
 0001:00018a90       ?findCandidatePlane@ConvexHull@physx@@QEBAHMM@Z 0000000180019a90 f   ConvexHullUtils.obj
 0001:00018f00       ?assertIntact@ConvexHull@physx@@QEBA_NM@Z 0000000180019f00 f   ConvexHullUtils.obj
 0001:00019210       ?maxNumVertsPerFace@ConvexHull@physx@@QEBAIXZ 000000018001a210 f   ConvexHullUtils.obj
 0001:00019290       ?convexHullCrop@physx@@YAPEAVConvexHull@1@AEBV21@AEBVPxPlane@1@M@Z 000000018001a290 f   ConvexHullUtils.obj
 0001:0001a070       ?computeOBBFromConvex@physx@@YA_NAEBVPxConvexMeshDesc@1@AEAVPxVec3@1@AEAVPxTransform@1@@Z 000000018001b070 f   ConvexHullUtils.obj
 0001:0001a910       ?computeOBBSIMD@local@@YAXIPEBT__m128@@AEAT2@AEBT2@1@Z 000000018001b910 f   ConvexHullUtils.obj
 0001:0001aaf0       ??0Box@Gu@physx@@QEAA@AEBV012@@Z 000000018001baf0 f i ConvexHullUtils.obj
 0001:0001ab50       ??0Box@Gu@physx@@QEAA@AEBVPxVec3@2@0AEBVPxMat33@2@@Z 000000018001bb50 f i ConvexHullUtils.obj
 0001:0001abc0       ??0Box@Gu@physx@@QEAA@XZ   000000018001bbc0 f i ConvexHullUtils.obj
 0001:0001abd0       ??0HalfEdge@ConvexHull@physx@@QEAA@XZ 000000018001bbd0 f i ConvexHullUtils.obj
 0001:0001abe0       ??0PxPlane@physx@@QEAA@XZ  000000018001bbe0 f i ConvexHullUtils.obj
 0001:0001abf0       ??0PxQuat@physx@@QEAA@AEBVPxMat33@1@@Z 000000018001bbf0 f i ConvexHullUtils.obj
 0001:0001add0       ??1Box@Gu@physx@@QEAA@XZ   000000018001bdd0 f i ConvexHullUtils.obj
 0001:0001ade0       ??4Box@Gu@physx@@QEAAAEBV012@AEBV012@@Z 000000018001bde0 f i ConvexHullUtils.obj
 0001:0001ae40       ?allocate@?$Array@VHalfEdge@ConvexHull@physx@@V?$ReflectionAllocator@VHalfEdge@ConvexHull@physx@@@shdfnd@3@@shdfnd@physx@@IEAAPEAVHalfEdge@ConvexHull@3@I@Z 000000018001be40 f i ConvexHullUtils.obj
 0001:0001aee0       ?allocate@?$Array@VPxPlane@physx@@V?$ReflectionAllocator@VPxPlane@physx@@@shdfnd@2@@shdfnd@physx@@IEAAPEAVPxPlane@3@I@Z 000000018001bee0 f i ConvexHullUtils.obj
 0001:0001af80       ?computeAABBExtent@Box@Gu@physx@@QEBA?AVPxVec3@3@XZ 000000018001bf80 f i ConvexHullUtils.obj
 0001:0001b040       ?computeBoxPoints@Box@Gu@physx@@QEBAXPEIAVPxVec3@3@@Z 000000018001c040 f i ConvexHullUtils.obj
 0001:0001b080       ?copy@?$Array@VPxPlane@physx@@V?$ReflectionAllocator@VPxPlane@physx@@@shdfnd@2@@shdfnd@physx@@KAXPEAVPxPlane@3@0PEBV43@@Z 000000018001c080 f i ConvexHullUtils.obj
 0001:0001b180       ?getInverse@PxMat33@physx@@QEBA?BV12@XZ 000000018001c180 f i ConvexHullUtils.obj
 0001:0001b3d0       ?getTransform@Box@Gu@physx@@QEBA?AVPxTransform@3@XZ 000000018001c3d0 f i ConvexHullUtils.obj
 0001:0001b430       ?growAndPushBack@?$Array@VHalfEdge@ConvexHull@physx@@V?$ReflectionAllocator@VHalfEdge@ConvexHull@physx@@@shdfnd@3@@shdfnd@physx@@IEAAAEAVHalfEdge@ConvexHull@3@AEBV453@@Z 000000018001c430 f i ConvexHullUtils.obj
 0001:0001b4f0       ?growAndPushBack@?$Array@VPxPlane@physx@@V?$ReflectionAllocator@VPxPlane@physx@@@shdfnd@2@@shdfnd@physx@@IEAAAEAVPxPlane@3@AEBV43@@Z 000000018001c4f0 f i ConvexHullUtils.obj
 0001:0001b5b0       ?isValid@Box@Gu@physx@@QEBA_NXZ 000000018001c5b0 f i ConvexHullUtils.obj
 0001:0001b5d0       ?recreate@?$Array@VHalfEdge@ConvexHull@physx@@V?$ReflectionAllocator@VHalfEdge@ConvexHull@physx@@@shdfnd@3@@shdfnd@physx@@IEAAXI@Z 000000018001c5d0 f i ConvexHullUtils.obj
 0001:0001b670       ?recreate@?$Array@VPxPlane@physx@@V?$ReflectionAllocator@VPxPlane@physx@@@shdfnd@2@@shdfnd@physx@@IEAAXI@Z 000000018001c670 f i ConvexHullUtils.obj
 0001:0001b700       ?resize@?$Array@VHalfEdge@ConvexHull@physx@@V?$ReflectionAllocator@VHalfEdge@ConvexHull@physx@@@shdfnd@3@@shdfnd@physx@@QEAAXIAEBVHalfEdge@ConvexHull@3@@Z 000000018001c700 f i ConvexHullUtils.obj
 0001:0001b7c0       ?resize@?$Array@VPxPlane@physx@@V?$ReflectionAllocator@VPxPlane@physx@@@shdfnd@2@@shdfnd@physx@@QEAAXIAEBVPxPlane@3@@Z 000000018001c7c0 f i ConvexHullUtils.obj
 0001:0001b8e0       ?resize@?$Array@VPxVec3@physx@@V?$ReflectionAllocator@VPxVec3@physx@@@shdfnd@2@@shdfnd@physx@@QEAAXIAEBVPxVec3@3@@Z 000000018001c8e0 f i ConvexHullUtils.obj
 0001:0001b9d0       ?rotate@Box@Gu@physx@@QEBA?AVPxVec3@3@AEBV43@@Z 000000018001c9d0 f i ConvexHullUtils.obj
 0001:0001ba60       ?rotateInv@Box@Gu@physx@@QEBA?AVPxVec3@3@AEBV43@@Z 000000018001ca60 f i ConvexHullUtils.obj
 0001:0001baf0       ?setAxes@Box@Gu@physx@@QEAAXAEBVPxVec3@3@00@Z 000000018001caf0 f i ConvexHullUtils.obj
 0001:0001bb30       ?setEmpty@Box@Gu@physx@@QEAAXXZ 000000018001cb30 f i ConvexHullUtils.obj
 0001:0001bb70       ?transform@Box@Gu@physx@@QEBA?AVPxVec3@3@AEBV43@@Z 000000018001cb70 f i ConvexHullUtils.obj
 0001:0001bc10       ??0ConvexMeshBuilder@physx@@QEAA@_N@Z 000000018001cc10 f   ConvexMeshBuilder.obj
 0001:0001bc80       ??1ConvexMeshBuilder@physx@@QEAA@XZ 000000018001cc80 f   ConvexMeshBuilder.obj
 0001:0001bce0       ?build@ConvexMeshBuilder@physx@@QEAA_NAEBVPxConvexMeshDesc@2@I_NPEAVConvexHullLib@2@@Z 000000018001cce0 f   ConvexMeshBuilder.obj
 0001:0001c000       ?save@ConvexMeshBuilder@physx@@QEBA_NAEAVPxOutputStream@2@_N@Z 000000018001d000 f   ConvexMeshBuilder.obj
 0001:0001c220       ?copy@ConvexMeshBuilder@physx@@QEAA_NAEAUConvexHullInitData@Gu@2@@Z 000000018001d220 f   ConvexMeshBuilder.obj
 0001:0001c350       ?loadConvexHull@ConvexMeshBuilder@physx@@QEAA_NAEBVPxConvexMeshDesc@2@PEAVConvexHullLib@2@@Z 000000018001d350 f   ConvexMeshBuilder.obj
 0001:0001c5e0       ?computeHullPolygons@ConvexMeshBuilder@physx@@QEAA_NAEBIPEBVPxVec3@2@0PEBIAEAVPxAllocatorCallback@2@AEAIAEAPEAV32@4AEAPEAI4AEAPEAUPxHullPolygon@2@@Z 000000018001d5e0 f   ConvexMeshBuilder.obj
 0001:0001c800       ?computeGaussMaps@ConvexMeshBuilder@physx@@QEAA_NXZ 000000018001d800 f   ConvexMeshBuilder.obj
 0001:0001c8f0       ?computeMassInfo@ConvexMeshBuilder@physx@@QEAAX_N@Z 000000018001d8f0 f   ConvexMeshBuilder.obj
 0001:0001ccc0       ?computeInternalObjects@ConvexMeshBuilder@physx@@QEAAXXZ 000000018001dcc0 f   ConvexMeshBuilder.obj
 0001:0001d140       ?isFinite@PxVec3@physx@@QEBA_NXZ 000000018001e140 f i ConvexMeshBuilder.obj
 0001:0001d1a0       ??0ConvexPolygonsBuilder@physx@@QEAA@PEAUConvexHullData@Gu@1@_N@Z 000000018001e1a0 f   ConvexPolygonsBuilder.obj
 0001:0001d1d0       ??1ConvexPolygonsBuilder@physx@@QEAA@XZ 000000018001e1d0 f   ConvexPolygonsBuilder.obj
 0001:0001d220       ?computeHullPolygons@ConvexPolygonsBuilder@physx@@QEAA_NAEBIPEBVPxVec3@2@0PEBI@Z 000000018001e220 f   ConvexPolygonsBuilder.obj
 0001:0001e2d0       ?createPolygonData@ConvexPolygonsBuilder@physx@@AEAA_NXZ 000000018001f2d0 f   ConvexPolygonsBuilder.obj
 0001:0001eeb0       ?createTrianglesFromPolygons@ConvexPolygonsBuilder@physx@@AEAA_NXZ 000000018001feb0 f   ConvexPolygonsBuilder.obj
 0001:0001f7d0       ??$copy@V?$ReflectionAllocator@VPair@@@shdfnd@physx@@@?$Array@VPair@@V?$ReflectionAllocator@VPair@@@shdfnd@physx@@@shdfnd@physx@@IEAAXAEBV012@@Z 00000001800207d0 f i ConvexPolygonsBuilder.obj
 0001:00020050       ?allocate@?$Array@IV?$ReflectionAllocator@I@shdfnd@physx@@@shdfnd@physx@@IEAAPEAII@Z 0000000180021050 f i ConvexPolygonsBuilder.obj
 0001:000200f0       ?allocate@?$Array@VPair@@V?$ReflectionAllocator@VPair@@@shdfnd@physx@@@shdfnd@physx@@IEAAPEAVPair@@I@Z 00000001800210f0 f i ConvexPolygonsBuilder.obj
 0001:00021670       ?growAndPushBack@?$Array@VPair@@V?$ReflectionAllocator@VPair@@@shdfnd@physx@@@shdfnd@physx@@IEAAAEAVPair@@AEBV4@@Z 0000000180022670 f i ConvexPolygonsBuilder.obj
 0001:00021730       ??0QuickHullConvexHullLib@physx@@QEAA@AEBVPxConvexMeshDesc@1@AEBUPxCookingParams@1@@Z 0000000180022730 f   QuickHullConvexHullLib.obj
 0001:00021820       ??1QuickHullConvexHullLib@physx@@UEAA@XZ 0000000180022820 f   QuickHullConvexHullLib.obj
 0001:000218f0       ?createConvexHull@QuickHullConvexHullLib@physx@@UEAA?AW4Enum@PxConvexMeshCookingResult@2@XZ 00000001800228f0 f   QuickHullConvexHullLib.obj
 0001:00021d00       ?fillConvexMeshDesc@QuickHullConvexHullLib@physx@@UEAAXAEAVPxConvexMeshDesc@2@@Z 0000000180022d00 f   QuickHullConvexHullLib.obj
 0001:00021d50       ?createEdgeList@QuickHullConvexHullLib@physx@@UEAA_NIPEBEPEAPEAEPEAPEAG2@Z 0000000180022d50 f   QuickHullConvexHullLib.obj
 0001:00021f90       ?expandHullOBB@QuickHullConvexHullLib@physx@@IEAA?AW4Enum@PxConvexMeshCookingResult@2@XZ 0000000180022f90 f   QuickHullConvexHullLib.obj
 0001:000223b0       ?expandHull@QuickHullConvexHullLib@physx@@IEAA?AW4Enum@PxConvexMeshCookingResult@2@XZ 00000001800233b0 f   QuickHullConvexHullLib.obj
 0001:00023080       ?cleanupForSimplex@QuickHullConvexHullLib@physx@@IEAA_NPEAVPxVec3@2@IPEAUQuickHullVertex@local@@1AEAM2@Z 0000000180024080 f   QuickHullConvexHullLib.obj
 0001:00023c50       ?fillConvexMeshDescFromQuickHull@QuickHullConvexHullLib@physx@@IEAAXAEAVPxConvexMeshDesc@2@@Z 0000000180024c50 f   QuickHullConvexHullLib.obj
 0001:00023fe0       ?fillConvexMeshDescFromCroppedHull@QuickHullConvexHullLib@physx@@IEAAXAEAVPxConvexMeshDesc@2@@Z 0000000180024fe0 f   QuickHullConvexHullLib.obj
 0001:000241e0       ?getOppositeFaceDistance@QuickHullHalfEdge@local@@QEBAMXZ 00000001800251e0 f   QuickHullConvexHullLib.obj
 0001:00024220       ?mergeAdjacentFace@QuickHullFace@local@@QEAA_NPEAUQuickHullHalfEdge@2@AEAV?$Array@PEAUQuickHullFace@local@@V?$ReflectionAllocator@PEAUQuickHullFace@local@@@shdfnd@physx@@@shdfnd@physx@@@Z 0000000180025220 f   QuickHullConvexHullLib.obj
 0001:00024670       ?checkFaceConsistency@QuickHullFace@local@@QEAA_NXZ 0000000180025670 f   QuickHullConvexHullLib.obj
 0001:00024680       ?connectHalfEdges@QuickHullFace@local@@AEAAPEAU12@PEAUQuickHullHalfEdge@2@0@Z 0000000180025680 f   QuickHullConvexHullLib.obj
 0001:000249f0       ??0QuickHull@local@@QEAA@AEBUPxCookingParams@physx@@AEBVPxConvexMeshDesc@3@@Z 00000001800259f0 f   QuickHullConvexHullLib.obj
 0001:00024aa0       ??1QuickHull@local@@QEAA@XZ 0000000180025aa0 f   QuickHullConvexHullLib.obj
 0001:00024bf0       ?preallocate@QuickHull@local@@QEAAXI@Z 0000000180025bf0 f   QuickHullConvexHullLib.obj
 0001:00024d40       ?parseInputVertices@QuickHull@local@@QEAAXPEBVPxVec3@physx@@I@Z 0000000180025d40 f   QuickHullConvexHullLib.obj
 0001:00024ed0       ?releaseHull@QuickHull@local@@QEAAXXZ 0000000180025ed0 f   QuickHullConvexHullLib.obj
 0001:00024f30       ?setPrecomputedMinMax@QuickHull@local@@QEAAXPEBUQuickHullVertex@2@0MM@Z 0000000180025f30 f   QuickHullConvexHullLib.obj
 0001:000250c0       ?buildHull@QuickHull@local@@QEAA?AW4Enum@QuickHullResult@2@XZ 00000001800260c0 f   QuickHullConvexHullLib.obj
 0001:000252e0       ?maxNumVertsPerFace@QuickHull@local@@QEBAIXZ 00000001800262e0 f   QuickHullConvexHullLib.obj
 0001:00025320       ?computeMinMaxVerts@QuickHull@local@@IEAAXXZ 0000000180026320 f   QuickHullConvexHullLib.obj
 0001:00025700       ?findSimplex@QuickHull@local@@IEAA_NXZ 0000000180026700 f   QuickHullConvexHullLib.obj
 0001:000263b0       ?addSimplex@QuickHull@local@@IEAAXPEAUQuickHullVertex@2@_N@Z 00000001800273b0 f   QuickHullConvexHullLib.obj
 0001:00026880       ?nextPointToAdd@QuickHull@local@@IEAAPEAUQuickHullVertex@2@AEAPEAUQuickHullFace@2@@Z 0000000180027880 f   QuickHullConvexHullLib.obj
 0001:00026a00       ?addPointToHull@QuickHull@local@@IEAA_NPEBUQuickHullVertex@2@AEAUQuickHullFace@2@AEA_N@Z 0000000180027a00 f   QuickHullConvexHullLib.obj
 0001:00026cd0       ?createTriangle@QuickHull@local@@IEAAPEAUQuickHullFace@2@AEBUQuickHullVertex@2@00@Z 0000000180027cd0 f   QuickHullConvexHullLib.obj
 0001:00027070       ?addPointToFace@QuickHull@local@@IEAAXAEAUQuickHullFace@2@PEAUQuickHullVertex@2@M@Z 0000000180028070 f   QuickHullConvexHullLib.obj
 0001:000270c0       ?removeEyePointFromFace@QuickHull@local@@IEAAXAEAUQuickHullFace@2@PEBUQuickHullVertex@2@@Z 00000001800280c0 f   QuickHullConvexHullLib.obj
 0001:000270e0       ?calculateHorizon@QuickHull@local@@IEAAXAEBVPxVec3@physx@@PEAUQuickHullHalfEdge@2@AEAUQuickHullFace@2@AEAV?$Array@PEAUQuickHullHalfEdge@local@@V?$ReflectionAllocator@PEAUQuickHullHalfEdge@local@@@shdfnd@physx@@@shdfnd@4@AEAV?$Array@PEAUQuickHullFace@local@@V?$ReflectionAllocator@PEAUQuickHullFace@local@@@shdfnd@physx@@@84@@Z 00000001800280e0 f   QuickHullConvexHullLib.obj
 0001:00027290       ?addNewFacesFromHorizon@QuickHull@local@@IEAAXPEBUQuickHullVertex@2@AEBV?$Array@PEAUQuickHullHalfEdge@local@@V?$ReflectionAllocator@PEAUQuickHullHalfEdge@local@@@shdfnd@physx@@@shdfnd@physx@@AEAV?$Array@PEAUQuickHullFace@local@@V?$ReflectionAllocator@PEAUQuickHullFace@local@@@shdfnd@physx@@@56@@Z 0000000180028290 f   QuickHullConvexHullLib.obj
 0001:000273e0       ?doAdjacentMerge@QuickHull@local@@IEAA_NAEAUQuickHullFace@2@_NAEA_N@Z 00000001800283e0 f   QuickHullConvexHullLib.obj
 0001:00027730       ?doPostAdjacentMerge@QuickHull@local@@IEAA_NAEAUQuickHullFace@2@M@Z 0000000180028730 f   QuickHullConvexHullLib.obj
 0001:00027950       ?deleteFacePoints@QuickHull@local@@IEAAXAEAUQuickHullFace@2@PEAU32@@Z 0000000180028950 f   QuickHullConvexHullLib.obj
 0001:00027a60       ?resolveUnclaimedPoints@QuickHull@local@@IEAAXAEBV?$Array@PEAUQuickHullFace@local@@V?$ReflectionAllocator@PEAUQuickHullFace@local@@@shdfnd@physx@@@shdfnd@physx@@@Z 0000000180028a60 f   QuickHullConvexHullLib.obj
 0001:00027ce0       ?postMergeHull@QuickHull@local@@IEAAXXZ 0000000180028ce0 f   QuickHullConvexHullLib.obj
 0001:00027f40       ?canMergeFaces@QuickHull@local@@IEAA_NAEBUQuickHullHalfEdge@2@@Z 0000000180028f40 f   QuickHullConvexHullLib.obj
 0001:00028770       ?getExpandPoint@local@@YAXAEBUQuickHullHalfEdge@1@AEAUExpandPoint@1@PEBV?$Array@IV?$ReflectionAllocator@I@shdfnd@physx@@@shdfnd@physx@@@Z 0000000180029770 f   QuickHullConvexHullLib.obj
 0001:00028820       ?addExpandPoint@local@@YAXAEBUExpandPoint@1@AEAV?$Array@UExpandPoint@local@@V?$ReflectionAllocator@UExpandPoint@local@@@shdfnd@physx@@@shdfnd@physx@@@Z 0000000180029820 f   QuickHullConvexHullLib.obj
 0001:00028900       ??0PxPlane@physx@@QEAA@AEBV01@@Z 0000000180029900 f i QuickHullConvexHullLib.obj
 0001:00028920       ??0QuickHullVertex@local@@QEAA@XZ 0000000180029920 f i QuickHullConvexHullLib.obj
 0001:00028930       ??1?$MemBlock@UQuickHullFace@local@@$00@local@@QEAA@XZ 0000000180029930 f i QuickHullConvexHullLib.obj
 0001:000289c0       ??1?$MemBlock@UQuickHullHalfEdge@local@@$0A@@local@@QEAA@XZ 00000001800299c0 f i QuickHullConvexHullLib.obj
 0001:00028a50       ??_GConvexHull@physx@@QEAAPEAXI@Z 0000000180029a50 f i QuickHullConvexHullLib.obj
 0001:00028b30       ??_EQuickHullConvexHullLib@physx@@UEAAPEAXI@Z 0000000180029b30 f i QuickHullConvexHullLib.obj
 0001:00028b30       ??_GQuickHullConvexHullLib@physx@@UEAAPEAXI@Z 0000000180029b30 f i QuickHullConvexHullLib.obj
 0001:00028c30       ??__G@YAXPEAX0_K1P6APEAX00@Z@Z 0000000180029c30 f i QuickHullConvexHullLib.obj
 0001:00028c90       ?allocate@?$Array@PEAUQuickHullFace@local@@V?$ReflectionAllocator@PEAUQuickHullFace@local@@@shdfnd@physx@@@shdfnd@physx@@IEAAPEAPEAUQuickHullFace@local@@I@Z 0000000180029c90 f i QuickHullConvexHullLib.obj
 0001:00028d30       ?allocate@?$Array@PEAUQuickHullHalfEdge@local@@V?$ReflectionAllocator@PEAUQuickHullHalfEdge@local@@@shdfnd@physx@@@shdfnd@physx@@IEAAPEAPEAUQuickHullHalfEdge@local@@I@Z 0000000180029d30 f i QuickHullConvexHullLib.obj
 0001:00028dd0       ?allocate@?$Array@PEAUQuickHullVertex@local@@V?$ReflectionAllocator@PEAUQuickHullVertex@local@@@shdfnd@physx@@@shdfnd@physx@@IEAAPEAPEAUQuickHullVertex@local@@I@Z 0000000180029dd0 f i QuickHullConvexHullLib.obj
 0001:00028e70       ?allocate@?$Array@UExpandPoint@local@@V?$ReflectionAllocator@UExpandPoint@local@@@shdfnd@physx@@@shdfnd@physx@@IEAAPEAUExpandPoint@local@@I@Z 0000000180029e70 f i QuickHullConvexHullLib.obj
 0001:00028f10       ?copy@?$Array@UExpandPoint@local@@V?$ReflectionAllocator@UExpandPoint@local@@@shdfnd@physx@@@shdfnd@physx@@KAXPEAUExpandPoint@local@@0PEBU45@@Z 0000000180029f10 f i QuickHullConvexHullLib.obj
 0001:00028fc0       ?getFreeItem@?$MemBlock@UQuickHullFace@local@@$00@local@@QEAAPEAUQuickHullFace@2@XZ 0000000180029fc0 f i QuickHullConvexHullLib.obj
 0001:000290f0       ?getFreeItem@?$MemBlock@UQuickHullHalfEdge@local@@$0A@@local@@QEAAPEAUQuickHullHalfEdge@2@XZ 000000018002a0f0 f i QuickHullConvexHullLib.obj
 0001:000291c0       ?growAndPushBack@?$Array@PEAUQuickHullFace@local@@V?$ReflectionAllocator@PEAUQuickHullFace@local@@@shdfnd@physx@@@shdfnd@physx@@IEAAAEAPEAUQuickHullFace@local@@AEBQEAU45@@Z 000000018002a1c0 f i QuickHullConvexHullLib.obj
 0001:00029280       ?growAndPushBack@?$Array@PEAUQuickHullHalfEdge@local@@V?$ReflectionAllocator@PEAUQuickHullHalfEdge@local@@@shdfnd@physx@@@shdfnd@physx@@IEAAAEAPEAUQuickHullHalfEdge@local@@AEBQEAU45@@Z 000000018002a280 f i QuickHullConvexHullLib.obj
 0001:00029340       ?growAndPushBack@?$Array@PEAUQuickHullVertex@local@@V?$ReflectionAllocator@PEAUQuickHullVertex@local@@@shdfnd@physx@@@shdfnd@physx@@IEAAAEAPEAUQuickHullVertex@local@@AEBQEAU45@@Z 000000018002a340 f i QuickHullConvexHullLib.obj
 0001:00029400       ?growAndPushBack@?$Array@UExpandPoint@local@@V?$ReflectionAllocator@UExpandPoint@local@@@shdfnd@physx@@@shdfnd@physx@@IEAAAEAUExpandPoint@local@@AEBU45@@Z 000000018002a400 f i QuickHullConvexHullLib.obj
 0001:00029500       ?init@?$MemBlock@UQuickHullFace@local@@$00@local@@QEAAXI@Z 000000018002a500 f i QuickHullConvexHullLib.obj
 0001:00029600       ?init@?$MemBlock@UQuickHullHalfEdge@local@@$0A@@local@@QEAAXI@Z 000000018002a600 f i QuickHullConvexHullLib.obj
 0001:000296a0       ?recreate@?$Array@PEAUQuickHullFace@local@@V?$ReflectionAllocator@PEAUQuickHullFace@local@@@shdfnd@physx@@@shdfnd@physx@@IEAAXI@Z 000000018002a6a0 f i QuickHullConvexHullLib.obj
 0001:00029740       ?recreate@?$Array@PEAUQuickHullHalfEdge@local@@V?$ReflectionAllocator@PEAUQuickHullHalfEdge@local@@@shdfnd@physx@@@shdfnd@physx@@IEAAXI@Z 000000018002a740 f i QuickHullConvexHullLib.obj
 0001:000297e0       ?recreate@?$Array@PEAUQuickHullVertex@local@@V?$ReflectionAllocator@PEAUQuickHullVertex@local@@@shdfnd@physx@@@shdfnd@physx@@IEAAXI@Z 000000018002a7e0 f i QuickHullConvexHullLib.obj
 0001:00029880       ?recreate@?$Array@UExpandPoint@local@@V?$ReflectionAllocator@UExpandPoint@local@@@shdfnd@physx@@@shdfnd@physx@@IEAAXI@Z 000000018002a880 f i QuickHullConvexHullLib.obj
 0001:00029910       ?computeVolumeIntegrals@physx@@YA_NAEBVPxSimpleTriangleMesh@1@MAEAUPxIntegrals@1@@Z 000000018002a910 f   VolumeIntegration.obj
 0001:00029980       ?computeVolumeIntegralsEberly@physx@@YA_NAEBVPxConvexMeshDesc@1@MAEAUPxIntegrals@1@AEBVPxVec3@1@@Z 000000018002a980 f   VolumeIntegration.obj
 0001:000299d0       ?computeVolumeIntegralsEberlySIMD@physx@@YA_NAEBVPxConvexMeshDesc@1@MAEAUPxIntegrals@1@AEBVPxVec3@1@@Z 000000018002a9d0 f   VolumeIntegration.obj
 0001:0002bcd0       PxSetPhysXCookingDelayLoadHook 000000018002ccd0 f   WindowsCookingDelayLoadHook.obj
 0001:0002bce0       ?cookingDelayHook@@YAP6A_JXZIPEAUDelayLoadInfo@@@Z 000000018002cce0 f   WindowsCookingDelayLoadHook.obj
 0001:0002bdb8       __imp_load_??0RadixSortBuffered@Cm@physx@@QEAA@XZ 000000018002cdb8 f   PhysXCommon_64:PhysXCommon_64.dll
 0001:0002bdc4       ??0RadixSortBuffered@Cm@physx@@QEAA@XZ 000000018002cdc4 f   PhysXCommon_64:PhysXCommon_64.dll
 0001:0002bdca       __tailMerge_physxcommon_64_dll 000000018002cdca     PhysXCommon_64:PhysXCommon_64.dll
 0001:0002be43       __imp_load_??1RadixSortBuffered@Cm@physx@@UEAA@XZ 000000018002ce43 f   PhysXCommon_64:PhysXCommon_64.dll
 0001:0002be4f       ??1RadixSortBuffered@Cm@physx@@UEAA@XZ 000000018002ce4f f   PhysXCommon_64:PhysXCommon_64.dll
 0001:0002be55       __imp_load_?Sort@RadixSortBuffered@Cm@physx@@QEAAAEAV123@PEBIIW4RadixHint@23@@Z 000000018002ce55 f   PhysXCommon_64:PhysXCommon_64.dll
 0001:0002be61       ?Sort@RadixSortBuffered@Cm@physx@@QEAAAEAV123@PEBIIW4RadixHint@23@@Z 000000018002ce61 f   PhysXCommon_64:PhysXCommon_64.dll
 0001:0002be67       __imp_load_?readDword@physx@@YAI_NAEAVPxInputStream@1@@Z 000000018002ce67 f   PhysXCommon_64:PhysXCommon_64.dll
 0001:0002be73       ?readDword@physx@@YAI_NAEAVPxInputStream@1@@Z 000000018002ce73 f   PhysXCommon_64:PhysXCommon_64.dll
 0001:0002be79       __imp_load_?ReadHeader@Gu@physx@@YA_NEEEEAEAIAEA_NAEAVPxInputStream@2@@Z 000000018002ce79 f   PhysXCommon_64:PhysXCommon_64.dll
 0001:0002be85       ?ReadHeader@Gu@physx@@YA_NEEEEAEAIAEA_NAEAVPxInputStream@2@@Z 000000018002ce85 f   PhysXCommon_64:PhysXCommon_64.dll
 0001:0002be8b       __imp_load_??0HeightField@Gu@physx@@QEAA@PEAVGuMeshFactory@2@@Z 000000018002ce8b f   PhysXCommon_64:PhysXCommon_64.dll
 0001:0002be97       ??0HeightField@Gu@physx@@QEAA@PEAVGuMeshFactory@2@@Z 000000018002ce97 f   PhysXCommon_64:PhysXCommon_64.dll
 0001:0002be9d       __imp_load_?loadFromDesc@HeightField@Gu@physx@@QEAA_NAEBVPxHeightFieldDesc@3@@Z 000000018002ce9d f   PhysXCommon_64:PhysXCommon_64.dll
 0001:0002bea9       ?loadFromDesc@HeightField@Gu@physx@@QEAA_NAEBVPxHeightFieldDesc@3@@Z 000000018002cea9 f   PhysXCommon_64:PhysXCommon_64.dll
 0001:0002beaf       __imp_load_?computeCellCoordinates@HeightField@Gu@physx@@QEBAIMMAEAM0@Z 000000018002ceaf f   PhysXCommon_64:PhysXCommon_64.dll
 0001:0002bebb       ?computeCellCoordinates@HeightField@Gu@physx@@QEBAIMMAEAM0@Z 000000018002cebb f   PhysXCommon_64:PhysXCommon_64.dll
 0001:0002bec1       __imp_load_?releaseMemory@HeightField@Gu@physx@@QEAAXXZ 000000018002cec1 f   PhysXCommon_64:PhysXCommon_64.dll
 0001:0002becd       ?releaseMemory@HeightField@Gu@physx@@QEAAXXZ 000000018002cecd f   PhysXCommon_64:PhysXCommon_64.dll
 0001:0002bed3       __imp_load_??1HeightField@Gu@physx@@UEAA@XZ 000000018002ced3 f   PhysXCommon_64:PhysXCommon_64.dll
 0001:0002bedf       ??1HeightField@Gu@physx@@UEAA@XZ 000000018002cedf f   PhysXCommon_64:PhysXCommon_64.dll
 0001:0002bee5       __imp_load_??0NodeAllocator@Gu@physx@@QEAA@XZ 000000018002cee5 f   PhysXCommon_64:PhysXCommon_64.dll
 0001:0002bef1       ??0NodeAllocator@Gu@physx@@QEAA@XZ 000000018002cef1 f   PhysXCommon_64:PhysXCommon_64.dll
 0001:0002bef7       __imp_load_??1NodeAllocator@Gu@physx@@QEAA@XZ 000000018002cef7 f   PhysXCommon_64:PhysXCommon_64.dll
 0001:0002bf03       ??1NodeAllocator@Gu@physx@@QEAA@XZ 000000018002cf03 f   PhysXCommon_64:PhysXCommon_64.dll
 0001:0002bf09       __imp_load_?release@NodeAllocator@Gu@physx@@QEAAXXZ 000000018002cf09 f   PhysXCommon_64:PhysXCommon_64.dll
 0001:0002bf15       ?release@NodeAllocator@Gu@physx@@QEAAXXZ 000000018002cf15 f   PhysXCommon_64:PhysXCommon_64.dll
 0001:0002bf1b       __imp_load_?buildAABBTree@Gu@physx@@YA_NAEAVAABBTreeBuildParams@12@AEAVNodeAllocator@12@AEAUBuildStats@12@AEAPEAI@Z 000000018002cf1b f   PhysXCommon_64:PhysXCommon_64.dll
 0001:0002bf27       ?buildAABBTree@Gu@physx@@YA_NAEAVAABBTreeBuildParams@12@AEAVNodeAllocator@12@AEAUBuildStats@12@AEAPEAI@Z 000000018002cf27 f   PhysXCommon_64:PhysXCommon_64.dll
 0001:0002bf2d       __imp_load_?writeDword@physx@@YAXI_NAEAVPxOutputStream@1@@Z 000000018002cf2d f   PhysXCommon_64:PhysXCommon_64.dll
 0001:0002bf39       ?writeDword@physx@@YAXI_NAEAVPxOutputStream@1@@Z 000000018002cf39 f   PhysXCommon_64:PhysXCommon_64.dll
 0001:0002bf3f       __imp_load_?writeFloatBuffer@physx@@YAXPEBMI_NAEAVPxOutputStream@1@@Z 000000018002cf3f f   PhysXCommon_64:PhysXCommon_64.dll
 0001:0002bf4b       ?writeFloatBuffer@physx@@YAXPEBMI_NAEAVPxOutputStream@1@@Z 000000018002cf4b f   PhysXCommon_64:PhysXCommon_64.dll
 0001:0002bf51       __imp_load_?writeHeader@physx@@YA_NCCCCI_NAEAVPxOutputStream@1@@Z 000000018002cf51 f   PhysXCommon_64:PhysXCommon_64.dll
 0001:0002bf5d       ?writeHeader@physx@@YA_NCCCCI_NAEAVPxOutputStream@1@@Z 000000018002cf5d f   PhysXCommon_64:PhysXCommon_64.dll
 0001:0002bf63       __imp_load_?writeWord@physx@@YAXG_NAEAVPxOutputStream@1@@Z 000000018002cf63 f   PhysXCommon_64:PhysXCommon_64.dll
 0001:0002bf6f       ?writeWord@physx@@YAXG_NAEAVPxOutputStream@1@@Z 000000018002cf6f f   PhysXCommon_64:PhysXCommon_64.dll
 0001:0002bf75       __imp_load_?writeFloat@physx@@YAXM_NAEAVPxOutputStream@1@@Z 000000018002cf75 f   PhysXCommon_64:PhysXCommon_64.dll
 0001:0002bf81       ?writeFloat@physx@@YAXM_NAEAVPxOutputStream@1@@Z 000000018002cf81 f   PhysXCommon_64:PhysXCommon_64.dll
 0001:0002bf87       __imp_load_?computeBoundsAroundVertices@Gu@physx@@YAXAEAVPxBounds3@2@IPEIBVPxVec3@2@@Z 000000018002cf87 f   PhysXCommon_64:PhysXCommon_64.dll
 0001:0002bf93       ?computeBoundsAroundVertices@Gu@physx@@YAXAEAVPxBounds3@2@IPEIBVPxVec3@2@@Z 000000018002cf93 f   PhysXCommon_64:PhysXCommon_64.dll
 0001:0002bf99       __imp_load_??0SourceMesh@Gu@physx@@QEAA@XZ 000000018002cf99 f   PhysXCommon_64:PhysXCommon_64.dll
 0001:0002bfa5       ??0SourceMesh@Gu@physx@@QEAA@XZ 000000018002cfa5 f   PhysXCommon_64:PhysXCommon_64.dll
 0001:0002bfab       __imp_load_??1SourceMesh@Gu@physx@@QEAA@XZ 000000018002cfab f   PhysXCommon_64:PhysXCommon_64.dll
 0001:0002bfb7       ??1SourceMesh@Gu@physx@@QEAA@XZ 000000018002cfb7 f   PhysXCommon_64:PhysXCommon_64.dll
 0001:0002bfbd       __imp_load_??0BV4Tree@Gu@physx@@QEAA@XZ 000000018002cfbd f   PhysXCommon_64:PhysXCommon_64.dll
 0001:0002bfc9       ??0BV4Tree@Gu@physx@@QEAA@XZ 000000018002cfc9 f   PhysXCommon_64:PhysXCommon_64.dll
 0001:0002bfcf       __imp_load_??1BV4Tree@Gu@physx@@QEAA@XZ 000000018002cfcf f   PhysXCommon_64:PhysXCommon_64.dll
 0001:0002bfdb       ??1BV4Tree@Gu@physx@@QEAA@XZ 000000018002cfdb f   PhysXCommon_64:PhysXCommon_64.dll
 0001:0002bfe1       __imp_load_??0BV32Tree@Gu@physx@@QEAA@XZ 000000018002cfe1 f   PhysXCommon_64:PhysXCommon_64.dll
 0001:0002bfed       ??0BV32Tree@Gu@physx@@QEAA@XZ 000000018002cfed f   PhysXCommon_64:PhysXCommon_64.dll
 0001:0002bff3       __imp_load_??1BV32Tree@Gu@physx@@QEAA@XZ 000000018002cff3 f   PhysXCommon_64:PhysXCommon_64.dll
 0001:0002bfff       ??1BV32Tree@Gu@physx@@QEAA@XZ 000000018002cfff f   PhysXCommon_64:PhysXCommon_64.dll
 0001:0002c005       __imp_load_?writeWordBuffer@physx@@YAXPEBGI_NAEAVPxOutputStream@1@@Z 000000018002d005 f   PhysXCommon_64:PhysXCommon_64.dll
 0001:0002c011       ?writeWordBuffer@physx@@YAXPEBGI_NAEAVPxOutputStream@1@@Z 000000018002d011 f   PhysXCommon_64:PhysXCommon_64.dll
 0001:0002c017       __imp_load_?computeMaxIndex@physx@@YAIPEBII@Z 000000018002d017 f   PhysXCommon_64:PhysXCommon_64.dll
 0001:0002c023       ?computeMaxIndex@physx@@YAIPEBII@Z 000000018002d023 f   PhysXCommon_64:PhysXCommon_64.dll
 0001:0002c029       __imp_load_?storeIndices@physx@@YAXIIPEBIAEAVPxOutputStream@1@_N@Z 000000018002d029 f   PhysXCommon_64:PhysXCommon_64.dll
 0001:0002c035       ?storeIndices@physx@@YAXIIPEBIAEAVPxOutputStream@1@_N@Z 000000018002d035 f   PhysXCommon_64:PhysXCommon_64.dll
 0001:0002c03b       __imp_load_?BuildBV4Ex@Gu@physx@@YA_NAEAVBV4Tree@12@AEAVSourceMesh@12@MI@Z 000000018002d03b f   PhysXCommon_64:PhysXCommon_64.dll
 0001:0002c047       ?BuildBV4Ex@Gu@physx@@YA_NAEAVBV4Tree@12@AEAVSourceMesh@12@MI@Z 000000018002d047 f   PhysXCommon_64:PhysXCommon_64.dll
 0001:0002c04d       __imp_load_?BuildBV32Ex@Gu@physx@@YA_NAEAVBV32Tree@12@AEAVSourceMesh@12@MI@Z 000000018002d04d f   PhysXCommon_64:PhysXCommon_64.dll
 0001:0002c059       ?BuildBV32Ex@Gu@physx@@YA_NAEAVBV32Tree@12@AEAVSourceMesh@12@MI@Z 000000018002d059 f   PhysXCommon_64:PhysXCommon_64.dll
 0001:0002c05f       __imp_load_?computeMaxIndex@physx@@YAGPEBGI@Z 000000018002d05f f   PhysXCommon_64:PhysXCommon_64.dll
 0001:0002c06b       ?computeMaxIndex@physx@@YAGPEBGI@Z 000000018002d06b f   PhysXCommon_64:PhysXCommon_64.dll
 0001:0002c071       __imp_load_?WriteHeader@Gu@physx@@YA_NEEEEI_NAEAVPxOutputStream@2@@Z 000000018002d071 f   PhysXCommon_64:PhysXCommon_64.dll
 0001:0002c07d       ?WriteHeader@Gu@physx@@YA_NEEEEI_NAEAVPxOutputStream@2@@Z 000000018002d07d f   PhysXCommon_64:PhysXCommon_64.dll
 0001:0002c083       __imp_load_?StoreIndices@Gu@physx@@YAXGIPEBGAEAVPxOutputStream@2@_N@Z 000000018002d083 f   PhysXCommon_64:PhysXCommon_64.dll
 0001:0002c08f       ?StoreIndices@Gu@physx@@YAXGIPEBGAEAVPxOutputStream@2@_N@Z 000000018002d08f f   PhysXCommon_64:PhysXCommon_64.dll
 0001:0002c095       __imp_load_?CreateOffsets@BigConvexData@physx@@IEAAXXZ 000000018002d095 f   PhysXCommon_64:PhysXCommon_64.dll
 0001:0002c0a1       ?CreateOffsets@BigConvexData@physx@@IEAAXXZ 000000018002d0a1 f   PhysXCommon_64:PhysXCommon_64.dll
 0001:0002c0a7       __imp_load_?computeOBBPoints@Gu@physx@@YAXPEIAVPxVec3@2@AEBV32@1111@Z 000000018002d0a7 f   PhysXCommon_64:PhysXCommon_64.dll
 0001:0002c0b3       ?computeOBBPoints@Gu@physx@@YAXPEIAVPxVec3@2@AEBV32@1111@Z 000000018002d0b3 f   PhysXCommon_64:PhysXCommon_64.dll
 0001:0002c0b9       __imp_load_??0BigConvexData@physx@@QEAA@XZ 000000018002d0b9 f   PhysXCommon_64:PhysXCommon_64.dll
 0001:0002c0c5       ??0BigConvexData@physx@@QEAA@XZ 000000018002d0c5 f   PhysXCommon_64:PhysXCommon_64.dll
 0001:0002c0cb       __imp_load_??1BigConvexData@physx@@QEAA@XZ 000000018002d0cb f   PhysXCommon_64:PhysXCommon_64.dll
 0001:0002c0d7       ??1BigConvexData@physx@@QEAA@XZ 000000018002d0d7 f   PhysXCommon_64:PhysXCommon_64.dll
 0001:0002c0dd       __imp_load_PxGetFoundation 000000018002d0dd f   PhysXFoundation_64:PhysXFoundation_64.dll
 0001:0002c0e9       PxGetFoundation            000000018002d0e9 f   PhysXFoundation_64:PhysXFoundation_64.dll
 0001:0002c0ef       __tailMerge_physxfoundation_64_dll 000000018002d0ef     PhysXFoundation_64:PhysXFoundation_64.dll
 0001:0002c168       __imp_load_?getAllocator@shdfnd@physx@@YAAEAVPxAllocatorCallback@2@XZ 000000018002d168 f   PhysXFoundation_64:PhysXFoundation_64.dll
 0001:0002c174       ?getAllocator@shdfnd@physx@@YAAEAVPxAllocatorCallback@2@XZ 000000018002d174 f   PhysXFoundation_64:PhysXFoundation_64.dll
 0001:0002c17a       __imp_load_?getInstance@Foundation@shdfnd@physx@@SAAEAV123@XZ 000000018002d17a f   PhysXFoundation_64:PhysXFoundation_64.dll
 0001:0002c186       ?getInstance@Foundation@shdfnd@physx@@SAAEAV123@XZ 000000018002d186 f   PhysXFoundation_64:PhysXFoundation_64.dll
 0001:0002c18c       __imp_load_?error@Foundation@shdfnd@physx@@QEAAXW4Enum@PxErrorCode@3@PEBDH1ZZ 000000018002d18c f   PhysXFoundation_64:PhysXFoundation_64.dll
 0001:0002c198       ?error@Foundation@shdfnd@physx@@QEAAXW4Enum@PxErrorCode@3@PEBDH1ZZ 000000018002d198 f   PhysXFoundation_64:PhysXFoundation_64.dll
 0001:0002c19e       __imp_load_?incRefCount@Foundation@shdfnd@physx@@SAXXZ 000000018002d19e f   PhysXFoundation_64:PhysXFoundation_64.dll
 0001:0002c1aa       ?incRefCount@Foundation@shdfnd@physx@@SAXXZ 000000018002d1aa f   PhysXFoundation_64:PhysXFoundation_64.dll
 0001:0002c1b0       __imp_load_?decRefCount@Foundation@shdfnd@physx@@SAXXZ 000000018002d1b0 f   PhysXFoundation_64:PhysXFoundation_64.dll
 0001:0002c1bc       ?decRefCount@Foundation@shdfnd@physx@@SAXXZ 000000018002d1bc f   PhysXFoundation_64:PhysXFoundation_64.dll
 0001:0002c1c2       __imp_load_??0FPUGuard@shdfnd@physx@@QEAA@XZ 000000018002d1c2 f   PhysXFoundation_64:PhysXFoundation_64.dll
 0001:0002c1ce       ??0FPUGuard@shdfnd@physx@@QEAA@XZ 000000018002d1ce f   PhysXFoundation_64:PhysXFoundation_64.dll
 0001:0002c1d4       __imp_load_??1FPUGuard@shdfnd@physx@@QEAA@XZ 000000018002d1d4 f   PhysXFoundation_64:PhysXFoundation_64.dll
 0001:0002c1e0       ??1FPUGuard@shdfnd@physx@@QEAA@XZ 000000018002d1e0 f   PhysXFoundation_64:PhysXFoundation_64.dll
 0001:0002c1e6       __imp_load_?allocate@TempAllocator@shdfnd@physx@@QEAAPEAX_KPEBDH@Z 000000018002d1e6 f   PhysXFoundation_64:PhysXFoundation_64.dll
 0001:0002c1f2       ?allocate@TempAllocator@shdfnd@physx@@QEAAPEAX_KPEBDH@Z 000000018002d1f2 f   PhysXFoundation_64:PhysXFoundation_64.dll
 0001:0002c1f8       __imp_load_?deallocate@TempAllocator@shdfnd@physx@@QEAAXPEAX@Z 000000018002d1f8 f   PhysXFoundation_64:PhysXFoundation_64.dll
 0001:0002c204       ?deallocate@TempAllocator@shdfnd@physx@@QEAAXPEAX@Z 000000018002d204 f   PhysXFoundation_64:PhysXFoundation_64.dll
 0001:0002c20a       __imp_load_?PxDiagonalize@physx@@YA?AVPxVec3@1@AEBVPxMat33@1@AEAVPxQuat@1@@Z 000000018002d20a f   PhysXFoundation_64:PhysXFoundation_64.dll
 0001:0002c216       ?PxDiagonalize@physx@@YA?AVPxVec3@1@AEBVPxMat33@1@AEAVPxQuat@1@@Z 000000018002d216 f   PhysXFoundation_64:PhysXFoundation_64.dll
 0001:0002c21c       LoadLibraryA               000000018002d21c f   kernel32:KERNEL32.dll
 0001:0002c224       ??$PFromRva@PEAP6A_JXZ@@YAPEAP6A_JXZK@Z 000000018002d224 f i Delayimp:delayhlp.obj
 0001:0002c234       ??$PFromRva@PEAPEAUHINSTANCE__@@@@YAPEAPEAUHINSTANCE__@@K@Z 000000018002d234 f i Delayimp:delayhlp.obj
 0001:0002c244       ??$PFromRva@PEAU_IMAGE_IMPORT_BY_NAME@@@@YAPEAU_IMAGE_IMPORT_BY_NAME@@K@Z 000000018002d244 f i Delayimp:delayhlp.obj
 0001:0002c254       ??$PFromRva@PEAU_IMAGE_THUNK_DATA64@@@@YAPEAU_IMAGE_THUNK_DATA64@@K@Z 000000018002d254 f i Delayimp:delayhlp.obj
 0001:0002c264       ??$PFromRva@PEBD@@YAPEBDK@Z 000000018002d264 f i Delayimp:delayhlp.obj
 0001:0002c274       ??$PFromRva@PEBUImgDelayDescr@@@@YAPEBUImgDelayDescr@@K@Z 000000018002d274 f i Delayimp:delayhlp.obj
 0001:0002c284       ??$PFromRva@PEBU_IMAGE_THUNK_DATA64@@@@YAPEBU_IMAGE_THUNK_DATA64@@K@Z 000000018002d284 f i Delayimp:delayhlp.obj
 0001:0002c294       ?CountOfImports@@YAIPEBU_IMAGE_THUNK_DATA64@@@Z 000000018002d294 f i Delayimp:delayhlp.obj
 0001:0002c2a8       ?DloadAcquireSectionWriteAccess@@YAXXZ 000000018002d2a8 f i Delayimp:delayhlp.obj
 0001:0002c354       ?DloadGetSRWLockFunctionPointers@@YAEXZ 000000018002d354 f i Delayimp:delayhlp.obj
 0001:0002c3f0       ?DloadLock@@YAXXZ          000000018002d3f0 f i Delayimp:delayhlp.obj
 0001:0002c438       ?DloadMakePermanentImageCommit@@YAXPEAX_K@Z 000000018002d438 f i Delayimp:delayhlp.obj
 0001:0002c4d0       ?DloadObtainSection@@YAPEAXPEAK0@Z 000000018002d4d0 f i Delayimp:delayhlp.obj
 0001:0002c56c       ?DloadProtectSection@@YAXKPEAK@Z 000000018002d56c f i Delayimp:delayhlp.obj
 0001:0002c5fc       ?DloadReleaseSectionWriteAccess@@YAXXZ 000000018002d5fc f i Delayimp:delayhlp.obj
 0001:0002c690       ?DloadUnlock@@YAXXZ        000000018002d690 f i Delayimp:delayhlp.obj
 0001:0002c6d0       ?IndexFromPImgThunkData@@YAIPEBU_IMAGE_THUNK_DATA64@@0@Z 000000018002d6d0 f i Delayimp:delayhlp.obj
 0001:0002c818       HRESULT_FROM_WIN32         000000018002d818 f i Delayimp:delayhlp.obj
 0001:0002c828       ReadAcquire64              000000018002d828 f i Delayimp:delayhlp.obj
 0001:0002c82c       ReadPointerAcquire         000000018002d82c f i Delayimp:delayhlp.obj
 0001:0002c830       WritePointerRelease        000000018002d830 f i Delayimp:delayhlp.obj
 0001:0002c834       WriteRelease64             000000018002d834 f i Delayimp:delayhlp.obj
 0001:0002c838       __FUnloadDelayLoadedDLL2   000000018002d838 f   Delayimp:delayhlp.obj
 0001:0002c8f4       __HrLoadAllImportsForDll   000000018002d8f4 f   Delayimp:delayhlp.obj
 0001:0002c968       __delayLoadHelper2         000000018002d968 f   Delayimp:delayhlp.obj
 0001:0002cc40       ??3@YAXPEAX_K@Z            000000018002dc40 f   LIBCMT:delete_scalar_size.obj
 0001:0002cc48       ??_V@YAXPEAX_K@Z           000000018002dc48 f   LIBCMT:delete_array_size.obj
 0001:0002cc50       ??1type_info@@UEAA@XZ      000000018002dc50 f   LIBCMT:std_type_info_static.obj
 0001:0002cc5c       ??_Etype_info@@UEAAPEAXI@Z 000000018002dc5c f i LIBCMT:std_type_info_static.obj
 0001:0002cc5c       ??_Gtype_info@@UEAAPEAXI@Z 000000018002dc5c f i LIBCMT:std_type_info_static.obj
 0001:0002cc88       ?__scrt_initialize_type_info@@YAXXZ 000000018002dc88 f   LIBCMT:tncleanup.obj
 0001:0002cc98       ?__scrt_uninitialize_type_info@@YAXXZ 000000018002dc98 f   LIBCMT:tncleanup.obj
 0001:0002ccc0       __chkstk                   000000018002dcc0 f   LIBCMT:chkstk.obj
 0001:0002ccc0       _alloca_probe              000000018002dcc0 f   LIBCMT:chkstk.obj
 0001:0002cd14       ??3@YAXPEAX@Z              000000018002dd14 f   LIBCMT:delete_scalar.obj
 0001:0002cd1c       ??_V@YAXPEAX@Z             000000018002dd1c f   LIBCMT:delete_array.obj
 0001:0002cd30       __vdecl_sinf4              000000018002dd30 f   LIBCMT:svml_ssinf4_dispatch.obj
 0001:0002cd50       __libm_sse2_sincosf_       000000018002dd50 f   LIBCMT:svml_ssinf4_dispatch.obj
 0001:0002cd93       __libm_sse2_sincosf4_      000000018002dd93 f   LIBCMT:svml_ssinf4_dispatch.obj
 0001:0002d0dc       _CRT_INIT                  000000018002e0dc f   LIBCMT:dll_dllmain.obj
 0001:0002d0e4       _DllMainCRTStartup         000000018002e0e4 f   LIBCMT:dll_dllmain.obj
 0001:0002d124       _guard_check_icall_nop     000000018002e124 f i LIBCMT:guard_support.obj
 0001:0002d128       ReadNoFence64              000000018002e128 f i LIBCMT:guard_support.obj
 0001:0002d12c       ReadPointerNoFence         000000018002e12c f i LIBCMT:guard_support.obj
 0001:0002d130       _guard_icall_checks_enforced 000000018002e130 f i LIBCMT:guard_support.obj
 0001:0002d148       _guard_rf_checks_enforced  000000018002e148 f i LIBCMT:guard_support.obj
 0001:0002d14c       __isa_available_init       000000018002e14c f   LIBCMT:cpu_disp.obj
 0001:0002d2f0       __sse2_sinf4@@16           000000018002e2f0 f   LIBCMT:svml_ssinf4_sse2.obj
 0001:0002dc30       __sse4_sinf4@@16           000000018002ec30 f   LIBCMT:svml_ssinf4_sse4.obj
 0001:0002e410       __security_init_cookie     000000018002f410 f   LIBCMT:gs_support.obj
 0001:0002e4bc       DllMain                    000000018002f4bc f   LIBCMT:dll_dllmain_stub.obj
 0001:0002e4c4       __local_stdio_printf_options 000000018002f4c4 f i LIBCMT:default_local_stdio_options.obj
 0001:0002e4cc       __local_stdio_scanf_options 000000018002f4cc f i LIBCMT:default_local_stdio_options.obj
 0001:0002e4d4       __scrt_initialize_default_local_stdio_options 000000018002f4d4 f   LIBCMT:default_local_stdio_options.obj
 0001:0002e4f0       ?configure_argv@__scrt_narrow_argv_policy@@SAHXZ 000000018002f4f0 f i LIBCMT:utility.obj
 0001:0002e550       ?initialize_environment@__scrt_narrow_environment_policy@@SAHXZ 000000018002f550 f i LIBCMT:utility.obj
 0001:0002e588       NtCurrentTeb               000000018002f588 f i LIBCMT:utility.obj
 0001:0002e594       __scrt_acquire_startup_lock 000000018002f594 f   LIBCMT:utility.obj
 0001:0002e5d0       __scrt_dllmain_after_initialize_c 000000018002f5d0 f   LIBCMT:utility.obj
 0001:0002e604       __scrt_dllmain_before_initialize_c 000000018002f604 f   LIBCMT:utility.obj
 0001:0002e61c       __scrt_dllmain_crt_thread_attach 000000018002f61c f   LIBCMT:utility.obj
 0001:0002e644       __scrt_dllmain_crt_thread_detach 000000018002f644 f   LIBCMT:utility.obj
 0001:0002e65c       __scrt_dllmain_exception_filter 000000018002f65c f   LIBCMT:utility.obj
 0001:0002e6bc       __scrt_dllmain_uninitialize_c 000000018002f6bc f   LIBCMT:utility.obj
 0001:0002e6ec       __scrt_dllmain_uninitialize_critical 000000018002f6ec f   LIBCMT:utility.obj
 0001:0002e700       __scrt_initialize_crt      000000018002f700 f   LIBCMT:utility.obj
 0001:0002e74c       __scrt_initialize_onexit_tables 000000018002f74c f   LIBCMT:utility.obj
 0001:0002e7d8       __scrt_is_nonwritable_in_current_image 000000018002f7d8 f   LIBCMT:utility.obj
 0001:0002e870       __scrt_release_startup_lock 000000018002f870 f   LIBCMT:utility.obj
 0001:0002e894       __scrt_uninitialize_crt    000000018002f894 f   LIBCMT:utility.obj
 0001:0002e8c0       _onexit                    000000018002f8c0 f   LIBCMT:utility.obj
 0001:0002e8fc       at_quick_exit              000000018002f8fc f   LIBCMT:utility.obj
 0001:0002e91c       atexit                     000000018002f91c f   LIBCMT:utility.obj
 0001:0002e934       __scrt_get_dyn_tls_init_callback 000000018002f934 f   LIBCMT:dyn_tls_init.obj
 0001:0002e93c       __crt_debugger_hook        000000018002f93c f   LIBCMT:utility_desktop.obj
 0001:0002e944       __scrt_fastfail            000000018002f944 f   LIBCMT:utility_desktop.obj
 0001:0002ea90       __scrt_get_show_window_mode 000000018002fa90 f   LIBCMT:utility_desktop.obj
 0001:0002eacc       __scrt_initialize_mta      000000018002facc f   LIBCMT:utility_desktop.obj
 0001:0002ead4       __scrt_initialize_winrt    000000018002fad4 f   LIBCMT:utility_desktop.obj
 0001:0002ead8       __scrt_is_managed_app      000000018002fad8 f   LIBCMT:utility_desktop.obj
 0001:0002eb2c       __scrt_set_unhandled_exception_filter 000000018002fb2c f   LIBCMT:utility_desktop.obj
 0001:0002eb3c       __scrt_exe_initialize_mta  000000018002fb3c f   LIBCMT:utility_desktop.obj
 0001:0002eb3c       __scrt_stub_for_initialize_mta 000000018002fb3c f   LIBCMT:utility_desktop.obj
 0001:0002eb40       __scrt_unhandled_exception_filter 000000018002fb40 f   LIBCMT:utility_desktop.obj
 0001:0002eb9c       _RTC_Initialize            000000018002fb9c f   LIBCMT:initsect.obj
 0001:0002ebd8       _RTC_Terminate             000000018002fbd8 f   LIBCMT:initsect.obj
 0001:0002ec20       __common_ssin_cout_rare    000000018002fc20 f   LIBCMT:svml_s_sin_cout.obj
 0001:0002ec90       _get_startup_argv_mode     000000018002fc90 f   LIBCMT:argv_mode.obj
 0001:0002ec98       __scrt_is_ucrt_dll_in_use  000000018002fc98 f   LIBCMT:ucrt_detection.obj
 0001:0002eca4       ??$__crt_interlocked_exchange_pointer@$$A6AXXZP6AXXZ@@YAP6AXXZPEDS6AXXZQ6AXXZ@Z 000000018002fca4 f i libvcruntime:purevirt.obj
 0001:0002ecac       ??$__crt_interlocked_read_pointer@$$A6AXXZ@@YAP6AXXZPEDS6AXXZ@Z 000000018002fcac f i libvcruntime:purevirt.obj
 0001:0002ecb0       ?__crt_interlocked_read_64@@YA_JPED_J@Z 000000018002fcb0 f i libvcruntime:purevirt.obj
 0001:0002ecb4       _get_purecall_handler      000000018002fcb4 f   libvcruntime:purevirt.obj
 0001:0002ecbc       _purecall                  000000018002fcbc f   libvcruntime:purevirt.obj
 0001:0002ecd8       _set_purecall_handler      000000018002fcd8 f   libvcruntime:purevirt.obj
 0001:0002ecf4       ??$?RD@__crt_internal_free_policy@@QEBAXQEBD@Z 000000018002fcf4 f i libvcruntime:std_type_info.obj
 0001:0002ecfc       ??$?RX@__crt_internal_free_policy@@QEBAXQEBX@Z 000000018002fcfc f i libvcruntime:std_type_info.obj
 0001:0002ed04       ??$__crt_interlocked_compare_exchange_pointer@$$CBDPEAD$$T@@YAPEBDPEDSEBDQEAD$$T@Z 000000018002fd04 f i libvcruntime:std_type_info.obj
 0001:0002ed10       ??$__crt_interlocked_read_pointer@$$CBD@@YAPEBDPEDSEBD@Z 000000018002fd10 f i libvcruntime:std_type_info.obj
 0001:0002ed14       ??0?$__crt_unique_heap_ptr@DU__crt_internal_free_policy@@@@QEAA@QEAD@Z 000000018002fd14 f i libvcruntime:std_type_info.obj
 0001:0002ed1c       ??0?$__crt_unique_heap_ptr@XU__crt_internal_free_policy@@@@QEAA@QEAX@Z 000000018002fd1c f i libvcruntime:std_type_info.obj
 0001:0002ed24       ??1?$__crt_unique_heap_ptr@DU__crt_internal_free_policy@@@@QEAA@XZ 000000018002fd24 f i libvcruntime:std_type_info.obj
 0001:0002ed40       ??1?$__crt_unique_heap_ptr@XU__crt_internal_free_policy@@@@QEAA@XZ 000000018002fd40 f i libvcruntime:std_type_info.obj
 0001:0002ed5c       ??B?$__crt_unique_heap_ptr@DU__crt_internal_free_policy@@@@QEBA_NXZ 000000018002fd5c f i libvcruntime:std_type_info.obj
 0001:0002ed64       ??B?$__crt_unique_heap_ptr@XU__crt_internal_free_policy@@@@QEBA_NXZ 000000018002fd64 f i libvcruntime:std_type_info.obj
 0001:0002ed8c       ?detach@?$__crt_unique_heap_ptr@XU__crt_internal_free_policy@@@@QEAAPEAXXZ 000000018002fd8c f i libvcruntime:std_type_info.obj
 0001:0002ed94       ?get@?$__crt_unique_heap_ptr@DU__crt_internal_free_policy@@@@QEBAPEADXZ 000000018002fd94 f i libvcruntime:std_type_info.obj
 0001:0002ed98       ?get@?$__crt_unique_heap_ptr@XU__crt_internal_free_policy@@@@QEBAPEAXXZ 000000018002fd98 f i libvcruntime:std_type_info.obj
 0001:0002ed9c       ?is_valid@?$__crt_unique_heap_ptr@DU__crt_internal_free_policy@@@@QEBA_NXZ 000000018002fd9c f i libvcruntime:std_type_info.obj
 0001:0002eda4       ?is_valid@?$__crt_unique_heap_ptr@XU__crt_internal_free_policy@@@@QEBA_NXZ 000000018002fda4 f i libvcruntime:std_type_info.obj
 0001:0002edac       ?release@?$__crt_unique_heap_ptr@DU__crt_internal_free_policy@@@@QEAAXXZ 000000018002fdac f i libvcruntime:std_type_info.obj
 0001:0002edc8       ?release@?$__crt_unique_heap_ptr@XU__crt_internal_free_policy@@@@QEAAXXZ 000000018002fdc8 f i libvcruntime:std_type_info.obj
 0001:0002ede4       __std_type_info_compare    000000018002fde4 f   libvcruntime:std_type_info.obj
 0001:0002ee0c       __std_type_info_destroy_list 000000018002fe0c f   libvcruntime:std_type_info.obj
 0001:0002ee38       __std_type_info_hash       000000018002fe38 f   libvcruntime:std_type_info.obj
 0001:0002ee70       __std_type_info_name       000000018002fe70 f   libvcruntime:std_type_info.obj
 0001:0002efa0       memset_repmovs             000000018002ffa0 f   libvcruntime:memset.obj
 0001:0002efc0       memset                     000000018002ffc0 f   libvcruntime:memset.obj
 0001:0002f160       memcpy_repmovs             0000000180030160 f   libvcruntime:memcpy.obj
 0001:0002f180       memmove                    0000000180030180 f   libvcruntime:memcpy.obj
 0001:0002f180       memcpy                     0000000180030180 f   libvcruntime:memcpy.obj
 0001:0002f558       strstr                     0000000180030558 f   libvcruntime:strstr.obj
 0001:0002f754       __C_specific_handler       0000000180030754 f   libvcruntime:riscchandler.obj
 0001:0002f960       __vcrt_initialize          0000000180030960 f   libvcruntime:initialization.obj
 0001:0002f988       __vcrt_thread_attach       0000000180030988 f   libvcruntime:initialization.obj
 0001:0002f99c       __vcrt_thread_detach       000000018003099c f   libvcruntime:initialization.obj
 0001:0002f9b0       __vcrt_uninitialize        00000001800309b0 f   libvcruntime:initialization.obj
 0001:0002f9cc       __vcrt_uninitialize_critical 00000001800309cc f   libvcruntime:initialization.obj
 0001:0002f9e0       __DestructExceptionObject  00000001800309e0 f   libvcruntime:ehhelpers.obj
 0001:0002fa50       ?_CallMemberFunction0@@YAXQEAX0@Z 0000000180030a50 f i libvcruntime:ehhelpers.obj
 0001:0002faac       ?raw_name@type_info@@QEBAPEBDXZ 0000000180030aac f i libvcruntime:ehhelpers.obj
 0001:0002fab4       _IsExceptionObjectToBeDestroyed 0000000180030ab4 f   libvcruntime:ehhelpers.obj
 0001:0002fae4       _SetWinRTOutOfMemoryExceptionCallback 0000000180030ae4 f   libvcruntime:ehhelpers.obj
 0001:0002faec       __AdjustPointer            0000000180030aec f   libvcruntime:ehhelpers.obj
 0001:0002fb10       __FrameUnwindFilter        0000000180030b10 f   libvcruntime:ehhelpers.obj
 0001:0002fb78       __GetPlatformExceptionInfo 0000000180030b78 f   libvcruntime:ehhelpers.obj
 0001:0002fbd4       __current_exception        0000000180030bd4 f   libvcruntime:ehhelpers.obj
 0001:0002fbe8       __current_exception_context 0000000180030be8 f   libvcruntime:ehhelpers.obj
 0001:0002fbfc       __processing_throw         0000000180030bfc f   libvcruntime:ehhelpers.obj
 0001:0002fc10       __std_terminate            0000000180030c10 f   libvcruntime:ehhelpers.obj
 0001:0002fc1c       _is_exception_typeof       0000000180030c1c f   libvcruntime:ehhelpers.obj
 0001:0002fcc4       ??$?0$00@DName@@QEAA@PEBDU?$StringLifeSelector@$00@@@Z 0000000180030cc4 f i libvcruntime:undname.obj
 0001:0002fd04       ??$?0$00@pcharNode@@QEAA@PEBDHU?$StringLifeSelector@$00@@@Z 0000000180030d04 f i libvcruntime:undname.obj
 0001:0002fd1c       ??$?0$01@DName@@QEAA@PEBDU?$StringLifeSelector@$01@@@Z 0000000180030d1c f i libvcruntime:undname.obj
 0001:0002fd5c       ??$?0$01@pcharNode@@QEAA@PEBDHU?$StringLifeSelector@$01@@@Z 0000000180030d5c f i libvcruntime:undname.obj
 0001:0002fdd0       ??$?0$0A@@DName@@QEAA@PEBDU?$StringLifeSelector@$0A@@@@Z 0000000180030dd0 f i libvcruntime:undname.obj
 0001:0002fe10       ??$?0$0A@@pcharNode@@QEAA@PEBDHU?$StringLifeSelector@$0A@@@@Z 0000000180030e10 f i libvcruntime:undname.obj
 0001:0002fe84       ??$?0_K$0A@@?$optional@_K@std@@QEAA@$$QEA_K@Z 0000000180030e84 f i libvcruntime:undname.obj
 0001:0002fe94       ??$?0_K@?$_Optional_construct_base@_K@std@@QEAA@Uin_place_t@1@$$QEA_K@Z 0000000180030e94 f i libvcruntime:undname.obj
 0001:0002fea4       ??$?0_K@?$_Optional_destruct_base@_K$00@std@@QEAA@Uin_place_t@1@$$QEA_K@Z 0000000180030ea4 f i libvcruntime:undname.obj
 0001:0002feb4       ??$append@VDNameNode@@@DName@@AEAAXPEBVDNameNode@@@Z 0000000180030eb4 f i libvcruntime:undname.obj
 0001:0002ff18       ??$append@VDNameStatusNode@@@DName@@AEAAXPEBVDNameStatusNode@@@Z 0000000180030f18 f i libvcruntime:undname.obj
 0001:0002ff7c       ??$append@VcharNode@@@DName@@AEAAXPEBVcharNode@@@Z 0000000180030f7c f i libvcruntime:undname.obj
 0001:0002ffe0       ??$append@VpDNameNode@@@DName@@AEAAXPEBVpDNameNode@@@Z 0000000180030fe0 f i libvcruntime:undname.obj
 0001:00030044       ??$append@VpcharNode@@@DName@@AEAAXPEBVpcharNode@@@Z 0000000180031044 f i libvcruntime:undname.obj
 0001:000300a8       ??$doPchar@$00@DName@@AEAAXPEBDH@Z 00000001800310a8 f i libvcruntime:undname.obj
 0001:0003014c       ??$doPchar@$01@DName@@AEAAXPEBDH@Z 000000018003114c f i libvcruntime:undname.obj
 0001:000301e4       ??$doPchar@$0A@@DName@@AEAAXPEBDH@Z 00000001800311e4 f i libvcruntime:undname.obj
 0001:0003027c       ??$forward@_K@std@@YA$$QEA_KAEA_K@Z 000000018003127c f i libvcruntime:undname.obj
 0001:00030280       ??$size@D$04@std@@YA_KAEAY04$$CBD@Z 0000000180031280 f i libvcruntime:undname.obj
 0001:00030288       ??$size@D$0EB@@std@@YA_KAEAY0EB@$$CBD@Z 0000000180031288 f i libvcruntime:undname.obj
 0001:00030290       ??0?$_Optional_construct_base@_K@std@@QEAA@XZ 0000000180031290 f i libvcruntime:undname.obj
 0001:0003029c       ??0?$_Optional_destruct_base@_K$00@std@@QEAA@XZ 000000018003129c f i libvcruntime:undname.obj
 0001:000302a8       ??0?$optional@_K@std@@QEAA@XZ 00000001800312a8 f i libvcruntime:undname.obj
 0001:000302b4       ??0Block@_HeapManager@@QEAA@XZ 00000001800312b4 f i libvcruntime:undname.obj
 0001:000302bc       ??0DName@@QEAA@AEAPEBDD@Z  00000001800312bc f   libvcruntime:undname.obj
 0001:0003036c       ??0DName@@QEAA@AEBUStringLiteral@@@Z 000000018003136c f   libvcruntime:undname.obj
 0001:00030398       ??0DName@@QEAA@AEBV0@@Z    0000000180031398 f i libvcruntime:undname.obj
 0001:000303a8       ??0DName@@QEAA@D@Z         00000001800313a8 f   libvcruntime:undname.obj
 0001:000303c8       ??0DName@@QEAA@PEAV0@@Z    00000001800313c8 f   libvcruntime:undname.obj
 0001:0003044c       ??0DName@@QEAA@W4DNameStatus@@@Z 000000018003144c f   libvcruntime:undname.obj
 0001:0003047c       ??0DName@@QEAA@XZ          000000018003147c f i libvcruntime:undname.obj
 0001:00030488       ??0DName@@QEAA@_J@Z        0000000180031488 f   libvcruntime:undname.obj
 0001:00030530       ??0DName@@QEAA@_K@Z        0000000180031530 f   libvcruntime:undname.obj
 0001:000305b8       ??0DNameNode@@IEAA@XZ      00000001800315b8 f i libvcruntime:undname.obj
 0001:000305c8       ??0Replicator@@QEAA@XZ     00000001800315c8 f i libvcruntime:undname.obj
 0001:000305dc       ??0UnDecorator@@QEAA@PEBDP6APEADJ@ZK@Z 00000001800315dc f i libvcruntime:undname.obj
 0001:0003062c       ??0charNode@@QEAA@D@Z      000000018003162c f i libvcruntime:undname.obj
 0001:00030640       ??0pDNameNode@@QEAA@PEAVDName@@@Z 0000000180031640 f   libvcruntime:undname.obj
 0001:00030668       ??0pairNode@@QEAA@PEBVDNameNode@@0@Z 0000000180031668 f i libvcruntime:undname.obj
 0001:0003068c       ??2@YAPEAX_KAEAV_HeapManager@@H@Z 000000018003168c f   libvcruntime:undname.obj
 0001:000306b8       ??4DName@@QEAAAEAV0@AEBUStringLiteral@@@Z 00000001800316b8 f   libvcruntime:undname.obj
 0001:000306e0       ??4DName@@QEAAAEAV0@AEBV0@@Z 00000001800316e0 f   libvcruntime:undname.obj
 0001:000306f0       ??4DName@@QEAAAEAV0@D@Z    00000001800316f0 f i libvcruntime:undname.obj
 0001:00030710       ??4DName@@QEAAAEAV0@PEAV0@@Z 0000000180031710 f   libvcruntime:undname.obj
 0001:00030788       ??4DName@@QEAAAEAV0@W4DNameStatus@@@Z 0000000180031788 f   libvcruntime:undname.obj
 0001:000307a8       ??AReplicator@@QEBA?AVDName@@H@Z 00000001800317a8 f   libvcruntime:undname.obj
 0001:000307e8       ??B?$optional@_K@std@@QEBA_NXZ 00000001800317e8 f i libvcruntime:undname.obj
 0001:000307ec       ??D?$optional@_K@std@@QEGAAAEA_KXZ 00000001800317ec f i libvcruntime:undname.obj
 0001:000307f0       ??H@YA?AVDName@@AEBUStringLiteral@@AEBV0@@Z 00000001800317f0 f i libvcruntime:undname.obj
 0001:00030828       ??H@YA?AVDName@@DAEBV0@@Z  0000000180031828 f i libvcruntime:undname.obj
 0001:0003086c       ??H@YA?AVDName@@W4DNameStatus@@AEBV0@@Z 000000018003186c f i libvcruntime:undname.obj
 0001:000308b8       ??HDName@@QEBA?AV0@AEBUStringLiteral@@@Z 00000001800318b8 f   libvcruntime:undname.obj
 0001:000308e4       ??HDName@@QEBA?AV0@AEBV0@@Z 00000001800318e4 f   libvcruntime:undname.obj
 0001:00030910       ??HDName@@QEBA?AV0@D@Z     0000000180031910 f   libvcruntime:undname.obj
 0001:0003093c       ??HDName@@QEBA?AV0@PEAV0@@Z 000000018003193c f   libvcruntime:undname.obj
 0001:00030968       ??HDName@@QEBA?AV0@W4DNameStatus@@@Z 0000000180031968 f   libvcruntime:undname.obj
 0001:00030994       ??HStringLiteral@@QEBA?AU0@H@Z 0000000180031994 f i libvcruntime:undname.obj
 0001:000309ac       ??YDName@@QEAAAEAV0@AEBUStringLiteral@@@Z 00000001800319ac f   libvcruntime:undname.obj
 0001:00030a2c       ??YDName@@QEAAAEAV0@AEBV0@@Z 0000000180031a2c f   libvcruntime:undname.obj
 0001:00030ae0       ??YDName@@QEAAAEAV0@D@Z    0000000180031ae0 f   libvcruntime:undname.obj
 0001:00030b4c       ??YDName@@QEAAAEAV0@PEAV0@@Z 0000000180031b4c f   libvcruntime:undname.obj
 0001:00030be0       ??YDName@@QEAAAEAV0@W4DNameStatus@@@Z 0000000180031be0 f   libvcruntime:undname.obj
 0001:00030c4c       ??YReplicator@@QEAAAEAV0@AEBVDName@@@Z 0000000180031c4c f   libvcruntime:undname.obj
 0001:00030ca4       ??_5DName@@QEAAAEAV0@AEBV0@@Z 0000000180031ca4 f   libvcruntime:undname.obj
 0001:00030cb8       ??__K_l@@YA?AUStringLiteral@@PEBD_K@Z 0000000180031cb8 f i libvcruntime:undname.obj
 0001:00030cc4       ?Constructor@_HeapManager@@QEAAXP6APEAX_K@ZP6AXPEAX@Z@Z 0000000180031cc4 f i libvcruntime:undname.obj
 0001:00030cdc       ?Destructor@_HeapManager@@QEAAXXZ 0000000180031cdc f i libvcruntime:undname.obj
 0001:00030d30       ?UScore@UnDecorator@@SA?AUStringLiteral@@W4Tokens@@@Z 0000000180031d30 f   libvcruntime:undname.obj
 0001:00030d7c       ?composeDeclaration@UnDecorator@@CA?AVDName@@AEBV2@@Z 0000000180031d7c f i libvcruntime:undname.obj
 0001:00031c24       ?doAccessSpecifiers@UnDecorator@@SAHXZ 0000000180032c24 f i libvcruntime:undname.obj
 0001:00031c34       ?doAllocationLanguage@UnDecorator@@SAHXZ 0000000180032c34 f i libvcruntime:undname.obj
 0001:00031c44       ?doAllocationModel@UnDecorator@@SAHXZ 0000000180032c44 f i libvcruntime:undname.obj
 0001:00031c54       ?doEcsu@UnDecorator@@SAHXZ 0000000180032c54 f i libvcruntime:undname.obj
 0001:00031c64       ?doEllipsis@UnDecorator@@SAHXZ 0000000180032c64 f i libvcruntime:undname.obj
 0001:00031c74       ?doFunctionReturns@UnDecorator@@SAHXZ 0000000180032c74 f i libvcruntime:undname.obj
 0001:00031c84       ?doMSKeywords@UnDecorator@@SAHXZ 0000000180032c84 f i libvcruntime:undname.obj
 0001:00031c94       ?doMemberTypes@UnDecorator@@SAHXZ 0000000180032c94 f i libvcruntime:undname.obj
 0001:00031ca4       ?doNameOnly@UnDecorator@@SAHXZ 0000000180032ca4 f i libvcruntime:undname.obj
 0001:00031cb0       ?doNoIdentCharCheck@UnDecorator@@SAHXZ 0000000180032cb0 f i libvcruntime:undname.obj
 0001:00031cbc       ?doPchar@DName@@AEAAXD@Z   0000000180032cbc f   libvcruntime:undname.obj
 0001:00031d0c       ?doPtr64@UnDecorator@@SAHXZ 0000000180032d0c f i libvcruntime:undname.obj
 0001:00031d1c       ?doRestrictionSpec@UnDecorator@@SAHXZ 0000000180032d1c f i libvcruntime:undname.obj
 0001:00031d2c       ?doThisTypes@UnDecorator@@SAHXZ 0000000180032d2c f i libvcruntime:undname.obj
 0001:00031d40       ?doThrowTypes@UnDecorator@@SAHXZ 0000000180032d40 f i libvcruntime:undname.obj
 0001:00031d50       ?doTypeOnly@UnDecorator@@SAHXZ 0000000180032d50 f i libvcruntime:undname.obj
 0001:00031d5c       ?doUnderScore@UnDecorator@@SAHXZ 0000000180032d5c f i libvcruntime:undname.obj
 0001:00031d68       ?getArgumentList@UnDecorator@@CA?AVDName@@XZ 0000000180032d68 f   libvcruntime:undname.obj
 0001:00031efc       ?getArgumentTypes@UnDecorator@@CA?AVDName@@XZ 0000000180032efc f   libvcruntime:undname.obj
 0001:00032058       ?getArrayObject@UnDecorator@@CA?AVDName@@XZ 0000000180033058 f   libvcruntime:undname.obj
 0001:00032120       ?getArrayType@UnDecorator@@CA?AVDName@@AEBV2@@Z 0000000180033120 f i libvcruntime:undname.obj
 0001:00032368       ?getBasedType@UnDecorator@@CA?AVDName@@XZ 0000000180033368 f   libvcruntime:undname.obj
 0001:00032460       ?getBasicDataType@UnDecorator@@CA?AVDName@@AEBV2@@Z 0000000180033460 f   libvcruntime:undname.obj
 0001:000329a4       ?getCHPEName@UnDecorator@@QEAAPEADPEADH@Z 00000001800339a4 f i libvcruntime:undname.obj
 0001:00032ac4       ?getCallIndex@UnDecorator@@CA?AVDName@@XZ 0000000180033ac4 f i libvcruntime:undname.obj
 0001:00032ae0       ?getCallingConvention@UnDecorator@@CA?AVDName@@XZ 0000000180033ae0 f   libvcruntime:undname.obj
 0001:00032c20       ?getDataIndirectType@UnDecorator@@CA?AVDName@@AEBV2@W4IndirectionKind@@0H@Z 0000000180033c20 f   libvcruntime:undname.obj
 0001:000334b8       ?getDataIndirectType@UnDecorator@@CA?AVDName@@XZ 00000001800344b8 f i libvcruntime:undname.obj
 0001:000334f4       ?getDataType@UnDecorator@@CA?AVDName@@PEAV2@@Z 00000001800344f4 f   libvcruntime:undname.obj
 0001:00033608       ?getDecoratedName@UnDecorator@@CA?AVDName@@XZ 0000000180034608 f   libvcruntime:undname.obj
 0001:000338ec       ?getDimension@UnDecorator@@CA?AVDName@@_N@Z 00000001800348ec f   libvcruntime:undname.obj
 0001:00033a38       ?getDispatchTarget@UnDecorator@@CA?AVDName@@XZ 0000000180034a38 f   libvcruntime:undname.obj
 0001:00033a84       ?getDisplacement@UnDecorator@@CA?AVDName@@XZ 0000000180034a84 f i libvcruntime:undname.obj
 0001:00033aa0       ?getECSUDataType@UnDecorator@@CA?AVDName@@XZ 0000000180034aa0 f   libvcruntime:undname.obj
 0001:00033c80       ?getECSUName@UnDecorator@@CA?AVDName@@XZ 0000000180034c80 f i libvcruntime:undname.obj
 0001:00033c98       ?getEnumType@UnDecorator@@CA?AVDName@@XZ 0000000180034c98 f i libvcruntime:undname.obj
 0001:00033dc0       ?getExtendedDataIndirectType@UnDecorator@@CA?AVDName@@AEAW4IndirectionKind@@AEA_NH@Z 0000000180034dc0 f   libvcruntime:undname.obj
 0001:00033fc8       ?getExternalDataType@UnDecorator@@CA?AVDName@@AEBV2@@Z 0000000180034fc8 f i libvcruntime:undname.obj
 0001:00034088       ?getFloatingPoint@UnDecorator@@CA?AVDName@@H@Z 0000000180035088 f   libvcruntime:undname.obj
 0001:000341a8       ?getFunctionIndirectType@UnDecorator@@CA?AVDName@@AEBV2@@Z 00000001800351a8 f   libvcruntime:undname.obj
 0001:000346e0       ?getGuardNumber@UnDecorator@@CA?AVDName@@XZ 00000001800356e0 f i libvcruntime:undname.obj
 0001:000346fc       ?getLastChar@DName@@QEBADXZ 00000001800356fc f i libvcruntime:undname.obj
 0001:00034718       ?getLastChar@DNameStatusNode@@UEBADXZ 0000000180035718 f i libvcruntime:undname.obj
 0001:00034724       ?getLastChar@charNode@@UEBADXZ 0000000180035724 f i libvcruntime:undname.obj
 0001:00034728       ?getLastChar@pDNameNode@@UEBADXZ 0000000180035728 f i libvcruntime:undname.obj
 0001:00034754       ?getLastChar@pairNode@@UEBADXZ 0000000180035754 f i libvcruntime:undname.obj
 0001:0003478c       ?getLastChar@pcharNode@@UEBADXZ 000000018003578c f i libvcruntime:undname.obj
 0001:000347a0       ?getLexicalFrame@UnDecorator@@CA?AVDName@@XZ 00000001800357a0 f i libvcruntime:undname.obj
 0001:00034804       ?getMemoryWithBuffer@_HeapManager@@QEAAPEAX_K@Z 0000000180035804 f   libvcruntime:undname.obj
 0001:00034894       ?getMemoryWithoutBuffer@_HeapManager@@QEAAPEAX_K@Z 0000000180035894 f   libvcruntime:undname.obj
 0001:000348a8       ?getNoexcept@UnDecorator@@CA?AVDName@@XZ 00000001800358a8 f   libvcruntime:undname.obj
 0001:0003490c       ?getNumberOfDimensions@UnDecorator@@CAHXZ 000000018003590c f   libvcruntime:undname.obj
 0001:00034980       ?getOperatorName@UnDecorator@@CA?AVDName@@_NPEA_N@Z 0000000180035980 f i libvcruntime:undname.obj
 0001:000351c8       ?getPointerType@UnDecorator@@CA?AVDName@@AEBV2@0@Z 00000001800361c8 f i libvcruntime:undname.obj
 0001:000351e8       ?getPointerTypeArray@UnDecorator@@CA?AVDName@@AEBV2@0@Z 00000001800361e8 f i libvcruntime:undname.obj
 0001:00035204       ?getPrimaryDataType@UnDecorator@@CA?AVDName@@AEBV2@@Z 0000000180036204 f   libvcruntime:undname.obj
 0001:00035494       ?getPtrRefDataType@UnDecorator@@CA?AVDName@@AEBV2@H@Z 0000000180036494 f   libvcruntime:undname.obj
 0001:00035660       ?getPtrRefType@UnDecorator@@CA?AVDName@@AEBV2@0W4IndirectionKind@@@Z 0000000180036660 f   libvcruntime:undname.obj
 0001:00035838       ?getReferenceType@UnDecorator@@CA?AVDName@@AEBV2@0W4IndirectionKind@@@Z 0000000180036838 f i libvcruntime:undname.obj
 0001:00035850       ?getRestrictionSpec@UnDecorator@@CA?AVDName@@XZ 0000000180036850 f   libvcruntime:undname.obj
 0001:00035a1c       ?getReturnType@UnDecorator@@CA?AVDName@@PEAV2@@Z 0000000180036a1c f   libvcruntime:undname.obj
 0001:00035a50       ?getScope@UnDecorator@@CA?AVDName@@XZ 0000000180036a50 f   libvcruntime:undname.obj
 0001:00035f04       ?getScopedName@UnDecorator@@CA?AVDName@@XZ 0000000180036f04 f   libvcruntime:undname.obj
 0001:00036040       ?getSignedDimension@UnDecorator@@CA?AVDName@@XZ 0000000180037040 f   libvcruntime:undname.obj
 0001:000360c8       ?getStorageConvention@UnDecorator@@CA?AVDName@@XZ 00000001800370c8 f i libvcruntime:undname.obj
 0001:00036104       ?getString@DName@@QEBAPEADPEAD0@Z 0000000180037104 f i libvcruntime:undname.obj
 0001:00036120       ?getString@DName@@QEBAPEADPEADH@Z 0000000180037120 f i libvcruntime:undname.obj
 0001:000361b4       ?getString@DNameStatusNode@@UEBAPEADPEAD0@Z 00000001800371b4 f i libvcruntime:undname.obj
 0001:000361fc       ?getString@charNode@@UEBAPEADPEAD0@Z 00000001800371fc f i libvcruntime:undname.obj
 0001:00036210       ?getString@pDNameNode@@UEBAPEADPEAD0@Z 0000000180037210 f i libvcruntime:undname.obj
 0001:00036240       ?getString@pairNode@@UEBAPEADPEAD0@Z 0000000180037240 f i libvcruntime:undname.obj
 0001:0003628c       ?getString@pcharNode@@UEBAPEADPEAD0@Z 000000018003728c f i libvcruntime:undname.obj
 0001:000362c4       ?getStringEncoding@UnDecorator@@CA?AVDName@@W4PrefixKind@@H@Z 00000001800372c4 f   libvcruntime:undname.obj
 0001:000363a8       ?getStringHelper@@YAPEADPEADPEBD1H@Z 00000001800373a8 f i libvcruntime:undname.obj
 0001:000363d8       ?getStringObject@UnDecorator@@CA?AVDName@@XZ 00000001800373d8 f   libvcruntime:undname.obj
 0001:00036440       ?getSymbolName@UnDecorator@@CA?AVDName@@XZ 0000000180037440 f i libvcruntime:undname.obj
 0001:0003648c       ?getTemplateArgumentList@UnDecorator@@CA?AVDName@@XZ 000000018003748c f   libvcruntime:undname.obj
 0001:000366e0       ?getTemplateName@UnDecorator@@CA?AVDName@@_N@Z 00000001800376e0 f   libvcruntime:undname.obj
 0001:00036974       ?getTemplateNonTypeArgument@UnDecorator@@CA?AVDName@@XZ 0000000180037974 f   libvcruntime:undname.obj
 0001:00036de4       ?getTemplateTypeArgument@UnDecorator@@CA?AVDName@@XZ 0000000180037de4 f   libvcruntime:undname.obj
 0001:00036f4c       ?getThisType@UnDecorator@@CA?AVDName@@XZ 0000000180037f4c f i libvcruntime:undname.obj
 0001:00036f8c       ?getThrowTypes@UnDecorator@@CA?AVDName@@XZ 0000000180037f8c f   libvcruntime:undname.obj
 0001:00036fb0       ?getTypeEncoding@UnDecorator@@CAHXZ 0000000180037fb0 f i libvcruntime:undname.obj
 0001:00037324       ?getUndecoratedName@UnDecorator@@QEAAPEADPEADH@Z 0000000180038324 f i libvcruntime:undname.obj
 0001:00037478       ?getVCallThunkType@UnDecorator@@CA?AVDName@@XZ 0000000180038478 f i libvcruntime:undname.obj
 0001:000374f0       ?getValue@UnDecorator@@CA?AV?$optional@_K@std@@XZ 00000001800384f0 f   libvcruntime:undname.obj
 0001:00037564       ?getValueObject@UnDecorator@@CA?AVDName@@XZ 0000000180038564 f   libvcruntime:undname.obj
 0001:00037698       ?getVbTableType@UnDecorator@@CA?AVDName@@AEBV2@@Z 0000000180038698 f i libvcruntime:undname.obj
 0001:000376b0       ?getVdispMapType@UnDecorator@@CA?AVDName@@AEBV2@@Z 00000001800386b0 f i libvcruntime:undname.obj
 0001:0003772c       ?getVfTableType@UnDecorator@@CA?AVDName@@AEBV2@@Z 000000018003872c f i libvcruntime:undname.obj
 0001:00037934       ?getZName@UnDecorator@@CA?AVDName@@_N0@Z 0000000180038934 f   libvcruntime:undname.obj
 0001:00037c1c       ?haveTemplateParameters@UnDecorator@@SAHXZ 0000000180038c1c f i libvcruntime:undname.obj
 0001:00037c28       ?isArray@DName@@QEBAHXZ    0000000180038c28 f i libvcruntime:undname.obj
 0001:00037c34       ?isComArray@DName@@QEBAHXZ 0000000180038c34 f i libvcruntime:undname.obj
 0001:00037c40       ?isEmpty@DName@@QEBAHXZ    0000000180038c40 f i libvcruntime:undname.obj
 0001:00037c4c       ?isFull@Replicator@@QEBAHXZ 0000000180038c4c f i libvcruntime:undname.obj
 0001:00037c58       ?isNoTE@DName@@QEBAHXZ     0000000180038c58 f i libvcruntime:undname.obj
 0001:00037c64       ?isPinPtr@DName@@QEBAHXZ   0000000180038c64 f i libvcruntime:undname.obj
 0001:00037c70       ?isPtrRef@DName@@QEBAHXZ   0000000180038c70 f i libvcruntime:undname.obj
 0001:00037c7c       ?isUDC@DName@@QEBAHXZ      0000000180038c7c f i libvcruntime:undname.obj
 0001:00037c94       ?isUDTThunk@DName@@QEBAHXZ 0000000180038c94 f i libvcruntime:undname.obj
 0001:00037cac       ?isVCallThunk@DName@@QEBAHXZ 0000000180038cac f i libvcruntime:undname.obj
 0001:00037cb8       ?isValid@DName@@QEBAHXZ    0000000180038cb8 f i libvcruntime:undname.obj
 0001:00037cc4       ?length@DName@@QEBAHXZ     0000000180038cc4 f i libvcruntime:undname.obj
 0001:00037cdc       ?length@DNameStatusNode@@UEBAHXZ 0000000180038cdc f i libvcruntime:undname.obj
 0001:00037ce0       ?length@charNode@@UEBAHXZ  0000000180038ce0 f i libvcruntime:undname.obj
 0001:00037ce8       ?length@pDNameNode@@UEBAHXZ 0000000180038ce8 f i libvcruntime:undname.obj
 0001:00037d10       ?length@pairNode@@UEBAHXZ  0000000180038d10 f i libvcruntime:undname.obj
 0001:00037d58       ?length@pcharNode@@UEBAHXZ 0000000180038d58 f i libvcruntime:undname.obj
 0001:00037d5c       ?make@DNameStatusNode@@SAPEBV1@W4DNameStatus@@@Z 0000000180038d5c f i libvcruntime:undname.obj
 0001:00037d7c       ?parseDecoratedName@UnDecorator@@CA?AVDName@@XZ 0000000180038d7c f   libvcruntime:undname.obj
 0001:00037e90       ?raw_length@DNameStatusNode@@UEBAHXZ 0000000180038e90 f i libvcruntime:undname.obj
 0001:00037e94       ?raw_length@charNode@@UEBAHXZ 0000000180038e94 f i libvcruntime:undname.obj
 0001:00037e9c       ?raw_length@pDNameNode@@UEBAHXZ 0000000180038e9c f i libvcruntime:undname.obj
 0001:00037ea0       ?raw_length@pairNode@@UEBAHXZ 0000000180038ea0 f i libvcruntime:undname.obj
 0001:00037ea4       ?raw_length@pcharNode@@UEBAHXZ 0000000180038ea4 f i libvcruntime:undname.obj
 0001:00037ea8       ?setIsArray@DName@@QEAAXXZ 0000000180038ea8 f i libvcruntime:undname.obj
 0001:00037eb0       ?setIsComArray@DName@@QEAAXXZ 0000000180038eb0 f i libvcruntime:undname.obj
 0001:00037eb8       ?setIsNoTE@DName@@QEAAXXZ  0000000180038eb8 f i libvcruntime:undname.obj
 0001:00037ec0       ?setIsPinPtr@DName@@QEAAXXZ 0000000180038ec0 f i libvcruntime:undname.obj
 0001:00037ec8       ?setIsUDC@DName@@QEAAXXZ   0000000180038ec8 f i libvcruntime:undname.obj
 0001:00037ed4       ?setIsVCallThunk@DName@@QEAAXXZ 0000000180038ed4 f i libvcruntime:undname.obj
 0001:00037edc       ?setPtrRef@DName@@QEAAAEAV1@XZ 0000000180038edc f i libvcruntime:undname.obj
 0001:00037ee8       ?status@DName@@QEBA?AW4DNameStatus@@XZ 0000000180038ee8 f i libvcruntime:undname.obj
 0001:00037f4c       __unDName                  0000000180038f4c f   libvcruntime:undname.obj
 0001:00037f74       __unDNameEx                0000000180038f74 f   libvcruntime:undname.obj
 0001:000380a8       _vsprintf_s_l              00000001800390a8 f i libvcruntime:undname.obj
 0001:0003810c       sprintf_s                  000000018003910c f i libvcruntime:undname.obj
 0001:00038160       unDNameGenerateCHPE        0000000180039160 f   libvcruntime:undname.obj
 0001:00038280       _NLG_Notify                0000000180039280 f   libvcruntime:notify.obj
 0001:000382a0       __NLG_Dispatch2            00000001800392a0 f   libvcruntime:notify.obj
 0001:000382b0       __NLG_Return2              00000001800392b0 f   libvcruntime:notify.obj
 0001:000382bc       __except_validate_context_record 00000001800392bc f   libvcruntime:jbcxrval.obj
 0001:000382f4       __except_validate_jump_buffer 00000001800392f4 f   libvcruntime:jbcxrval.obj
 0001:00038334       __except_validate_jump_buffer_common 0000000180039334 f i libvcruntime:jbcxrval.obj
 0001:00038390       ??$?RU__vcrt_ptd@@@__crt_internal_free_policy@@QEBAXQEBU__vcrt_ptd@@@Z 0000000180039390 f i libvcruntime:per_thread_data.obj
 0001:00038398       ??0?$__crt_unique_heap_ptr@U__vcrt_ptd@@U__crt_internal_free_policy@@@@QEAA@QEAU__vcrt_ptd@@@Z 0000000180039398 f i libvcruntime:per_thread_data.obj
 0001:000383bc       ??1?$__crt_unique_heap_ptr@U__vcrt_ptd@@U__crt_internal_free_policy@@@@QEAA@XZ 00000001800393bc f i libvcruntime:per_thread_data.obj
 0001:000383e4       ??B?$__crt_unique_heap_ptr@U__vcrt_ptd@@U__crt_internal_free_policy@@@@QEBA_NXZ 00000001800393e4 f i libvcruntime:per_thread_data.obj
 0001:000383ec       ?detach@?$__crt_unique_heap_ptr@U__vcrt_ptd@@U__crt_internal_free_policy@@@@QEAAPEAU__vcrt_ptd@@XZ 00000001800393ec f i libvcruntime:per_thread_data.obj
 0001:000383f4       ?get@?$__crt_unique_heap_ptr@U__vcrt_ptd@@U__crt_internal_free_policy@@@@QEBAPEAU__vcrt_ptd@@XZ 00000001800393f4 f i libvcruntime:per_thread_data.obj
 0001:000383f8       ?is_valid@?$__crt_unique_heap_ptr@U__vcrt_ptd@@U__crt_internal_free_policy@@@@QEBA_NXZ 00000001800393f8 f i libvcruntime:per_thread_data.obj
 0001:00038400       ?release@?$__crt_unique_heap_ptr@U__vcrt_ptd@@U__crt_internal_free_policy@@@@QEAAXXZ 0000000180039400 f i libvcruntime:per_thread_data.obj
 0001:00038448       __vcrt_freefls             0000000180039448 f   libvcruntime:per_thread_data.obj
 0001:00038468       __vcrt_freeptd             0000000180039468 f   libvcruntime:per_thread_data.obj
 0001:000384b8       __vcrt_getptd              00000001800394b8 f   libvcruntime:per_thread_data.obj
 0001:000384d4       __vcrt_getptd_noexit       00000001800394d4 f   libvcruntime:per_thread_data.obj
 0001:00038594       __vcrt_getptd_noinit       0000000180039594 f   libvcruntime:per_thread_data.obj
 0001:000385e4       __vcrt_initialize_ptd      00000001800395e4 f   libvcruntime:per_thread_data.obj
 0001:0003862c       __vcrt_uninitialize_ptd    000000018003962c f   libvcruntime:per_thread_data.obj
 0001:00038650       __vcrt_initialize_locks    0000000180039650 f   libvcruntime:locks.obj
 0001:00038684       __vcrt_lock                0000000180039684 f   libvcruntime:locks.obj
 0001:000386a0       __vcrt_uninitialize_locks  00000001800396a0 f   libvcruntime:locks.obj
 0001:000386d8       __vcrt_unlock              00000001800396d8 f   libvcruntime:locks.obj
 0001:000386f4       ??$?0AEAViterator@TryBlockMap4@FH4@@AEAV012@$0A@@?$pair@Viterator@TryBlockMap4@FH4@@V123@@std@@QEAA@AEAViterator@TryBlockMap4@FH4@@0@Z 00000001800396f4 f i libvcruntime:risctrnsctrl.obj
 0001:00038708       ??$?0AEAViterator@TryBlockMap@__FrameHandler3@@AEAV012@$0A@@?$pair@Viterator@TryBlockMap@__FrameHandler3@@V123@@std@@QEAA@AEAViterator@TryBlockMap@__FrameHandler3@@0@Z 0000000180039708 f i libvcruntime:risctrnsctrl.obj
 0001:00038858       ??$_CallSETranslator@V__FrameHandler3@@@@YAHPEAUEHExceptionRecord@@PEA_KPEAU_CONTEXT@@PEAU_xDISPATCHER_CONTEXT@@PEBU_s_FuncInfo@@K1H@Z 0000000180039858 f i libvcruntime:risctrnsctrl.obj
 0001:000388ac       ??$_CallSETranslator@V__FrameHandler4@@@@YAHPEAUEHExceptionRecord@@PEA_KPEAU_CONTEXT@@PEAU_xDISPATCHER_CONTEXT@@PEAUFuncInfo4@FH4@@K1H@Z 00000001800398ac f i libvcruntime:risctrnsctrl.obj
 0001:00038900       ??$forward@AEAViterator@TryBlockMap4@FH4@@@std@@YAAEAViterator@TryBlockMap4@FH4@@AEAV123@@Z 0000000180039900 f i libvcruntime:risctrnsctrl.obj
 0001:00038904       ??$forward@AEAViterator@TryBlockMap@__FrameHandler3@@@std@@YAAEAViterator@TryBlockMap@__FrameHandler3@@AEAV123@@Z 0000000180039904 f i libvcruntime:risctrnsctrl.obj
 0001:00038908       ??0FuncInfo4@FH4@@QEAA@XZ  0000000180039908 f i libvcruntime:risctrnsctrl.obj
 0001:0003891c       ??0FuncInfoHeader@FH4@@QEAA@XZ 000000018003991c f i libvcruntime:risctrnsctrl.obj
 0001:00038924       ??0iterator@TryBlockMap4@FH4@@QEAA@AEAV12@I@Z 0000000180039924 f i libvcruntime:risctrnsctrl.obj
 0001:00038930       ??0iterator@TryBlockMap@__FrameHandler3@@QEAA@AEAV12@I@Z 0000000180039930 f i libvcruntime:risctrnsctrl.obj
 0001:0003893c       ??4iterator@TryBlockMap4@FH4@@QEAAAEAV012@AEBV012@@Z 000000018003993c f i libvcruntime:risctrnsctrl.obj
 0001:00038948       ??9iterator@TryBlockMap4@FH4@@QEBA_NAEBV012@@Z 0000000180039948 f i libvcruntime:risctrnsctrl.obj
 0001:00038954       ??Diterator@TryBlockMap4@FH4@@QEAA?AUTryBlockMapEntry4@2@XZ 0000000180039954 f i libvcruntime:risctrnsctrl.obj
 0001:00038964       ??Eiterator@TryBlockMap4@FH4@@QEAAAEAV012@XZ 0000000180039964 f i libvcruntime:risctrnsctrl.obj
 0001:00038a00       ?CatchTryBlock@__FrameHandler3@@SAPEBU_s_TryBlockMapEntry@@PEBU_s_FuncInfo@@H@Z 0000000180039a00 f   libvcruntime:risctrnsctrl.obj
 0001:00038a54       ?DecompFuncInfo@FH4@@YA_JPEAEAEAUFuncInfo4@1@_KH@Z 0000000180039a54 f i libvcruntime:risctrnsctrl.obj
 0001:00038a68       ?DecompFuncInfo@FH4@@YA_JPEAEAEAUFuncInfo4@1@_KH_N@Z 0000000180039a68 f i libvcruntime:risctrnsctrl.obj
 0001:00038b8c       ?DecompTryBlock@TryBlockMap4@FH4@@AEAAXXZ 0000000180039b8c f i libvcruntime:risctrnsctrl.obj
 0001:00038c20       ?ExecutionInCatch@__FrameHandler3@@SA_NPEAU_xDISPATCHER_CONTEXT@@PEBU_s_FuncInfo@@@Z 0000000180039c20 f   libvcruntime:risctrnsctrl.obj
 0001:00038c4c       ?ExecutionInCatch@__FrameHandler4@@SA_NPEAU_xDISPATCHER_CONTEXT@@PEAUFuncInfo4@FH4@@@Z 0000000180039c4c f   libvcruntime:risctrnsctrl.obj
 0001:00038c54       ?FrameUnwindToEmptyState@__FrameHandler3@@SAXPEA_KPEAU_xDISPATCHER_CONTEXT@@PEBU_s_FuncInfo@@@Z 0000000180039c54 f   libvcruntime:risctrnsctrl.obj
 0001:00038cb8       ?FrameUnwindToEmptyState@__FrameHandler4@@SAXPEA_KPEAU_xDISPATCHER_CONTEXT@@PEAUFuncInfo4@FH4@@@Z 0000000180039cb8 f   libvcruntime:risctrnsctrl.obj
 0001:00038cec       ?GetEstablisherFrame@__FrameHandler3@@SAPEA_KPEA_KPEAU_xDISPATCHER_CONTEXT@@PEBU_s_FuncInfo@@0@Z 0000000180039cec f   libvcruntime:risctrnsctrl.obj
 0001:00038db8       ?GetEstablisherFrame@__FrameHandler4@@SAPEA_KPEA_KPEAU_xDISPATCHER_CONTEXT@@PEAUFuncInfo4@FH4@@0@Z 0000000180039db8 f   libvcruntime:risctrnsctrl.obj
 0001:00038ddc       ?GetRangeOfTrysToCheck@__FrameHandler3@@SA?AU?$pair@Viterator@TryBlockMap@__FrameHandler3@@V123@@std@@AEAVTryBlockMap@1@HPEAU_xDISPATCHER_CONTEXT@@PEBU_s_FuncInfo@@H@Z 0000000180039ddc f   libvcruntime:risctrnsctrl.obj
 0001:00038f1c       ?GetRangeOfTrysToCheck@__FrameHandler4@@SA?AU?$pair@Viterator@TryBlockMap4@FH4@@V123@@std@@AEAVTryBlockMap4@FH4@@HPEAU_xDISPATCHER_CONTEXT@@PEAUFuncInfo4@5@H@Z 0000000180039f1c f   libvcruntime:risctrnsctrl.obj
 0001:00039078       ?ReadInt@FH4@@YAHPEAPEAE@Z 000000018003a078 f i libvcruntime:risctrnsctrl.obj
 0001:00039088       ?ReadUnsigned@FH4@@YAIPEAPEAE@Z 000000018003a088 f i libvcruntime:risctrnsctrl.obj
 0001:000390b8       ?UnwindNestedFrames@__FrameHandler3@@SAXPEA_KPEAUEHExceptionRecord@@PEAU_CONTEXT@@0PEAXPEBU_s_FuncInfo@@HHPEBU_s_HandlerType@@PEAU_xDISPATCHER_CONTEXT@@E@Z 000000018003a0b8 f   libvcruntime:risctrnsctrl.obj
 0001:000391bc       ?UnwindNestedFrames@__FrameHandler4@@SAXPEA_KPEAUEHExceptionRecord@@PEAU_CONTEXT@@0PEAXPEAUFuncInfo4@FH4@@HHPEAUHandlerType4@5@PEAU_xDISPATCHER_CONTEXT@@E@Z 000000018003a1bc f   libvcruntime:risctrnsctrl.obj
 0001:000392dc       ?begin@TryBlockMap4@FH4@@QEAA?AViterator@12@XZ 000000018003a2dc f i libvcruntime:risctrnsctrl.obj
 0001:000392e8       ?end@TryBlockMap4@FH4@@QEAA?AViterator@12@XZ 000000018003a2e8 f i libvcruntime:risctrnsctrl.obj
 0001:000392f4       ?imageRelToByteBuffer@FH4@@YAPEAE_KH@Z 000000018003a2f4 f i libvcruntime:risctrnsctrl.obj
 0001:000392fc       ?incrementToSentinel@iterator@TryBlockMap4@FH4@@QEAAXXZ 000000018003a2fc f i libvcruntime:risctrnsctrl.obj
 0001:00039300       ?setBuffer@TryBlockMap4@FH4@@QEAAXViterator@12@@Z 000000018003a300 f i libvcruntime:risctrnsctrl.obj
 0001:000394c4       _CreateFrameInfo           000000018003a4c4 f   libvcruntime:risctrnsctrl.obj
 0001:00039500       _FindAndUnlinkFrame        000000018003a500 f   libvcruntime:risctrnsctrl.obj
 0001:00039554       _GetImageBase              000000018003a554 f   libvcruntime:risctrnsctrl.obj
 0001:00039568       _GetThrowImageBase         000000018003a568 f   libvcruntime:risctrnsctrl.obj
 0001:0003957c       _SetImageBase              000000018003a57c f   libvcruntime:risctrnsctrl.obj
 0001:00039594       _SetThrowImageBase         000000018003a594 f   libvcruntime:risctrnsctrl.obj
 0001:000395ac       __CxxFrameHandler          000000018003a5ac f   libvcruntime:risctrnsctrl.obj
 0001:000395b4       __CxxFrameHandler2         000000018003a5b4 f   libvcruntime:risctrnsctrl.obj
 0001:000395bc       __CxxFrameHandler3         000000018003a5bc f   libvcruntime:risctrnsctrl.obj
 0001:00039644       __CxxFrameHandler4         000000018003a644 f   libvcruntime:risctrnsctrl.obj
 0001:00039704       ??$__crt_interlocked_exchange_pointer@UHINSTANCE__@@PEAU1@@@YAPEAUHINSTANCE__@@PEDSEAU0@QEAU0@@Z 000000018003a704 f i libvcruntime:winapi_downlevel.obj
 0001:0003970c       ??$__crt_interlocked_exchange_pointer@UHINSTANCE__@@PEAX@@YAPEAUHINSTANCE__@@PEDSEAU0@QEAX@Z 000000018003a70c f i libvcruntime:winapi_downlevel.obj
 0001:00039714       ??$__crt_interlocked_exchange_pointer@XPEAX@@YAPEAXPEDSEAXQEAX@Z 000000018003a714 f i libvcruntime:winapi_downlevel.obj
 0001:0003971c       ??$__crt_interlocked_read_pointer@UHINSTANCE__@@@@YAPEAUHINSTANCE__@@PEDSEAU0@@Z 000000018003a71c f i libvcruntime:winapi_downlevel.obj
 0001:00039720       ??$__crt_interlocked_read_pointer@X@@YAPEAXPEDSEAX@Z 000000018003a720 f i libvcruntime:winapi_downlevel.obj
 0001:00039c54       __vcrt_FlsAlloc            000000018003ac54 f   libvcruntime:winapi_downlevel.obj
 0001:00039c9c       __vcrt_FlsFree             000000018003ac9c f   libvcruntime:winapi_downlevel.obj
 0001:00039ce4       __vcrt_FlsGetValue         000000018003ace4 f   libvcruntime:winapi_downlevel.obj
 0001:00039d2c       __vcrt_FlsSetValue         000000018003ad2c f   libvcruntime:winapi_downlevel.obj
 0001:00039d80       __vcrt_InitializeCriticalSectionEx 000000018003ad80 f   libvcruntime:winapi_downlevel.obj
 0001:00039de4       ?GetCurrentState@__FrameHandler3@@SAHPEA_KPEAU_xDISPATCHER_CONTEXT@@PEBU_s_FuncInfo@@@Z 000000018003ade4 f   libvcruntime:ehstate.obj
 0001:00039e0c       ?GetUnwindTryBlock@__FrameHandler3@@SAHPEA_KPEAU_xDISPATCHER_CONTEXT@@PEBU_s_FuncInfo@@@Z 000000018003ae0c f   libvcruntime:ehstate.obj
 0001:00039e38       ?SetState@__FrameHandler3@@SAXPEA_KPEBU_s_FuncInfo@@H@Z 000000018003ae38 f   libvcruntime:ehstate.obj
 0001:00039e44       ?SetUnwindTryBlock@__FrameHandler3@@SAXPEA_KPEAU_xDISPATCHER_CONTEXT@@PEBU_s_FuncInfo@@H@Z 000000018003ae44 f   libvcruntime:ehstate.obj
 0001:00039e80       ?StateFromControlPc@__FrameHandler3@@SAHPEBU_s_FuncInfo@@PEAU_xDISPATCHER_CONTEXT@@@Z 000000018003ae80 f   libvcruntime:ehstate.obj
 0001:00039e88       ?StateFromControlPc@__FrameHandler4@@SAHPEAUFuncInfo4@FH4@@PEAU_xDISPATCHER_CONTEXT@@@Z 000000018003ae88 f   libvcruntime:ehstate.obj
 0001:00039e90       ?StateFromIp@__FrameHandler3@@SAHPEBU_s_FuncInfo@@PEAU_xDISPATCHER_CONTEXT@@_K@Z 000000018003ae90 f   libvcruntime:ehstate.obj
 0001:00039ef8       ?StateFromIp@__FrameHandler4@@SAHPEAUFuncInfo4@FH4@@PEAU_xDISPATCHER_CONTEXT@@_K@Z 000000018003aef8 f   libvcruntime:ehstate.obj
 0001:00039fe0       ?__FuncRelToRealOffset@@YA_KPEAU_xDISPATCHER_CONTEXT@@I@Z 000000018003afe0 f i libvcruntime:ehstate.obj
 0001:00039ff0       ?__RVAtoRealOffset@@YA_KPEAU_xDISPATCHER_CONTEXT@@H@Z 000000018003aff0 f i libvcruntime:ehstate.obj
 0001:0003b634       ??$TypeMatchHelper@V__FrameHandler3@@@@YAHPEBU_s_HandlerType@@PEBU_s_CatchableType@@PEBU_s_ThrowInfo@@@Z 000000018003c634 f i libvcruntime:frame.obj
 0001:0003b774       ??$TypeMatchHelper@V__FrameHandler4@@@@YAHPEAUHandlerType4@FH4@@PEBU_s_CatchableType@@PEBU_s_ThrowInfo@@@Z 000000018003c774 f i libvcruntime:frame.obj
 0001:0003b8b8       ??$__InternalCxxFrameHandler@V__FrameHandler3@@@@YA?AW4_EXCEPTION_DISPOSITION@@PEAUEHExceptionRecord@@PEA_KPEAU_CONTEXT@@PEAU_xDISPATCHER_CONTEXT@@PEBU_s_FuncInfo@@H1E@Z 000000018003c8b8 f i libvcruntime:frame.obj
 0001:0003baf0       ??$__InternalCxxFrameHandler@V__FrameHandler4@@@@YA?AW4_EXCEPTION_DISPOSITION@@PEAUEHExceptionRecord@@PEA_KPEAU_CONTEXT@@PEAU_xDISPATCHER_CONTEXT@@PEAUFuncInfo4@FH4@@H1E@Z 000000018003caf0 f i libvcruntime:frame.obj
 0001:0003bd84       ??0HandlerMap4@FH4@@QEAA@PEBUTryBlockMapEntry4@1@_KH@Z 000000018003cd84 f i libvcruntime:frame.obj
 0001:0003be00       ??0HandlerMap@__FrameHandler3@@QEAA@PEBU_s_TryBlockMapEntry@@_KI@Z 000000018003ce00 f i libvcruntime:frame.obj
 0001:0003be14       ??0HandlerType4@FH4@@QEAA@XZ 000000018003ce14 f i libvcruntime:frame.obj
 0001:0003be2c       ??0TryBlockMap4@FH4@@QEAA@PEBUFuncInfo4@1@_K@Z 000000018003ce2c f i libvcruntime:frame.obj
 0001:0003bf04       ??0TryBlockMap@__FrameHandler3@@QEAA@PEBU_s_FuncInfo@@_K@Z 000000018003cf04 f i libvcruntime:frame.obj
 0001:0003bf10       ??0UWMap4@FH4@@QEAA@PEBUFuncInfo4@1@_K@Z 000000018003cf10 f i libvcruntime:frame.obj
 0001:0003bf54       ??0bad_exception@std@@QEAA@AEBV01@@Z 000000018003cf54 f i libvcruntime:frame.obj
 0001:0003bf90       ??0bad_exception@std@@QEAA@XZ 000000018003cf90 f i libvcruntime:frame.obj
 0001:0003bfb0       ??0exception@std@@QEAA@AEBV01@@Z 000000018003cfb0 f i libvcruntime:frame.obj
 0001:0003bfe4       ??0exception@std@@QEAA@QEBDH@Z 000000018003cfe4 f i libvcruntime:frame.obj
 0001:0003bffc       ??0iterator@HandlerMap4@FH4@@QEAA@AEAV12@I@Z 000000018003cffc f i libvcruntime:frame.obj
 0001:0003c008       ??0iterator@HandlerMap@__FrameHandler3@@QEAA@AEAV12@I@Z 000000018003d008 f i libvcruntime:frame.obj
 0001:0003c014       ??0iterator@UWMap4@FH4@@QEAA@AEAV12@PEAE@Z 000000018003d014 f i libvcruntime:frame.obj
 0001:0003c020       ??1bad_exception@std@@UEAA@XZ 000000018003d020 f i libvcruntime:frame.obj
 0001:0003c034       ??1exception@std@@UEAA@XZ  000000018003d034 f i libvcruntime:frame.obj
 0001:0003c048       ??4iterator@UWMap4@FH4@@QEAAAEAV012@AEBV012@@Z 000000018003d048 f i libvcruntime:frame.obj
 0001:0003c068       ??8iterator@HandlerMap4@FH4@@QEBA_NAEBV012@@Z 000000018003d068 f i libvcruntime:frame.obj
 0001:0003c074       ??8iterator@HandlerMap@__FrameHandler3@@QEBA_NAEBV012@@Z 000000018003d074 f i libvcruntime:frame.obj
 0001:0003c080       ??8type_info@@QEBA_NAEBV0@@Z 000000018003d080 f i libvcruntime:frame.obj
 0001:0003c09c       ??9iterator@HandlerMap4@FH4@@QEBA_NAEBV012@@Z 000000018003d09c f i libvcruntime:frame.obj
 0001:0003c0a8       ??9iterator@HandlerMap@__FrameHandler3@@QEBA_NAEBV012@@Z 000000018003d0a8 f i libvcruntime:frame.obj
 0001:0003c0b4       ??Diterator@HandlerMap4@FH4@@QEAA?AUHandlerType4@2@XZ 000000018003d0b4 f i libvcruntime:frame.obj
 0001:0003c0d4       ??Diterator@HandlerMap@__FrameHandler3@@QEAA?BU_s_HandlerType@@XZ 000000018003d0d4 f i libvcruntime:frame.obj
 0001:0003c0f8       ??Diterator@TryBlockMap@__FrameHandler3@@QEAA?BU_s_TryBlockMapEntry@@XZ 000000018003d0f8 f i libvcruntime:frame.obj
 0001:0003c128       ??Diterator@UWMap4@FH4@@QEAA?AUUnwindMapEntry4@2@XZ 000000018003d128 f i libvcruntime:frame.obj
 0001:0003c17c       ??Eiterator@HandlerMap4@FH4@@QEAAAEAV012@XZ 000000018003d17c f i libvcruntime:frame.obj
 0001:0003c19c       ??Eiterator@HandlerMap@__FrameHandler3@@QEAAAEAV012@XZ 000000018003d19c f i libvcruntime:frame.obj
 0001:0003c1a4       ??Eiterator@TryBlockMap@__FrameHandler3@@QEAAAEAV012@XZ 000000018003d1a4 f i libvcruntime:frame.obj
 0001:0003c1ac       ??Eiterator@UWMap4@FH4@@QEAAAEAV012@XZ 000000018003d1ac f i libvcruntime:frame.obj
 0001:0003c1cc       ??Giterator@UWMap4@FH4@@QEBA_JAEBV012@@Z 000000018003d1cc f i libvcruntime:frame.obj
 0001:0003c1d8       ??Miterator@TryBlockMap4@FH4@@QEBA_NAEBV012@@Z 000000018003d1d8 f i libvcruntime:frame.obj
 0001:0003c1e4       ??Miterator@TryBlockMap@__FrameHandler3@@QEBA_NAEBV012@@Z 000000018003d1e4 f i libvcruntime:frame.obj
 0001:0003c1f0       ??Oiterator@UWMap4@FH4@@QEBA_NAEBV012@@Z 000000018003d1f0 f i libvcruntime:frame.obj
 0001:0003c1fc       ??Piterator@UWMap4@FH4@@QEBA_NAEBV012@@Z 000000018003d1fc f i libvcruntime:frame.obj
 0001:0003c208       ??_Ebad_exception@std@@UEAAPEAXI@Z 000000018003d208 f i libvcruntime:frame.obj
 0001:0003c208       ??_Gbad_exception@std@@UEAAPEAXI@Z 000000018003d208 f i libvcruntime:frame.obj
 0001:0003c24c       ??_Gexception@std@@UEAAPEAXI@Z 000000018003d24c f i libvcruntime:frame.obj
 0001:0003c24c       ??_Eexception@std@@UEAAPEAXI@Z 000000018003d24c f i libvcruntime:frame.obj
 0001:0003c290       ?BuildCatchObject@__FrameHandler3@@SAXPEAUEHExceptionRecord@@PEAXPEBU_s_HandlerType@@PEBU_s_CatchableType@@@Z 000000018003d290 f   libvcruntime:frame.obj
 0001:0003c298       ?BuildCatchObject@__FrameHandler4@@SAXPEAUEHExceptionRecord@@PEAXPEAUHandlerType4@FH4@@PEBU_s_CatchableType@@@Z 000000018003d298 f   libvcruntime:frame.obj
 0001:0003c2a0       ?BuildCatchObjectHelper@__FrameHandler3@@SAHPEAUEHExceptionRecord@@PEAXPEBU_s_HandlerType@@PEBU_s_CatchableType@@@Z 000000018003d2a0 f   libvcruntime:frame.obj
 0001:0003c2a8       ?BuildCatchObjectHelper@__FrameHandler4@@SAHPEAUEHExceptionRecord@@PEAXPEAUHandlerType4@FH4@@PEBU_s_CatchableType@@@Z 000000018003d2a8 f   libvcruntime:frame.obj
 0001:0003c2b0       ?CxxCallCatchBlock@__FrameHandler3@@SAPEAXPEAU_EXCEPTION_RECORD@@@Z 000000018003d2b0 f   libvcruntime:frame.obj
 0001:0003c49c       ?CxxCallCatchBlock@__FrameHandler4@@SAPEAXPEAU_EXCEPTION_RECORD@@@Z 000000018003d49c f   libvcruntime:frame.obj
 0001:0003c6ec       ?DecompHandler@HandlerMap4@FH4@@AEAAXXZ 000000018003d6ec f i libvcruntime:frame.obj
 0001:0003c92c       ?FrameUnwindToState@__FrameHandler3@@SAXPEA_KPEAU_xDISPATCHER_CONTEXT@@PEBU_s_FuncInfo@@H@Z 000000018003d92c f   libvcruntime:frame.obj
 0001:0003cab8       ?FrameUnwindToState@__FrameHandler4@@SAXPEA_KPEAU_xDISPATCHER_CONTEXT@@PEAUFuncInfo4@FH4@@H@Z 000000018003dab8 f   libvcruntime:frame.obj
 0001:0003cda0       ?GetHandlerSearchState@__FrameHandler3@@SAHPEA_KPEAU_xDISPATCHER_CONTEXT@@PEBU_s_FuncInfo@@@Z 000000018003dda0 f i libvcruntime:frame.obj
 0001:0003ce38       ?GetHandlerSearchState@__FrameHandler4@@SAHPEA_KPEAU_xDISPATCHER_CONTEXT@@PEAUFuncInfo4@FH4@@@Z 000000018003de38 f i libvcruntime:frame.obj
 0001:0003ce9c       ?GetMaxState@__FrameHandler3@@SAHPEAU_xDISPATCHER_CONTEXT@@PEBU_s_FuncInfo@@@Z 000000018003de9c f i libvcruntime:frame.obj
 0001:0003cea0       ?GetMaxState@__FrameHandler4@@SAHPEAU_xDISPATCHER_CONTEXT@@PEAUFuncInfo4@FH4@@@Z 000000018003dea0 f i libvcruntime:frame.obj
 0001:0003d04c       ?ReadEntry@UWMap4@FH4@@AEAAXPEAPEAE@Z 000000018003e04c f i libvcruntime:frame.obj
 0001:0003d0ec       ?TypeMatch@__FrameHandler3@@SAHPEBU_s_HandlerType@@PEBU_s_CatchableType@@PEBU_s_ThrowInfo@@@Z 000000018003e0ec f   libvcruntime:frame.obj
 0001:0003d0f4       ?TypeMatch@__FrameHandler4@@SAHPEAUHandlerType4@FH4@@PEBU_s_CatchableType@@PEBU_s_ThrowInfo@@@Z 000000018003e0f4 f   libvcruntime:frame.obj
 0001:0003d0fc       ?WalkBack@UWMap4@FH4@@AEAAXPEAPEAE@Z 000000018003e0fc f i libvcruntime:frame.obj
 0001:0003d134       ?WalkBack@iterator@UWMap4@FH4@@QEAAXXZ 000000018003e134 f i libvcruntime:frame.obj
 0001:0003d174       ?WalkForward@UWMap4@FH4@@AEAAXPEAPEAE@Z 000000018003e174 f i libvcruntime:frame.obj
 0001:0003d17c       ?_CallMemberFunction1@@YAXQEAX00@Z 000000018003e17c f i libvcruntime:frame.obj
 0001:0003d188       ?_CallMemberFunction2@@YAXQEAX00H@Z 000000018003e188 f i libvcruntime:frame.obj
 0001:0003d1ac       ?begin@HandlerMap4@FH4@@QEAA?AViterator@12@XZ 000000018003e1ac f i libvcruntime:frame.obj
 0001:0003d1b8       ?begin@HandlerMap@__FrameHandler3@@QEAA?AViterator@12@XZ 000000018003e1b8 f i libvcruntime:frame.obj
 0001:0003d1c4       ?begin@UWMap4@FH4@@QEAA?AViterator@12@XZ 000000018003e1c4 f i libvcruntime:frame.obj
 0001:0003d1d4       ?end@HandlerMap4@FH4@@QEAA?AViterator@12@XZ 000000018003e1d4 f i libvcruntime:frame.obj
 0001:0003d1e0       ?end@HandlerMap@__FrameHandler3@@QEAA?AViterator@12@XZ 000000018003e1e0 f i libvcruntime:frame.obj
 0001:0003d1ec       ?getESTypes@__FrameHandler3@@SAPEBU_s_ESTypeList@@PEBU_s_FuncInfo@@@Z 000000018003e1ec f i libvcruntime:frame.obj
 0001:0003d214       ?getESTypes@__FrameHandler4@@SAPEBU_s_ESTypeList@@PEAUFuncInfo4@FH4@@@Z 000000018003e214 f i libvcruntime:frame.obj
 0001:0003d218       ?getLastEntry@HandlerMap4@FH4@@QEAAPEAUHandlerType4@2@XZ 000000018003e218 f i libvcruntime:frame.obj
 0001:0003d268       ?getLastEntry@HandlerMap@__FrameHandler3@@QEAAPEBU_s_HandlerType@@XZ 000000018003e268 f i libvcruntime:frame.obj
 0001:0003d27c       ?getMagicNum@__FrameHandler3@@SAIPEBU_s_FuncInfo@@@Z 000000018003e27c f i libvcruntime:frame.obj
 0001:0003d284       ?getMagicNum@__FrameHandler4@@SAIPEAUFuncInfo4@FH4@@@Z 000000018003e284 f i libvcruntime:frame.obj
 0001:0003d28c       ?getNumTryBlocks@TryBlockMap4@FH4@@QEAAIXZ 000000018003e28c f i libvcruntime:frame.obj
 0001:0003d290       ?getNumTryBlocks@TryBlockMap@__FrameHandler3@@QEAAIXZ 000000018003e290 f i libvcruntime:frame.obj
 0001:0003d298       ?getStartStop@UWMap4@FH4@@QEAAXHHAEAViterator@12@0@Z 000000018003e298 f i libvcruntime:frame.obj
 0001:0003d368       ?getStateFromIterators@UWMap4@FH4@@SAHAEBViterator@12@H0H0@Z 000000018003e368 f i libvcruntime:frame.obj
 0001:0003d430       ?isEHs@__FrameHandler3@@SA_NPEBU_s_FuncInfo@@@Z 000000018003e430 f i libvcruntime:frame.obj
 0001:0003d438       ?isEHs@__FrameHandler4@@SA_NPEAUFuncInfo4@FH4@@@Z 000000018003e438 f i libvcruntime:frame.obj
 0001:0003d440       ?isNoExcept@__FrameHandler3@@SA_NPEBU_s_FuncInfo@@@Z 000000018003e440 f i libvcruntime:frame.obj
 0001:0003d44c       ?isNoExcept@__FrameHandler4@@SA_NPEAUFuncInfo4@FH4@@@Z 000000018003e44c f i libvcruntime:frame.obj
 0001:0003d454       ?reset@HandlerType4@FH4@@QEAAXXZ 000000018003e454 f i libvcruntime:frame.obj
 0001:0003d468       ?resetBuffer@HandlerMap4@FH4@@QEAAXXZ 000000018003e468 f i libvcruntime:frame.obj
 0001:0003d478       ?setBuffer@HandlerMap4@FH4@@QEAAXI@Z 000000018003e478 f i libvcruntime:frame.obj
 0001:0003d4b4       ?what@exception@std@@UEBAPEBDXZ 000000018003e4b4 f i libvcruntime:frame.obj
 0001:0003d4c8       __BuildCatchObject         000000018003e4c8 f   libvcruntime:frame.obj
 0001:0003d4d0       __BuildCatchObjectHelper   000000018003e4d0 f   libvcruntime:frame.obj
 0001:0003d4d8       __TypeMatch                000000018003e4d8 f   libvcruntime:frame.obj
 0001:0003d4e0       __vcrt_EncodePointer       000000018003e4e0 f i libvcruntime:frame.obj
 0001:0003d500       _CallSettingFrame          000000018003e500 f   libvcruntime:handlers.obj
 0001:0003d550       _CallSettingFrame_LookupContinuationIndex 000000018003e550 f   libvcruntime:handlers.obj
 0001:0003d580       _CallSettingFrame_NotifyContinuationAddr 000000018003e580 f   libvcruntime:handlers.obj
 0001:0003d5b0       _CallSettingFrameEncoded   000000018003e5b0 f   libvcruntime:handlers.obj
 0001:0003d5f8       ??$?RD@__crt_public_free_policy@@QEBAXQEBD@Z 000000018003e5f8 f i libvcruntime:std_exception.obj
 0001:0003d600       ??0?$__crt_unique_heap_ptr@DU__crt_public_free_policy@@@@QEAA@QEAD@Z 000000018003e600 f i libvcruntime:std_exception.obj
 0001:0003d608       ??1?$__crt_unique_heap_ptr@DU__crt_public_free_policy@@@@QEAA@XZ 000000018003e608 f i libvcruntime:std_exception.obj
 0001:0003d624       ??B?$__crt_unique_heap_ptr@DU__crt_public_free_policy@@@@QEBA_NXZ 000000018003e624 f i libvcruntime:std_exception.obj
 0001:0003d62c       ?detach@?$__crt_unique_heap_ptr@DU__crt_public_free_policy@@@@QEAAPEADXZ 000000018003e62c f i libvcruntime:std_exception.obj
 0001:0003d634       ?get@?$__crt_unique_heap_ptr@DU__crt_public_free_policy@@@@QEBAPEADXZ 000000018003e634 f i libvcruntime:std_exception.obj
 0001:0003d638       ?is_valid@?$__crt_unique_heap_ptr@DU__crt_public_free_policy@@@@QEBA_NXZ 000000018003e638 f i libvcruntime:std_exception.obj
 0001:0003d640       ?release@?$__crt_unique_heap_ptr@DU__crt_public_free_policy@@@@QEAAXXZ 000000018003e640 f i libvcruntime:std_exception.obj
 0001:0003d65c       __std_exception_copy       000000018003e65c f   libvcruntime:std_exception.obj
 0001:0003d6ec       __std_exception_destroy    000000018003e6ec f   libvcruntime:std_exception.obj
 0001:0003d714       _CxxThrowException         000000018003e714 f   libvcruntime:throw.obj
 0001:0003d7d0       strcmp                     000000018003e7d0 f   libucrt:strcmp.obj
 0001:0003d838       atan2f                     000000018003e838 f   libucrt:atan2f.obj
 0001:0003dd80       cosf                       000000018003ed80 f   libucrt:cosf.obj
 0001:0003e280       sinf                       000000018003f280 f   libucrt:sinf.obj
 0001:0003e978       _fpclass                   000000018003f978 f   libucrt:ieeemisc.obj
 0001:0003ea00       _fpclassf                  000000018003fa00 f   libucrt:ieeemisc.obj
 0001:0003ea6c       _isnan                     000000018003fa6c f   libucrt:ieeemisc.obj
 0001:0003ea98       _isnanf                    000000018003fa98 f   libucrt:ieeemisc.obj
 0001:0003eab4       _nextafter                 000000018003fab4 f   libucrt:ieeemisc.obj
 0001:0003eabc       _nextafterf                000000018003fabc f   libucrt:ieeemisc.obj
 0001:0003eac4       _scalb                     000000018003fac4 f   libucrt:ieeemisc.obj
 0001:0003ec70       _scalbf                    000000018003fc70 f   libucrt:ieeemisc.obj
 0001:0003ee10       free                       000000018003fe10 f   libucrt:free.obj
 0001:0003ee24       _initterm                  000000018003fe24 f   libucrt:initterm.obj
 0001:0003ee88       _initterm_e                000000018003fe88 f   libucrt:initterm.obj
 0001:0003eee8       _seh_filter_dll            000000018003fee8 f   libucrt:exception_filter.obj
 0001:0003eefc       _seh_filter_exe            000000018003fefc f   libucrt:exception_filter.obj
 0001:0003f080       ??$?B$$A6AXPEAXK0@Z@__crt_fast_encoded_nullptr_t@@QEBAP6AXPEAXK0@ZXZ 0000000180040080 f i libucrt:exit.obj
 0001:0003f0e8       ??$__crt_fast_decode_pointer@P6AXPEAXK0@Z@@YAP6AXPEAXK0@ZQ6AX0K0@Z@Z 00000001800400e8 f i libucrt:exit.obj
 0001:0003f100       ??$__crt_fast_encode_pointer@P6AXPEAXK0@Z@@YAP6AXPEAXK0@ZQ6AX0K0@Z@Z 0000000180040100 f i libucrt:exit.obj
 0001:0003f120       ??$__crt_get_proc_address@P6AXI@Z@@YAP6AXI@ZQEAUHINSTANCE__@@QEBD@Z 0000000180040120 f i libucrt:exit.obj
 0001:0003f128       ??$__crt_interlocked_read@J@@YAJPEDJ@Z 0000000180040128 f i libucrt:exit.obj
 0001:0003f14c       ??0?$__crt_unique_handle_t@U__crt_hmodule_traits@@@@QEAA@QEAUHINSTANCE__@@@Z 000000018004014c f i libucrt:exit.obj
 0001:0003f154       ??1?$__crt_unique_handle_t@U__crt_hmodule_traits@@@@QEAA@XZ 0000000180040154 f i libucrt:exit.obj
 0001:0003f24c       ?__acrt_select_exit_lock@@YA?AW4__acrt_lock_id@@XZ 000000018004024c f i libucrt:exit.obj
 0001:0003f254       ?__crt_fast_encode_pointer@@YA?AU__crt_fast_encoded_nullptr_t@@$$T@Z 0000000180040254 f i libucrt:exit.obj
 0001:0003f25c       ?__crt_interlocked_read_32@@YAHPEDH@Z 000000018004025c f i libucrt:exit.obj
 0001:0003f260       ?__crt_rotate_pointer_value@@YA_K_KH@Z 0000000180040260 f i libucrt:exit.obj
 0001:0003f278       ?close@?$__crt_unique_handle_t@U__crt_hmodule_traits@@@@QEAAXXZ 0000000180040278 f i libucrt:exit.obj
 0001:0003f29c       ?close@__crt_hmodule_traits@@SA_NPEAUHINSTANCE__@@@Z 000000018004029c f i libucrt:exit.obj
 0001:0003f3b8       ?get@?$__crt_unique_handle_t@U__crt_hmodule_traits@@@@QEBAPEAUHINSTANCE__@@XZ 00000001800403b8 f i libucrt:exit.obj
 0001:0003f3bc       ?get_address_of@?$__crt_unique_handle_t@U__crt_hmodule_traits@@@@QEAAPEAPEAUHINSTANCE__@@XZ 00000001800403bc f i libucrt:exit.obj
 0001:0003f3c0       ?get_invalid_value@__crt_hmodule_traits@@SAPEAUHINSTANCE__@@XZ 00000001800403c0 f i libucrt:exit.obj
 0001:0003f4a4       _Exit                      00000001800404a4 f   libucrt:exit.obj
 0001:0003f4b0       __acrt_initialize_thread_local_exit_callback 00000001800404b0 f   libucrt:exit.obj
 0001:0003f4b8       _c_exit                    00000001800404b8 f   libucrt:exit.obj
 0001:0003f4c8       _cexit                     00000001800404c8 f   libucrt:exit.obj
 0001:0003f4d8       _exit                      00000001800404d8 f   libucrt:exit.obj
 0001:0003f4e4       _is_c_termination_complete 00000001800404e4 f   libucrt:exit.obj
 0001:0003f4ec       _register_thread_local_exe_atexit_callback 00000001800404ec f   libucrt:exit.obj
 0001:0003f528       exit                       0000000180040528 f   libucrt:exit.obj
 0001:0003f534       quick_exit                 0000000180040534 f   libucrt:exit.obj
 0001:0003f540       ??$?RE@__crt_internal_free_policy@@QEBAXQEBE@Z 0000000180040540 f i libucrt:argv_parsing.obj
 0001:0003f548       ??$?RPEAD@__crt_internal_free_policy@@QEBAXQEBQEAD@Z 0000000180040548 f i libucrt:argv_parsing.obj
 0001:0003f550       ??$?RPEA_W@__crt_internal_free_policy@@QEBAXQEBQEA_W@Z 0000000180040550 f i libucrt:argv_parsing.obj
 0001:0003f844       ??$get_module_file_name@$$TAEAY0BAF@DH@?$__crt_char_traits@D@@SAK$$QEA$$TAEAY0BAF@D$$QEAH@Z 0000000180040844 f i libucrt:argv_parsing.obj
 0001:0003f850       ??$get_module_file_name@$$TAEAY0BAF@_WH@?$__crt_char_traits@_W@@SAK$$QEA$$TAEAY0BAF@_W$$QEAH@Z 0000000180040850 f i libucrt:argv_parsing.obj
 0001:0003fbc0       ??$set_program_name@PEAD@?$__crt_char_traits@D@@SAX$$QEAPEAD@Z 0000000180040bc0 f i libucrt:argv_parsing.obj
 0001:0003fbcc       ??$set_program_name@PEA_W@?$__crt_char_traits@_W@@SAX$$QEAPEA_W@Z 0000000180040bcc f i libucrt:argv_parsing.obj
 0001:0003fbe8       ??0?$__crt_unique_heap_ptr@EU__crt_internal_free_policy@@@@QEAA@QEAE@Z 0000000180040be8 f i libucrt:argv_parsing.obj
 0001:0003fbf0       ??0?$__crt_unique_heap_ptr@PEADU__crt_internal_free_policy@@@@QEAA@QEAPEAD@Z 0000000180040bf0 f i libucrt:argv_parsing.obj
 0001:0003fbf8       ??0?$__crt_unique_heap_ptr@PEA_WU__crt_internal_free_policy@@@@QEAA@QEAPEA_W@Z 0000000180040bf8 f i libucrt:argv_parsing.obj
 0001:0003fc00       ??1?$__crt_unique_heap_ptr@EU__crt_internal_free_policy@@@@QEAA@XZ 0000000180040c00 f i libucrt:argv_parsing.obj
 0001:0003fc1c       ??1?$__crt_unique_heap_ptr@PEADU__crt_internal_free_policy@@@@QEAA@XZ 0000000180040c1c f i libucrt:argv_parsing.obj
 0001:0003fc38       ??1?$__crt_unique_heap_ptr@PEA_WU__crt_internal_free_policy@@@@QEAA@XZ 0000000180040c38 f i libucrt:argv_parsing.obj
 0001:0003fc54       ??B?$__crt_unique_heap_ptr@EU__crt_internal_free_policy@@@@QEBA_NXZ 0000000180040c54 f i libucrt:argv_parsing.obj
 0001:0003fc94       ?detach@?$__crt_unique_heap_ptr@EU__crt_internal_free_policy@@@@QEAAPEAEXZ 0000000180040c94 f i libucrt:argv_parsing.obj
 0001:0003fc9c       ?detach@?$__crt_unique_heap_ptr@PEADU__crt_internal_free_policy@@@@QEAAPEAPEADXZ 0000000180040c9c f i libucrt:argv_parsing.obj
 0001:0003fca4       ?detach@?$__crt_unique_heap_ptr@PEA_WU__crt_internal_free_policy@@@@QEAAPEAPEA_WXZ 0000000180040ca4 f i libucrt:argv_parsing.obj
 0001:0003fcc8       ?get@?$__crt_unique_heap_ptr@EU__crt_internal_free_policy@@@@QEBAPEAEXZ 0000000180040cc8 f i libucrt:argv_parsing.obj
 0001:0003fccc       ?get@?$__crt_unique_heap_ptr@PEADU__crt_internal_free_policy@@@@QEBAPEAPEADXZ 0000000180040ccc f i libucrt:argv_parsing.obj
 0001:0003fcd0       ?get@?$__crt_unique_heap_ptr@PEA_WU__crt_internal_free_policy@@@@QEBAPEAPEA_WXZ 0000000180040cd0 f i libucrt:argv_parsing.obj
 0001:0003fcd4       ?get_address_of@?$__crt_unique_heap_ptr@PEADU__crt_internal_free_policy@@@@QEAAPEAPEAPEADXZ 0000000180040cd4 f i libucrt:argv_parsing.obj
 0001:0003fcd8       ?get_address_of@?$__crt_unique_heap_ptr@PEA_WU__crt_internal_free_policy@@@@QEAAPEAPEAPEA_WXZ 0000000180040cd8 f i libucrt:argv_parsing.obj
 0001:0003fcfc       ?is_valid@?$__crt_unique_heap_ptr@EU__crt_internal_free_policy@@@@QEBA_NXZ 0000000180040cfc f i libucrt:argv_parsing.obj
 0001:0003fd04       ?release@?$__crt_unique_heap_ptr@EU__crt_internal_free_policy@@@@QEAAXXZ 0000000180040d04 f i libucrt:argv_parsing.obj
 0001:0003fd20       ?release@?$__crt_unique_heap_ptr@PEADU__crt_internal_free_policy@@@@QEAAXXZ 0000000180040d20 f i libucrt:argv_parsing.obj
 0001:0003fd3c       ?release@?$__crt_unique_heap_ptr@PEA_WU__crt_internal_free_policy@@@@QEAAXXZ 0000000180040d3c f i libucrt:argv_parsing.obj
 0001:0003fd74       __acrt_allocate_buffer_for_argv 0000000180040d74 f   libucrt:argv_parsing.obj
 0001:0003fdd4       _configure_narrow_argv     0000000180040dd4 f   libucrt:argv_parsing.obj
 0001:0003ff5c       _configure_wide_argv       0000000180040f5c f   libucrt:argv_parsing.obj
 0001:000400e0       _set_pgmptr                00000001800410e0 f i libucrt:argv_parsing.obj
 0001:000400e8       _set_wpgmptr               00000001800410e8 f i libucrt:argv_parsing.obj
 0001:000400f0       ??$?R_W@__crt_internal_free_policy@@QEBAXQEB_W@Z 00000001800410f0 f i libucrt:environment_initialization.obj
 0001:000405f8       ??$get_environment_from_os@$$V@?$__crt_char_traits@D@@SAPEADXZ 00000001800415f8 f i libucrt:environment_initialization.obj
 0001:00040600       ??$get_environment_from_os@$$V@?$__crt_char_traits@_W@@SAPEA_WXZ 0000000180041600 f i libucrt:environment_initialization.obj
 0001:00040790       ??$set_variable_in_environment_nolock@PEADH@?$__crt_char_traits@D@@SAH$$QEAPEAD$$QEAH@Z 0000000180041790 f i libucrt:environment_initialization.obj
 0001:0004079c       ??$set_variable_in_environment_nolock@PEA_WH@?$__crt_char_traits@_W@@SAH$$QEAPEA_W$$QEAH@Z 000000018004179c f i libucrt:environment_initialization.obj
 0001:000407a8       ??$tcscpy_s@PEADAEB_KAEAPEAD@?$__crt_char_traits@D@@SAH$$QEAPEADAEB_KAEAPEAD@Z 00000001800417a8 f i libucrt:environment_initialization.obj
 0001:000407b8       ??$tcscpy_s@PEA_WAEB_KAEAPEA_W@?$__crt_char_traits@_W@@SAH$$QEAPEA_WAEB_KAEAPEA_W@Z 00000001800417b8 f i libucrt:environment_initialization.obj
 0001:000407c8       ??$tcslen@AEAPEAD@?$__crt_char_traits@D@@SA_KAEAPEAD@Z 00000001800417c8 f i libucrt:environment_initialization.obj
 0001:000407dc       ??$tcslen@AEAPEA_W@?$__crt_char_traits@_W@@SA_KAEAPEA_W@Z 00000001800417dc f i libucrt:environment_initialization.obj
 0001:000407f0       ??$uninitialize@A6AXAEAPEAPEAD@Z@?$dual_state_global@PEAPEAD@__crt_state_management@@QEAAXA6AXAEAPEAPEAD@Z@Z 00000001800417f0 f i libucrt:environment_initialization.obj
 0001:00040834       ??$uninitialize@A6AXAEAPEAPEA_W@Z@?$dual_state_global@PEAPEA_W@__crt_state_management@@QEAAXA6AXAEAPEAPEA_W@Z@Z 0000000180041834 f i libucrt:environment_initialization.obj
 0001:000408b0       ??0?$__crt_unique_heap_ptr@_WU__crt_internal_free_policy@@@@QEAA@QEA_W@Z 00000001800418b0 f i libucrt:environment_initialization.obj
 0001:000408b8       ??1?$__crt_unique_heap_ptr@_WU__crt_internal_free_policy@@@@QEAA@XZ 00000001800418b8 f i libucrt:environment_initialization.obj
 0001:000408d4       ??B?$__crt_unique_heap_ptr@PEADU__crt_internal_free_policy@@@@QEBA_NXZ 00000001800418d4 f i libucrt:environment_initialization.obj
 0001:000408dc       ??B?$__crt_unique_heap_ptr@PEA_WU__crt_internal_free_policy@@@@QEBA_NXZ 00000001800418dc f i libucrt:environment_initialization.obj
 0001:000408e4       ??B?$__crt_unique_heap_ptr@_WU__crt_internal_free_policy@@@@QEBA_NXZ 00000001800418e4 f i libucrt:environment_initialization.obj
 0001:000408ec       ?__crt_compute_required_transform_buffer_count@@YA_KIQEBD@Z 00000001800418ec f i libucrt:environment_initialization.obj
 0001:00040910       ?__crt_compute_required_transform_buffer_count@@YA_KIQEB_W@Z 0000000180041910 f i libucrt:environment_initialization.obj
 0001:00040940       ?__crt_transform_string@@YA_KIQEBDQEA_W_K@Z 0000000180041940 f i libucrt:environment_initialization.obj
 0001:00040964       ?__crt_transform_string@@YA_KIQEB_WQEAD_K@Z 0000000180041964 f i libucrt:environment_initialization.obj
 0001:00040994       ?detach@?$__crt_unique_heap_ptr@DU__crt_internal_free_policy@@@@QEAAPEADXZ 0000000180041994 f i libucrt:environment_initialization.obj
 0001:0004099c       ?detach@?$__crt_unique_heap_ptr@_WU__crt_internal_free_policy@@@@QEAAPEA_WXZ 000000018004199c f i libucrt:environment_initialization.obj
 0001:000409a4       ?get@?$__crt_unique_heap_ptr@_WU__crt_internal_free_policy@@@@QEBAPEA_WXZ 00000001800419a4 f i libucrt:environment_initialization.obj
 0001:000409a8       ?get_current_state_index@__crt_state_management@@YA_KXZ 00000001800419a8 f i libucrt:environment_initialization.obj
 0001:000409dc       ?initialize@?$dual_state_global@PEAPEAD@__crt_state_management@@QEAAXQEAPEAD@Z 00000001800419dc f i libucrt:environment_initialization.obj
 0001:00040a04       ?initialize@?$dual_state_global@PEAPEA_W@__crt_state_management@@QEAAXQEAPEA_W@Z 0000000180041a04 f i libucrt:environment_initialization.obj
 0001:00040a2c       ?is_valid@?$__crt_unique_heap_ptr@PEADU__crt_internal_free_policy@@@@QEBA_NXZ 0000000180041a2c f i libucrt:environment_initialization.obj
 0001:00040a34       ?is_valid@?$__crt_unique_heap_ptr@PEA_WU__crt_internal_free_policy@@@@QEBA_NXZ 0000000180041a34 f i libucrt:environment_initialization.obj
 0001:00040a3c       ?is_valid@?$__crt_unique_heap_ptr@_WU__crt_internal_free_policy@@@@QEBA_NXZ 0000000180041a3c f i libucrt:environment_initialization.obj
 0001:00040a50       ?release@?$__crt_unique_heap_ptr@_WU__crt_internal_free_policy@@@@QEAAXXZ 0000000180041a50 f i libucrt:environment_initialization.obj
 0001:00040a6c       ?value@?$dual_state_global@PEAPEAD@__crt_state_management@@QEAAAEAPEAPEADXZ 0000000180041a6c f i libucrt:environment_initialization.obj
 0001:00040a70       ?value@?$dual_state_global@PEAPEA_W@__crt_state_management@@QEAAAEAPEAPEA_WXZ 0000000180041a70 f i libucrt:environment_initialization.obj
 0001:00040a74       __dcrt_get_or_create_narrow_environment_nolock 0000000180041a74 f   libucrt:environment_initialization.obj
 0001:00040ab0       __dcrt_get_or_create_wide_environment_nolock 0000000180041ab0 f   libucrt:environment_initialization.obj
 0001:00040aec       __dcrt_uninitialize_environments_nolock 0000000180041aec f   libucrt:environment_initialization.obj
 0001:00040b24       __p__environ               0000000180041b24 f   libucrt:environment_initialization.obj
 0001:00040b2c       __p__wenviron              0000000180041b2c f   libucrt:environment_initialization.obj
 0001:00040b34       _get_initial_narrow_environment 0000000180041b34 f   libucrt:environment_initialization.obj
 0001:00040b84       _get_initial_wide_environment 0000000180041b84 f   libucrt:environment_initialization.obj
 0001:00040bd4       _initialize_narrow_environment 0000000180041bd4 f   libucrt:environment_initialization.obj
 0001:00040bdc       _initialize_wide_environment 0000000180041bdc f   libucrt:environment_initialization.obj
 0001:00040be4       _invoke_watson_if_error    0000000180041be4 f i libucrt:environment_initialization.obj
 0001:00040c18       ??$?B$$A6AXXZ@__crt_fast_encoded_nullptr_t@@QEBAP6AXXZXZ 0000000180041c18 f i libucrt:onexit.obj
 0001:00040c20       ??$?BP6AXXZ@__crt_fast_encoded_nullptr_t@@QEBAPEAP6AXXZXZ 0000000180041c20 f i libucrt:onexit.obj
 0001:00040c28       ??$?RP6AXXZ@__crt_internal_free_policy@@QEBAXQEBQ6AXXZ@Z 0000000180041c28 f i libucrt:onexit.obj
 0001:00040cf8       ??$__crt_fast_decode_pointer@P6AXXZ@@YAP6AXXZQ6AXXZ@Z 0000000180041cf8 f i libucrt:onexit.obj
 0001:00040d10       ??$__crt_fast_decode_pointer@PEAP6AXXZ@@YAPEAP6AXXZQEAP6AXXZ@Z 0000000180041d10 f i libucrt:onexit.obj
 0001:00040d28       ??$__crt_fast_encode_pointer@P6AHXZ@@YAP6AHXZQ6AHXZ@Z 0000000180041d28 f i libucrt:onexit.obj
 0001:00040d48       ??$__crt_fast_encode_pointer@P6AXXZ@@YAP6AXXZQ6AXXZ@Z 0000000180041d48 f i libucrt:onexit.obj
 0001:00040d68       ??$__crt_fast_encode_pointer@PEAP6AXXZ@@YAPEAP6AXXZQEAP6AXXZ@Z 0000000180041d68 f i libucrt:onexit.obj
 0001:00040dbc       ??0?$__crt_unique_heap_ptr@P6AXXZU__crt_internal_free_policy@@@@QEAA@QEAP6AXXZ@Z 0000000180041dbc f i libucrt:onexit.obj
 0001:00040dc4       ??1?$__crt_unique_heap_ptr@P6AXXZU__crt_internal_free_policy@@@@QEAA@XZ 0000000180041dc4 f i libucrt:onexit.obj
 0001:00040de0       ??1scoped_global_state_reset@__crt_state_management@@QEAA@XZ 0000000180041de0 f i libucrt:onexit.obj
 0001:000410cc       ?detach@?$__crt_unique_heap_ptr@P6AXXZU__crt_internal_free_policy@@@@QEAAPEAP6AXXZXZ 00000001800420cc f i libucrt:onexit.obj
 0001:000410d4       ?release@?$__crt_unique_heap_ptr@P6AXXZU__crt_internal_free_policy@@@@QEAAXXZ 00000001800420d4 f i libucrt:onexit.obj
 0001:000410f0       _crt_at_quick_exit         00000001800420f0 f   libucrt:onexit.obj
 0001:00041100       _crt_atexit                0000000180042100 f   libucrt:onexit.obj
 0001:00041110       _execute_onexit_table      0000000180042110 f   libucrt:onexit.obj
 0001:0004114c       _initialize_onexit_table   000000018004214c f   libucrt:onexit.obj
 0001:00041174       _register_onexit_function  0000000180042174 f   libucrt:onexit.obj
 0001:000412fc       ??$?BX@__crt_fast_encoded_nullptr_t@@QEBAPEAXXZ 00000001800422fc f i libucrt:initialization.obj
 0001:00041304       ??$__crt_fast_encode_pointer@PEAX@@YAPEAXQEAX@Z 0000000180042304 f i libucrt:initialization.obj
 0001:000413d4       ?__acrt_stdio_is_initialized@@YA_NXZ 00000001800423d4 f i libucrt:initialization.obj
 0001:000413e0       ?initialize@?$dual_state_global@PEAU__crt_locale_data@@@__crt_state_management@@QEAAXQEAU__crt_locale_data@@@Z 00000001800423e0 f i libucrt:initialization.obj
 0001:00041408       __acrt_initialize          0000000180042408 f   libucrt:initialization.obj
 0001:0004141c       __acrt_thread_attach       000000018004241c f   libucrt:initialization.obj
 0001:00041430       __acrt_thread_detach       0000000180042430 f   libucrt:initialization.obj
 0001:00041440       __acrt_uninitialize        0000000180042440 f   libucrt:initialization.obj
 0001:00041478       __acrt_uninitialize_critical 0000000180042478 f   libucrt:initialization.obj
 0001:0004149c       _get_terminate             000000018004249c f   libucrt:terminate.obj
 0001:000414c0       set_terminate              00000001800424c0 f   libucrt:terminate.obj
 0001:000414ec       terminate                  00000001800424ec f   libucrt:terminate.obj
 0001:0004150c       _set_abort_behavior        000000018004250c f   libucrt:abort.obj
 0001:00041528       abort                      0000000180042528 f   libucrt:abort.obj
 0001:00041580       malloc                     0000000180042580 f   libucrt:malloc.obj
 0001:000415ec       strcpy_s                   00000001800425ec f   libucrt:strcpy_s.obj
 0001:0004164c       ??$?0AEBV?$stream_output_adapter@D@__crt_stdio_output@@AEB_KAEBQEBDAEBQEAU__crt_locale_pointers@@AEBQEAD@?$format_validation_base@DV?$stream_output_adapter@D@__crt_stdio_output@@@__crt_stdio_output@@IEAA@AEBV?$stream_output_adapter@D@1@AEB_KAEBQEBDAEBQEAU__crt_locale_pointers@@AEBQEAD@Z 000000018004264c f i libucrt:output.obj
 0001:000416d0       ??$?0AEBV?$stream_output_adapter@D@__crt_stdio_output@@AEB_KAEBQEBDAEBQEAU__crt_locale_pointers@@AEBQEAD@?$positional_parameter_base@DV?$stream_output_adapter@D@__crt_stdio_output@@@__crt_stdio_output@@IEAA@AEBV?$stream_output_adapter@D@1@AEB_KAEBQEBDAEBQEAU__crt_locale_pointers@@AEBQEAD@Z 00000001800426d0 f i libucrt:output.obj
 0001:00041770       ??$?0AEBV?$stream_output_adapter@D@__crt_stdio_output@@AEB_KAEBQEBDAEBQEAU__crt_locale_pointers@@AEBQEAD@?$standard_base@DV?$stream_output_adapter@D@__crt_stdio_output@@@__crt_stdio_output@@IEAA@AEBV?$stream_output_adapter@D@1@AEB_KAEBQEBDAEBQEAU__crt_locale_pointers@@AEBQEAD@Z 0000000180042770 f i libucrt:output.obj
 0001:000417f4       ??$?0AEBV?$stream_output_adapter@_W@__crt_stdio_output@@AEB_KAEBQEB_WAEBQEAU__crt_locale_pointers@@AEBQEAD@?$format_validation_base@_WV?$stream_output_adapter@_W@__crt_stdio_output@@@__crt_stdio_output@@IEAA@AEBV?$stream_output_adapter@_W@1@AEB_KAEBQEB_WAEBQEAU__crt_locale_pointers@@AEBQEAD@Z 00000001800427f4 f i libucrt:output.obj
 0001:0004187c       ??$?0AEBV?$stream_output_adapter@_W@__crt_stdio_output@@AEB_KAEBQEB_WAEBQEAU__crt_locale_pointers@@AEBQEAD@?$positional_parameter_base@_WV?$stream_output_adapter@_W@__crt_stdio_output@@@__crt_stdio_output@@IEAA@AEBV?$stream_output_adapter@_W@1@AEB_KAEBQEB_WAEBQEAU__crt_locale_pointers@@AEBQEAD@Z 000000018004287c f i libucrt:output.obj
 0001:00041920       ??$?0AEBV?$stream_output_adapter@_W@__crt_stdio_output@@AEB_KAEBQEB_WAEBQEAU__crt_locale_pointers@@AEBQEAD@?$standard_base@_WV?$stream_output_adapter@_W@__crt_stdio_output@@@__crt_stdio_output@@IEAA@AEBV?$stream_output_adapter@_W@1@AEB_KAEBQEB_WAEBQEAU__crt_locale_pointers@@AEBQEAD@Z 0000000180042920 f i libucrt:output.obj
 0001:000419a8       ??$?0AEBV?$string_output_adapter@D@__crt_stdio_output@@AEB_KAEBQEBDAEBQEAU__crt_locale_pointers@@AEBQEAD@?$format_validation_base@DV?$string_output_adapter@D@__crt_stdio_output@@@__crt_stdio_output@@IEAA@AEBV?$string_output_adapter@D@1@AEB_KAEBQEBDAEBQEAU__crt_locale_pointers@@AEBQEAD@Z 00000001800429a8 f i libucrt:output.obj
 0001:00041a2c       ??$?0AEBV?$string_output_adapter@D@__crt_stdio_output@@AEB_KAEBQEBDAEBQEAU__crt_locale_pointers@@AEBQEAD@?$positional_parameter_base@DV?$string_output_adapter@D@__crt_stdio_output@@@__crt_stdio_output@@IEAA@AEBV?$string_output_adapter@D@1@AEB_KAEBQEBDAEBQEAU__crt_locale_pointers@@AEBQEAD@Z 0000000180042a2c f i libucrt:output.obj
 0001:00041acc       ??$?0AEBV?$string_output_adapter@D@__crt_stdio_output@@AEB_KAEBQEBDAEBQEAU__crt_locale_pointers@@AEBQEAD@?$standard_base@DV?$string_output_adapter@D@__crt_stdio_output@@@__crt_stdio_output@@IEAA@AEBV?$string_output_adapter@D@1@AEB_KAEBQEBDAEBQEAU__crt_locale_pointers@@AEBQEAD@Z 0000000180042acc f i libucrt:output.obj
 0001:00041b50       ??$?0AEBV?$string_output_adapter@_W@__crt_stdio_output@@AEB_KAEBQEB_WAEBQEAU__crt_locale_pointers@@AEBQEAD@?$format_validation_base@_WV?$string_output_adapter@_W@__crt_stdio_output@@@__crt_stdio_output@@IEAA@AEBV?$string_output_adapter@_W@1@AEB_KAEBQEB_WAEBQEAU__crt_locale_pointers@@AEBQEAD@Z 0000000180042b50 f i libucrt:output.obj
 0001:00041bd8       ??$?0AEBV?$string_output_adapter@_W@__crt_stdio_output@@AEB_KAEBQEB_WAEBQEAU__crt_locale_pointers@@AEBQEAD@?$positional_parameter_base@_WV?$string_output_adapter@_W@__crt_stdio_output@@@__crt_stdio_output@@IEAA@AEBV?$string_output_adapter@_W@1@AEB_KAEBQEB_WAEBQEAU__crt_locale_pointers@@AEBQEAD@Z 0000000180042bd8 f i libucrt:output.obj
 0001:00041c7c       ??$?0AEBV?$string_output_adapter@_W@__crt_stdio_output@@AEB_KAEBQEB_WAEBQEAU__crt_locale_pointers@@AEBQEAD@?$standard_base@_WV?$string_output_adapter@_W@__crt_stdio_output@@@__crt_stdio_output@@IEAA@AEBV?$string_output_adapter@_W@1@AEB_KAEBQEB_WAEBQEAU__crt_locale_pointers@@AEBQEAD@Z 0000000180042c7c f i libucrt:output.obj
 0001:00043100       ??$count@D@formatting_buffer@__crt_stdio_output@@QEBA_KXZ 0000000180044100 f i libucrt:output.obj
 0001:0004311c       ??$count@_W@formatting_buffer@__crt_stdio_output@@QEBA_KXZ 000000018004411c f i libucrt:output.obj
 0001:00043138       ??$data@D@formatting_buffer@__crt_stdio_output@@QEAAPEADXZ 0000000180044138 f i libucrt:output.obj
 0001:00043148       ??$data@_W@formatting_buffer@__crt_stdio_output@@QEAAPEA_WXZ 0000000180044148 f i libucrt:output.obj
 0001:00043158       ??$ensure_buffer_is_big_enough@D@formatting_buffer@__crt_stdio_output@@QEAA_N_K@Z 0000000180044158 f i libucrt:output.obj
 0001:00043200       ??$ensure_buffer_is_big_enough@_W@formatting_buffer@__crt_stdio_output@@QEAA_N_K@Z 0000000180044200 f i libucrt:output.obj
 0001:000432ac       ??$extract_argument_from_va_list@C_J@?$positional_parameter_base@DV?$stream_output_adapter@D@__crt_stdio_output@@@__crt_stdio_output@@IEAA_NAEA_J@Z 00000001800442ac f i libucrt:output.obj
 0001:00043368       ??$extract_argument_from_va_list@C_J@?$positional_parameter_base@DV?$string_output_adapter@D@__crt_stdio_output@@@__crt_stdio_output@@IEAA_NAEA_J@Z 0000000180044368 f i libucrt:output.obj
 0001:00043424       ??$extract_argument_from_va_list@C_J@?$positional_parameter_base@_WV?$stream_output_adapter@_W@__crt_stdio_output@@@__crt_stdio_output@@IEAA_NAEA_J@Z 0000000180044424 f i libucrt:output.obj
 0001:000434e4       ??$extract_argument_from_va_list@C_J@?$positional_parameter_base@_WV?$string_output_adapter@_W@__crt_stdio_output@@@__crt_stdio_output@@IEAA_NAEA_J@Z 00000001800444e4 f i libucrt:output.obj
 0001:000435a4       ??$extract_argument_from_va_list@C_J@?$standard_base@DV?$stream_output_adapter@D@__crt_stdio_output@@@__crt_stdio_output@@IEAA_NAEA_J@Z 00000001800445a4 f i libucrt:output.obj
 0001:000435b8       ??$extract_argument_from_va_list@C_J@?$standard_base@DV?$string_output_adapter@D@__crt_stdio_output@@@__crt_stdio_output@@IEAA_NAEA_J@Z 00000001800445b8 f i libucrt:output.obj
 0001:000435cc       ??$extract_argument_from_va_list@C_J@?$standard_base@_WV?$stream_output_adapter@_W@__crt_stdio_output@@@__crt_stdio_output@@IEAA_NAEA_J@Z 00000001800445cc f i libucrt:output.obj
 0001:000435e0       ??$extract_argument_from_va_list@C_J@?$standard_base@_WV?$string_output_adapter@_W@__crt_stdio_output@@@__crt_stdio_output@@IEAA_NAEA_J@Z 00000001800445e0 f i libucrt:output.obj
 0001:000435f4       ??$extract_argument_from_va_list@E_J@?$positional_parameter_base@DV?$stream_output_adapter@D@__crt_stdio_output@@@__crt_stdio_output@@IEAA_NAEA_J@Z 00000001800445f4 f i libucrt:output.obj
 0001:000436b0       ??$extract_argument_from_va_list@E_J@?$positional_parameter_base@DV?$string_output_adapter@D@__crt_stdio_output@@@__crt_stdio_output@@IEAA_NAEA_J@Z 00000001800446b0 f i libucrt:output.obj
 0001:0004376c       ??$extract_argument_from_va_list@E_J@?$positional_parameter_base@_WV?$stream_output_adapter@_W@__crt_stdio_output@@@__crt_stdio_output@@IEAA_NAEA_J@Z 000000018004476c f i libucrt:output.obj
 0001:0004382c       ??$extract_argument_from_va_list@E_J@?$positional_parameter_base@_WV?$string_output_adapter@_W@__crt_stdio_output@@@__crt_stdio_output@@IEAA_NAEA_J@Z 000000018004482c f i libucrt:output.obj
 0001:000438ec       ??$extract_argument_from_va_list@E_J@?$standard_base@DV?$stream_output_adapter@D@__crt_stdio_output@@@__crt_stdio_output@@IEAA_NAEA_J@Z 00000001800448ec f i libucrt:output.obj
 0001:00043900       ??$extract_argument_from_va_list@E_J@?$standard_base@DV?$string_output_adapter@D@__crt_stdio_output@@@__crt_stdio_output@@IEAA_NAEA_J@Z 0000000180044900 f i libucrt:output.obj
 0001:00043914       ??$extract_argument_from_va_list@E_J@?$standard_base@_WV?$stream_output_adapter@_W@__crt_stdio_output@@@__crt_stdio_output@@IEAA_NAEA_J@Z 0000000180044914 f i libucrt:output.obj
 0001:00043928       ??$extract_argument_from_va_list@E_J@?$standard_base@_WV?$string_output_adapter@_W@__crt_stdio_output@@@__crt_stdio_output@@IEAA_NAEA_J@Z 0000000180044928 f i libucrt:output.obj
 0001:0004393c       ??$extract_argument_from_va_list@F_J@?$positional_parameter_base@DV?$stream_output_adapter@D@__crt_stdio_output@@@__crt_stdio_output@@IEAA_NAEA_J@Z 000000018004493c f i libucrt:output.obj
 0001:000439f8       ??$extract_argument_from_va_list@F_J@?$positional_parameter_base@DV?$string_output_adapter@D@__crt_stdio_output@@@__crt_stdio_output@@IEAA_NAEA_J@Z 00000001800449f8 f i libucrt:output.obj
 0001:00043ab4       ??$extract_argument_from_va_list@F_J@?$positional_parameter_base@_WV?$stream_output_adapter@_W@__crt_stdio_output@@@__crt_stdio_output@@IEAA_NAEA_J@Z 0000000180044ab4 f i libucrt:output.obj
 0001:00043b74       ??$extract_argument_from_va_list@F_J@?$positional_parameter_base@_WV?$string_output_adapter@_W@__crt_stdio_output@@@__crt_stdio_output@@IEAA_NAEA_J@Z 0000000180044b74 f i libucrt:output.obj
 0001:00043c34       ??$extract_argument_from_va_list@F_J@?$standard_base@DV?$stream_output_adapter@D@__crt_stdio_output@@@__crt_stdio_output@@IEAA_NAEA_J@Z 0000000180044c34 f i libucrt:output.obj
 0001:00043c48       ??$extract_argument_from_va_list@F_J@?$standard_base@DV?$string_output_adapter@D@__crt_stdio_output@@@__crt_stdio_output@@IEAA_NAEA_J@Z 0000000180044c48 f i libucrt:output.obj
 0001:00043c5c       ??$extract_argument_from_va_list@F_J@?$standard_base@_WV?$stream_output_adapter@_W@__crt_stdio_output@@@__crt_stdio_output@@IEAA_NAEA_J@Z 0000000180044c5c f i libucrt:output.obj
 0001:00043c70       ??$extract_argument_from_va_list@F_J@?$standard_base@_WV?$string_output_adapter@_W@__crt_stdio_output@@@__crt_stdio_output@@IEAA_NAEA_J@Z 0000000180044c70 f i libucrt:output.obj
 0001:00043c84       ??$extract_argument_from_va_list@GD@?$positional_parameter_base@DV?$stream_output_adapter@D@__crt_stdio_output@@@__crt_stdio_output@@IEAA_NAEAD@Z 0000000180044c84 f i libucrt:output.obj
 0001:00043d3c       ??$extract_argument_from_va_list@GD@?$positional_parameter_base@DV?$string_output_adapter@D@__crt_stdio_output@@@__crt_stdio_output@@IEAA_NAEAD@Z 0000000180044d3c f i libucrt:output.obj
 0001:00043df4       ??$extract_argument_from_va_list@GD@?$standard_base@DV?$stream_output_adapter@D@__crt_stdio_output@@@__crt_stdio_output@@IEAA_NAEAD@Z 0000000180044df4 f i libucrt:output.obj
 0001:00043e08       ??$extract_argument_from_va_list@GD@?$standard_base@DV?$string_output_adapter@D@__crt_stdio_output@@@__crt_stdio_output@@IEAA_NAEAD@Z 0000000180044e08 f i libucrt:output.obj
 0001:00043e1c       ??$extract_argument_from_va_list@G_J@?$positional_parameter_base@DV?$stream_output_adapter@D@__crt_stdio_output@@@__crt_stdio_output@@IEAA_NAEA_J@Z 0000000180044e1c f i libucrt:output.obj
 0001:00043ed8       ??$extract_argument_from_va_list@G_J@?$positional_parameter_base@DV?$string_output_adapter@D@__crt_stdio_output@@@__crt_stdio_output@@IEAA_NAEA_J@Z 0000000180044ed8 f i libucrt:output.obj
 0001:00043f94       ??$extract_argument_from_va_list@G_J@?$positional_parameter_base@_WV?$stream_output_adapter@_W@__crt_stdio_output@@@__crt_stdio_output@@IEAA_NAEA_J@Z 0000000180044f94 f i libucrt:output.obj
 0001:00044054       ??$extract_argument_from_va_list@G_J@?$positional_parameter_base@_WV?$string_output_adapter@_W@__crt_stdio_output@@@__crt_stdio_output@@IEAA_NAEA_J@Z 0000000180045054 f i libucrt:output.obj
 0001:00044114       ??$extract_argument_from_va_list@G_J@?$standard_base@DV?$stream_output_adapter@D@__crt_stdio_output@@@__crt_stdio_output@@IEAA_NAEA_J@Z 0000000180045114 f i libucrt:output.obj
 0001:00044128       ??$extract_argument_from_va_list@G_J@?$standard_base@DV?$string_output_adapter@D@__crt_stdio_output@@@__crt_stdio_output@@IEAA_NAEA_J@Z 0000000180045128 f i libucrt:output.obj
 0001:0004413c       ??$extract_argument_from_va_list@G_J@?$standard_base@_WV?$stream_output_adapter@_W@__crt_stdio_output@@@__crt_stdio_output@@IEAA_NAEA_J@Z 000000018004513c f i libucrt:output.obj
 0001:00044150       ??$extract_argument_from_va_list@G_J@?$standard_base@_WV?$string_output_adapter@_W@__crt_stdio_output@@@__crt_stdio_output@@IEAA_NAEA_J@Z 0000000180045150 f i libucrt:output.obj
 0001:00044164       ??$extract_argument_from_va_list@H_J@?$positional_parameter_base@DV?$stream_output_adapter@D@__crt_stdio_output@@@__crt_stdio_output@@IEAA_NAEA_J@Z 0000000180045164 f i libucrt:output.obj
 0001:00044220       ??$extract_argument_from_va_list@H_J@?$positional_parameter_base@DV?$string_output_adapter@D@__crt_stdio_output@@@__crt_stdio_output@@IEAA_NAEA_J@Z 0000000180045220 f i libucrt:output.obj
 0001:000442dc       ??$extract_argument_from_va_list@H_J@?$positional_parameter_base@_WV?$stream_output_adapter@_W@__crt_stdio_output@@@__crt_stdio_output@@IEAA_NAEA_J@Z 00000001800452dc f i libucrt:output.obj
 0001:00044398       ??$extract_argument_from_va_list@H_J@?$positional_parameter_base@_WV?$string_output_adapter@_W@__crt_stdio_output@@@__crt_stdio_output@@IEAA_NAEA_J@Z 0000000180045398 f i libucrt:output.obj
 0001:00044454       ??$extract_argument_from_va_list@H_J@?$standard_base@DV?$stream_output_adapter@D@__crt_stdio_output@@@__crt_stdio_output@@IEAA_NAEA_J@Z 0000000180045454 f i libucrt:output.obj
 0001:00044468       ??$extract_argument_from_va_list@H_J@?$standard_base@DV?$string_output_adapter@D@__crt_stdio_output@@@__crt_stdio_output@@IEAA_NAEA_J@Z 0000000180045468 f i libucrt:output.obj
 0001:0004447c       ??$extract_argument_from_va_list@H_J@?$standard_base@_WV?$stream_output_adapter@_W@__crt_stdio_output@@@__crt_stdio_output@@IEAA_NAEA_J@Z 000000018004547c f i libucrt:output.obj
 0001:00044490       ??$extract_argument_from_va_list@H_J@?$standard_base@_WV?$string_output_adapter@_W@__crt_stdio_output@@@__crt_stdio_output@@IEAA_NAEA_J@Z 0000000180045490 f i libucrt:output.obj
 0001:000444a4       ??$extract_argument_from_va_list@I_J@?$positional_parameter_base@DV?$stream_output_adapter@D@__crt_stdio_output@@@__crt_stdio_output@@IEAA_NAEA_J@Z 00000001800454a4 f i libucrt:output.obj
 0001:00044560       ??$extract_argument_from_va_list@I_J@?$positional_parameter_base@DV?$string_output_adapter@D@__crt_stdio_output@@@__crt_stdio_output@@IEAA_NAEA_J@Z 0000000180045560 f i libucrt:output.obj
 0001:0004461c       ??$extract_argument_from_va_list@I_J@?$positional_parameter_base@_WV?$stream_output_adapter@_W@__crt_stdio_output@@@__crt_stdio_output@@IEAA_NAEA_J@Z 000000018004561c f i libucrt:output.obj
 0001:000446d8       ??$extract_argument_from_va_list@I_J@?$positional_parameter_base@_WV?$string_output_adapter@_W@__crt_stdio_output@@@__crt_stdio_output@@IEAA_NAEA_J@Z 00000001800456d8 f i libucrt:output.obj
 0001:00044794       ??$extract_argument_from_va_list@I_J@?$standard_base@DV?$stream_output_adapter@D@__crt_stdio_output@@@__crt_stdio_output@@IEAA_NAEA_J@Z 0000000180045794 f i libucrt:output.obj
 0001:000447a8       ??$extract_argument_from_va_list@I_J@?$standard_base@DV?$string_output_adapter@D@__crt_stdio_output@@@__crt_stdio_output@@IEAA_NAEA_J@Z 00000001800457a8 f i libucrt:output.obj
 0001:000447bc       ??$extract_argument_from_va_list@I_J@?$standard_base@_WV?$stream_output_adapter@_W@__crt_stdio_output@@@__crt_stdio_output@@IEAA_NAEA_J@Z 00000001800457bc f i libucrt:output.obj
 0001:000447d0       ??$extract_argument_from_va_list@I_J@?$standard_base@_WV?$string_output_adapter@_W@__crt_stdio_output@@@__crt_stdio_output@@IEAA_NAEA_J@Z 00000001800457d0 f i libucrt:output.obj
 0001:000447e4       ??$extract_argument_from_va_list@PEADPEAD@?$positional_parameter_base@DV?$stream_output_adapter@D@__crt_stdio_output@@@__crt_stdio_output@@IEAA_NAEAPEAD@Z 00000001800457e4 f i libucrt:output.obj
 0001:000448a0       ??$extract_argument_from_va_list@PEADPEAD@?$positional_parameter_base@DV?$string_output_adapter@D@__crt_stdio_output@@@__crt_stdio_output@@IEAA_NAEAPEAD@Z 00000001800458a0 f i libucrt:output.obj
 0001:0004495c       ??$extract_argument_from_va_list@PEADPEAD@?$positional_parameter_base@_WV?$stream_output_adapter@_W@__crt_stdio_output@@@__crt_stdio_output@@IEAA_NAEAPEAD@Z 000000018004595c f i libucrt:output.obj
 0001:00044a18       ??$extract_argument_from_va_list@PEADPEAD@?$positional_parameter_base@_WV?$string_output_adapter@_W@__crt_stdio_output@@@__crt_stdio_output@@IEAA_NAEAPEAD@Z 0000000180045a18 f i libucrt:output.obj
 0001:00044ad4       ??$extract_argument_from_va_list@PEADPEAD@?$standard_base@DV?$stream_output_adapter@D@__crt_stdio_output@@@__crt_stdio_output@@IEAA_NAEAPEAD@Z 0000000180045ad4 f i libucrt:output.obj
 0001:00044ae8       ??$extract_argument_from_va_list@PEADPEAD@?$standard_base@DV?$string_output_adapter@D@__crt_stdio_output@@@__crt_stdio_output@@IEAA_NAEAPEAD@Z 0000000180045ae8 f i libucrt:output.obj
 0001:00044afc       ??$extract_argument_from_va_list@PEADPEAD@?$standard_base@_WV?$stream_output_adapter@_W@__crt_stdio_output@@@__crt_stdio_output@@IEAA_NAEAPEAD@Z 0000000180045afc f i libucrt:output.obj
 0001:00044b10       ??$extract_argument_from_va_list@PEADPEAD@?$standard_base@_WV?$string_output_adapter@_W@__crt_stdio_output@@@__crt_stdio_output@@IEAA_NAEAPEAD@Z 0000000180045b10 f i libucrt:output.obj
 0001:00044b24       ??$extract_argument_from_va_list@PEAUansi_string@?1??type_case_Z@?$output_processor@DV?$stream_output_adapter@D@__crt_stdio_output@@V?$format_validation_base@DV?$stream_output_adapter@D@__crt_stdio_output@@@2@@__crt_stdio_output@@AEAA_NXZ@PEAU1?1??234@AEAA_NXZ@@?$standard_base@DV?$stream_output_adapter@D@__crt_stdio_output@@@__crt_stdio_output@@IEAA_NAEAPEAUansi_string@?1??type_case_Z@?$output_processor@DV?$stream_output_adapter@D@__crt_stdio_output@@V?$format_validation_base@DV?$stream_output_adapter@D@__crt_stdio_output@@@2@@1@AEAA_NXZ@@Z 0000000180045b24 f i libucrt:output.obj
 0001:00044b38       ??$extract_argument_from_va_list@PEAUansi_string@?1??type_case_Z@?$output_processor@DV?$stream_output_adapter@D@__crt_stdio_output@@V?$positional_parameter_base@DV?$stream_output_adapter@D@__crt_stdio_output@@@2@@__crt_stdio_output@@AEAA_NXZ@PEAU1?1??234@AEAA_NXZ@@?$positional_parameter_base@DV?$stream_output_adapter@D@__crt_stdio_output@@@__crt_stdio_output@@IEAA_NAEAPEAUansi_string@?1??type_case_Z@?$output_processor@DV?$stream_output_adapter@D@__crt_stdio_output@@V?$positional_parameter_base@DV?$stream_output_adapter@D@__crt_stdio_output@@@2@@1@AEAA_NXZ@@Z 0000000180045b38 f i libucrt:output.obj
 0001:00044bf4       ??$extract_argument_from_va_list@PEAUansi_string@?1??type_case_Z@?$output_processor@DV?$stream_output_adapter@D@__crt_stdio_output@@V?$positional_parameter_base@DV?$stream_output_adapter@D@__crt_stdio_output@@@2@@__crt_stdio_output@@AEAA_NXZ@PEAU1?1??234@AEAA_NXZ@@?$standard_base@DV?$stream_output_adapter@D@__crt_stdio_output@@@__crt_stdio_output@@IEAA_NAEAPEAUansi_string@?1??type_case_Z@?$output_processor@DV?$stream_output_adapter@D@__crt_stdio_output@@V?$positional_parameter_base@DV?$stream_output_adapter@D@__crt_stdio_output@@@2@@1@AEAA_NXZ@@Z 0000000180045bf4 f i libucrt:output.obj
 0001:00044c08       ??$extract_argument_from_va_list@PEAUansi_string@?1??type_case_Z@?$output_processor@DV?$stream_output_adapter@D@__crt_stdio_output@@V?$standard_base@DV?$stream_output_adapter@D@__crt_stdio_output@@@2@@__crt_stdio_output@@AEAA_NXZ@PEAU1?1??234@AEAA_NXZ@@?$standard_base@DV?$stream_output_adapter@D@__crt_stdio_output@@@__crt_stdio_output@@IEAA_NAEAPEAUansi_string@?1??type_case_Z@?$output_processor@DV?$stream_output_adapter@D@__crt_stdio_output@@V?$standard_base@DV?$stream_output_adapter@D@__crt_stdio_output@@@2@@1@AEAA_NXZ@@Z 0000000180045c08 f i libucrt:output.obj
 0001:00044c1c       ??$extract_argument_from_va_list@PEAUansi_string@?1??type_case_Z@?$output_processor@DV?$string_output_adapter@D@__crt_stdio_output@@V?$format_validation_base@DV?$string_output_adapter@D@__crt_stdio_output@@@2@@__crt_stdio_output@@AEAA_NXZ@PEAU1?1??234@AEAA_NXZ@@?$standard_base@DV?$string_output_adapter@D@__crt_stdio_output@@@__crt_stdio_output@@IEAA_NAEAPEAUansi_string@?1??type_case_Z@?$output_processor@DV?$string_output_adapter@D@__crt_stdio_output@@V?$format_validation_base@DV?$string_output_adapter@D@__crt_stdio_output@@@2@@1@AEAA_NXZ@@Z 0000000180045c1c f i libucrt:output.obj
 0001:00044c30       ??$extract_argument_from_va_list@PEAUansi_string@?1??type_case_Z@?$output_processor@DV?$string_output_adapter@D@__crt_stdio_output@@V?$positional_parameter_base@DV?$string_output_adapter@D@__crt_stdio_output@@@2@@__crt_stdio_output@@AEAA_NXZ@PEAU1?1??234@AEAA_NXZ@@?$positional_parameter_base@DV?$string_output_adapter@D@__crt_stdio_output@@@__crt_stdio_output@@IEAA_NAEAPEAUansi_string@?1??type_case_Z@?$output_processor@DV?$string_output_adapter@D@__crt_stdio_output@@V?$positional_parameter_base@DV?$string_output_adapter@D@__crt_stdio_output@@@2@@1@AEAA_NXZ@@Z 0000000180045c30 f i libucrt:output.obj
 0001:00044cec       ??$extract_argument_from_va_list@PEAUansi_string@?1??type_case_Z@?$output_processor@DV?$string_output_adapter@D@__crt_stdio_output@@V?$positional_parameter_base@DV?$string_output_adapter@D@__crt_stdio_output@@@2@@__crt_stdio_output@@AEAA_NXZ@PEAU1?1??234@AEAA_NXZ@@?$standard_base@DV?$string_output_adapter@D@__crt_stdio_output@@@__crt_stdio_output@@IEAA_NAEAPEAUansi_string@?1??type_case_Z@?$output_processor@DV?$string_output_adapter@D@__crt_stdio_output@@V?$positional_parameter_base@DV?$string_output_adapter@D@__crt_stdio_output@@@2@@1@AEAA_NXZ@@Z 0000000180045cec f i libucrt:output.obj
 0001:00044d00       ??$extract_argument_from_va_list@PEAUansi_string@?1??type_case_Z@?$output_processor@DV?$string_output_adapter@D@__crt_stdio_output@@V?$standard_base@DV?$string_output_adapter@D@__crt_stdio_output@@@2@@__crt_stdio_output@@AEAA_NXZ@PEAU1?1??234@AEAA_NXZ@@?$standard_base@DV?$string_output_adapter@D@__crt_stdio_output@@@__crt_stdio_output@@IEAA_NAEAPEAUansi_string@?1??type_case_Z@?$output_processor@DV?$string_output_adapter@D@__crt_stdio_output@@V?$standard_base@DV?$string_output_adapter@D@__crt_stdio_output@@@2@@1@AEAA_NXZ@@Z 0000000180045d00 f i libucrt:output.obj
 0001:00044d14       ??$extract_argument_from_va_list@PEAUansi_string@?1??type_case_Z@?$output_processor@_WV?$stream_output_adapter@_W@__crt_stdio_output@@V?$format_validation_base@_WV?$stream_output_adapter@_W@__crt_stdio_output@@@2@@__crt_stdio_output@@AEAA_NXZ@PEAU1?1??234@AEAA_NXZ@@?$standard_base@_WV?$stream_output_adapter@_W@__crt_stdio_output@@@__crt_stdio_output@@IEAA_NAEAPEAUansi_string@?1??type_case_Z@?$output_processor@_WV?$stream_output_adapter@_W@__crt_stdio_output@@V?$format_validation_base@_WV?$stream_output_adapter@_W@__crt_stdio_output@@@2@@1@AEAA_NXZ@@Z 0000000180045d14 f i libucrt:output.obj
 0001:00044d28       ??$extract_argument_from_va_list@PEAUansi_string@?1??type_case_Z@?$output_processor@_WV?$stream_output_adapter@_W@__crt_stdio_output@@V?$positional_parameter_base@_WV?$stream_output_adapter@_W@__crt_stdio_output@@@2@@__crt_stdio_output@@AEAA_NXZ@PEAU1?1??234@AEAA_NXZ@@?$positional_parameter_base@_WV?$stream_output_adapter@_W@__crt_stdio_output@@@__crt_stdio_output@@IEAA_NAEAPEAUansi_string@?1??type_case_Z@?$output_processor@_WV?$stream_output_adapter@_W@__crt_stdio_output@@V?$positional_parameter_base@_WV?$stream_output_adapter@_W@__crt_stdio_output@@@2@@1@AEAA_NXZ@@Z 0000000180045d28 f i libucrt:output.obj
 0001:00044de4       ??$extract_argument_from_va_list@PEAUansi_string@?1??type_case_Z@?$output_processor@_WV?$stream_output_adapter@_W@__crt_stdio_output@@V?$positional_parameter_base@_WV?$stream_output_adapter@_W@__crt_stdio_output@@@2@@__crt_stdio_output@@AEAA_NXZ@PEAU1?1??234@AEAA_NXZ@@?$standard_base@_WV?$stream_output_adapter@_W@__crt_stdio_output@@@__crt_stdio_output@@IEAA_NAEAPEAUansi_string@?1??type_case_Z@?$output_processor@_WV?$stream_output_adapter@_W@__crt_stdio_output@@V?$positional_parameter_base@_WV?$stream_output_adapter@_W@__crt_stdio_output@@@2@@1@AEAA_NXZ@@Z 0000000180045de4 f i libucrt:output.obj
 0001:00044df8       ??$extract_argument_from_va_list@PEAUansi_string@?1??type_case_Z@?$output_processor@_WV?$stream_output_adapter@_W@__crt_stdio_output@@V?$standard_base@_WV?$stream_output_adapter@_W@__crt_stdio_output@@@2@@__crt_stdio_output@@AEAA_NXZ@PEAU1?1??234@AEAA_NXZ@@?$standard_base@_WV?$stream_output_adapter@_W@__crt_stdio_output@@@__crt_stdio_output@@IEAA_NAEAPEAUansi_string@?1??type_case_Z@?$output_processor@_WV?$stream_output_adapter@_W@__crt_stdio_output@@V?$standard_base@_WV?$stream_output_adapter@_W@__crt_stdio_output@@@2@@1@AEAA_NXZ@@Z 0000000180045df8 f i libucrt:output.obj
 0001:00044e0c       ??$extract_argument_from_va_list@PEAUansi_string@?1??type_case_Z@?$output_processor@_WV?$string_output_adapter@_W@__crt_stdio_output@@V?$format_validation_base@_WV?$string_output_adapter@_W@__crt_stdio_output@@@2@@__crt_stdio_output@@AEAA_NXZ@PEAU1?1??234@AEAA_NXZ@@?$standard_base@_WV?$string_output_adapter@_W@__crt_stdio_output@@@__crt_stdio_output@@IEAA_NAEAPEAUansi_string@?1??type_case_Z@?$output_processor@_WV?$string_output_adapter@_W@__crt_stdio_output@@V?$format_validation_base@_WV?$string_output_adapter@_W@__crt_stdio_output@@@2@@1@AEAA_NXZ@@Z 0000000180045e0c f i libucrt:output.obj
 0001:00044e20       ??$extract_argument_from_va_list@PEAUansi_string@?1??type_case_Z@?$output_processor@_WV?$string_output_adapter@_W@__crt_stdio_output@@V?$positional_parameter_base@_WV?$string_output_adapter@_W@__crt_stdio_output@@@2@@__crt_stdio_output@@AEAA_NXZ@PEAU1?1??234@AEAA_NXZ@@?$positional_parameter_base@_WV?$string_output_adapter@_W@__crt_stdio_output@@@__crt_stdio_output@@IEAA_NAEAPEAUansi_string@?1??type_case_Z@?$output_processor@_WV?$string_output_adapter@_W@__crt_stdio_output@@V?$positional_parameter_base@_WV?$string_output_adapter@_W@__crt_stdio_output@@@2@@1@AEAA_NXZ@@Z 0000000180045e20 f i libucrt:output.obj
 0001:00044edc       ??$extract_argument_from_va_list@PEAUansi_string@?1??type_case_Z@?$output_processor@_WV?$string_output_adapter@_W@__crt_stdio_output@@V?$positional_parameter_base@_WV?$string_output_adapter@_W@__crt_stdio_output@@@2@@__crt_stdio_output@@AEAA_NXZ@PEAU1?1??234@AEAA_NXZ@@?$standard_base@_WV?$string_output_adapter@_W@__crt_stdio_output@@@__crt_stdio_output@@IEAA_NAEAPEAUansi_string@?1??type_case_Z@?$output_processor@_WV?$string_output_adapter@_W@__crt_stdio_output@@V?$positional_parameter_base@_WV?$string_output_adapter@_W@__crt_stdio_output@@@2@@1@AEAA_NXZ@@Z 0000000180045edc f i libucrt:output.obj
 0001:00044ef0       ??$extract_argument_from_va_list@PEAUansi_string@?1??type_case_Z@?$output_processor@_WV?$string_output_adapter@_W@__crt_stdio_output@@V?$standard_base@_WV?$string_output_adapter@_W@__crt_stdio_output@@@2@@__crt_stdio_output@@AEAA_NXZ@PEAU1?1??234@AEAA_NXZ@@?$standard_base@_WV?$string_output_adapter@_W@__crt_stdio_output@@@__crt_stdio_output@@IEAA_NAEAPEAUansi_string@?1??type_case_Z@?$output_processor@_WV?$string_output_adapter@_W@__crt_stdio_output@@V?$standard_base@_WV?$string_output_adapter@_W@__crt_stdio_output@@@2@@1@AEAA_NXZ@@Z 0000000180045ef0 f i libucrt:output.obj
 0001:00044f04       ??$extract_argument_from_va_list@PEAXPEAX@?$positional_parameter_base@DV?$stream_output_adapter@D@__crt_stdio_output@@@__crt_stdio_output@@IEAA_NAEAPEAX@Z 0000000180045f04 f i libucrt:output.obj
 0001:00044fc0       ??$extract_argument_from_va_list@PEAXPEAX@?$positional_parameter_base@DV?$string_output_adapter@D@__crt_stdio_output@@@__crt_stdio_output@@IEAA_NAEAPEAX@Z 0000000180045fc0 f i libucrt:output.obj
 0001:0004507c       ??$extract_argument_from_va_list@PEAXPEAX@?$positional_parameter_base@_WV?$stream_output_adapter@_W@__crt_stdio_output@@@__crt_stdio_output@@IEAA_NAEAPEAX@Z 000000018004607c f i libucrt:output.obj
 0001:00045138       ??$extract_argument_from_va_list@PEAXPEAX@?$positional_parameter_base@_WV?$string_output_adapter@_W@__crt_stdio_output@@@__crt_stdio_output@@IEAA_NAEAPEAX@Z 0000000180046138 f i libucrt:output.obj
 0001:000451f4       ??$extract_argument_from_va_list@PEAXPEAX@?$standard_base@DV?$stream_output_adapter@D@__crt_stdio_output@@@__crt_stdio_output@@IEAA_NAEAPEAX@Z 00000001800461f4 f i libucrt:output.obj
 0001:00045208       ??$extract_argument_from_va_list@PEAXPEAX@?$standard_base@DV?$string_output_adapter@D@__crt_stdio_output@@@__crt_stdio_output@@IEAA_NAEAPEAX@Z 0000000180046208 f i libucrt:output.obj
 0001:0004521c       ??$extract_argument_from_va_list@PEAXPEAX@?$standard_base@_WV?$stream_output_adapter@_W@__crt_stdio_output@@@__crt_stdio_output@@IEAA_NAEAPEAX@Z 000000018004621c f i libucrt:output.obj
 0001:00045230       ??$extract_argument_from_va_list@PEAXPEAX@?$standard_base@_WV?$string_output_adapter@_W@__crt_stdio_output@@@__crt_stdio_output@@IEAA_NAEAPEAX@Z 0000000180046230 f i libucrt:output.obj
 0001:00045244       ??$extract_argument_from_va_list@U_CRT_DOUBLE@@U1@@?$positional_parameter_base@DV?$stream_output_adapter@D@__crt_stdio_output@@@__crt_stdio_output@@IEAA_NAEAU_CRT_DOUBLE@@@Z 0000000180046244 f i libucrt:output.obj
 0001:00045300       ??$extract_argument_from_va_list@U_CRT_DOUBLE@@U1@@?$positional_parameter_base@DV?$string_output_adapter@D@__crt_stdio_output@@@__crt_stdio_output@@IEAA_NAEAU_CRT_DOUBLE@@@Z 0000000180046300 f i libucrt:output.obj
 0001:000453bc       ??$extract_argument_from_va_list@U_CRT_DOUBLE@@U1@@?$positional_parameter_base@_WV?$stream_output_adapter@_W@__crt_stdio_output@@@__crt_stdio_output@@IEAA_NAEAU_CRT_DOUBLE@@@Z 00000001800463bc f i libucrt:output.obj
 0001:00045478       ??$extract_argument_from_va_list@U_CRT_DOUBLE@@U1@@?$positional_parameter_base@_WV?$string_output_adapter@_W@__crt_stdio_output@@@__crt_stdio_output@@IEAA_NAEAU_CRT_DOUBLE@@@Z 0000000180046478 f i libucrt:output.obj
 0001:00045534       ??$extract_argument_from_va_list@U_CRT_DOUBLE@@U1@@?$standard_base@DV?$stream_output_adapter@D@__crt_stdio_output@@@__crt_stdio_output@@IEAA_NAEAU_CRT_DOUBLE@@@Z 0000000180046534 f i libucrt:output.obj
 0001:0004554c       ??$extract_argument_from_va_list@U_CRT_DOUBLE@@U1@@?$standard_base@DV?$string_output_adapter@D@__crt_stdio_output@@@__crt_stdio_output@@IEAA_NAEAU_CRT_DOUBLE@@@Z 000000018004654c f i libucrt:output.obj
 0001:00045564       ??$extract_argument_from_va_list@U_CRT_DOUBLE@@U1@@?$standard_base@_WV?$stream_output_adapter@_W@__crt_stdio_output@@@__crt_stdio_output@@IEAA_NAEAU_CRT_DOUBLE@@@Z 0000000180046564 f i libucrt:output.obj
 0001:0004557c       ??$extract_argument_from_va_list@U_CRT_DOUBLE@@U1@@?$standard_base@_WV?$string_output_adapter@_W@__crt_stdio_output@@@__crt_stdio_output@@IEAA_NAEAU_CRT_DOUBLE@@@Z 000000018004657c f i libucrt:output.obj
 0001:00045594       ??$extract_argument_from_va_list@_J_J@?$positional_parameter_base@DV?$stream_output_adapter@D@__crt_stdio_output@@@__crt_stdio_output@@IEAA_NAEA_J@Z 0000000180046594 f i libucrt:output.obj
 0001:00045650       ??$extract_argument_from_va_list@_J_J@?$positional_parameter_base@DV?$string_output_adapter@D@__crt_stdio_output@@@__crt_stdio_output@@IEAA_NAEA_J@Z 0000000180046650 f i libucrt:output.obj
 0001:0004570c       ??$extract_argument_from_va_list@_J_J@?$positional_parameter_base@_WV?$stream_output_adapter@_W@__crt_stdio_output@@@__crt_stdio_output@@IEAA_NAEA_J@Z 000000018004670c f i libucrt:output.obj
 0001:000457c8       ??$extract_argument_from_va_list@_J_J@?$positional_parameter_base@_WV?$string_output_adapter@_W@__crt_stdio_output@@@__crt_stdio_output@@IEAA_NAEA_J@Z 00000001800467c8 f i libucrt:output.obj
 0001:00045884       ??$extract_argument_from_va_list@_J_J@?$standard_base@DV?$stream_output_adapter@D@__crt_stdio_output@@@__crt_stdio_output@@IEAA_NAEA_J@Z 0000000180046884 f i libucrt:output.obj
 0001:00045898       ??$extract_argument_from_va_list@_J_J@?$standard_base@DV?$string_output_adapter@D@__crt_stdio_output@@@__crt_stdio_output@@IEAA_NAEA_J@Z 0000000180046898 f i libucrt:output.obj
 0001:000458ac       ??$extract_argument_from_va_list@_J_J@?$standard_base@_WV?$stream_output_adapter@_W@__crt_stdio_output@@@__crt_stdio_output@@IEAA_NAEA_J@Z 00000001800468ac f i libucrt:output.obj
 0001:000458c0       ??$extract_argument_from_va_list@_J_J@?$standard_base@_WV?$string_output_adapter@_W@__crt_stdio_output@@@__crt_stdio_output@@IEAA_NAEA_J@Z 00000001800468c0 f i libucrt:output.obj
 0001:000458d4       ??$extract_argument_from_va_list@_K_J@?$positional_parameter_base@DV?$stream_output_adapter@D@__crt_stdio_output@@@__crt_stdio_output@@IEAA_NAEA_J@Z 00000001800468d4 f i libucrt:output.obj
 0001:00045990       ??$extract_argument_from_va_list@_K_J@?$positional_parameter_base@DV?$string_output_adapter@D@__crt_stdio_output@@@__crt_stdio_output@@IEAA_NAEA_J@Z 0000000180046990 f i libucrt:output.obj
 0001:00045a4c       ??$extract_argument_from_va_list@_K_J@?$positional_parameter_base@_WV?$stream_output_adapter@_W@__crt_stdio_output@@@__crt_stdio_output@@IEAA_NAEA_J@Z 0000000180046a4c f i libucrt:output.obj
 0001:00045b08       ??$extract_argument_from_va_list@_K_J@?$positional_parameter_base@_WV?$string_output_adapter@_W@__crt_stdio_output@@@__crt_stdio_output@@IEAA_NAEA_J@Z 0000000180046b08 f i libucrt:output.obj
 0001:00045bc4       ??$extract_argument_from_va_list@_K_J@?$standard_base@DV?$stream_output_adapter@D@__crt_stdio_output@@@__crt_stdio_output@@IEAA_NAEA_J@Z 0000000180046bc4 f i libucrt:output.obj
 0001:00045bd8       ??$extract_argument_from_va_list@_K_J@?$standard_base@DV?$string_output_adapter@D@__crt_stdio_output@@@__crt_stdio_output@@IEAA_NAEA_J@Z 0000000180046bd8 f i libucrt:output.obj
 0001:00045bec       ??$extract_argument_from_va_list@_K_J@?$standard_base@_WV?$stream_output_adapter@_W@__crt_stdio_output@@@__crt_stdio_output@@IEAA_NAEA_J@Z 0000000180046bec f i libucrt:output.obj
 0001:00045c00       ??$extract_argument_from_va_list@_K_J@?$standard_base@_WV?$string_output_adapter@_W@__crt_stdio_output@@@__crt_stdio_output@@IEAA_NAEA_J@Z 0000000180046c00 f i libucrt:output.obj
 0001:00045c14       ??$extract_argument_from_va_list@_W_W@?$positional_parameter_base@DV?$stream_output_adapter@D@__crt_stdio_output@@@__crt_stdio_output@@IEAA_NAEA_W@Z 0000000180046c14 f i libucrt:output.obj
 0001:00045cd0       ??$extract_argument_from_va_list@_W_W@?$positional_parameter_base@DV?$string_output_adapter@D@__crt_stdio_output@@@__crt_stdio_output@@IEAA_NAEA_W@Z 0000000180046cd0 f i libucrt:output.obj
 0001:00045d8c       ??$extract_argument_from_va_list@_W_W@?$positional_parameter_base@_WV?$stream_output_adapter@_W@__crt_stdio_output@@@__crt_stdio_output@@IEAA_NAEA_W@Z 0000000180046d8c f i libucrt:output.obj
 0001:00045e4c       ??$extract_argument_from_va_list@_W_W@?$positional_parameter_base@_WV?$string_output_adapter@_W@__crt_stdio_output@@@__crt_stdio_output@@IEAA_NAEA_W@Z 0000000180046e4c f i libucrt:output.obj
 0001:00045f0c       ??$extract_argument_from_va_list@_W_W@?$standard_base@DV?$stream_output_adapter@D@__crt_stdio_output@@@__crt_stdio_output@@IEAA_NAEA_W@Z 0000000180046f0c f i libucrt:output.obj
 0001:00045f20       ??$extract_argument_from_va_list@_W_W@?$standard_base@DV?$string_output_adapter@D@__crt_stdio_output@@@__crt_stdio_output@@IEAA_NAEA_W@Z 0000000180046f20 f i libucrt:output.obj
 0001:00045f34       ??$extract_argument_from_va_list@_W_W@?$standard_base@_WV?$stream_output_adapter@_W@__crt_stdio_output@@@__crt_stdio_output@@IEAA_NAEA_W@Z 0000000180046f34 f i libucrt:output.obj
 0001:00045f48       ??$extract_argument_from_va_list@_W_W@?$standard_base@_WV?$string_output_adapter@_W@__crt_stdio_output@@@__crt_stdio_output@@IEAA_NAEA_W@Z 0000000180046f48 f i libucrt:output.obj
 0001:00045f5c       ??$get_parameter_type@D@?$positional_parameter_base@DV?$stream_output_adapter@D@__crt_stdio_output@@@__crt_stdio_output@@CA?AW4parameter_type@01@PEAD@Z 0000000180046f5c f i libucrt:output.obj
 0001:00045f64       ??$get_parameter_type@D@?$positional_parameter_base@DV?$string_output_adapter@D@__crt_stdio_output@@@__crt_stdio_output@@CA?AW4parameter_type@01@PEAD@Z 0000000180046f64 f i libucrt:output.obj
 0001:00045f6c       ??$get_parameter_type@D@?$positional_parameter_base@_WV?$stream_output_adapter@_W@__crt_stdio_output@@@__crt_stdio_output@@CA?AW4parameter_type@01@PEAD@Z 0000000180046f6c f i libucrt:output.obj
 0001:00045f74       ??$get_parameter_type@D@?$positional_parameter_base@_WV?$string_output_adapter@_W@__crt_stdio_output@@@__crt_stdio_output@@CA?AW4parameter_type@01@PEAD@Z 0000000180046f74 f i libucrt:output.obj
 0001:00045f7c       ??$get_parameter_type@Uansi_string@?1??type_case_Z@?$output_processor@DV?$stream_output_adapter@D@__crt_stdio_output@@V?$positional_parameter_base@DV?$stream_output_adapter@D@__crt_stdio_output@@@2@@__crt_stdio_output@@AEAA_NXZ@@?$positional_parameter_base@DV?$stream_output_adapter@D@__crt_stdio_output@@@__crt_stdio_output@@CA?AW4parameter_type@01@PEAUansi_string@?1??type_case_Z@?$output_processor@DV?$stream_output_adapter@D@__crt_stdio_output@@V?$positional_parameter_base@DV?$stream_output_adapter@D@__crt_stdio_output@@@2@@1@AEAA_NXZ@@Z 0000000180046f7c f i libucrt:output.obj
 0001:00045f84       ??$get_parameter_type@Uansi_string@?1??type_case_Z@?$output_processor@DV?$string_output_adapter@D@__crt_stdio_output@@V?$positional_parameter_base@DV?$string_output_adapter@D@__crt_stdio_output@@@2@@__crt_stdio_output@@AEAA_NXZ@@?$positional_parameter_base@DV?$string_output_adapter@D@__crt_stdio_output@@@__crt_stdio_output@@CA?AW4parameter_type@01@PEAUansi_string@?1??type_case_Z@?$output_processor@DV?$string_output_adapter@D@__crt_stdio_output@@V?$positional_parameter_base@DV?$string_output_adapter@D@__crt_stdio_output@@@2@@1@AEAA_NXZ@@Z 0000000180046f84 f i libucrt:output.obj
 0001:00045f8c       ??$get_parameter_type@Uansi_string@?1??type_case_Z@?$output_processor@_WV?$stream_output_adapter@_W@__crt_stdio_output@@V?$positional_parameter_base@_WV?$stream_output_adapter@_W@__crt_stdio_output@@@2@@__crt_stdio_output@@AEAA_NXZ@@?$positional_parameter_base@_WV?$stream_output_adapter@_W@__crt_stdio_output@@@__crt_stdio_output@@CA?AW4parameter_type@01@PEAUansi_string@?1??type_case_Z@?$output_processor@_WV?$stream_output_adapter@_W@__crt_stdio_output@@V?$positional_parameter_base@_WV?$stream_output_adapter@_W@__crt_stdio_output@@@2@@1@AEAA_NXZ@@Z 0000000180046f8c f i libucrt:output.obj
 0001:00045f94       ??$get_parameter_type@Uansi_string@?1??type_case_Z@?$output_processor@_WV?$string_output_adapter@_W@__crt_stdio_output@@V?$positional_parameter_base@_WV?$string_output_adapter@_W@__crt_stdio_output@@@2@@__crt_stdio_output@@AEAA_NXZ@@?$positional_parameter_base@_WV?$string_output_adapter@_W@__crt_stdio_output@@@__crt_stdio_output@@CA?AW4parameter_type@01@PEAUansi_string@?1??type_case_Z@?$output_processor@_WV?$string_output_adapter@_W@__crt_stdio_output@@V?$positional_parameter_base@_WV?$string_output_adapter@_W@__crt_stdio_output@@@2@@1@AEAA_NXZ@@Z 0000000180046f94 f i libucrt:output.obj
 0001:00045f9c       ??$get_parameter_type@X@?$positional_parameter_base@DV?$stream_output_adapter@D@__crt_stdio_output@@@__crt_stdio_output@@CA?AW4parameter_type@01@PEAX@Z 0000000180046f9c f i libucrt:output.obj
 0001:00045fa4       ??$get_parameter_type@X@?$positional_parameter_base@DV?$string_output_adapter@D@__crt_stdio_output@@@__crt_stdio_output@@CA?AW4parameter_type@01@PEAX@Z 0000000180046fa4 f i libucrt:output.obj
 0001:00045fac       ??$get_parameter_type@X@?$positional_parameter_base@_WV?$stream_output_adapter@_W@__crt_stdio_output@@@__crt_stdio_output@@CA?AW4parameter_type@01@PEAX@Z 0000000180046fac f i libucrt:output.obj
 0001:00045fb4       ??$get_parameter_type@X@?$positional_parameter_base@_WV?$string_output_adapter@_W@__crt_stdio_output@@@__crt_stdio_output@@CA?AW4parameter_type@01@PEAX@Z 0000000180046fb4 f i libucrt:output.obj
 0001:00045fbc       ??$is_character_specifier@D@?$positional_parameter_base@DV?$stream_output_adapter@D@__crt_stdio_output@@@__crt_stdio_output@@CA_ND@Z 0000000180046fbc f i libucrt:output.obj
 0001:00045fc8       ??$is_character_specifier@D@?$positional_parameter_base@DV?$string_output_adapter@D@__crt_stdio_output@@@__crt_stdio_output@@CA_ND@Z 0000000180046fc8 f i libucrt:output.obj
 0001:00045fd4       ??$is_character_specifier@_W@?$positional_parameter_base@_WV?$stream_output_adapter@_W@__crt_stdio_output@@@__crt_stdio_output@@CA_N_W@Z 0000000180046fd4 f i libucrt:output.obj
 0001:00045fe4       ??$is_character_specifier@_W@?$positional_parameter_base@_WV?$string_output_adapter@_W@__crt_stdio_output@@@__crt_stdio_output@@CA_N_W@Z 0000000180046fe4 f i libucrt:output.obj
 0001:00045ff4       ??$is_integral_specifier@D@?$positional_parameter_base@DV?$stream_output_adapter@D@__crt_stdio_output@@@__crt_stdio_output@@CA_ND@Z 0000000180046ff4 f i libucrt:output.obj
 0001:00046018       ??$is_integral_specifier@D@?$positional_parameter_base@DV?$string_output_adapter@D@__crt_stdio_output@@@__crt_stdio_output@@CA_ND@Z 0000000180047018 f i libucrt:output.obj
 0001:0004603c       ??$is_integral_specifier@_W@?$positional_parameter_base@_WV?$stream_output_adapter@_W@__crt_stdio_output@@@__crt_stdio_output@@CA_N_W@Z 000000018004703c f i libucrt:output.obj
 0001:00046064       ??$is_integral_specifier@_W@?$positional_parameter_base@_WV?$string_output_adapter@_W@__crt_stdio_output@@@__crt_stdio_output@@CA_N_W@Z 0000000180047064 f i libucrt:output.obj
 0001:0004608c       ??$is_pointer_specifier@D@?$positional_parameter_base@DV?$stream_output_adapter@D@__crt_stdio_output@@@__crt_stdio_output@@CA_ND@Z 000000018004708c f i libucrt:output.obj
 0001:00046094       ??$is_pointer_specifier@D@?$positional_parameter_base@DV?$string_output_adapter@D@__crt_stdio_output@@@__crt_stdio_output@@CA_ND@Z 0000000180047094 f i libucrt:output.obj
 0001:0004609c       ??$is_pointer_specifier@_W@?$positional_parameter_base@_WV?$stream_output_adapter@_W@__crt_stdio_output@@@__crt_stdio_output@@CA_N_W@Z 000000018004709c f i libucrt:output.obj
 0001:000460a4       ??$is_pointer_specifier@_W@?$positional_parameter_base@_WV?$string_output_adapter@_W@__crt_stdio_output@@@__crt_stdio_output@@CA_N_W@Z 00000001800470a4 f i libucrt:output.obj
 0001:000460ac       ??$is_string_specifier@D@?$positional_parameter_base@DV?$stream_output_adapter@D@__crt_stdio_output@@@__crt_stdio_output@@CA_ND@Z 00000001800470ac f i libucrt:output.obj
 0001:000460b8       ??$is_string_specifier@D@?$positional_parameter_base@DV?$string_output_adapter@D@__crt_stdio_output@@@__crt_stdio_output@@CA_ND@Z 00000001800470b8 f i libucrt:output.obj
 0001:000460c4       ??$is_string_specifier@_W@?$positional_parameter_base@_WV?$stream_output_adapter@_W@__crt_stdio_output@@@__crt_stdio_output@@CA_N_W@Z 00000001800470c4 f i libucrt:output.obj
 0001:000460d4       ??$is_string_specifier@_W@?$positional_parameter_base@_WV?$string_output_adapter@_W@__crt_stdio_output@@@__crt_stdio_output@@CA_N_W@Z 00000001800470d4 f i libucrt:output.obj
 0001:000460e4       ??$is_wide_character_specifier@D@__crt_stdio_output@@YA_N_KDW4length_modifier@0@@Z 00000001800470e4 f i libucrt:output.obj
 0001:0004610c       ??$is_wide_character_specifier@_W@__crt_stdio_output@@YA_N_K_WW4length_modifier@0@@Z 000000018004710c f i libucrt:output.obj
 0001:0004614c       ??$peek_va_arg@C@__crt_stdio_output@@YACPEAD@Z 000000018004714c f i libucrt:output.obj
 0001:00046150       ??$peek_va_arg@E@__crt_stdio_output@@YAEPEAD@Z 0000000180047150 f i libucrt:output.obj
 0001:00046154       ??$peek_va_arg@F@__crt_stdio_output@@YAFPEAD@Z 0000000180047154 f i libucrt:output.obj
 0001:00046158       ??$peek_va_arg@G@__crt_stdio_output@@YAGPEAD@Z 0000000180047158 f i libucrt:output.obj
 0001:0004615c       ??$peek_va_arg@H@__crt_stdio_output@@YAHPEAD@Z 000000018004715c f i libucrt:output.obj
 0001:00046160       ??$peek_va_arg@I@__crt_stdio_output@@YAIPEAD@Z 0000000180047160 f i libucrt:output.obj
 0001:00046164       ??$peek_va_arg@PEAD@__crt_stdio_output@@YAPEADPEAD@Z 0000000180047164 f i libucrt:output.obj
 0001:00046168       ??$peek_va_arg@PEAUansi_string@?1??type_case_Z@?$output_processor@DV?$stream_output_adapter@D@__crt_stdio_output@@V?$positional_parameter_base@DV?$stream_output_adapter@D@__crt_stdio_output@@@2@@__crt_stdio_output@@AEAA_NXZ@@__crt_stdio_output@@YAPEAUansi_string@?1??type_case_Z@?$output_processor@DV?$stream_output_adapter@D@__crt_stdio_output@@V?$positional_parameter_base@DV?$stream_output_adapter@D@__crt_stdio_output@@@2@@0@AEAA_NXZ@PEAD@Z 0000000180047168 f i libucrt:output.obj
 0001:0004616c       ??$peek_va_arg@PEAUansi_string@?1??type_case_Z@?$output_processor@DV?$string_output_adapter@D@__crt_stdio_output@@V?$positional_parameter_base@DV?$string_output_adapter@D@__crt_stdio_output@@@2@@__crt_stdio_output@@AEAA_NXZ@@__crt_stdio_output@@YAPEAUansi_string@?1??type_case_Z@?$output_processor@DV?$string_output_adapter@D@__crt_stdio_output@@V?$positional_parameter_base@DV?$string_output_adapter@D@__crt_stdio_output@@@2@@0@AEAA_NXZ@PEAD@Z 000000018004716c f i libucrt:output.obj
 0001:00046170       ??$peek_va_arg@PEAUansi_string@?1??type_case_Z@?$output_processor@_WV?$stream_output_adapter@_W@__crt_stdio_output@@V?$positional_parameter_base@_WV?$stream_output_adapter@_W@__crt_stdio_output@@@2@@__crt_stdio_output@@AEAA_NXZ@@__crt_stdio_output@@YAPEAUansi_string@?1??type_case_Z@?$output_processor@_WV?$stream_output_adapter@_W@__crt_stdio_output@@V?$positional_parameter_base@_WV?$stream_output_adapter@_W@__crt_stdio_output@@@2@@0@AEAA_NXZ@PEAD@Z 0000000180047170 f i libucrt:output.obj
 0001:00046174       ??$peek_va_arg@PEAUansi_string@?1??type_case_Z@?$output_processor@_WV?$string_output_adapter@_W@__crt_stdio_output@@V?$positional_parameter_base@_WV?$string_output_adapter@_W@__crt_stdio_output@@@2@@__crt_stdio_output@@AEAA_NXZ@@__crt_stdio_output@@YAPEAUansi_string@?1??type_case_Z@?$output_processor@_WV?$string_output_adapter@_W@__crt_stdio_output@@V?$positional_parameter_base@_WV?$string_output_adapter@_W@__crt_stdio_output@@@2@@0@AEAA_NXZ@PEAD@Z 0000000180047174 f i libucrt:output.obj
 0001:00046178       ??$peek_va_arg@PEAX@__crt_stdio_output@@YAPEAXPEAD@Z 0000000180047178 f i libucrt:output.obj
 0001:0004617c       ??$peek_va_arg@U_CRT_DOUBLE@@@__crt_stdio_output@@YA?AU_CRT_DOUBLE@@PEAD@Z 000000018004717c f i libucrt:output.obj
 0001:00046180       ??$peek_va_arg@_J@__crt_stdio_output@@YA_JPEAD@Z 0000000180047180 f i libucrt:output.obj
 0001:00046184       ??$peek_va_arg@_K@__crt_stdio_output@@YA_KPEAD@Z 0000000180047184 f i libucrt:output.obj
 0001:00046188       ??$peek_va_arg@_W@__crt_stdio_output@@YA_WPEAD@Z 0000000180047188 f i libucrt:output.obj
 0001:0004618c       ??$puttc_nolock@AEBDPEAU_iobuf@@@?$__crt_char_traits@D@@SAHAEBD$$QEAPEAU_iobuf@@@Z 000000018004718c f i libucrt:output.obj
 0001:00046198       ??$puttc_nolock@AEB_WPEAU_iobuf@@@?$__crt_char_traits@_W@@SAGAEB_W$$QEAPEAU_iobuf@@@Z 0000000180047198 f i libucrt:output.obj
 0001:000461a4       ??$read_va_arg@C@__crt_stdio_output@@YACAEAPEAD@Z 00000001800471a4 f i libucrt:output.obj
 0001:000461b0       ??$read_va_arg@E@__crt_stdio_output@@YAEAEAPEAD@Z 00000001800471b0 f i libucrt:output.obj
 0001:000461bc       ??$read_va_arg@F@__crt_stdio_output@@YAFAEAPEAD@Z 00000001800471bc f i libucrt:output.obj
 0001:000461c8       ??$read_va_arg@G@__crt_stdio_output@@YAGAEAPEAD@Z 00000001800471c8 f i libucrt:output.obj
 0001:000461d4       ??$read_va_arg@H@__crt_stdio_output@@YAHAEAPEAD@Z 00000001800471d4 f i libucrt:output.obj
 0001:000461e0       ??$read_va_arg@I@__crt_stdio_output@@YAIAEAPEAD@Z 00000001800471e0 f i libucrt:output.obj
 0001:000461ec       ??$read_va_arg@PEAD@__crt_stdio_output@@YAPEADAEAPEAD@Z 00000001800471ec f i libucrt:output.obj
 0001:000461f8       ??$read_va_arg@PEAUansi_string@?1??type_case_Z@?$output_processor@DV?$stream_output_adapter@D@__crt_stdio_output@@V?$format_validation_base@DV?$stream_output_adapter@D@__crt_stdio_output@@@2@@__crt_stdio_output@@AEAA_NXZ@@__crt_stdio_output@@YAPEAUansi_string@?1??type_case_Z@?$output_processor@DV?$stream_output_adapter@D@__crt_stdio_output@@V?$format_validation_base@DV?$stream_output_adapter@D@__crt_stdio_output@@@2@@0@AEAA_NXZ@AEAPEAD@Z 00000001800471f8 f i libucrt:output.obj
 0001:00046204       ??$read_va_arg@PEAUansi_string@?1??type_case_Z@?$output_processor@DV?$stream_output_adapter@D@__crt_stdio_output@@V?$positional_parameter_base@DV?$stream_output_adapter@D@__crt_stdio_output@@@2@@__crt_stdio_output@@AEAA_NXZ@@__crt_stdio_output@@YAPEAUansi_string@?1??type_case_Z@?$output_processor@DV?$stream_output_adapter@D@__crt_stdio_output@@V?$positional_parameter_base@DV?$stream_output_adapter@D@__crt_stdio_output@@@2@@0@AEAA_NXZ@AEAPEAD@Z 0000000180047204 f i libucrt:output.obj
 0001:00046210       ??$read_va_arg@PEAUansi_string@?1??type_case_Z@?$output_processor@DV?$stream_output_adapter@D@__crt_stdio_output@@V?$standard_base@DV?$stream_output_adapter@D@__crt_stdio_output@@@2@@__crt_stdio_output@@AEAA_NXZ@@__crt_stdio_output@@YAPEAUansi_string@?1??type_case_Z@?$output_processor@DV?$stream_output_adapter@D@__crt_stdio_output@@V?$standard_base@DV?$stream_output_adapter@D@__crt_stdio_output@@@2@@0@AEAA_NXZ@AEAPEAD@Z 0000000180047210 f i libucrt:output.obj
 0001:0004621c       ??$read_va_arg@PEAUansi_string@?1??type_case_Z@?$output_processor@DV?$string_output_adapter@D@__crt_stdio_output@@V?$format_validation_base@DV?$string_output_adapter@D@__crt_stdio_output@@@2@@__crt_stdio_output@@AEAA_NXZ@@__crt_stdio_output@@YAPEAUansi_string@?1??type_case_Z@?$output_processor@DV?$string_output_adapter@D@__crt_stdio_output@@V?$format_validation_base@DV?$string_output_adapter@D@__crt_stdio_output@@@2@@0@AEAA_NXZ@AEAPEAD@Z 000000018004721c f i libucrt:output.obj
 0001:00046228       ??$read_va_arg@PEAUansi_string@?1??type_case_Z@?$output_processor@DV?$string_output_adapter@D@__crt_stdio_output@@V?$positional_parameter_base@DV?$string_output_adapter@D@__crt_stdio_output@@@2@@__crt_stdio_output@@AEAA_NXZ@@__crt_stdio_output@@YAPEAUansi_string@?1??type_case_Z@?$output_processor@DV?$string_output_adapter@D@__crt_stdio_output@@V?$positional_parameter_base@DV?$string_output_adapter@D@__crt_stdio_output@@@2@@0@AEAA_NXZ@AEAPEAD@Z 0000000180047228 f i libucrt:output.obj
 0001:00046234       ??$read_va_arg@PEAUansi_string@?1??type_case_Z@?$output_processor@DV?$string_output_adapter@D@__crt_stdio_output@@V?$standard_base@DV?$string_output_adapter@D@__crt_stdio_output@@@2@@__crt_stdio_output@@AEAA_NXZ@@__crt_stdio_output@@YAPEAUansi_string@?1??type_case_Z@?$output_processor@DV?$string_output_adapter@D@__crt_stdio_output@@V?$standard_base@DV?$string_output_adapter@D@__crt_stdio_output@@@2@@0@AEAA_NXZ@AEAPEAD@Z 0000000180047234 f i libucrt:output.obj
 0001:00046240       ??$read_va_arg@PEAUansi_string@?1??type_case_Z@?$output_processor@_WV?$stream_output_adapter@_W@__crt_stdio_output@@V?$format_validation_base@_WV?$stream_output_adapter@_W@__crt_stdio_output@@@2@@__crt_stdio_output@@AEAA_NXZ@@__crt_stdio_output@@YAPEAUansi_string@?1??type_case_Z@?$output_processor@_WV?$stream_output_adapter@_W@__crt_stdio_output@@V?$format_validation_base@_WV?$stream_output_adapter@_W@__crt_stdio_output@@@2@@0@AEAA_NXZ@AEAPEAD@Z 0000000180047240 f i libucrt:output.obj
 0001:0004624c       ??$read_va_arg@PEAUansi_string@?1??type_case_Z@?$output_processor@_WV?$stream_output_adapter@_W@__crt_stdio_output@@V?$positional_parameter_base@_WV?$stream_output_adapter@_W@__crt_stdio_output@@@2@@__crt_stdio_output@@AEAA_NXZ@@__crt_stdio_output@@YAPEAUansi_string@?1??type_case_Z@?$output_processor@_WV?$stream_output_adapter@_W@__crt_stdio_output@@V?$positional_parameter_base@_WV?$stream_output_adapter@_W@__crt_stdio_output@@@2@@0@AEAA_NXZ@AEAPEAD@Z 000000018004724c f i libucrt:output.obj
 0001:00046258       ??$read_va_arg@PEAUansi_string@?1??type_case_Z@?$output_processor@_WV?$stream_output_adapter@_W@__crt_stdio_output@@V?$standard_base@_WV?$stream_output_adapter@_W@__crt_stdio_output@@@2@@__crt_stdio_output@@AEAA_NXZ@@__crt_stdio_output@@YAPEAUansi_string@?1??type_case_Z@?$output_processor@_WV?$stream_output_adapter@_W@__crt_stdio_output@@V?$standard_base@_WV?$stream_output_adapter@_W@__crt_stdio_output@@@2@@0@AEAA_NXZ@AEAPEAD@Z 0000000180047258 f i libucrt:output.obj
 0001:00046264       ??$read_va_arg@PEAUansi_string@?1??type_case_Z@?$output_processor@_WV?$string_output_adapter@_W@__crt_stdio_output@@V?$format_validation_base@_WV?$string_output_adapter@_W@__crt_stdio_output@@@2@@__crt_stdio_output@@AEAA_NXZ@@__crt_stdio_output@@YAPEAUansi_string@?1??type_case_Z@?$output_processor@_WV?$string_output_adapter@_W@__crt_stdio_output@@V?$format_validation_base@_WV?$string_output_adapter@_W@__crt_stdio_output@@@2@@0@AEAA_NXZ@AEAPEAD@Z 0000000180047264 f i libucrt:output.obj
 0001:00046270       ??$read_va_arg@PEAUansi_string@?1??type_case_Z@?$output_processor@_WV?$string_output_adapter@_W@__crt_stdio_output@@V?$positional_parameter_base@_WV?$string_output_adapter@_W@__crt_stdio_output@@@2@@__crt_stdio_output@@AEAA_NXZ@@__crt_stdio_output@@YAPEAUansi_string@?1??type_case_Z@?$output_processor@_WV?$string_output_adapter@_W@__crt_stdio_output@@V?$positional_parameter_base@_WV?$string_output_adapter@_W@__crt_stdio_output@@@2@@0@AEAA_NXZ@AEAPEAD@Z 0000000180047270 f i libucrt:output.obj
 0001:0004627c       ??$read_va_arg@PEAUansi_string@?1??type_case_Z@?$output_processor@_WV?$string_output_adapter@_W@__crt_stdio_output@@V?$standard_base@_WV?$string_output_adapter@_W@__crt_stdio_output@@@2@@__crt_stdio_output@@AEAA_NXZ@@__crt_stdio_output@@YAPEAUansi_string@?1??type_case_Z@?$output_processor@_WV?$string_output_adapter@_W@__crt_stdio_output@@V?$standard_base@_WV?$string_output_adapter@_W@__crt_stdio_output@@@2@@0@AEAA_NXZ@AEAPEAD@Z 000000018004727c f i libucrt:output.obj
 0001:00046288       ??$read_va_arg@PEAX@__crt_stdio_output@@YAPEAXAEAPEAD@Z 0000000180047288 f i libucrt:output.obj
 0001:00046294       ??$read_va_arg@U_CRT_DOUBLE@@@__crt_stdio_output@@YA?AU_CRT_DOUBLE@@AEAPEAD@Z 0000000180047294 f i libucrt:output.obj
 0001:000462a0       ??$read_va_arg@_J@__crt_stdio_output@@YA_JAEAPEAD@Z 00000001800472a0 f i libucrt:output.obj
 0001:000462ac       ??$read_va_arg@_K@__crt_stdio_output@@YA_KAEAPEAD@Z 00000001800472ac f i libucrt:output.obj
 0001:000462b8       ??$read_va_arg@_W@__crt_stdio_output@@YA_WAEAPEAD@Z 00000001800472b8 f i libucrt:output.obj
 0001:000462c4       ??$scratch_count@D@formatting_buffer@__crt_stdio_output@@QEBA_KXZ 00000001800472c4 f i libucrt:output.obj
 0001:000462e0       ??$scratch_data@D@formatting_buffer@__crt_stdio_output@@QEAAPEADXZ 00000001800472e0 f i libucrt:output.obj
 0001:00046304       ??$tcstol@AEAPEBDPEAPEADH@?$__crt_char_traits@D@@SAJAEAPEBD$$QEAPEAPEAD$$QEAH@Z 0000000180047304 f i libucrt:output.obj
 0001:00046314       ??$tcstol@AEAPEB_WPEAPEA_WH@?$__crt_char_traits@_W@@SAJAEAPEB_W$$QEAPEAPEA_W$$QEAH@Z 0000000180047314 f i libucrt:output.obj
 0001:00046324       ??$tcstol@PEBDPEAPEADH@?$__crt_char_traits@D@@SAJ$$QEAPEBD$$QEAPEAPEAD$$QEAH@Z 0000000180047324 f i libucrt:output.obj
 0001:00046334       ??$tcstol@PEB_WPEAPEA_WH@?$__crt_char_traits@_W@@SAJ$$QEAPEB_W$$QEAPEAPEA_W$$QEAH@Z 0000000180047334 f i libucrt:output.obj
 0001:00046344       ??$type_case_integer_parse_into_buffer@I@?$output_processor@DV?$stream_output_adapter@D@__crt_stdio_output@@V?$format_validation_base@DV?$stream_output_adapter@D@__crt_stdio_output@@@2@@__crt_stdio_output@@AEAAXII_N@Z 0000000180047344 f i libucrt:output.obj
 0001:000463cc       ??$type_case_integer_parse_into_buffer@I@?$output_processor@DV?$stream_output_adapter@D@__crt_stdio_output@@V?$positional_parameter_base@DV?$stream_output_adapter@D@__crt_stdio_output@@@2@@__crt_stdio_output@@AEAAXII_N@Z 00000001800473cc f i libucrt:output.obj
 0001:00046454       ??$type_case_integer_parse_into_buffer@I@?$output_processor@DV?$stream_output_adapter@D@__crt_stdio_output@@V?$standard_base@DV?$stream_output_adapter@D@__crt_stdio_output@@@2@@__crt_stdio_output@@AEAAXII_N@Z 0000000180047454 f i libucrt:output.obj
 0001:000464dc       ??$type_case_integer_parse_into_buffer@I@?$output_processor@DV?$string_output_adapter@D@__crt_stdio_output@@V?$format_validation_base@DV?$string_output_adapter@D@__crt_stdio_output@@@2@@__crt_stdio_output@@AEAAXII_N@Z 00000001800474dc f i libucrt:output.obj
 0001:00046564       ??$type_case_integer_parse_into_buffer@I@?$output_processor@DV?$string_output_adapter@D@__crt_stdio_output@@V?$positional_parameter_base@DV?$string_output_adapter@D@__crt_stdio_output@@@2@@__crt_stdio_output@@AEAAXII_N@Z 0000000180047564 f i libucrt:output.obj
 0001:000465ec       ??$type_case_integer_parse_into_buffer@I@?$output_processor@DV?$string_output_adapter@D@__crt_stdio_output@@V?$standard_base@DV?$string_output_adapter@D@__crt_stdio_output@@@2@@__crt_stdio_output@@AEAAXII_N@Z 00000001800475ec f i libucrt:output.obj
 0001:00046674       ??$type_case_integer_parse_into_buffer@I@?$output_processor@_WV?$stream_output_adapter@_W@__crt_stdio_output@@V?$format_validation_base@_WV?$stream_output_adapter@_W@__crt_stdio_output@@@2@@__crt_stdio_output@@AEAAXII_N@Z 0000000180047674 f i libucrt:output.obj
 0001:00046718       ??$type_case_integer_parse_into_buffer@I@?$output_processor@_WV?$stream_output_adapter@_W@__crt_stdio_output@@V?$positional_parameter_base@_WV?$stream_output_adapter@_W@__crt_stdio_output@@@2@@__crt_stdio_output@@AEAAXII_N@Z 0000000180047718 f i libucrt:output.obj
 0001:000467bc       ??$type_case_integer_parse_into_buffer@I@?$output_processor@_WV?$stream_output_adapter@_W@__crt_stdio_output@@V?$standard_base@_WV?$stream_output_adapter@_W@__crt_stdio_output@@@2@@__crt_stdio_output@@AEAAXII_N@Z 00000001800477bc f i libucrt:output.obj
 0001:00046860       ??$type_case_integer_parse_into_buffer@I@?$output_processor@_WV?$string_output_adapter@_W@__crt_stdio_output@@V?$format_validation_base@_WV?$string_output_adapter@_W@__crt_stdio_output@@@2@@__crt_stdio_output@@AEAAXII_N@Z 0000000180047860 f i libucrt:output.obj
 0001:00046904       ??$type_case_integer_parse_into_buffer@I@?$output_processor@_WV?$string_output_adapter@_W@__crt_stdio_output@@V?$positional_parameter_base@_WV?$string_output_adapter@_W@__crt_stdio_output@@@2@@__crt_stdio_output@@AEAAXII_N@Z 0000000180047904 f i libucrt:output.obj
 0001:000469a8       ??$type_case_integer_parse_into_buffer@I@?$output_processor@_WV?$string_output_adapter@_W@__crt_stdio_output@@V?$standard_base@_WV?$string_output_adapter@_W@__crt_stdio_output@@@2@@__crt_stdio_output@@AEAAXII_N@Z 00000001800479a8 f i libucrt:output.obj
 0001:00046a4c       ??$type_case_integer_parse_into_buffer@_K@?$output_processor@DV?$stream_output_adapter@D@__crt_stdio_output@@V?$format_validation_base@DV?$stream_output_adapter@D@__crt_stdio_output@@@2@@__crt_stdio_output@@AEAAX_KI_N@Z 0000000180047a4c f i libucrt:output.obj
 0001:00046adc       ??$type_case_integer_parse_into_buffer@_K@?$output_processor@DV?$stream_output_adapter@D@__crt_stdio_output@@V?$positional_parameter_base@DV?$stream_output_adapter@D@__crt_stdio_output@@@2@@__crt_stdio_output@@AEAAX_KI_N@Z 0000000180047adc f i libucrt:output.obj
 0001:00046b6c       ??$type_case_integer_parse_into_buffer@_K@?$output_processor@DV?$stream_output_adapter@D@__crt_stdio_output@@V?$standard_base@DV?$stream_output_adapter@D@__crt_stdio_output@@@2@@__crt_stdio_output@@AEAAX_KI_N@Z 0000000180047b6c f i libucrt:output.obj
 0001:00046bfc       ??$type_case_integer_parse_into_buffer@_K@?$output_processor@DV?$string_output_adapter@D@__crt_stdio_output@@V?$format_validation_base@DV?$string_output_adapter@D@__crt_stdio_output@@@2@@__crt_stdio_output@@AEAAX_KI_N@Z 0000000180047bfc f i libucrt:output.obj
 0001:00046c8c       ??$type_case_integer_parse_into_buffer@_K@?$output_processor@DV?$string_output_adapter@D@__crt_stdio_output@@V?$positional_parameter_base@DV?$string_output_adapter@D@__crt_stdio_output@@@2@@__crt_stdio_output@@AEAAX_KI_N@Z 0000000180047c8c f i libucrt:output.obj
 0001:00046d1c       ??$type_case_integer_parse_into_buffer@_K@?$output_processor@DV?$string_output_adapter@D@__crt_stdio_output@@V?$standard_base@DV?$string_output_adapter@D@__crt_stdio_output@@@2@@__crt_stdio_output@@AEAAX_KI_N@Z 0000000180047d1c f i libucrt:output.obj
 0001:00046dac       ??$type_case_integer_parse_into_buffer@_K@?$output_processor@_WV?$stream_output_adapter@_W@__crt_stdio_output@@V?$format_validation_base@_WV?$stream_output_adapter@_W@__crt_stdio_output@@@2@@__crt_stdio_output@@AEAAX_KI_N@Z 0000000180047dac f i libucrt:output.obj
 0001:00046e50       ??$type_case_integer_parse_into_buffer@_K@?$output_processor@_WV?$stream_output_adapter@_W@__crt_stdio_output@@V?$positional_parameter_base@_WV?$stream_output_adapter@_W@__crt_stdio_output@@@2@@__crt_stdio_output@@AEAAX_KI_N@Z 0000000180047e50 f i libucrt:output.obj
 0001:00046ef4       ??$type_case_integer_parse_into_buffer@_K@?$output_processor@_WV?$stream_output_adapter@_W@__crt_stdio_output@@V?$standard_base@_WV?$stream_output_adapter@_W@__crt_stdio_output@@@2@@__crt_stdio_output@@AEAAX_KI_N@Z 0000000180047ef4 f i libucrt:output.obj
 0001:00046f98       ??$type_case_integer_parse_into_buffer@_K@?$output_processor@_WV?$string_output_adapter@_W@__crt_stdio_output@@V?$format_validation_base@_WV?$string_output_adapter@_W@__crt_stdio_output@@@2@@__crt_stdio_output@@AEAAX_KI_N@Z 0000000180047f98 f i libucrt:output.obj
 0001:0004703c       ??$type_case_integer_parse_into_buffer@_K@?$output_processor@_WV?$string_output_adapter@_W@__crt_stdio_output@@V?$positional_parameter_base@_WV?$string_output_adapter@_W@__crt_stdio_output@@@2@@__crt_stdio_output@@AEAAX_KI_N@Z 000000018004803c f i libucrt:output.obj
 0001:000470e0       ??$type_case_integer_parse_into_buffer@_K@?$output_processor@_WV?$string_output_adapter@_W@__crt_stdio_output@@V?$standard_base@_WV?$string_output_adapter@_W@__crt_stdio_output@@@2@@__crt_stdio_output@@AEAAX_KI_N@Z 00000001800480e0 f i libucrt:output.obj
 0001:00047184       ??$write_multiple_characters@V?$stream_output_adapter@D@__crt_stdio_output@@D@__crt_stdio_output@@YAXAEBV?$stream_output_adapter@D@0@DHQEAH@Z 0000000180048184 f i libucrt:output.obj
 0001:00047210       ??$write_multiple_characters@V?$stream_output_adapter@_W@__crt_stdio_output@@D@__crt_stdio_output@@YAXAEBV?$stream_output_adapter@_W@0@DHQEAH@Z 0000000180048210 f i libucrt:output.obj
 0001:000472a4       ??$write_multiple_characters@V?$string_output_adapter@D@__crt_stdio_output@@D@__crt_stdio_output@@YAXAEBV?$string_output_adapter@D@0@DHQEAH@Z 00000001800482a4 f i libucrt:output.obj
 0001:0004731c       ??$write_multiple_characters@V?$string_output_adapter@_W@__crt_stdio_output@@D@__crt_stdio_output@@YAXAEBV?$string_output_adapter@_W@0@DHQEAH@Z 000000018004831c f i libucrt:output.obj
 0001:000474fc       ??0?$common_data@D@__crt_stdio_output@@IEAA@XZ 00000001800484fc f i libucrt:output.obj
 0001:00047538       ??0?$common_data@_W@__crt_stdio_output@@IEAA@XZ 0000000180048538 f i libucrt:output.obj
 0001:00047578       ??0?$output_adapter_data@DV?$stream_output_adapter@D@__crt_stdio_output@@@__crt_stdio_output@@IEAA@AEBV?$stream_output_adapter@D@1@_KQEBDQEAU__crt_locale_pointers@@QEAD@Z 0000000180048578 f i libucrt:output.obj
 0001:000475d8       ??0?$output_adapter_data@DV?$string_output_adapter@D@__crt_stdio_output@@@__crt_stdio_output@@IEAA@AEBV?$string_output_adapter@D@1@_KQEBDQEAU__crt_locale_pointers@@QEAD@Z 00000001800485d8 f i libucrt:output.obj
 0001:00047638       ??0?$output_adapter_data@_WV?$stream_output_adapter@_W@__crt_stdio_output@@@__crt_stdio_output@@IEAA@AEBV?$stream_output_adapter@_W@1@_KQEB_WQEAU__crt_locale_pointers@@QEAD@Z 0000000180048638 f i libucrt:output.obj
 0001:0004769c       ??0?$output_adapter_data@_WV?$string_output_adapter@_W@__crt_stdio_output@@@__crt_stdio_output@@IEAA@AEBV?$string_output_adapter@_W@1@_KQEB_WQEAU__crt_locale_pointers@@QEAD@Z 000000018004869c f i libucrt:output.obj
 0001:00047700       ??0?$output_processor@DV?$stream_output_adapter@D@__crt_stdio_output@@V?$format_validation_base@DV?$stream_output_adapter@D@__crt_stdio_output@@@2@@__crt_stdio_output@@QEAA@AEBV?$stream_output_adapter@D@1@_KQEBDQEAU__crt_locale_pointers@@QEAD@Z 0000000180048700 f i libucrt:output.obj
 0001:0004776c       ??0?$output_processor@DV?$stream_output_adapter@D@__crt_stdio_output@@V?$positional_parameter_base@DV?$stream_output_adapter@D@__crt_stdio_output@@@2@@__crt_stdio_output@@QEAA@AEBV?$stream_output_adapter@D@1@_KQEBDQEAU__crt_locale_pointers@@QEAD@Z 000000018004876c f i libucrt:output.obj
 0001:000477f4       ??0?$output_processor@DV?$stream_output_adapter@D@__crt_stdio_output@@V?$standard_base@DV?$stream_output_adapter@D@__crt_stdio_output@@@2@@__crt_stdio_output@@QEAA@AEBV?$stream_output_adapter@D@1@_KQEBDQEAU__crt_locale_pointers@@QEAD@Z 00000001800487f4 f i libucrt:output.obj
 0001:00047860       ??0?$output_processor@DV?$string_output_adapter@D@__crt_stdio_output@@V?$format_validation_base@DV?$string_output_adapter@D@__crt_stdio_output@@@2@@__crt_stdio_output@@QEAA@AEBV?$string_output_adapter@D@1@_KQEBDQEAU__crt_locale_pointers@@QEAD@Z 0000000180048860 f i libucrt:output.obj
 0001:000478cc       ??0?$output_processor@DV?$string_output_adapter@D@__crt_stdio_output@@V?$positional_parameter_base@DV?$string_output_adapter@D@__crt_stdio_output@@@2@@__crt_stdio_output@@QEAA@AEBV?$string_output_adapter@D@1@_KQEBDQEAU__crt_locale_pointers@@QEAD@Z 00000001800488cc f i libucrt:output.obj
 0001:00047954       ??0?$output_processor@DV?$string_output_adapter@D@__crt_stdio_output@@V?$standard_base@DV?$string_output_adapter@D@__crt_stdio_output@@@2@@__crt_stdio_output@@QEAA@AEBV?$string_output_adapter@D@1@_KQEBDQEAU__crt_locale_pointers@@QEAD@Z 0000000180048954 f i libucrt:output.obj
 0001:000479c0       ??0?$output_processor@_WV?$stream_output_adapter@_W@__crt_stdio_output@@V?$format_validation_base@_WV?$stream_output_adapter@_W@__crt_stdio_output@@@2@@__crt_stdio_output@@QEAA@AEBV?$stream_output_adapter@_W@1@_KQEB_WQEAU__crt_locale_pointers@@QEAD@Z 00000001800489c0 f i libucrt:output.obj
 0001:00047a30       ??0?$output_processor@_WV?$stream_output_adapter@_W@__crt_stdio_output@@V?$positional_parameter_base@_WV?$stream_output_adapter@_W@__crt_stdio_output@@@2@@__crt_stdio_output@@QEAA@AEBV?$stream_output_adapter@_W@1@_KQEB_WQEAU__crt_locale_pointers@@QEAD@Z 0000000180048a30 f i libucrt:output.obj
 0001:00047abc       ??0?$output_processor@_WV?$stream_output_adapter@_W@__crt_stdio_output@@V?$standard_base@_WV?$stream_output_adapter@_W@__crt_stdio_output@@@2@@__crt_stdio_output@@QEAA@AEBV?$stream_output_adapter@_W@1@_KQEB_WQEAU__crt_locale_pointers@@QEAD@Z 0000000180048abc f i libucrt:output.obj
 0001:00047b2c       ??0?$output_processor@_WV?$string_output_adapter@_W@__crt_stdio_output@@V?$format_validation_base@_WV?$string_output_adapter@_W@__crt_stdio_output@@@2@@__crt_stdio_output@@QEAA@AEBV?$string_output_adapter@_W@1@_KQEB_WQEAU__crt_locale_pointers@@QEAD@Z 0000000180048b2c f i libucrt:output.obj
 0001:00047b9c       ??0?$output_processor@_WV?$string_output_adapter@_W@__crt_stdio_output@@V?$positional_parameter_base@_WV?$string_output_adapter@_W@__crt_stdio_output@@@2@@__crt_stdio_output@@QEAA@AEBV?$string_output_adapter@_W@1@_KQEB_WQEAU__crt_locale_pointers@@QEAD@Z 0000000180048b9c f i libucrt:output.obj
 0001:00047c28       ??0?$output_processor@_WV?$string_output_adapter@_W@__crt_stdio_output@@V?$standard_base@_WV?$string_output_adapter@_W@__crt_stdio_output@@@2@@__crt_stdio_output@@QEAA@AEBV?$string_output_adapter@_W@1@_KQEB_WQEAU__crt_locale_pointers@@QEAD@Z 0000000180048c28 f i libucrt:output.obj
 0001:00047c98       ??0?$stream_output_adapter@D@__crt_stdio_output@@QEAA@QEAU_iobuf@@@Z 0000000180048c98 f i libucrt:output.obj
 0001:00047ca0       ??0?$stream_output_adapter@_W@__crt_stdio_output@@QEAA@QEAU_iobuf@@@Z 0000000180048ca0 f i libucrt:output.obj
 0001:00047ca8       ??0?$string_output_adapter@D@__crt_stdio_output@@QEAA@QEAU?$string_output_adapter_context@D@1@@Z 0000000180048ca8 f i libucrt:output.obj
 0001:00047cb0       ??0?$string_output_adapter@_W@__crt_stdio_output@@QEAA@QEAU?$string_output_adapter_context@_W@1@@Z 0000000180048cb0 f i libucrt:output.obj
 0001:00047cb8       ??0_LocaleUpdate@@QEAA@QEAU__crt_locale_pointers@@@Z 0000000180048cb8 f i libucrt:output.obj
 0001:00047d54       ??0__acrt_stdio_temporary_buffering_guard@@QEAA@QEAU_iobuf@@@Z 0000000180048d54 f i libucrt:output.obj
 0001:00047d74       ??0__crt_deferred_errno_cache@@QEAA@XZ 0000000180048d74 f i libucrt:output.obj
 0001:00047d7c       ??0__crt_errno_guard@@QEAA@QEAH@Z 0000000180048d7c f i libucrt:output.obj
 0001:00047d8c       ??0__crt_stdio_stream@@QEAA@QEAU_iobuf@@@Z 0000000180048d8c f i libucrt:output.obj
 0001:00047da0       ??0formatting_buffer@__crt_stdio_output@@QEAA@XZ 0000000180048da0 f i libucrt:output.obj
 0001:00047db4       ??1?$common_data@D@__crt_stdio_output@@QEAA@XZ 0000000180048db4 f i libucrt:output.obj
 0001:00047dd8       ??1?$common_data@_W@__crt_stdio_output@@QEAA@XZ 0000000180048dd8 f i libucrt:output.obj
 0001:00047dfc       ??1?$format_validation_base@DV?$stream_output_adapter@D@__crt_stdio_output@@@__crt_stdio_output@@QEAA@XZ 0000000180048dfc f i libucrt:output.obj
 0001:00047e20       ??1?$format_validation_base@DV?$string_output_adapter@D@__crt_stdio_output@@@__crt_stdio_output@@QEAA@XZ 0000000180048e20 f i libucrt:output.obj
 0001:00047e44       ??1?$format_validation_base@_WV?$stream_output_adapter@_W@__crt_stdio_output@@@__crt_stdio_output@@QEAA@XZ 0000000180048e44 f i libucrt:output.obj
 0001:00047e68       ??1?$format_validation_base@_WV?$string_output_adapter@_W@__crt_stdio_output@@@__crt_stdio_output@@QEAA@XZ 0000000180048e68 f i libucrt:output.obj
 0001:00047e8c       ??1?$output_adapter_data@DV?$stream_output_adapter@D@__crt_stdio_output@@@__crt_stdio_output@@QEAA@XZ 0000000180048e8c f i libucrt:output.obj
 0001:00047eb0       ??1?$output_adapter_data@DV?$string_output_adapter@D@__crt_stdio_output@@@__crt_stdio_output@@QEAA@XZ 0000000180048eb0 f i libucrt:output.obj
 0001:00047ed4       ??1?$output_adapter_data@_WV?$stream_output_adapter@_W@__crt_stdio_output@@@__crt_stdio_output@@QEAA@XZ 0000000180048ed4 f i libucrt:output.obj
 0001:00047ef8       ??1?$output_adapter_data@_WV?$string_output_adapter@_W@__crt_stdio_output@@@__crt_stdio_output@@QEAA@XZ 0000000180048ef8 f i libucrt:output.obj
 0001:00047f1c       ??1?$output_processor@DV?$stream_output_adapter@D@__crt_stdio_output@@V?$format_validation_base@DV?$stream_output_adapter@D@__crt_stdio_output@@@2@@__crt_stdio_output@@QEAA@XZ 0000000180048f1c f i libucrt:output.obj
 0001:00047f40       ??1?$output_processor@DV?$stream_output_adapter@D@__crt_stdio_output@@V?$positional_parameter_base@DV?$stream_output_adapter@D@__crt_stdio_output@@@2@@__crt_stdio_output@@QEAA@XZ 0000000180048f40 f i libucrt:output.obj
 0001:00047f64       ??1?$output_processor@DV?$stream_output_adapter@D@__crt_stdio_output@@V?$standard_base@DV?$stream_output_adapter@D@__crt_stdio_output@@@2@@__crt_stdio_output@@QEAA@XZ 0000000180048f64 f i libucrt:output.obj
 0001:00047f88       ??1?$output_processor@DV?$string_output_adapter@D@__crt_stdio_output@@V?$format_validation_base@DV?$string_output_adapter@D@__crt_stdio_output@@@2@@__crt_stdio_output@@QEAA@XZ 0000000180048f88 f i libucrt:output.obj
 0001:00047fac       ??1?$output_processor@DV?$string_output_adapter@D@__crt_stdio_output@@V?$positional_parameter_base@DV?$string_output_adapter@D@__crt_stdio_output@@@2@@__crt_stdio_output@@QEAA@XZ 0000000180048fac f i libucrt:output.obj
 0001:00047fd0       ??1?$output_processor@DV?$string_output_adapter@D@__crt_stdio_output@@V?$standard_base@DV?$string_output_adapter@D@__crt_stdio_output@@@2@@__crt_stdio_output@@QEAA@XZ 0000000180048fd0 f i libucrt:output.obj
 0001:00047ff4       ??1?$output_processor@_WV?$stream_output_adapter@_W@__crt_stdio_output@@V?$format_validation_base@_WV?$stream_output_adapter@_W@__crt_stdio_output@@@2@@__crt_stdio_output@@QEAA@XZ 0000000180048ff4 f i libucrt:output.obj
 0001:00048018       ??1?$output_processor@_WV?$stream_output_adapter@_W@__crt_stdio_output@@V?$positional_parameter_base@_WV?$stream_output_adapter@_W@__crt_stdio_output@@@2@@__crt_stdio_output@@QEAA@XZ 0000000180049018 f i libucrt:output.obj
 0001:0004803c       ??1?$output_processor@_WV?$stream_output_adapter@_W@__crt_stdio_output@@V?$standard_base@_WV?$stream_output_adapter@_W@__crt_stdio_output@@@2@@__crt_stdio_output@@QEAA@XZ 000000018004903c f i libucrt:output.obj
 0001:00048060       ??1?$output_processor@_WV?$string_output_adapter@_W@__crt_stdio_output@@V?$format_validation_base@_WV?$string_output_adapter@_W@__crt_stdio_output@@@2@@__crt_stdio_output@@QEAA@XZ 0000000180049060 f i libucrt:output.obj
 0001:00048084       ??1?$output_processor@_WV?$string_output_adapter@_W@__crt_stdio_output@@V?$positional_parameter_base@_WV?$string_output_adapter@_W@__crt_stdio_output@@@2@@__crt_stdio_output@@QEAA@XZ 0000000180049084 f i libucrt:output.obj
 0001:000480a8       ??1?$output_processor@_WV?$string_output_adapter@_W@__crt_stdio_output@@V?$standard_base@_WV?$string_output_adapter@_W@__crt_stdio_output@@@2@@__crt_stdio_output@@QEAA@XZ 00000001800490a8 f i libucrt:output.obj
 0001:000480cc       ??1?$positional_parameter_base@DV?$stream_output_adapter@D@__crt_stdio_output@@@__crt_stdio_output@@QEAA@XZ 00000001800490cc f i libucrt:output.obj
 0001:000480f0       ??1?$positional_parameter_base@DV?$string_output_adapter@D@__crt_stdio_output@@@__crt_stdio_output@@QEAA@XZ 00000001800490f0 f i libucrt:output.obj
 0001:00048114       ??1?$positional_parameter_base@_WV?$stream_output_adapter@_W@__crt_stdio_output@@@__crt_stdio_output@@QEAA@XZ 0000000180049114 f i libucrt:output.obj
 0001:00048138       ??1?$positional_parameter_base@_WV?$string_output_adapter@_W@__crt_stdio_output@@@__crt_stdio_output@@QEAA@XZ 0000000180049138 f i libucrt:output.obj
 0001:0004815c       ??1?$standard_base@DV?$stream_output_adapter@D@__crt_stdio_output@@@__crt_stdio_output@@QEAA@XZ 000000018004915c f i libucrt:output.obj
 0001:00048180       ??1?$standard_base@DV?$string_output_adapter@D@__crt_stdio_output@@@__crt_stdio_output@@QEAA@XZ 0000000180049180 f i libucrt:output.obj
 0001:000481a4       ??1?$standard_base@_WV?$stream_output_adapter@_W@__crt_stdio_output@@@__crt_stdio_output@@QEAA@XZ 00000001800491a4 f i libucrt:output.obj
 0001:000481c8       ??1?$standard_base@_WV?$string_output_adapter@_W@__crt_stdio_output@@@__crt_stdio_output@@QEAA@XZ 00000001800491c8 f i libucrt:output.obj
 0001:000481ec       ??1_LocaleUpdate@@QEAA@XZ  00000001800491ec f i libucrt:output.obj
 0001:00048200       ??1__acrt_stdio_temporary_buffering_guard@@QEAA@XZ 0000000180049200 f i libucrt:output.obj
 0001:0004820c       ??1__crt_errno_guard@@QEAA@XZ 000000018004920c f i libucrt:output.obj
 0001:00048220       ??1formatting_buffer@__crt_stdio_output@@QEAA@XZ 0000000180049220 f i libucrt:output.obj
 0001:00048244       ??4?$__crt_unique_heap_ptr@DU__crt_internal_free_policy@@@@QEAAAEAV0@$$QEAV0@@Z 0000000180049244 f i libucrt:output.obj
 0001:00048278       ??A?$spectre_mitigated_lookup_table@Ustate_transition_pair@__crt_stdio_output@@$0IA@@__crt_stdio_output@@QEBAAEBUstate_transition_pair@1@_K@Z 0000000180049278 f i libucrt:output.obj
 0001:00048280       ??C__crt_stdio_stream@@QEBAPEAU__crt_stdio_stream_data@@XZ 0000000180049280 f i libucrt:output.obj
 0001:00048a48       ?GetLocaleT@_LocaleUpdate@@QEAAPEAU__crt_locale_pointers@@XZ 0000000180049a48 f i libucrt:output.obj
 0001:00048a50       ?adjust_hexit@?$output_processor@DV?$stream_output_adapter@D@__crt_stdio_output@@V?$format_validation_base@DV?$stream_output_adapter@D@__crt_stdio_output@@@2@@__crt_stdio_output@@CADH_N@Z 0000000180049a50 f i libucrt:output.obj
 0001:00048a5c       ?adjust_hexit@?$output_processor@DV?$stream_output_adapter@D@__crt_stdio_output@@V?$positional_parameter_base@DV?$stream_output_adapter@D@__crt_stdio_output@@@2@@__crt_stdio_output@@CADH_N@Z 0000000180049a5c f i libucrt:output.obj
 0001:00048a68       ?adjust_hexit@?$output_processor@DV?$stream_output_adapter@D@__crt_stdio_output@@V?$standard_base@DV?$stream_output_adapter@D@__crt_stdio_output@@@2@@__crt_stdio_output@@CADH_N@Z 0000000180049a68 f i libucrt:output.obj
 0001:00048a74       ?adjust_hexit@?$output_processor@DV?$string_output_adapter@D@__crt_stdio_output@@V?$format_validation_base@DV?$string_output_adapter@D@__crt_stdio_output@@@2@@__crt_stdio_output@@CADH_N@Z 0000000180049a74 f i libucrt:output.obj
 0001:00048a80       ?adjust_hexit@?$output_processor@DV?$string_output_adapter@D@__crt_stdio_output@@V?$positional_parameter_base@DV?$string_output_adapter@D@__crt_stdio_output@@@2@@__crt_stdio_output@@CADH_N@Z 0000000180049a80 f i libucrt:output.obj
 0001:00048a8c       ?adjust_hexit@?$output_processor@DV?$string_output_adapter@D@__crt_stdio_output@@V?$standard_base@DV?$string_output_adapter@D@__crt_stdio_output@@@2@@__crt_stdio_output@@CADH_N@Z 0000000180049a8c f i libucrt:output.obj
 0001:00048a98       ?adjust_hexit@?$output_processor@_WV?$stream_output_adapter@_W@__crt_stdio_output@@V?$format_validation_base@_WV?$stream_output_adapter@_W@__crt_stdio_output@@@2@@__crt_stdio_output@@CADH_N@Z 0000000180049a98 f i libucrt:output.obj
 0001:00048aa4       ?adjust_hexit@?$output_processor@_WV?$stream_output_adapter@_W@__crt_stdio_output@@V?$positional_parameter_base@_WV?$stream_output_adapter@_W@__crt_stdio_output@@@2@@__crt_stdio_output@@CADH_N@Z 0000000180049aa4 f i libucrt:output.obj
 0001:00048ab0       ?adjust_hexit@?$output_processor@_WV?$stream_output_adapter@_W@__crt_stdio_output@@V?$standard_base@_WV?$stream_output_adapter@_W@__crt_stdio_output@@@2@@__crt_stdio_output@@CADH_N@Z 0000000180049ab0 f i libucrt:output.obj
 0001:00048abc       ?adjust_hexit@?$output_processor@_WV?$string_output_adapter@_W@__crt_stdio_output@@V?$format_validation_base@_WV?$string_output_adapter@_W@__crt_stdio_output@@@2@@__crt_stdio_output@@CADH_N@Z 0000000180049abc f i libucrt:output.obj
 0001:00048ac8       ?adjust_hexit@?$output_processor@_WV?$string_output_adapter@_W@__crt_stdio_output@@V?$positional_parameter_base@_WV?$string_output_adapter@_W@__crt_stdio_output@@@2@@__crt_stdio_output@@CADH_N@Z 0000000180049ac8 f i libucrt:output.obj
 0001:00048ad4       ?adjust_hexit@?$output_processor@_WV?$string_output_adapter@_W@__crt_stdio_output@@V?$standard_base@_WV?$string_output_adapter@_W@__crt_stdio_output@@@2@@__crt_stdio_output@@CADH_N@Z 0000000180049ad4 f i libucrt:output.obj
 0001:00048ae0       ?advance_to_next_pass@?$positional_parameter_base@DV?$stream_output_adapter@D@__crt_stdio_output@@@__crt_stdio_output@@IEAA_NXZ 0000000180049ae0 f i libucrt:output.obj
 0001:00048b30       ?advance_to_next_pass@?$positional_parameter_base@DV?$string_output_adapter@D@__crt_stdio_output@@@__crt_stdio_output@@IEAA_NXZ 0000000180049b30 f i libucrt:output.obj
 0001:00048b80       ?advance_to_next_pass@?$positional_parameter_base@_WV?$stream_output_adapter@_W@__crt_stdio_output@@@__crt_stdio_output@@IEAA_NXZ 0000000180049b80 f i libucrt:output.obj
 0001:00048bd0       ?advance_to_next_pass@?$positional_parameter_base@_WV?$string_output_adapter@_W@__crt_stdio_output@@@__crt_stdio_output@@IEAA_NXZ 0000000180049bd0 f i libucrt:output.obj
 0001:00048c20       ?advance_to_next_pass@?$standard_base@DV?$stream_output_adapter@D@__crt_stdio_output@@@__crt_stdio_output@@IEAA_NXZ 0000000180049c20 f i libucrt:output.obj
 0001:00048c34       ?advance_to_next_pass@?$standard_base@DV?$string_output_adapter@D@__crt_stdio_output@@@__crt_stdio_output@@IEAA_NXZ 0000000180049c34 f i libucrt:output.obj
 0001:00048c48       ?advance_to_next_pass@?$standard_base@_WV?$stream_output_adapter@_W@__crt_stdio_output@@@__crt_stdio_output@@IEAA_NXZ 0000000180049c48 f i libucrt:output.obj
 0001:00048c5c       ?advance_to_next_pass@?$standard_base@_WV?$string_output_adapter@_W@__crt_stdio_output@@@__crt_stdio_output@@IEAA_NXZ 0000000180049c5c f i libucrt:output.obj
 0001:00048c70       ?crop_zeroes@__crt_stdio_output@@YAXPEADQEAU__crt_locale_pointers@@@Z 0000000180049c70 f i libucrt:output.obj
 0001:00048d04       ?find_next_state@?$output_processor@DV?$stream_output_adapter@D@__crt_stdio_output@@V?$format_validation_base@DV?$stream_output_adapter@D@__crt_stdio_output@@@2@@__crt_stdio_output@@AEBA?AW4state@2@DW432@@Z 0000000180049d04 f i libucrt:output.obj
 0001:00048d34       ?find_next_state@?$output_processor@DV?$stream_output_adapter@D@__crt_stdio_output@@V?$positional_parameter_base@DV?$stream_output_adapter@D@__crt_stdio_output@@@2@@__crt_stdio_output@@AEBA?AW4state@2@DW432@@Z 0000000180049d34 f i libucrt:output.obj
 0001:00048d64       ?find_next_state@?$output_processor@DV?$stream_output_adapter@D@__crt_stdio_output@@V?$standard_base@DV?$stream_output_adapter@D@__crt_stdio_output@@@2@@__crt_stdio_output@@AEBA?AW4state@2@DW432@@Z 0000000180049d64 f i libucrt:output.obj
 0001:00048d94       ?find_next_state@?$output_processor@DV?$string_output_adapter@D@__crt_stdio_output@@V?$format_validation_base@DV?$string_output_adapter@D@__crt_stdio_output@@@2@@__crt_stdio_output@@AEBA?AW4state@2@DW432@@Z 0000000180049d94 f i libucrt:output.obj
 0001:00048dc4       ?find_next_state@?$output_processor@DV?$string_output_adapter@D@__crt_stdio_output@@V?$positional_parameter_base@DV?$string_output_adapter@D@__crt_stdio_output@@@2@@__crt_stdio_output@@AEBA?AW4state@2@DW432@@Z 0000000180049dc4 f i libucrt:output.obj
 0001:00048df4       ?find_next_state@?$output_processor@DV?$string_output_adapter@D@__crt_stdio_output@@V?$standard_base@DV?$string_output_adapter@D@__crt_stdio_output@@@2@@__crt_stdio_output@@AEBA?AW4state@2@DW432@@Z 0000000180049df4 f i libucrt:output.obj
 0001:00048e24       ?find_next_state@?$output_processor@_WV?$stream_output_adapter@_W@__crt_stdio_output@@V?$format_validation_base@_WV?$stream_output_adapter@_W@__crt_stdio_output@@@2@@__crt_stdio_output@@AEBA?AW4state@2@_WW432@@Z 0000000180049e24 f i libucrt:output.obj
 0001:00048e5c       ?find_next_state@?$output_processor@_WV?$stream_output_adapter@_W@__crt_stdio_output@@V?$positional_parameter_base@_WV?$stream_output_adapter@_W@__crt_stdio_output@@@2@@__crt_stdio_output@@AEBA?AW4state@2@_WW432@@Z 0000000180049e5c f i libucrt:output.obj
 0001:00048e94       ?find_next_state@?$output_processor@_WV?$stream_output_adapter@_W@__crt_stdio_output@@V?$standard_base@_WV?$stream_output_adapter@_W@__crt_stdio_output@@@2@@__crt_stdio_output@@AEBA?AW4state@2@_WW432@@Z 0000000180049e94 f i libucrt:output.obj
 0001:00048ecc       ?find_next_state@?$output_processor@_WV?$string_output_adapter@_W@__crt_stdio_output@@V?$format_validation_base@_WV?$string_output_adapter@_W@__crt_stdio_output@@@2@@__crt_stdio_output@@AEBA?AW4state@2@_WW432@@Z 0000000180049ecc f i libucrt:output.obj
 0001:00048f04       ?find_next_state@?$output_processor@_WV?$string_output_adapter@_W@__crt_stdio_output@@V?$positional_parameter_base@_WV?$string_output_adapter@_W@__crt_stdio_output@@@2@@__crt_stdio_output@@AEBA?AW4state@2@_WW432@@Z 0000000180049f04 f i libucrt:output.obj
 0001:00048f3c       ?find_next_state@?$output_processor@_WV?$string_output_adapter@_W@__crt_stdio_output@@V?$standard_base@_WV?$string_output_adapter@_W@__crt_stdio_output@@@2@@__crt_stdio_output@@AEBA?AW4state@2@_WW432@@Z 0000000180049f3c f i libucrt:output.obj
 0001:00048f80       ?force_decimal_point@__crt_stdio_output@@YAXPEADQEAU__crt_locale_pointers@@@Z 0000000180049f80 f i libucrt:output.obj
 0001:00048ff8       ?get@__crt_deferred_errno_cache@@QEAAAEAHXZ 0000000180049ff8 f i libucrt:output.obj
 0001:00049018       ?get_flags@__crt_stdio_stream@@QEBAJXZ 000000018004a018 f i libucrt:output.obj
 0001:00049020       ?get_parameter_type@?$positional_parameter_base@DV?$stream_output_adapter@D@__crt_stdio_output@@@__crt_stdio_output@@CA?AW4parameter_type@12@F@Z 000000018004a020 f i libucrt:output.obj
 0001:00049028       ?get_parameter_type@?$positional_parameter_base@DV?$stream_output_adapter@D@__crt_stdio_output@@@__crt_stdio_output@@CA?AW4parameter_type@12@G@Z 000000018004a028 f i libucrt:output.obj
 0001:00049030       ?get_parameter_type@?$positional_parameter_base@DV?$stream_output_adapter@D@__crt_stdio_output@@@__crt_stdio_output@@CA?AW4parameter_type@12@H@Z 000000018004a030 f i libucrt:output.obj
 0001:00049038       ?get_parameter_type@?$positional_parameter_base@DV?$stream_output_adapter@D@__crt_stdio_output@@@__crt_stdio_output@@CA?AW4parameter_type@12@I@Z 000000018004a038 f i libucrt:output.obj
 0001:00049040       ?get_parameter_type@?$positional_parameter_base@DV?$stream_output_adapter@D@__crt_stdio_output@@@__crt_stdio_output@@CA?AW4parameter_type@12@U_CRT_DOUBLE@@@Z 000000018004a040 f i libucrt:output.obj
 0001:00049048       ?get_parameter_type@?$positional_parameter_base@DV?$stream_output_adapter@D@__crt_stdio_output@@@__crt_stdio_output@@CA?AW4parameter_type@12@_J@Z 000000018004a048 f i libucrt:output.obj
 0001:00049050       ?get_parameter_type@?$positional_parameter_base@DV?$stream_output_adapter@D@__crt_stdio_output@@@__crt_stdio_output@@CA?AW4parameter_type@12@_K@Z 000000018004a050 f i libucrt:output.obj
 0001:00049058       ?get_parameter_type@?$positional_parameter_base@DV?$stream_output_adapter@D@__crt_stdio_output@@@__crt_stdio_output@@CA?AW4parameter_type@12@_W@Z 000000018004a058 f i libucrt:output.obj
 0001:00049060       ?get_parameter_type@?$positional_parameter_base@DV?$string_output_adapter@D@__crt_stdio_output@@@__crt_stdio_output@@CA?AW4parameter_type@12@F@Z 000000018004a060 f i libucrt:output.obj
 0001:00049068       ?get_parameter_type@?$positional_parameter_base@DV?$string_output_adapter@D@__crt_stdio_output@@@__crt_stdio_output@@CA?AW4parameter_type@12@G@Z 000000018004a068 f i libucrt:output.obj
 0001:00049070       ?get_parameter_type@?$positional_parameter_base@DV?$string_output_adapter@D@__crt_stdio_output@@@__crt_stdio_output@@CA?AW4parameter_type@12@H@Z 000000018004a070 f i libucrt:output.obj
 0001:00049078       ?get_parameter_type@?$positional_parameter_base@DV?$string_output_adapter@D@__crt_stdio_output@@@__crt_stdio_output@@CA?AW4parameter_type@12@I@Z 000000018004a078 f i libucrt:output.obj
 0001:00049080       ?get_parameter_type@?$positional_parameter_base@DV?$string_output_adapter@D@__crt_stdio_output@@@__crt_stdio_output@@CA?AW4parameter_type@12@U_CRT_DOUBLE@@@Z 000000018004a080 f i libucrt:output.obj
 0001:00049088       ?get_parameter_type@?$positional_parameter_base@DV?$string_output_adapter@D@__crt_stdio_output@@@__crt_stdio_output@@CA?AW4parameter_type@12@_J@Z 000000018004a088 f i libucrt:output.obj
 0001:00049090       ?get_parameter_type@?$positional_parameter_base@DV?$string_output_adapter@D@__crt_stdio_output@@@__crt_stdio_output@@CA?AW4parameter_type@12@_K@Z 000000018004a090 f i libucrt:output.obj
 0001:00049098       ?get_parameter_type@?$positional_parameter_base@DV?$string_output_adapter@D@__crt_stdio_output@@@__crt_stdio_output@@CA?AW4parameter_type@12@_W@Z 000000018004a098 f i libucrt:output.obj
 0001:000490a0       ?get_parameter_type@?$positional_parameter_base@_WV?$stream_output_adapter@_W@__crt_stdio_output@@@__crt_stdio_output@@CA?AW4parameter_type@12@F@Z 000000018004a0a0 f i libucrt:output.obj
 0001:000490a8       ?get_parameter_type@?$positional_parameter_base@_WV?$stream_output_adapter@_W@__crt_stdio_output@@@__crt_stdio_output@@CA?AW4parameter_type@12@G@Z 000000018004a0a8 f i libucrt:output.obj
 0001:000490b0       ?get_parameter_type@?$positional_parameter_base@_WV?$stream_output_adapter@_W@__crt_stdio_output@@@__crt_stdio_output@@CA?AW4parameter_type@12@H@Z 000000018004a0b0 f i libucrt:output.obj
 0001:000490b8       ?get_parameter_type@?$positional_parameter_base@_WV?$stream_output_adapter@_W@__crt_stdio_output@@@__crt_stdio_output@@CA?AW4parameter_type@12@I@Z 000000018004a0b8 f i libucrt:output.obj
 0001:000490c0       ?get_parameter_type@?$positional_parameter_base@_WV?$stream_output_adapter@_W@__crt_stdio_output@@@__crt_stdio_output@@CA?AW4parameter_type@12@U_CRT_DOUBLE@@@Z 000000018004a0c0 f i libucrt:output.obj
 0001:000490c8       ?get_parameter_type@?$positional_parameter_base@_WV?$stream_output_adapter@_W@__crt_stdio_output@@@__crt_stdio_output@@CA?AW4parameter_type@12@_J@Z 000000018004a0c8 f i libucrt:output.obj
 0001:000490d0       ?get_parameter_type@?$positional_parameter_base@_WV?$stream_output_adapter@_W@__crt_stdio_output@@@__crt_stdio_output@@CA?AW4parameter_type@12@_K@Z 000000018004a0d0 f i libucrt:output.obj
 0001:000490d8       ?get_parameter_type@?$positional_parameter_base@_WV?$stream_output_adapter@_W@__crt_stdio_output@@@__crt_stdio_output@@CA?AW4parameter_type@12@_W@Z 000000018004a0d8 f i libucrt:output.obj
 0001:000490e0       ?get_parameter_type@?$positional_parameter_base@_WV?$string_output_adapter@_W@__crt_stdio_output@@@__crt_stdio_output@@CA?AW4parameter_type@12@F@Z 000000018004a0e0 f i libucrt:output.obj
 0001:000490e8       ?get_parameter_type@?$positional_parameter_base@_WV?$string_output_adapter@_W@__crt_stdio_output@@@__crt_stdio_output@@CA?AW4parameter_type@12@G@Z 000000018004a0e8 f i libucrt:output.obj
 0001:000490f0       ?get_parameter_type@?$positional_parameter_base@_WV?$string_output_adapter@_W@__crt_stdio_output@@@__crt_stdio_output@@CA?AW4parameter_type@12@H@Z 000000018004a0f0 f i libucrt:output.obj
 0001:000490f8       ?get_parameter_type@?$positional_parameter_base@_WV?$string_output_adapter@_W@__crt_stdio_output@@@__crt_stdio_output@@CA?AW4parameter_type@12@I@Z 000000018004a0f8 f i libucrt:output.obj
 0001:00049100       ?get_parameter_type@?$positional_parameter_base@_WV?$string_output_adapter@_W@__crt_stdio_output@@@__crt_stdio_output@@CA?AW4parameter_type@12@U_CRT_DOUBLE@@@Z 000000018004a100 f i libucrt:output.obj
 0001:00049108       ?get_parameter_type@?$positional_parameter_base@_WV?$string_output_adapter@_W@__crt_stdio_output@@@__crt_stdio_output@@CA?AW4parameter_type@12@_J@Z 000000018004a108 f i libucrt:output.obj
 0001:00049110       ?get_parameter_type@?$positional_parameter_base@_WV?$string_output_adapter@_W@__crt_stdio_output@@@__crt_stdio_output@@CA?AW4parameter_type@12@_K@Z 000000018004a110 f i libucrt:output.obj
 0001:00049118       ?get_parameter_type@?$positional_parameter_base@_WV?$string_output_adapter@_W@__crt_stdio_output@@@__crt_stdio_output@@CA?AW4parameter_type@12@_W@Z 000000018004a118 f i libucrt:output.obj
 0001:00049120       ?has_flag@?$output_processor@DV?$stream_output_adapter@D@__crt_stdio_output@@V?$format_validation_base@DV?$stream_output_adapter@D@__crt_stdio_output@@@2@@__crt_stdio_output@@AEBA_NI@Z 000000018004a120 f i libucrt:output.obj
 0001:00049128       ?has_flag@?$output_processor@DV?$stream_output_adapter@D@__crt_stdio_output@@V?$positional_parameter_base@DV?$stream_output_adapter@D@__crt_stdio_output@@@2@@__crt_stdio_output@@AEBA_NI@Z 000000018004a128 f i libucrt:output.obj
 0001:00049130       ?has_flag@?$output_processor@DV?$stream_output_adapter@D@__crt_stdio_output@@V?$standard_base@DV?$stream_output_adapter@D@__crt_stdio_output@@@2@@__crt_stdio_output@@AEBA_NI@Z 000000018004a130 f i libucrt:output.obj
 0001:00049138       ?has_flag@?$output_processor@DV?$string_output_adapter@D@__crt_stdio_output@@V?$format_validation_base@DV?$string_output_adapter@D@__crt_stdio_output@@@2@@__crt_stdio_output@@AEBA_NI@Z 000000018004a138 f i libucrt:output.obj
 0001:00049140       ?has_flag@?$output_processor@DV?$string_output_adapter@D@__crt_stdio_output@@V?$positional_parameter_base@DV?$string_output_adapter@D@__crt_stdio_output@@@2@@__crt_stdio_output@@AEBA_NI@Z 000000018004a140 f i libucrt:output.obj
 0001:00049148       ?has_flag@?$output_processor@DV?$string_output_adapter@D@__crt_stdio_output@@V?$standard_base@DV?$string_output_adapter@D@__crt_stdio_output@@@2@@__crt_stdio_output@@AEBA_NI@Z 000000018004a148 f i libucrt:output.obj
 0001:00049150       ?has_flag@?$output_processor@_WV?$stream_output_adapter@_W@__crt_stdio_output@@V?$format_validation_base@_WV?$stream_output_adapter@_W@__crt_stdio_output@@@2@@__crt_stdio_output@@AEBA_NI@Z 000000018004a150 f i libucrt:output.obj
 0001:00049158       ?has_flag@?$output_processor@_WV?$stream_output_adapter@_W@__crt_stdio_output@@V?$positional_parameter_base@_WV?$stream_output_adapter@_W@__crt_stdio_output@@@2@@__crt_stdio_output@@AEBA_NI@Z 000000018004a158 f i libucrt:output.obj
 0001:00049160       ?has_flag@?$output_processor@_WV?$stream_output_adapter@_W@__crt_stdio_output@@V?$standard_base@_WV?$stream_output_adapter@_W@__crt_stdio_output@@@2@@__crt_stdio_output@@AEBA_NI@Z 000000018004a160 f i libucrt:output.obj
 0001:00049168       ?has_flag@?$output_processor@_WV?$string_output_adapter@_W@__crt_stdio_output@@V?$format_validation_base@_WV?$string_output_adapter@_W@__crt_stdio_output@@@2@@__crt_stdio_output@@AEBA_NI@Z 000000018004a168 f i libucrt:output.obj
 0001:00049170       ?has_flag@?$output_processor@_WV?$string_output_adapter@_W@__crt_stdio_output@@V?$positional_parameter_base@_WV?$string_output_adapter@_W@__crt_stdio_output@@@2@@__crt_stdio_output@@AEBA_NI@Z 000000018004a170 f i libucrt:output.obj
 0001:00049178       ?has_flag@?$output_processor@_WV?$string_output_adapter@_W@__crt_stdio_output@@V?$standard_base@_WV?$string_output_adapter@_W@__crt_stdio_output@@@2@@__crt_stdio_output@@AEBA_NI@Z 000000018004a178 f i libucrt:output.obj
 0001:00049180       ?is_positional_parameter_reappearance_consistent@?$positional_parameter_base@DV?$stream_output_adapter@D@__crt_stdio_output@@@__crt_stdio_output@@AEAA_NAEBUparameter_data@12@W4parameter_type@12@DW4length_modifier@2@@Z 000000018004a180 f i libucrt:output.obj
 0001:00049320       ?is_positional_parameter_reappearance_consistent@?$positional_parameter_base@DV?$string_output_adapter@D@__crt_stdio_output@@@__crt_stdio_output@@AEAA_NAEBUparameter_data@12@W4parameter_type@12@DW4length_modifier@2@@Z 000000018004a320 f i libucrt:output.obj
 0001:000494c0       ?is_positional_parameter_reappearance_consistent@?$positional_parameter_base@_WV?$stream_output_adapter@_W@__crt_stdio_output@@@__crt_stdio_output@@AEAA_NAEBUparameter_data@12@W4parameter_type@12@_WW4length_modifier@2@@Z 000000018004a4c0 f i libucrt:output.obj
 0001:0004962c       ?is_positional_parameter_reappearance_consistent@?$positional_parameter_base@_WV?$string_output_adapter@_W@__crt_stdio_output@@@__crt_stdio_output@@AEAA_NAEBUparameter_data@12@W4parameter_type@12@_WW4length_modifier@2@@Z 000000018004a62c f i libucrt:output.obj
 0001:00049798       ?is_string_backed@__crt_stdio_stream@@QEBA_NXZ 000000018004a798 f i libucrt:output.obj
 0001:000497a4       ?narrow_null_string@?$output_processor@DV?$stream_output_adapter@D@__crt_stdio_output@@V?$format_validation_base@DV?$stream_output_adapter@D@__crt_stdio_output@@@2@@__crt_stdio_output@@CAPEADXZ 000000018004a7a4 f i libucrt:output.obj
 0001:000497ac       ?narrow_null_string@?$output_processor@DV?$stream_output_adapter@D@__crt_stdio_output@@V?$positional_parameter_base@DV?$stream_output_adapter@D@__crt_stdio_output@@@2@@__crt_stdio_output@@CAPEADXZ 000000018004a7ac f i libucrt:output.obj
 0001:000497b4       ?narrow_null_string@?$output_processor@DV?$stream_output_adapter@D@__crt_stdio_output@@V?$standard_base@DV?$stream_output_adapter@D@__crt_stdio_output@@@2@@__crt_stdio_output@@CAPEADXZ 000000018004a7b4 f i libucrt:output.obj
 0001:000497bc       ?narrow_null_string@?$output_processor@DV?$string_output_adapter@D@__crt_stdio_output@@V?$format_validation_base@DV?$string_output_adapter@D@__crt_stdio_output@@@2@@__crt_stdio_output@@CAPEADXZ 000000018004a7bc f i libucrt:output.obj
 0001:000497c4       ?narrow_null_string@?$output_processor@DV?$string_output_adapter@D@__crt_stdio_output@@V?$positional_parameter_base@DV?$string_output_adapter@D@__crt_stdio_output@@@2@@__crt_stdio_output@@CAPEADXZ 000000018004a7c4 f i libucrt:output.obj
 0001:000497cc       ?narrow_null_string@?$output_processor@DV?$string_output_adapter@D@__crt_stdio_output@@V?$standard_base@DV?$string_output_adapter@D@__crt_stdio_output@@@2@@__crt_stdio_output@@CAPEADXZ 000000018004a7cc f i libucrt:output.obj
 0001:000497d4       ?narrow_null_string@?$output_processor@_WV?$stream_output_adapter@_W@__crt_stdio_output@@V?$format_validation_base@_WV?$stream_output_adapter@_W@__crt_stdio_output@@@2@@__crt_stdio_output@@CAPEADXZ 000000018004a7d4 f i libucrt:output.obj
 0001:000497dc       ?narrow_null_string@?$output_processor@_WV?$stream_output_adapter@_W@__crt_stdio_output@@V?$positional_parameter_base@_WV?$stream_output_adapter@_W@__crt_stdio_output@@@2@@__crt_stdio_output@@CAPEADXZ 000000018004a7dc f i libucrt:output.obj
 0001:000497e4       ?narrow_null_string@?$output_processor@_WV?$stream_output_adapter@_W@__crt_stdio_output@@V?$standard_base@_WV?$stream_output_adapter@_W@__crt_stdio_output@@@2@@__crt_stdio_output@@CAPEADXZ 000000018004a7e4 f i libucrt:output.obj
 0001:000497ec       ?narrow_null_string@?$output_processor@_WV?$string_output_adapter@_W@__crt_stdio_output@@V?$format_validation_base@_WV?$string_output_adapter@_W@__crt_stdio_output@@@2@@__crt_stdio_output@@CAPEADXZ 000000018004a7ec f i libucrt:output.obj
 0001:000497f4       ?narrow_null_string@?$output_processor@_WV?$string_output_adapter@_W@__crt_stdio_output@@V?$positional_parameter_base@_WV?$string_output_adapter@_W@__crt_stdio_output@@@2@@__crt_stdio_output@@CAPEADXZ 000000018004a7f4 f i libucrt:output.obj
 0001:000497fc       ?narrow_null_string@?$output_processor@_WV?$string_output_adapter@_W@__crt_stdio_output@@V?$standard_base@_WV?$string_output_adapter@_W@__crt_stdio_output@@@2@@__crt_stdio_output@@CAPEADXZ 000000018004a7fc f i libucrt:output.obj
 0001:00049804       ?parse_int_from_format_string@?$output_processor@DV?$stream_output_adapter@D@__crt_stdio_output@@V?$format_validation_base@DV?$stream_output_adapter@D@__crt_stdio_output@@@2@@__crt_stdio_output@@AEAA_NQEAH@Z 000000018004a804 f i libucrt:output.obj
 0001:000498a8       ?parse_int_from_format_string@?$output_processor@DV?$stream_output_adapter@D@__crt_stdio_output@@V?$positional_parameter_base@DV?$stream_output_adapter@D@__crt_stdio_output@@@2@@__crt_stdio_output@@AEAA_NQEAH@Z 000000018004a8a8 f i libucrt:output.obj
 0001:0004994c       ?parse_int_from_format_string@?$output_processor@DV?$stream_output_adapter@D@__crt_stdio_output@@V?$standard_base@DV?$stream_output_adapter@D@__crt_stdio_output@@@2@@__crt_stdio_output@@AEAA_NQEAH@Z 000000018004a94c f i libucrt:output.obj
 0001:000499f0       ?parse_int_from_format_string@?$output_processor@DV?$string_output_adapter@D@__crt_stdio_output@@V?$format_validation_base@DV?$string_output_adapter@D@__crt_stdio_output@@@2@@__crt_stdio_output@@AEAA_NQEAH@Z 000000018004a9f0 f i libucrt:output.obj
 0001:00049a94       ?parse_int_from_format_string@?$output_processor@DV?$string_output_adapter@D@__crt_stdio_output@@V?$positional_parameter_base@DV?$string_output_adapter@D@__crt_stdio_output@@@2@@__crt_stdio_output@@AEAA_NQEAH@Z 000000018004aa94 f i libucrt:output.obj
 0001:00049b38       ?parse_int_from_format_string@?$output_processor@DV?$string_output_adapter@D@__crt_stdio_output@@V?$standard_base@DV?$string_output_adapter@D@__crt_stdio_output@@@2@@__crt_stdio_output@@AEAA_NQEAH@Z 000000018004ab38 f i libucrt:output.obj
 0001:00049bdc       ?parse_int_from_format_string@?$output_processor@_WV?$stream_output_adapter@_W@__crt_stdio_output@@V?$format_validation_base@_WV?$stream_output_adapter@_W@__crt_stdio_output@@@2@@__crt_stdio_output@@AEAA_NQEAH@Z 000000018004abdc f i libucrt:output.obj
 0001:00049c80       ?parse_int_from_format_string@?$output_processor@_WV?$stream_output_adapter@_W@__crt_stdio_output@@V?$positional_parameter_base@_WV?$stream_output_adapter@_W@__crt_stdio_output@@@2@@__crt_stdio_output@@AEAA_NQEAH@Z 000000018004ac80 f i libucrt:output.obj
 0001:00049d24       ?parse_int_from_format_string@?$output_processor@_WV?$stream_output_adapter@_W@__crt_stdio_output@@V?$standard_base@_WV?$stream_output_adapter@_W@__crt_stdio_output@@@2@@__crt_stdio_output@@AEAA_NQEAH@Z 000000018004ad24 f i libucrt:output.obj
 0001:00049dc8       ?parse_int_from_format_string@?$output_processor@_WV?$string_output_adapter@_W@__crt_stdio_output@@V?$format_validation_base@_WV?$string_output_adapter@_W@__crt_stdio_output@@@2@@__crt_stdio_output@@AEAA_NQEAH@Z 000000018004adc8 f i libucrt:output.obj
 0001:00049e6c       ?parse_int_from_format_string@?$output_processor@_WV?$string_output_adapter@_W@__crt_stdio_output@@V?$positional_parameter_base@_WV?$string_output_adapter@_W@__crt_stdio_output@@@2@@__crt_stdio_output@@AEAA_NQEAH@Z 000000018004ae6c f i libucrt:output.obj
 0001:00049f10       ?parse_int_from_format_string@?$output_processor@_WV?$string_output_adapter@_W@__crt_stdio_output@@V?$standard_base@_WV?$string_output_adapter@_W@__crt_stdio_output@@@2@@__crt_stdio_output@@AEAA_NQEAH@Z 000000018004af10 f i libucrt:output.obj
 0001:00049fb4       ?process@?$output_processor@DV?$stream_output_adapter@D@__crt_stdio_output@@V?$format_validation_base@DV?$stream_output_adapter@D@__crt_stdio_output@@@2@@__crt_stdio_output@@QEAAHXZ 000000018004afb4 f i libucrt:output.obj
 0001:0004a1d8       ?process@?$output_processor@DV?$stream_output_adapter@D@__crt_stdio_output@@V?$positional_parameter_base@DV?$stream_output_adapter@D@__crt_stdio_output@@@2@@__crt_stdio_output@@QEAAHXZ 000000018004b1d8 f i libucrt:output.obj
 0001:0004a47c       ?process@?$output_processor@DV?$stream_output_adapter@D@__crt_stdio_output@@V?$standard_base@DV?$stream_output_adapter@D@__crt_stdio_output@@@2@@__crt_stdio_output@@QEAAHXZ 000000018004b47c f i libucrt:output.obj
 0001:0004a690       ?process@?$output_processor@DV?$string_output_adapter@D@__crt_stdio_output@@V?$format_validation_base@DV?$string_output_adapter@D@__crt_stdio_output@@@2@@__crt_stdio_output@@QEAAHXZ 000000018004b690 f i libucrt:output.obj
 0001:0004a8a4       ?process@?$output_processor@DV?$string_output_adapter@D@__crt_stdio_output@@V?$positional_parameter_base@DV?$string_output_adapter@D@__crt_stdio_output@@@2@@__crt_stdio_output@@QEAAHXZ 000000018004b8a4 f i libucrt:output.obj
 0001:0004ab38       ?process@?$output_processor@DV?$string_output_adapter@D@__crt_stdio_output@@V?$standard_base@DV?$string_output_adapter@D@__crt_stdio_output@@@2@@__crt_stdio_output@@QEAAHXZ 000000018004bb38 f i libucrt:output.obj
 0001:0004ad40       ?process@?$output_processor@_WV?$stream_output_adapter@_W@__crt_stdio_output@@V?$format_validation_base@_WV?$stream_output_adapter@_W@__crt_stdio_output@@@2@@__crt_stdio_output@@QEAAHXZ 000000018004bd40 f i libucrt:output.obj
 0001:0004afc4       ?process@?$output_processor@_WV?$stream_output_adapter@_W@__crt_stdio_output@@V?$positional_parameter_base@_WV?$stream_output_adapter@_W@__crt_stdio_output@@@2@@__crt_stdio_output@@QEAAHXZ 000000018004bfc4 f i libucrt:output.obj
 0001:0004b280       ?process@?$output_processor@_WV?$stream_output_adapter@_W@__crt_stdio_output@@V?$standard_base@_WV?$stream_output_adapter@_W@__crt_stdio_output@@@2@@__crt_stdio_output@@QEAAHXZ 000000018004c280 f i libucrt:output.obj
 0001:0004b4f8       ?process@?$output_processor@_WV?$string_output_adapter@_W@__crt_stdio_output@@V?$format_validation_base@_WV?$string_output_adapter@_W@__crt_stdio_output@@@2@@__crt_stdio_output@@QEAAHXZ 000000018004c4f8 f i libucrt:output.obj
 0001:0004b770       ?process@?$output_processor@_WV?$string_output_adapter@_W@__crt_stdio_output@@V?$positional_parameter_base@_WV?$string_output_adapter@_W@__crt_stdio_output@@@2@@__crt_stdio_output@@QEAAHXZ 000000018004c770 f i libucrt:output.obj
 0001:0004ba2c       ?process@?$output_processor@_WV?$string_output_adapter@_W@__crt_stdio_output@@V?$standard_base@_WV?$string_output_adapter@_W@__crt_stdio_output@@@2@@__crt_stdio_output@@QEAAHXZ 000000018004ca2c f i libucrt:output.obj
 0001:0004bc98       ?public_stream@__crt_stdio_stream@@QEBAPEAU_iobuf@@XZ 000000018004cc98 f i libucrt:output.obj
 0001:0004bc9c       ?set_flag@?$output_processor@DV?$stream_output_adapter@D@__crt_stdio_output@@V?$format_validation_base@DV?$stream_output_adapter@D@__crt_stdio_output@@@2@@__crt_stdio_output@@AEAAXI@Z 000000018004cc9c f i libucrt:output.obj
 0001:0004bca0       ?set_flag@?$output_processor@DV?$stream_output_adapter@D@__crt_stdio_output@@V?$positional_parameter_base@DV?$stream_output_adapter@D@__crt_stdio_output@@@2@@__crt_stdio_output@@AEAAXI@Z 000000018004cca0 f i libucrt:output.obj
 0001:0004bca4       ?set_flag@?$output_processor@DV?$stream_output_adapter@D@__crt_stdio_output@@V?$standard_base@DV?$stream_output_adapter@D@__crt_stdio_output@@@2@@__crt_stdio_output@@AEAAXI@Z 000000018004cca4 f i libucrt:output.obj
 0001:0004bca8       ?set_flag@?$output_processor@DV?$string_output_adapter@D@__crt_stdio_output@@V?$format_validation_base@DV?$string_output_adapter@D@__crt_stdio_output@@@2@@__crt_stdio_output@@AEAAXI@Z 000000018004cca8 f i libucrt:output.obj
 0001:0004bcac       ?set_flag@?$output_processor@DV?$string_output_adapter@D@__crt_stdio_output@@V?$positional_parameter_base@DV?$string_output_adapter@D@__crt_stdio_output@@@2@@__crt_stdio_output@@AEAAXI@Z 000000018004ccac f i libucrt:output.obj
 0001:0004bcb0       ?set_flag@?$output_processor@DV?$string_output_adapter@D@__crt_stdio_output@@V?$standard_base@DV?$string_output_adapter@D@__crt_stdio_output@@@2@@__crt_stdio_output@@AEAAXI@Z 000000018004ccb0 f i libucrt:output.obj
 0001:0004bcb4       ?set_flag@?$output_processor@_WV?$stream_output_adapter@_W@__crt_stdio_output@@V?$format_validation_base@_WV?$stream_output_adapter@_W@__crt_stdio_output@@@2@@__crt_stdio_output@@AEAAXI@Z 000000018004ccb4 f i libucrt:output.obj
 0001:0004bcb8       ?set_flag@?$output_processor@_WV?$stream_output_adapter@_W@__crt_stdio_output@@V?$positional_parameter_base@_WV?$stream_output_adapter@_W@__crt_stdio_output@@@2@@__crt_stdio_output@@AEAAXI@Z 000000018004ccb8 f i libucrt:output.obj
 0001:0004bcbc       ?set_flag@?$output_processor@_WV?$stream_output_adapter@_W@__crt_stdio_output@@V?$standard_base@_WV?$stream_output_adapter@_W@__crt_stdio_output@@@2@@__crt_stdio_output@@AEAAXI@Z 000000018004ccbc f i libucrt:output.obj
 0001:0004bcc0       ?set_flag@?$output_processor@_WV?$string_output_adapter@_W@__crt_stdio_output@@V?$format_validation_base@_WV?$string_output_adapter@_W@__crt_stdio_output@@@2@@__crt_stdio_output@@AEAAXI@Z 000000018004ccc0 f i libucrt:output.obj
 0001:0004bcc4       ?set_flag@?$output_processor@_WV?$string_output_adapter@_W@__crt_stdio_output@@V?$positional_parameter_base@_WV?$string_output_adapter@_W@__crt_stdio_output@@@2@@__crt_stdio_output@@AEAAXI@Z 000000018004ccc4 f i libucrt:output.obj
 0001:0004bcc8       ?set_flag@?$output_processor@_WV?$string_output_adapter@_W@__crt_stdio_output@@V?$standard_base@_WV?$string_output_adapter@_W@__crt_stdio_output@@@2@@__crt_stdio_output@@AEAAXI@Z 000000018004ccc8 f i libucrt:output.obj
 0001:0004bccc       ?should_format@?$positional_parameter_base@DV?$stream_output_adapter@D@__crt_stdio_output@@@__crt_stdio_output@@IEAA_NXZ 000000018004cccc f i libucrt:output.obj
 0001:0004bce4       ?should_format@?$positional_parameter_base@DV?$string_output_adapter@D@__crt_stdio_output@@@__crt_stdio_output@@IEAA_NXZ 000000018004cce4 f i libucrt:output.obj
 0001:0004bcfc       ?should_format@?$positional_parameter_base@_WV?$stream_output_adapter@_W@__crt_stdio_output@@@__crt_stdio_output@@IEAA_NXZ 000000018004ccfc f i libucrt:output.obj
 0001:0004bd14       ?should_format@?$positional_parameter_base@_WV?$string_output_adapter@_W@__crt_stdio_output@@@__crt_stdio_output@@IEAA_NXZ 000000018004cd14 f i libucrt:output.obj
 0001:0004bd2c       ?should_format@?$standard_base@DV?$stream_output_adapter@D@__crt_stdio_output@@@__crt_stdio_output@@IEAA_NXZ 000000018004cd2c f i libucrt:output.obj
 0001:0004bd30       ?should_format@?$standard_base@DV?$string_output_adapter@D@__crt_stdio_output@@@__crt_stdio_output@@IEAA_NXZ 000000018004cd30 f i libucrt:output.obj
 0001:0004bd34       ?should_format@?$standard_base@_WV?$stream_output_adapter@_W@__crt_stdio_output@@@__crt_stdio_output@@IEAA_NXZ 000000018004cd34 f i libucrt:output.obj
 0001:0004bd38       ?should_format@?$standard_base@_WV?$string_output_adapter@_W@__crt_stdio_output@@@__crt_stdio_output@@IEAA_NXZ 000000018004cd38 f i libucrt:output.obj
 0001:0004bd3c       ?should_skip_normal_state_processing@?$positional_parameter_base@DV?$stream_output_adapter@D@__crt_stdio_output@@@__crt_stdio_output@@IEAA_NXZ 000000018004cd3c f i libucrt:output.obj
 0001:0004bd64       ?should_skip_normal_state_processing@?$positional_parameter_base@DV?$string_output_adapter@D@__crt_stdio_output@@@__crt_stdio_output@@IEAA_NXZ 000000018004cd64 f i libucrt:output.obj
 0001:0004bd8c       ?should_skip_normal_state_processing@?$positional_parameter_base@_WV?$stream_output_adapter@_W@__crt_stdio_output@@@__crt_stdio_output@@IEAA_NXZ 000000018004cd8c f i libucrt:output.obj
 0001:0004bdb4       ?should_skip_normal_state_processing@?$positional_parameter_base@_WV?$string_output_adapter@_W@__crt_stdio_output@@@__crt_stdio_output@@IEAA_NXZ 000000018004cdb4 f i libucrt:output.obj
 0001:0004bddc       ?should_skip_normal_state_processing@?$standard_base@DV?$stream_output_adapter@D@__crt_stdio_output@@@__crt_stdio_output@@IEAA_NXZ 000000018004cddc f i libucrt:output.obj
 0001:0004bde0       ?should_skip_normal_state_processing@?$standard_base@DV?$string_output_adapter@D@__crt_stdio_output@@@__crt_stdio_output@@IEAA_NXZ 000000018004cde0 f i libucrt:output.obj
 0001:0004bde4       ?should_skip_normal_state_processing@?$standard_base@_WV?$stream_output_adapter@_W@__crt_stdio_output@@@__crt_stdio_output@@IEAA_NXZ 000000018004cde4 f i libucrt:output.obj
 0001:0004bde8       ?should_skip_normal_state_processing@?$standard_base@_WV?$string_output_adapter@_W@__crt_stdio_output@@@__crt_stdio_output@@IEAA_NXZ 000000018004cde8 f i libucrt:output.obj
 0001:0004bdec       ?should_skip_type_state_output@?$positional_parameter_base@DV?$stream_output_adapter@D@__crt_stdio_output@@@__crt_stdio_output@@IEBA_NXZ 000000018004cdec f i libucrt:output.obj
 0001:0004be08       ?should_skip_type_state_output@?$positional_parameter_base@DV?$string_output_adapter@D@__crt_stdio_output@@@__crt_stdio_output@@IEBA_NXZ 000000018004ce08 f i libucrt:output.obj
 0001:0004be24       ?should_skip_type_state_output@?$positional_parameter_base@_WV?$stream_output_adapter@_W@__crt_stdio_output@@@__crt_stdio_output@@IEBA_NXZ 000000018004ce24 f i libucrt:output.obj
 0001:0004be40       ?should_skip_type_state_output@?$positional_parameter_base@_WV?$string_output_adapter@_W@__crt_stdio_output@@@__crt_stdio_output@@IEBA_NXZ 000000018004ce40 f i libucrt:output.obj
 0001:0004be5c       ?should_skip_type_state_output@?$standard_base@DV?$stream_output_adapter@D@__crt_stdio_output@@@__crt_stdio_output@@IEBA_NXZ 000000018004ce5c f i libucrt:output.obj
 0001:0004be60       ?should_skip_type_state_output@?$standard_base@DV?$string_output_adapter@D@__crt_stdio_output@@@__crt_stdio_output@@IEBA_NXZ 000000018004ce60 f i libucrt:output.obj
 0001:0004be64       ?should_skip_type_state_output@?$standard_base@_WV?$stream_output_adapter@_W@__crt_stdio_output@@@__crt_stdio_output@@IEBA_NXZ 000000018004ce64 f i libucrt:output.obj
 0001:0004be68       ?should_skip_type_state_output@?$standard_base@_WV?$string_output_adapter@_W@__crt_stdio_output@@@__crt_stdio_output@@IEBA_NXZ 000000018004ce68 f i libucrt:output.obj
 0001:0004be6c       ?state_case_dot@?$output_processor@DV?$stream_output_adapter@D@__crt_stdio_output@@V?$format_validation_base@DV?$stream_output_adapter@D@__crt_stdio_output@@@2@@__crt_stdio_output@@AEAA_NXZ 000000018004ce6c f i libucrt:output.obj
 0001:0004be74       ?state_case_dot@?$output_processor@DV?$stream_output_adapter@D@__crt_stdio_output@@V?$positional_parameter_base@DV?$stream_output_adapter@D@__crt_stdio_output@@@2@@__crt_stdio_output@@AEAA_NXZ 000000018004ce74 f i libucrt:output.obj
 0001:0004be7c       ?state_case_dot@?$output_processor@DV?$stream_output_adapter@D@__crt_stdio_output@@V?$standard_base@DV?$stream_output_adapter@D@__crt_stdio_output@@@2@@__crt_stdio_output@@AEAA_NXZ 000000018004ce7c f i libucrt:output.obj
 0001:0004be84       ?state_case_dot@?$output_processor@DV?$string_output_adapter@D@__crt_stdio_output@@V?$format_validation_base@DV?$string_output_adapter@D@__crt_stdio_output@@@2@@__crt_stdio_output@@AEAA_NXZ 000000018004ce84 f i libucrt:output.obj
 0001:0004be8c       ?state_case_dot@?$output_processor@DV?$string_output_adapter@D@__crt_stdio_output@@V?$positional_parameter_base@DV?$string_output_adapter@D@__crt_stdio_output@@@2@@__crt_stdio_output@@AEAA_NXZ 000000018004ce8c f i libucrt:output.obj
 0001:0004be94       ?state_case_dot@?$output_processor@DV?$string_output_adapter@D@__crt_stdio_output@@V?$standard_base@DV?$string_output_adapter@D@__crt_stdio_output@@@2@@__crt_stdio_output@@AEAA_NXZ 000000018004ce94 f i libucrt:output.obj
 0001:0004be9c       ?state_case_dot@?$output_processor@_WV?$stream_output_adapter@_W@__crt_stdio_output@@V?$format_validation_base@_WV?$stream_output_adapter@_W@__crt_stdio_output@@@2@@__crt_stdio_output@@AEAA_NXZ 000000018004ce9c f i libucrt:output.obj
 0001:0004bea4       ?state_case_dot@?$output_processor@_WV?$stream_output_adapter@_W@__crt_stdio_output@@V?$positional_parameter_base@_WV?$stream_output_adapter@_W@__crt_stdio_output@@@2@@__crt_stdio_output@@AEAA_NXZ 000000018004cea4 f i libucrt:output.obj
 0001:0004beac       ?state_case_dot@?$output_processor@_WV?$stream_output_adapter@_W@__crt_stdio_output@@V?$standard_base@_WV?$stream_output_adapter@_W@__crt_stdio_output@@@2@@__crt_stdio_output@@AEAA_NXZ 000000018004ceac f i libucrt:output.obj
 0001:0004beb4       ?state_case_dot@?$output_processor@_WV?$string_output_adapter@_W@__crt_stdio_output@@V?$format_validation_base@_WV?$string_output_adapter@_W@__crt_stdio_output@@@2@@__crt_stdio_output@@AEAA_NXZ 000000018004ceb4 f i libucrt:output.obj
 0001:0004bebc       ?state_case_dot@?$output_processor@_WV?$string_output_adapter@_W@__crt_stdio_output@@V?$positional_parameter_base@_WV?$string_output_adapter@_W@__crt_stdio_output@@@2@@__crt_stdio_output@@AEAA_NXZ 000000018004cebc f i libucrt:output.obj
 0001:0004bec4       ?state_case_dot@?$output_processor@_WV?$string_output_adapter@_W@__crt_stdio_output@@V?$standard_base@_WV?$string_output_adapter@_W@__crt_stdio_output@@@2@@__crt_stdio_output@@AEAA_NXZ 000000018004cec4 f i libucrt:output.obj
 0001:0004becc       ?state_case_flag@?$output_processor@DV?$stream_output_adapter@D@__crt_stdio_output@@V?$format_validation_base@DV?$stream_output_adapter@D@__crt_stdio_output@@@2@@__crt_stdio_output@@AEAA_NXZ 000000018004cecc f i libucrt:output.obj
 0001:0004bf04       ?state_case_flag@?$output_processor@DV?$stream_output_adapter@D@__crt_stdio_output@@V?$positional_parameter_base@DV?$stream_output_adapter@D@__crt_stdio_output@@@2@@__crt_stdio_output@@AEAA_NXZ 000000018004cf04 f i libucrt:output.obj
 0001:0004bf3c       ?state_case_flag@?$output_processor@DV?$stream_output_adapter@D@__crt_stdio_output@@V?$standard_base@DV?$stream_output_adapter@D@__crt_stdio_output@@@2@@__crt_stdio_output@@AEAA_NXZ 000000018004cf3c f i libucrt:output.obj
 0001:0004bf74       ?state_case_flag@?$output_processor@DV?$string_output_adapter@D@__crt_stdio_output@@V?$format_validation_base@DV?$string_output_adapter@D@__crt_stdio_output@@@2@@__crt_stdio_output@@AEAA_NXZ 000000018004cf74 f i libucrt:output.obj
 0001:0004bfac       ?state_case_flag@?$output_processor@DV?$string_output_adapter@D@__crt_stdio_output@@V?$positional_parameter_base@DV?$string_output_adapter@D@__crt_stdio_output@@@2@@__crt_stdio_output@@AEAA_NXZ 000000018004cfac f i libucrt:output.obj
 0001:0004bfe4       ?state_case_flag@?$output_processor@DV?$string_output_adapter@D@__crt_stdio_output@@V?$standard_base@DV?$string_output_adapter@D@__crt_stdio_output@@@2@@__crt_stdio_output@@AEAA_NXZ 000000018004cfe4 f i libucrt:output.obj
 0001:0004c01c       ?state_case_flag@?$output_processor@_WV?$stream_output_adapter@_W@__crt_stdio_output@@V?$format_validation_base@_WV?$stream_output_adapter@_W@__crt_stdio_output@@@2@@__crt_stdio_output@@AEAA_NXZ 000000018004d01c f i libucrt:output.obj
 0001:0004c060       ?state_case_flag@?$output_processor@_WV?$stream_output_adapter@_W@__crt_stdio_output@@V?$positional_parameter_base@_WV?$stream_output_adapter@_W@__crt_stdio_output@@@2@@__crt_stdio_output@@AEAA_NXZ 000000018004d060 f i libucrt:output.obj
 0001:0004c0a4       ?state_case_flag@?$output_processor@_WV?$stream_output_adapter@_W@__crt_stdio_output@@V?$standard_base@_WV?$stream_output_adapter@_W@__crt_stdio_output@@@2@@__crt_stdio_output@@AEAA_NXZ 000000018004d0a4 f i libucrt:output.obj
 0001:0004c0e8       ?state_case_flag@?$output_processor@_WV?$string_output_adapter@_W@__crt_stdio_output@@V?$format_validation_base@_WV?$string_output_adapter@_W@__crt_stdio_output@@@2@@__crt_stdio_output@@AEAA_NXZ 000000018004d0e8 f i libucrt:output.obj
 0001:0004c12c       ?state_case_flag@?$output_processor@_WV?$string_output_adapter@_W@__crt_stdio_output@@V?$positional_parameter_base@_WV?$string_output_adapter@_W@__crt_stdio_output@@@2@@__crt_stdio_output@@AEAA_NXZ 000000018004d12c f i libucrt:output.obj
 0001:0004c170       ?state_case_flag@?$output_processor@_WV?$string_output_adapter@_W@__crt_stdio_output@@V?$standard_base@_WV?$string_output_adapter@_W@__crt_stdio_output@@@2@@__crt_stdio_output@@AEAA_NXZ 000000018004d170 f i libucrt:output.obj
 0001:0004c1b4       ?state_case_normal@?$output_processor@DV?$stream_output_adapter@D@__crt_stdio_output@@V?$format_validation_base@DV?$stream_output_adapter@D@__crt_stdio_output@@@2@@__crt_stdio_output@@AEAA_NXZ 000000018004d1b4 f i libucrt:output.obj
 0001:0004c224       ?state_case_normal@?$output_processor@DV?$stream_output_adapter@D@__crt_stdio_output@@V?$positional_parameter_base@DV?$stream_output_adapter@D@__crt_stdio_output@@@2@@__crt_stdio_output@@AEAA_NXZ 000000018004d224 f i libucrt:output.obj
 0001:0004c2b8       ?state_case_normal@?$output_processor@DV?$stream_output_adapter@D@__crt_stdio_output@@V?$standard_base@DV?$stream_output_adapter@D@__crt_stdio_output@@@2@@__crt_stdio_output@@AEAA_NXZ 000000018004d2b8 f i libucrt:output.obj
 0001:0004c328       ?state_case_normal@?$output_processor@DV?$string_output_adapter@D@__crt_stdio_output@@V?$format_validation_base@DV?$string_output_adapter@D@__crt_stdio_output@@@2@@__crt_stdio_output@@AEAA_NXZ 000000018004d328 f i libucrt:output.obj
 0001:0004c39c       ?state_case_normal@?$output_processor@DV?$string_output_adapter@D@__crt_stdio_output@@V?$positional_parameter_base@DV?$string_output_adapter@D@__crt_stdio_output@@@2@@__crt_stdio_output@@AEAA_NXZ 000000018004d39c f i libucrt:output.obj
 0001:0004c434       ?state_case_normal@?$output_processor@DV?$string_output_adapter@D@__crt_stdio_output@@V?$standard_base@DV?$string_output_adapter@D@__crt_stdio_output@@@2@@__crt_stdio_output@@AEAA_NXZ 000000018004d434 f i libucrt:output.obj
 0001:0004c4a8       ?state_case_normal@?$output_processor@_WV?$stream_output_adapter@_W@__crt_stdio_output@@V?$format_validation_base@_WV?$stream_output_adapter@_W@__crt_stdio_output@@@2@@__crt_stdio_output@@AEAA_NXZ 000000018004d4a8 f i libucrt:output.obj
 0001:0004c500       ?state_case_normal@?$output_processor@_WV?$stream_output_adapter@_W@__crt_stdio_output@@V?$positional_parameter_base@_WV?$stream_output_adapter@_W@__crt_stdio_output@@@2@@__crt_stdio_output@@AEAA_NXZ 000000018004d500 f i libucrt:output.obj
 0001:0004c57c       ?state_case_normal@?$output_processor@_WV?$stream_output_adapter@_W@__crt_stdio_output@@V?$standard_base@_WV?$stream_output_adapter@_W@__crt_stdio_output@@@2@@__crt_stdio_output@@AEAA_NXZ 000000018004d57c f i libucrt:output.obj
 0001:0004c5d4       ?state_case_normal@?$output_processor@_WV?$string_output_adapter@_W@__crt_stdio_output@@V?$format_validation_base@_WV?$string_output_adapter@_W@__crt_stdio_output@@@2@@__crt_stdio_output@@AEAA_NXZ 000000018004d5d4 f i libucrt:output.obj
 0001:0004c628       ?state_case_normal@?$output_processor@_WV?$string_output_adapter@_W@__crt_stdio_output@@V?$positional_parameter_base@_WV?$string_output_adapter@_W@__crt_stdio_output@@@2@@__crt_stdio_output@@AEAA_NXZ 000000018004d628 f i libucrt:output.obj
 0001:0004c6a0       ?state_case_normal@?$output_processor@_WV?$string_output_adapter@_W@__crt_stdio_output@@V?$standard_base@_WV?$string_output_adapter@_W@__crt_stdio_output@@@2@@__crt_stdio_output@@AEAA_NXZ 000000018004d6a0 f i libucrt:output.obj
 0001:0004c6f4       ?state_case_normal_common@?$output_processor@DV?$stream_output_adapter@D@__crt_stdio_output@@V?$format_validation_base@DV?$stream_output_adapter@D@__crt_stdio_output@@@2@@__crt_stdio_output@@AEAA_NXZ 000000018004d6f4 f i libucrt:output.obj
 0001:0004c750       ?state_case_normal_common@?$output_processor@DV?$stream_output_adapter@D@__crt_stdio_output@@V?$positional_parameter_base@DV?$stream_output_adapter@D@__crt_stdio_output@@@2@@__crt_stdio_output@@AEAA_NXZ 000000018004d750 f i libucrt:output.obj
 0001:0004c7ac       ?state_case_normal_common@?$output_processor@DV?$stream_output_adapter@D@__crt_stdio_output@@V?$standard_base@DV?$stream_output_adapter@D@__crt_stdio_output@@@2@@__crt_stdio_output@@AEAA_NXZ 000000018004d7ac f i libucrt:output.obj
 0001:0004c808       ?state_case_normal_common@?$output_processor@DV?$string_output_adapter@D@__crt_stdio_output@@V?$format_validation_base@DV?$string_output_adapter@D@__crt_stdio_output@@@2@@__crt_stdio_output@@AEAA_NXZ 000000018004d808 f i libucrt:output.obj
 0001:0004c868       ?state_case_normal_common@?$output_processor@DV?$string_output_adapter@D@__crt_stdio_output@@V?$positional_parameter_base@DV?$string_output_adapter@D@__crt_stdio_output@@@2@@__crt_stdio_output@@AEAA_NXZ 000000018004d868 f i libucrt:output.obj
 0001:0004c8c8       ?state_case_normal_common@?$output_processor@DV?$string_output_adapter@D@__crt_stdio_output@@V?$standard_base@DV?$string_output_adapter@D@__crt_stdio_output@@@2@@__crt_stdio_output@@AEAA_NXZ 000000018004d8c8 f i libucrt:output.obj
 0001:0004c928       ?state_case_normal_common@?$output_processor@_WV?$stream_output_adapter@_W@__crt_stdio_output@@V?$format_validation_base@_WV?$stream_output_adapter@_W@__crt_stdio_output@@@2@@__crt_stdio_output@@AEAA_NXZ 000000018004d928 f i libucrt:output.obj
 0001:0004c980       ?state_case_normal_common@?$output_processor@_WV?$stream_output_adapter@_W@__crt_stdio_output@@V?$positional_parameter_base@_WV?$stream_output_adapter@_W@__crt_stdio_output@@@2@@__crt_stdio_output@@AEAA_NXZ 000000018004d980 f i libucrt:output.obj
 0001:0004c9d8       ?state_case_normal_common@?$output_processor@_WV?$stream_output_adapter@_W@__crt_stdio_output@@V?$standard_base@_WV?$stream_output_adapter@_W@__crt_stdio_output@@@2@@__crt_stdio_output@@AEAA_NXZ 000000018004d9d8 f i libucrt:output.obj
 0001:0004ca30       ?state_case_normal_common@?$output_processor@_WV?$string_output_adapter@_W@__crt_stdio_output@@V?$format_validation_base@_WV?$string_output_adapter@_W@__crt_stdio_output@@@2@@__crt_stdio_output@@AEAA_NXZ 000000018004da30 f i libucrt:output.obj
 0001:0004ca84       ?state_case_normal_common@?$output_processor@_WV?$string_output_adapter@_W@__crt_stdio_output@@V?$positional_parameter_base@_WV?$string_output_adapter@_W@__crt_stdio_output@@@2@@__crt_stdio_output@@AEAA_NXZ 000000018004da84 f i libucrt:output.obj
 0001:0004cad8       ?state_case_normal_common@?$output_processor@_WV?$string_output_adapter@_W@__crt_stdio_output@@V?$standard_base@_WV?$string_output_adapter@_W@__crt_stdio_output@@@2@@__crt_stdio_output@@AEAA_NXZ 000000018004dad8 f i libucrt:output.obj
 0001:0004cb2c       ?state_case_normal_tchar@?$output_processor@DV?$stream_output_adapter@D@__crt_stdio_output@@V?$format_validation_base@DV?$stream_output_adapter@D@__crt_stdio_output@@@2@@__crt_stdio_output@@AEAA_ND@Z 000000018004db2c f i libucrt:output.obj
 0001:0004cbd0       ?state_case_normal_tchar@?$output_processor@DV?$stream_output_adapter@D@__crt_stdio_output@@V?$positional_parameter_base@DV?$stream_output_adapter@D@__crt_stdio_output@@@2@@__crt_stdio_output@@AEAA_ND@Z 000000018004dbd0 f i libucrt:output.obj
 0001:0004cc74       ?state_case_normal_tchar@?$output_processor@DV?$stream_output_adapter@D@__crt_stdio_output@@V?$standard_base@DV?$stream_output_adapter@D@__crt_stdio_output@@@2@@__crt_stdio_output@@AEAA_ND@Z 000000018004dc74 f i libucrt:output.obj
 0001:0004cd18       ?state_case_normal_tchar@?$output_processor@DV?$string_output_adapter@D@__crt_stdio_output@@V?$format_validation_base@DV?$string_output_adapter@D@__crt_stdio_output@@@2@@__crt_stdio_output@@AEAA_ND@Z 000000018004dd18 f i libucrt:output.obj
 0001:0004cdc0       ?state_case_normal_tchar@?$output_processor@DV?$string_output_adapter@D@__crt_stdio_output@@V?$positional_parameter_base@DV?$string_output_adapter@D@__crt_stdio_output@@@2@@__crt_stdio_output@@AEAA_ND@Z 000000018004ddc0 f i libucrt:output.obj
 0001:0004ce68       ?state_case_normal_tchar@?$output_processor@DV?$string_output_adapter@D@__crt_stdio_output@@V?$standard_base@DV?$string_output_adapter@D@__crt_stdio_output@@@2@@__crt_stdio_output@@AEAA_ND@Z 000000018004de68 f i libucrt:output.obj
 0001:0004cf10       ?state_case_normal_tchar@?$output_processor@_WV?$stream_output_adapter@_W@__crt_stdio_output@@V?$format_validation_base@_WV?$stream_output_adapter@_W@__crt_stdio_output@@@2@@__crt_stdio_output@@AEAA_N_W@Z 000000018004df10 f i libucrt:output.obj
 0001:0004cf18       ?state_case_normal_tchar@?$output_processor@_WV?$stream_output_adapter@_W@__crt_stdio_output@@V?$positional_parameter_base@_WV?$stream_output_adapter@_W@__crt_stdio_output@@@2@@__crt_stdio_output@@AEAA_N_W@Z 000000018004df18 f i libucrt:output.obj
 0001:0004cf20       ?state_case_normal_tchar@?$output_processor@_WV?$stream_output_adapter@_W@__crt_stdio_output@@V?$standard_base@_WV?$stream_output_adapter@_W@__crt_stdio_output@@@2@@__crt_stdio_output@@AEAA_N_W@Z 000000018004df20 f i libucrt:output.obj
 0001:0004cf28       ?state_case_normal_tchar@?$output_processor@_WV?$string_output_adapter@_W@__crt_stdio_output@@V?$format_validation_base@_WV?$string_output_adapter@_W@__crt_stdio_output@@@2@@__crt_stdio_output@@AEAA_N_W@Z 000000018004df28 f i libucrt:output.obj
 0001:0004cf30       ?state_case_normal_tchar@?$output_processor@_WV?$string_output_adapter@_W@__crt_stdio_output@@V?$positional_parameter_base@_WV?$string_output_adapter@_W@__crt_stdio_output@@@2@@__crt_stdio_output@@AEAA_N_W@Z 000000018004df30 f i libucrt:output.obj
 0001:0004cf38       ?state_case_normal_tchar@?$output_processor@_WV?$string_output_adapter@_W@__crt_stdio_output@@V?$standard_base@_WV?$string_output_adapter@_W@__crt_stdio_output@@@2@@__crt_stdio_output@@AEAA_N_W@Z 000000018004df38 f i libucrt:output.obj
 0001:0004cf40       ?state_case_percent@?$output_processor@DV?$stream_output_adapter@D@__crt_stdio_output@@V?$format_validation_base@DV?$stream_output_adapter@D@__crt_stdio_output@@@2@@__crt_stdio_output@@AEAA_NXZ 000000018004df40 f i libucrt:output.obj
 0001:0004cf58       ?state_case_percent@?$output_processor@DV?$stream_output_adapter@D@__crt_stdio_output@@V?$positional_parameter_base@DV?$stream_output_adapter@D@__crt_stdio_output@@@2@@__crt_stdio_output@@AEAA_NXZ 000000018004df58 f i libucrt:output.obj
 0001:0004cf70       ?state_case_percent@?$output_processor@DV?$stream_output_adapter@D@__crt_stdio_output@@V?$standard_base@DV?$stream_output_adapter@D@__crt_stdio_output@@@2@@__crt_stdio_output@@AEAA_NXZ 000000018004df70 f i libucrt:output.obj
 0001:0004cf88       ?state_case_percent@?$output_processor@DV?$string_output_adapter@D@__crt_stdio_output@@V?$format_validation_base@DV?$string_output_adapter@D@__crt_stdio_output@@@2@@__crt_stdio_output@@AEAA_NXZ 000000018004df88 f i libucrt:output.obj
 0001:0004cfa0       ?state_case_percent@?$output_processor@DV?$string_output_adapter@D@__crt_stdio_output@@V?$positional_parameter_base@DV?$string_output_adapter@D@__crt_stdio_output@@@2@@__crt_stdio_output@@AEAA_NXZ 000000018004dfa0 f i libucrt:output.obj
 0001:0004cfb8       ?state_case_percent@?$output_processor@DV?$string_output_adapter@D@__crt_stdio_output@@V?$standard_base@DV?$string_output_adapter@D@__crt_stdio_output@@@2@@__crt_stdio_output@@AEAA_NXZ 000000018004dfb8 f i libucrt:output.obj
 0001:0004cfd0       ?state_case_percent@?$output_processor@_WV?$stream_output_adapter@_W@__crt_stdio_output@@V?$format_validation_base@_WV?$stream_output_adapter@_W@__crt_stdio_output@@@2@@__crt_stdio_output@@AEAA_NXZ 000000018004dfd0 f i libucrt:output.obj
 0001:0004cfe8       ?state_case_percent@?$output_processor@_WV?$stream_output_adapter@_W@__crt_stdio_output@@V?$positional_parameter_base@_WV?$stream_output_adapter@_W@__crt_stdio_output@@@2@@__crt_stdio_output@@AEAA_NXZ 000000018004dfe8 f i libucrt:output.obj
 0001:0004d000       ?state_case_percent@?$output_processor@_WV?$stream_output_adapter@_W@__crt_stdio_output@@V?$standard_base@_WV?$stream_output_adapter@_W@__crt_stdio_output@@@2@@__crt_stdio_output@@AEAA_NXZ 000000018004e000 f i libucrt:output.obj
 0001:0004d018       ?state_case_percent@?$output_processor@_WV?$string_output_adapter@_W@__crt_stdio_output@@V?$format_validation_base@_WV?$string_output_adapter@_W@__crt_stdio_output@@@2@@__crt_stdio_output@@AEAA_NXZ 000000018004e018 f i libucrt:output.obj
 0001:0004d030       ?state_case_percent@?$output_processor@_WV?$string_output_adapter@_W@__crt_stdio_output@@V?$positional_parameter_base@_WV?$string_output_adapter@_W@__crt_stdio_output@@@2@@__crt_stdio_output@@AEAA_NXZ 000000018004e030 f i libucrt:output.obj
 0001:0004d048       ?state_case_percent@?$output_processor@_WV?$string_output_adapter@_W@__crt_stdio_output@@V?$standard_base@_WV?$string_output_adapter@_W@__crt_stdio_output@@@2@@__crt_stdio_output@@AEAA_NXZ 000000018004e048 f i libucrt:output.obj
 0001:0004d060       ?state_case_precision@?$output_processor@DV?$stream_output_adapter@D@__crt_stdio_output@@V?$format_validation_base@DV?$stream_output_adapter@D@__crt_stdio_output@@@2@@__crt_stdio_output@@AEAA_NXZ 000000018004e060 f i libucrt:output.obj
 0001:0004d088       ?state_case_precision@?$output_processor@DV?$stream_output_adapter@D@__crt_stdio_output@@V?$positional_parameter_base@DV?$stream_output_adapter@D@__crt_stdio_output@@@2@@__crt_stdio_output@@AEAA_NXZ 000000018004e088 f i libucrt:output.obj
 0001:0004d0d4       ?state_case_precision@?$output_processor@DV?$stream_output_adapter@D@__crt_stdio_output@@V?$standard_base@DV?$stream_output_adapter@D@__crt_stdio_output@@@2@@__crt_stdio_output@@AEAA_NXZ 000000018004e0d4 f i libucrt:output.obj
 0001:0004d0fc       ?state_case_precision@?$output_processor@DV?$string_output_adapter@D@__crt_stdio_output@@V?$format_validation_base@DV?$string_output_adapter@D@__crt_stdio_output@@@2@@__crt_stdio_output@@AEAA_NXZ 000000018004e0fc f i libucrt:output.obj
 0001:0004d124       ?state_case_precision@?$output_processor@DV?$string_output_adapter@D@__crt_stdio_output@@V?$positional_parameter_base@DV?$string_output_adapter@D@__crt_stdio_output@@@2@@__crt_stdio_output@@AEAA_NXZ 000000018004e124 f i libucrt:output.obj
 0001:0004d170       ?state_case_precision@?$output_processor@DV?$string_output_adapter@D@__crt_stdio_output@@V?$standard_base@DV?$string_output_adapter@D@__crt_stdio_output@@@2@@__crt_stdio_output@@AEAA_NXZ 000000018004e170 f i libucrt:output.obj
 0001:0004d198       ?state_case_precision@?$output_processor@_WV?$stream_output_adapter@_W@__crt_stdio_output@@V?$format_validation_base@_WV?$stream_output_adapter@_W@__crt_stdio_output@@@2@@__crt_stdio_output@@AEAA_NXZ 000000018004e198 f i libucrt:output.obj
 0001:0004d1c0       ?state_case_precision@?$output_processor@_WV?$stream_output_adapter@_W@__crt_stdio_output@@V?$positional_parameter_base@_WV?$stream_output_adapter@_W@__crt_stdio_output@@@2@@__crt_stdio_output@@AEAA_NXZ 000000018004e1c0 f i libucrt:output.obj
 0001:0004d20c       ?state_case_precision@?$output_processor@_WV?$stream_output_adapter@_W@__crt_stdio_output@@V?$standard_base@_WV?$stream_output_adapter@_W@__crt_stdio_output@@@2@@__crt_stdio_output@@AEAA_NXZ 000000018004e20c f i libucrt:output.obj
 0001:0004d234       ?state_case_precision@?$output_processor@_WV?$string_output_adapter@_W@__crt_stdio_output@@V?$format_validation_base@_WV?$string_output_adapter@_W@__crt_stdio_output@@@2@@__crt_stdio_output@@AEAA_NXZ 000000018004e234 f i libucrt:output.obj
 0001:0004d25c       ?state_case_precision@?$output_processor@_WV?$string_output_adapter@_W@__crt_stdio_output@@V?$positional_parameter_base@_WV?$string_output_adapter@_W@__crt_stdio_output@@@2@@__crt_stdio_output@@AEAA_NXZ 000000018004e25c f i libucrt:output.obj
 0001:0004d2a8       ?state_case_precision@?$output_processor@_WV?$string_output_adapter@_W@__crt_stdio_output@@V?$standard_base@_WV?$string_output_adapter@_W@__crt_stdio_output@@@2@@__crt_stdio_output@@AEAA_NXZ 000000018004e2a8 f i libucrt:output.obj
 0001:0004d2d0       ?state_case_size@?$output_processor@DV?$stream_output_adapter@D@__crt_stdio_output@@V?$format_validation_base@DV?$stream_output_adapter@D@__crt_stdio_output@@@2@@__crt_stdio_output@@AEAA_NXZ 000000018004e2d0 f i libucrt:output.obj
 0001:0004d440       ?state_case_size@?$output_processor@DV?$stream_output_adapter@D@__crt_stdio_output@@V?$positional_parameter_base@DV?$stream_output_adapter@D@__crt_stdio_output@@@2@@__crt_stdio_output@@AEAA_NXZ 000000018004e440 f i libucrt:output.obj
 0001:0004d5b0       ?state_case_size@?$output_processor@DV?$stream_output_adapter@D@__crt_stdio_output@@V?$standard_base@DV?$stream_output_adapter@D@__crt_stdio_output@@@2@@__crt_stdio_output@@AEAA_NXZ 000000018004e5b0 f i libucrt:output.obj
 0001:0004d720       ?state_case_size@?$output_processor@DV?$string_output_adapter@D@__crt_stdio_output@@V?$format_validation_base@DV?$string_output_adapter@D@__crt_stdio_output@@@2@@__crt_stdio_output@@AEAA_NXZ 000000018004e720 f i libucrt:output.obj
 0001:0004d890       ?state_case_size@?$output_processor@DV?$string_output_adapter@D@__crt_stdio_output@@V?$positional_parameter_base@DV?$string_output_adapter@D@__crt_stdio_output@@@2@@__crt_stdio_output@@AEAA_NXZ 000000018004e890 f i libucrt:output.obj
 0001:0004da00       ?state_case_size@?$output_processor@DV?$string_output_adapter@D@__crt_stdio_output@@V?$standard_base@DV?$string_output_adapter@D@__crt_stdio_output@@@2@@__crt_stdio_output@@AEAA_NXZ 000000018004ea00 f i libucrt:output.obj
 0001:0004db70       ?state_case_size@?$output_processor@_WV?$stream_output_adapter@_W@__crt_stdio_output@@V?$format_validation_base@_WV?$stream_output_adapter@_W@__crt_stdio_output@@@2@@__crt_stdio_output@@AEAA_NXZ 000000018004eb70 f i libucrt:output.obj
 0001:0004dd04       ?state_case_size@?$output_processor@_WV?$stream_output_adapter@_W@__crt_stdio_output@@V?$positional_parameter_base@_WV?$stream_output_adapter@_W@__crt_stdio_output@@@2@@__crt_stdio_output@@AEAA_NXZ 000000018004ed04 f i libucrt:output.obj
 0001:0004de98       ?state_case_size@?$output_processor@_WV?$stream_output_adapter@_W@__crt_stdio_output@@V?$standard_base@_WV?$stream_output_adapter@_W@__crt_stdio_output@@@2@@__crt_stdio_output@@AEAA_NXZ 000000018004ee98 f i libucrt:output.obj
 0001:0004e02c       ?state_case_size@?$output_processor@_WV?$string_output_adapter@_W@__crt_stdio_output@@V?$format_validation_base@_WV?$string_output_adapter@_W@__crt_stdio_output@@@2@@__crt_stdio_output@@AEAA_NXZ 000000018004f02c f i libucrt:output.obj
 0001:0004e1c0       ?state_case_size@?$output_processor@_WV?$string_output_adapter@_W@__crt_stdio_output@@V?$positional_parameter_base@_WV?$string_output_adapter@_W@__crt_stdio_output@@@2@@__crt_stdio_output@@AEAA_NXZ 000000018004f1c0 f i libucrt:output.obj
 0001:0004e354       ?state_case_size@?$output_processor@_WV?$string_output_adapter@_W@__crt_stdio_output@@V?$standard_base@_WV?$string_output_adapter@_W@__crt_stdio_output@@@2@@__crt_stdio_output@@AEAA_NXZ 000000018004f354 f i libucrt:output.obj
 0001:0004e4e8       ?state_case_type@?$output_processor@DV?$stream_output_adapter@D@__crt_stdio_output@@V?$format_validation_base@DV?$stream_output_adapter@D@__crt_stdio_output@@@2@@__crt_stdio_output@@AEAA_NXZ 000000018004f4e8 f i libucrt:output.obj
 0001:0004e76c       ?state_case_type@?$output_processor@DV?$stream_output_adapter@D@__crt_stdio_output@@V?$positional_parameter_base@DV?$stream_output_adapter@D@__crt_stdio_output@@@2@@__crt_stdio_output@@AEAA_NXZ 000000018004f76c f i libucrt:output.obj
 0001:0004ea08       ?state_case_type@?$output_processor@DV?$stream_output_adapter@D@__crt_stdio_output@@V?$standard_base@DV?$stream_output_adapter@D@__crt_stdio_output@@@2@@__crt_stdio_output@@AEAA_NXZ 000000018004fa08 f i libucrt:output.obj
 0001:0004ec8c       ?state_case_type@?$output_processor@DV?$string_output_adapter@D@__crt_stdio_output@@V?$format_validation_base@DV?$string_output_adapter@D@__crt_stdio_output@@@2@@__crt_stdio_output@@AEAA_NXZ 000000018004fc8c f i libucrt:output.obj
 0001:0004eef4       ?state_case_type@?$output_processor@DV?$string_output_adapter@D@__crt_stdio_output@@V?$positional_parameter_base@DV?$string_output_adapter@D@__crt_stdio_output@@@2@@__crt_stdio_output@@AEAA_NXZ 000000018004fef4 f i libucrt:output.obj
 0001:0004f170       ?state_case_type@?$output_processor@DV?$string_output_adapter@D@__crt_stdio_output@@V?$standard_base@DV?$string_output_adapter@D@__crt_stdio_output@@@2@@__crt_stdio_output@@AEAA_NXZ 0000000180050170 f i libucrt:output.obj
 0001:0004f3d8       ?state_case_type@?$output_processor@_WV?$stream_output_adapter@_W@__crt_stdio_output@@V?$format_validation_base@_WV?$stream_output_adapter@_W@__crt_stdio_output@@@2@@__crt_stdio_output@@AEAA_NXZ 00000001800503d8 f i libucrt:output.obj
 0001:0004f6b8       ?state_case_type@?$output_processor@_WV?$stream_output_adapter@_W@__crt_stdio_output@@V?$positional_parameter_base@_WV?$stream_output_adapter@_W@__crt_stdio_output@@@2@@__crt_stdio_output@@AEAA_NXZ 00000001800506b8 f i libucrt:output.obj
 0001:0004f9ac       ?state_case_type@?$output_processor@_WV?$stream_output_adapter@_W@__crt_stdio_output@@V?$standard_base@_WV?$stream_output_adapter@_W@__crt_stdio_output@@@2@@__crt_stdio_output@@AEAA_NXZ 00000001800509ac f i libucrt:output.obj
 0001:0004fc8c       ?state_case_type@?$output_processor@_WV?$string_output_adapter@_W@__crt_stdio_output@@V?$format_validation_base@_WV?$string_output_adapter@_W@__crt_stdio_output@@@2@@__crt_stdio_output@@AEAA_NXZ 0000000180050c8c f i libucrt:output.obj
 0001:0004ff58       ?state_case_type@?$output_processor@_WV?$string_output_adapter@_W@__crt_stdio_output@@V?$positional_parameter_base@_WV?$string_output_adapter@_W@__crt_stdio_output@@@2@@__crt_stdio_output@@AEAA_NXZ 0000000180050f58 f i libucrt:output.obj
 0001:00050238       ?state_case_type@?$output_processor@_WV?$string_output_adapter@_W@__crt_stdio_output@@V?$standard_base@_WV?$string_output_adapter@_W@__crt_stdio_output@@@2@@__crt_stdio_output@@AEAA_NXZ 0000000180051238 f i libucrt:output.obj
 0001:00050504       ?state_case_width@?$output_processor@DV?$stream_output_adapter@D@__crt_stdio_output@@V?$format_validation_base@DV?$stream_output_adapter@D@__crt_stdio_output@@@2@@__crt_stdio_output@@AEAA_NXZ 0000000180051504 f i libucrt:output.obj
 0001:00050538       ?state_case_width@?$output_processor@DV?$stream_output_adapter@D@__crt_stdio_output@@V?$positional_parameter_base@DV?$stream_output_adapter@D@__crt_stdio_output@@@2@@__crt_stdio_output@@AEAA_NXZ 0000000180051538 f i libucrt:output.obj
 0001:00050588       ?state_case_width@?$output_processor@DV?$stream_output_adapter@D@__crt_stdio_output@@V?$standard_base@DV?$stream_output_adapter@D@__crt_stdio_output@@@2@@__crt_stdio_output@@AEAA_NXZ 0000000180051588 f i libucrt:output.obj
 0001:000505bc       ?state_case_width@?$output_processor@DV?$string_output_adapter@D@__crt_stdio_output@@V?$format_validation_base@DV?$string_output_adapter@D@__crt_stdio_output@@@2@@__crt_stdio_output@@AEAA_NXZ 00000001800515bc f i libucrt:output.obj
 0001:000505f0       ?state_case_width@?$output_processor@DV?$string_output_adapter@D@__crt_stdio_output@@V?$positional_parameter_base@DV?$string_output_adapter@D@__crt_stdio_output@@@2@@__crt_stdio_output@@AEAA_NXZ 00000001800515f0 f i libucrt:output.obj
 0001:00050640       ?state_case_width@?$output_processor@DV?$string_output_adapter@D@__crt_stdio_output@@V?$standard_base@DV?$string_output_adapter@D@__crt_stdio_output@@@2@@__crt_stdio_output@@AEAA_NXZ 0000000180051640 f i libucrt:output.obj
 0001:00050674       ?state_case_width@?$output_processor@_WV?$stream_output_adapter@_W@__crt_stdio_output@@V?$format_validation_base@_WV?$stream_output_adapter@_W@__crt_stdio_output@@@2@@__crt_stdio_output@@AEAA_NXZ 0000000180051674 f i libucrt:output.obj
 0001:000506a8       ?state_case_width@?$output_processor@_WV?$stream_output_adapter@_W@__crt_stdio_output@@V?$positional_parameter_base@_WV?$stream_output_adapter@_W@__crt_stdio_output@@@2@@__crt_stdio_output@@AEAA_NXZ 00000001800516a8 f i libucrt:output.obj
 0001:000506fc       ?state_case_width@?$output_processor@_WV?$stream_output_adapter@_W@__crt_stdio_output@@V?$standard_base@_WV?$stream_output_adapter@_W@__crt_stdio_output@@@2@@__crt_stdio_output@@AEAA_NXZ 00000001800516fc f i libucrt:output.obj
 0001:00050730       ?state_case_width@?$output_processor@_WV?$string_output_adapter@_W@__crt_stdio_output@@V?$format_validation_base@_WV?$string_output_adapter@_W@__crt_stdio_output@@@2@@__crt_stdio_output@@AEAA_NXZ 0000000180051730 f i libucrt:output.obj
 0001:00050764       ?state_case_width@?$output_processor@_WV?$string_output_adapter@_W@__crt_stdio_output@@V?$positional_parameter_base@_WV?$string_output_adapter@_W@__crt_stdio_output@@@2@@__crt_stdio_output@@AEAA_NXZ 0000000180051764 f i libucrt:output.obj
 0001:000507b8       ?state_case_width@?$output_processor@_WV?$string_output_adapter@_W@__crt_stdio_output@@V?$standard_base@_WV?$string_output_adapter@_W@__crt_stdio_output@@@2@@__crt_stdio_output@@AEAA_NXZ 00000001800517b8 f i libucrt:output.obj
 0001:000507ec       ?state_count@?$format_validation_base@DV?$stream_output_adapter@D@__crt_stdio_output@@@__crt_stdio_output@@KAIXZ 00000001800517ec f i libucrt:output.obj
 0001:000507f4       ?state_count@?$format_validation_base@DV?$string_output_adapter@D@__crt_stdio_output@@@__crt_stdio_output@@KAIXZ 00000001800517f4 f i libucrt:output.obj
 0001:000507fc       ?state_count@?$format_validation_base@_WV?$stream_output_adapter@_W@__crt_stdio_output@@@__crt_stdio_output@@KAIXZ 00000001800517fc f i libucrt:output.obj
 0001:00050804       ?state_count@?$format_validation_base@_WV?$string_output_adapter@_W@__crt_stdio_output@@@__crt_stdio_output@@KAIXZ 0000000180051804 f i libucrt:output.obj
 0001:0005080c       ?state_count@?$standard_base@DV?$stream_output_adapter@D@__crt_stdio_output@@@__crt_stdio_output@@KAIXZ 000000018005180c f i libucrt:output.obj
 0001:00050814       ?state_count@?$standard_base@DV?$string_output_adapter@D@__crt_stdio_output@@@__crt_stdio_output@@KAIXZ 0000000180051814 f i libucrt:output.obj
 0001:0005081c       ?state_count@?$standard_base@_WV?$stream_output_adapter@_W@__crt_stdio_output@@@__crt_stdio_output@@KAIXZ 000000018005181c f i libucrt:output.obj
 0001:00050824       ?state_count@?$standard_base@_WV?$string_output_adapter@_W@__crt_stdio_output@@@__crt_stdio_output@@KAIXZ 0000000180051824 f i libucrt:output.obj
 0001:0005082c       ?state_transition_table@?$format_validation_base@DV?$stream_output_adapter@D@__crt_stdio_output@@@__crt_stdio_output@@KAAEBV?$spectre_mitigated_lookup_table@Ustate_transition_pair@__crt_stdio_output@@$0IA@@2@XZ 000000018005182c f i libucrt:output.obj
 0001:00050834       ?state_transition_table@?$format_validation_base@DV?$string_output_adapter@D@__crt_stdio_output@@@__crt_stdio_output@@KAAEBV?$spectre_mitigated_lookup_table@Ustate_transition_pair@__crt_stdio_output@@$0IA@@2@XZ 0000000180051834 f i libucrt:output.obj
 0001:0005083c       ?state_transition_table@?$format_validation_base@_WV?$stream_output_adapter@_W@__crt_stdio_output@@@__crt_stdio_output@@KAAEBV?$spectre_mitigated_lookup_table@Ustate_transition_pair@__crt_stdio_output@@$0IA@@2@XZ 000000018005183c f i libucrt:output.obj
 0001:00050844       ?state_transition_table@?$format_validation_base@_WV?$string_output_adapter@_W@__crt_stdio_output@@@__crt_stdio_output@@KAAEBV?$spectre_mitigated_lookup_table@Ustate_transition_pair@__crt_stdio_output@@$0IA@@2@XZ 0000000180051844 f i libucrt:output.obj
 0001:0005084c       ?state_transition_table@?$standard_base@DV?$stream_output_adapter@D@__crt_stdio_output@@@__crt_stdio_output@@KAAEBV?$spectre_mitigated_lookup_table@Ustate_transition_pair@__crt_stdio_output@@$0IA@@2@XZ 000000018005184c f i libucrt:output.obj
 0001:00050854       ?state_transition_table@?$standard_base@DV?$string_output_adapter@D@__crt_stdio_output@@@__crt_stdio_output@@KAAEBV?$spectre_mitigated_lookup_table@Ustate_transition_pair@__crt_stdio_output@@$0IA@@2@XZ 0000000180051854 f i libucrt:output.obj
 0001:0005085c       ?state_transition_table@?$standard_base@_WV?$stream_output_adapter@_W@__crt_stdio_output@@@__crt_stdio_output@@KAAEBV?$spectre_mitigated_lookup_table@Ustate_transition_pair@__crt_stdio_output@@$0IA@@2@XZ 000000018005185c f i libucrt:output.obj
 0001:00050864       ?state_transition_table@?$standard_base@_WV?$string_output_adapter@_W@__crt_stdio_output@@@__crt_stdio_output@@KAAEBV?$spectre_mitigated_lookup_table@Ustate_transition_pair@__crt_stdio_output@@$0IA@@2@XZ 0000000180051864 f i libucrt:output.obj
 0001:0005086c       ?tchar_string@?$common_data@D@__crt_stdio_output@@IEAAAEAPEADD@Z 000000018005186c f i libucrt:output.obj
 0001:00050874       ?tchar_string@?$common_data@D@__crt_stdio_output@@IEAAAEAPEADXZ 0000000180051874 f i libucrt:output.obj
 0001:0005087c       ?tchar_string@?$common_data@_W@__crt_stdio_output@@IEAAAEAPEA_WXZ 000000018005187c f i libucrt:output.obj
 0001:00050884       ?tchar_string@?$common_data@_W@__crt_stdio_output@@IEAAAEAPEA_W_W@Z 0000000180051884 f i libucrt:output.obj
 0001:00050890       ?to_integer_size@__crt_stdio_output@@YA_KW4length_modifier@1@@Z 0000000180051890 f i libucrt:output.obj
 0001:000508f8       ?type_case_X@?$output_processor@DV?$stream_output_adapter@D@__crt_stdio_output@@V?$format_validation_base@DV?$stream_output_adapter@D@__crt_stdio_output@@@2@@__crt_stdio_output@@AEAA_NXZ 00000001800518f8 f i libucrt:output.obj
 0001:00050908       ?type_case_X@?$output_processor@DV?$stream_output_adapter@D@__crt_stdio_output@@V?$positional_parameter_base@DV?$stream_output_adapter@D@__crt_stdio_output@@@2@@__crt_stdio_output@@AEAA_NXZ 0000000180051908 f i libucrt:output.obj
 0001:00050918       ?type_case_X@?$output_processor@DV?$stream_output_adapter@D@__crt_stdio_output@@V?$standard_base@DV?$stream_output_adapter@D@__crt_stdio_output@@@2@@__crt_stdio_output@@AEAA_NXZ 0000000180051918 f i libucrt:output.obj
 0001:00050928       ?type_case_X@?$output_processor@DV?$string_output_adapter@D@__crt_stdio_output@@V?$format_validation_base@DV?$string_output_adapter@D@__crt_stdio_output@@@2@@__crt_stdio_output@@AEAA_NXZ 0000000180051928 f i libucrt:output.obj
 0001:00050938       ?type_case_X@?$output_processor@DV?$string_output_adapter@D@__crt_stdio_output@@V?$positional_parameter_base@DV?$string_output_adapter@D@__crt_stdio_output@@@2@@__crt_stdio_output@@AEAA_NXZ 0000000180051938 f i libucrt:output.obj
 0001:00050948       ?type_case_X@?$output_processor@DV?$string_output_adapter@D@__crt_stdio_output@@V?$standard_base@DV?$string_output_adapter@D@__crt_stdio_output@@@2@@__crt_stdio_output@@AEAA_NXZ 0000000180051948 f i libucrt:output.obj
 0001:00050958       ?type_case_X@?$output_processor@_WV?$stream_output_adapter@_W@__crt_stdio_output@@V?$format_validation_base@_WV?$stream_output_adapter@_W@__crt_stdio_output@@@2@@__crt_stdio_output@@AEAA_NXZ 0000000180051958 f i libucrt:output.obj
 0001:00050968       ?type_case_X@?$output_processor@_WV?$stream_output_adapter@_W@__crt_stdio_output@@V?$positional_parameter_base@_WV?$stream_output_adapter@_W@__crt_stdio_output@@@2@@__crt_stdio_output@@AEAA_NXZ 0000000180051968 f i libucrt:output.obj
 0001:00050978       ?type_case_X@?$output_processor@_WV?$stream_output_adapter@_W@__crt_stdio_output@@V?$standard_base@_WV?$stream_output_adapter@_W@__crt_stdio_output@@@2@@__crt_stdio_output@@AEAA_NXZ 0000000180051978 f i libucrt:output.obj
 0001:00050988       ?type_case_X@?$output_processor@_WV?$string_output_adapter@_W@__crt_stdio_output@@V?$format_validation_base@_WV?$string_output_adapter@_W@__crt_stdio_output@@@2@@__crt_stdio_output@@AEAA_NXZ 0000000180051988 f i libucrt:output.obj
 0001:00050998       ?type_case_X@?$output_processor@_WV?$string_output_adapter@_W@__crt_stdio_output@@V?$positional_parameter_base@_WV?$string_output_adapter@_W@__crt_stdio_output@@@2@@__crt_stdio_output@@AEAA_NXZ 0000000180051998 f i libucrt:output.obj
 0001:000509a8       ?type_case_X@?$output_processor@_WV?$string_output_adapter@_W@__crt_stdio_output@@V?$standard_base@_WV?$string_output_adapter@_W@__crt_stdio_output@@@2@@__crt_stdio_output@@AEAA_NXZ 00000001800519a8 f i libucrt:output.obj
 0001:000509b8       ?type_case_Z@?$output_processor@DV?$stream_output_adapter@D@__crt_stdio_output@@V?$format_validation_base@DV?$stream_output_adapter@D@__crt_stdio_output@@@2@@__crt_stdio_output@@AEAA_NXZ 00000001800519b8 f i libucrt:output.obj
 0001:00050a2c       ?type_case_Z@?$output_processor@DV?$stream_output_adapter@D@__crt_stdio_output@@V?$positional_parameter_base@DV?$stream_output_adapter@D@__crt_stdio_output@@@2@@__crt_stdio_output@@AEAA_NXZ 0000000180051a2c f i libucrt:output.obj
 0001:00050acc       ?type_case_Z@?$output_processor@DV?$stream_output_adapter@D@__crt_stdio_output@@V?$standard_base@DV?$stream_output_adapter@D@__crt_stdio_output@@@2@@__crt_stdio_output@@AEAA_NXZ 0000000180051acc f i libucrt:output.obj
 0001:00050b40       ?type_case_Z@?$output_processor@DV?$string_output_adapter@D@__crt_stdio_output@@V?$format_validation_base@DV?$string_output_adapter@D@__crt_stdio_output@@@2@@__crt_stdio_output@@AEAA_NXZ 0000000180051b40 f i libucrt:output.obj
 0001:00050bb4       ?type_case_Z@?$output_processor@DV?$string_output_adapter@D@__crt_stdio_output@@V?$positional_parameter_base@DV?$string_output_adapter@D@__crt_stdio_output@@@2@@__crt_stdio_output@@AEAA_NXZ 0000000180051bb4 f i libucrt:output.obj
 0001:00050c54       ?type_case_Z@?$output_processor@DV?$string_output_adapter@D@__crt_stdio_output@@V?$standard_base@DV?$string_output_adapter@D@__crt_stdio_output@@@2@@__crt_stdio_output@@AEAA_NXZ 0000000180051c54 f i libucrt:output.obj
 0001:00050cc8       ?type_case_Z@?$output_processor@_WV?$stream_output_adapter@_W@__crt_stdio_output@@V?$format_validation_base@_WV?$stream_output_adapter@_W@__crt_stdio_output@@@2@@__crt_stdio_output@@AEAA_NXZ 0000000180051cc8 f i libucrt:output.obj
 0001:00050d44       ?type_case_Z@?$output_processor@_WV?$stream_output_adapter@_W@__crt_stdio_output@@V?$positional_parameter_base@_WV?$stream_output_adapter@_W@__crt_stdio_output@@@2@@__crt_stdio_output@@AEAA_NXZ 0000000180051d44 f i libucrt:output.obj
 0001:00050ddc       ?type_case_Z@?$output_processor@_WV?$stream_output_adapter@_W@__crt_stdio_output@@V?$standard_base@_WV?$stream_output_adapter@_W@__crt_stdio_output@@@2@@__crt_stdio_output@@AEAA_NXZ 0000000180051ddc f i libucrt:output.obj
 0001:00050e58       ?type_case_Z@?$output_processor@_WV?$string_output_adapter@_W@__crt_stdio_output@@V?$format_validation_base@_WV?$string_output_adapter@_W@__crt_stdio_output@@@2@@__crt_stdio_output@@AEAA_NXZ 0000000180051e58 f i libucrt:output.obj
 0001:00050ed4       ?type_case_Z@?$output_processor@_WV?$string_output_adapter@_W@__crt_stdio_output@@V?$positional_parameter_base@_WV?$string_output_adapter@_W@__crt_stdio_output@@@2@@__crt_stdio_output@@AEAA_NXZ 0000000180051ed4 f i libucrt:output.obj
 0001:00050f6c       ?type_case_Z@?$output_processor@_WV?$string_output_adapter@_W@__crt_stdio_output@@V?$standard_base@_WV?$string_output_adapter@_W@__crt_stdio_output@@@2@@__crt_stdio_output@@AEAA_NXZ 0000000180051f6c f i libucrt:output.obj
 0001:00050fe8       ?type_case_a@?$output_processor@DV?$stream_output_adapter@D@__crt_stdio_output@@V?$format_validation_base@DV?$stream_output_adapter@D@__crt_stdio_output@@@2@@__crt_stdio_output@@AEAA_NXZ 0000000180051fe8 f i libucrt:output.obj
 0001:000511a4       ?type_case_a@?$output_processor@DV?$stream_output_adapter@D@__crt_stdio_output@@V?$positional_parameter_base@DV?$stream_output_adapter@D@__crt_stdio_output@@@2@@__crt_stdio_output@@AEAA_NXZ 00000001800521a4 f i libucrt:output.obj
 0001:0005139c       ?type_case_a@?$output_processor@DV?$stream_output_adapter@D@__crt_stdio_output@@V?$standard_base@DV?$stream_output_adapter@D@__crt_stdio_output@@@2@@__crt_stdio_output@@AEAA_NXZ 000000018005239c f i libucrt:output.obj
 0001:00051558       ?type_case_a@?$output_processor@DV?$string_output_adapter@D@__crt_stdio_output@@V?$format_validation_base@DV?$string_output_adapter@D@__crt_stdio_output@@@2@@__crt_stdio_output@@AEAA_NXZ 0000000180052558 f i libucrt:output.obj
 0001:00051714       ?type_case_a@?$output_processor@DV?$string_output_adapter@D@__crt_stdio_output@@V?$positional_parameter_base@DV?$string_output_adapter@D@__crt_stdio_output@@@2@@__crt_stdio_output@@AEAA_NXZ 0000000180052714 f i libucrt:output.obj
 0001:0005190c       ?type_case_a@?$output_processor@DV?$string_output_adapter@D@__crt_stdio_output@@V?$standard_base@DV?$string_output_adapter@D@__crt_stdio_output@@@2@@__crt_stdio_output@@AEAA_NXZ 000000018005290c f i libucrt:output.obj
 0001:00051ac8       ?type_case_a@?$output_processor@_WV?$stream_output_adapter@_W@__crt_stdio_output@@V?$format_validation_base@_WV?$stream_output_adapter@_W@__crt_stdio_output@@@2@@__crt_stdio_output@@AEAA_NXZ 0000000180052ac8 f i libucrt:output.obj
 0001:00051ca8       ?type_case_a@?$output_processor@_WV?$stream_output_adapter@_W@__crt_stdio_output@@V?$positional_parameter_base@_WV?$stream_output_adapter@_W@__crt_stdio_output@@@2@@__crt_stdio_output@@AEAA_NXZ 0000000180052ca8 f i libucrt:output.obj
 0001:00051ec4       ?type_case_a@?$output_processor@_WV?$stream_output_adapter@_W@__crt_stdio_output@@V?$standard_base@_WV?$stream_output_adapter@_W@__crt_stdio_output@@@2@@__crt_stdio_output@@AEAA_NXZ 0000000180052ec4 f i libucrt:output.obj
 0001:000520a4       ?type_case_a@?$output_processor@_WV?$string_output_adapter@_W@__crt_stdio_output@@V?$format_validation_base@_WV?$string_output_adapter@_W@__crt_stdio_output@@@2@@__crt_stdio_output@@AEAA_NXZ 00000001800530a4 f i libucrt:output.obj
 0001:00052284       ?type_case_a@?$output_processor@_WV?$string_output_adapter@_W@__crt_stdio_output@@V?$positional_parameter_base@_WV?$string_output_adapter@_W@__crt_stdio_output@@@2@@__crt_stdio_output@@AEAA_NXZ 0000000180053284 f i libucrt:output.obj
 0001:000524a0       ?type_case_a@?$output_processor@_WV?$string_output_adapter@_W@__crt_stdio_output@@V?$standard_base@_WV?$string_output_adapter@_W@__crt_stdio_output@@@2@@__crt_stdio_output@@AEAA_NXZ 00000001800534a0 f i libucrt:output.obj
 0001:00052680       ?type_case_c@?$output_processor@DV?$stream_output_adapter@D@__crt_stdio_output@@V?$format_validation_base@DV?$stream_output_adapter@D@__crt_stdio_output@@@2@@__crt_stdio_output@@AEAA_NXZ 0000000180053680 f i libucrt:output.obj
 0001:00052688       ?type_case_c@?$output_processor@DV?$stream_output_adapter@D@__crt_stdio_output@@V?$positional_parameter_base@DV?$stream_output_adapter@D@__crt_stdio_output@@@2@@__crt_stdio_output@@AEAA_NXZ 0000000180053688 f i libucrt:output.obj
 0001:00052690       ?type_case_c@?$output_processor@DV?$stream_output_adapter@D@__crt_stdio_output@@V?$standard_base@DV?$stream_output_adapter@D@__crt_stdio_output@@@2@@__crt_stdio_output@@AEAA_NXZ 0000000180053690 f i libucrt:output.obj
 0001:00052698       ?type_case_c@?$output_processor@DV?$string_output_adapter@D@__crt_stdio_output@@V?$format_validation_base@DV?$string_output_adapter@D@__crt_stdio_output@@@2@@__crt_stdio_output@@AEAA_NXZ 0000000180053698 f i libucrt:output.obj
 0001:000526a0       ?type_case_c@?$output_processor@DV?$string_output_adapter@D@__crt_stdio_output@@V?$positional_parameter_base@DV?$string_output_adapter@D@__crt_stdio_output@@@2@@__crt_stdio_output@@AEAA_NXZ 00000001800536a0 f i libucrt:output.obj
 0001:000526a8       ?type_case_c@?$output_processor@DV?$string_output_adapter@D@__crt_stdio_output@@V?$standard_base@DV?$string_output_adapter@D@__crt_stdio_output@@@2@@__crt_stdio_output@@AEAA_NXZ 00000001800536a8 f i libucrt:output.obj
 0001:000526b0       ?type_case_c@?$output_processor@_WV?$stream_output_adapter@_W@__crt_stdio_output@@V?$format_validation_base@_WV?$stream_output_adapter@_W@__crt_stdio_output@@@2@@__crt_stdio_output@@AEAA_NXZ 00000001800536b0 f i libucrt:output.obj
 0001:000526b8       ?type_case_c@?$output_processor@_WV?$stream_output_adapter@_W@__crt_stdio_output@@V?$positional_parameter_base@_WV?$stream_output_adapter@_W@__crt_stdio_output@@@2@@__crt_stdio_output@@AEAA_NXZ 00000001800536b8 f i libucrt:output.obj
 0001:000526c0       ?type_case_c@?$output_processor@_WV?$stream_output_adapter@_W@__crt_stdio_output@@V?$standard_base@_WV?$stream_output_adapter@_W@__crt_stdio_output@@@2@@__crt_stdio_output@@AEAA_NXZ 00000001800536c0 f i libucrt:output.obj
 0001:000526c8       ?type_case_c@?$output_processor@_WV?$string_output_adapter@_W@__crt_stdio_output@@V?$format_validation_base@_WV?$string_output_adapter@_W@__crt_stdio_output@@@2@@__crt_stdio_output@@AEAA_NXZ 00000001800536c8 f i libucrt:output.obj
 0001:000526d0       ?type_case_c@?$output_processor@_WV?$string_output_adapter@_W@__crt_stdio_output@@V?$positional_parameter_base@_WV?$string_output_adapter@_W@__crt_stdio_output@@@2@@__crt_stdio_output@@AEAA_NXZ 00000001800536d0 f i libucrt:output.obj
 0001:000526d8       ?type_case_c@?$output_processor@_WV?$string_output_adapter@_W@__crt_stdio_output@@V?$standard_base@_WV?$string_output_adapter@_W@__crt_stdio_output@@@2@@__crt_stdio_output@@AEAA_NXZ 00000001800536d8 f i libucrt:output.obj
 0001:000526e0       ?type_case_c_tchar@?$output_processor@DV?$stream_output_adapter@D@__crt_stdio_output@@V?$format_validation_base@DV?$stream_output_adapter@D@__crt_stdio_output@@@2@@__crt_stdio_output@@AEAA_ND@Z 00000001800536e0 f i libucrt:output.obj
 0001:000527a8       ?type_case_c_tchar@?$output_processor@DV?$stream_output_adapter@D@__crt_stdio_output@@V?$positional_parameter_base@DV?$stream_output_adapter@D@__crt_stdio_output@@@2@@__crt_stdio_output@@AEAA_ND@Z 00000001800537a8 f i libucrt:output.obj
 0001:000528b4       ?type_case_c_tchar@?$output_processor@DV?$stream_output_adapter@D@__crt_stdio_output@@V?$standard_base@DV?$stream_output_adapter@D@__crt_stdio_output@@@2@@__crt_stdio_output@@AEAA_ND@Z 00000001800538b4 f i libucrt:output.obj
 0001:0005297c       ?type_case_c_tchar@?$output_processor@DV?$string_output_adapter@D@__crt_stdio_output@@V?$format_validation_base@DV?$string_output_adapter@D@__crt_stdio_output@@@2@@__crt_stdio_output@@AEAA_ND@Z 000000018005397c f i libucrt:output.obj
 0001:00052a44       ?type_case_c_tchar@?$output_processor@DV?$string_output_adapter@D@__crt_stdio_output@@V?$positional_parameter_base@DV?$string_output_adapter@D@__crt_stdio_output@@@2@@__crt_stdio_output@@AEAA_ND@Z 0000000180053a44 f i libucrt:output.obj
 0001:00052b50       ?type_case_c_tchar@?$output_processor@DV?$string_output_adapter@D@__crt_stdio_output@@V?$standard_base@DV?$string_output_adapter@D@__crt_stdio_output@@@2@@__crt_stdio_output@@AEAA_ND@Z 0000000180053b50 f i libucrt:output.obj
 0001:00052c18       ?type_case_c_tchar@?$output_processor@_WV?$stream_output_adapter@_W@__crt_stdio_output@@V?$format_validation_base@_WV?$stream_output_adapter@_W@__crt_stdio_output@@@2@@__crt_stdio_output@@AEAA_N_W@Z 0000000180053c18 f i libucrt:output.obj
 0001:00052cc0       ?type_case_c_tchar@?$output_processor@_WV?$stream_output_adapter@_W@__crt_stdio_output@@V?$positional_parameter_base@_WV?$stream_output_adapter@_W@__crt_stdio_output@@@2@@__crt_stdio_output@@AEAA_N_W@Z 0000000180053cc0 f i libucrt:output.obj
 0001:00052d8c       ?type_case_c_tchar@?$output_processor@_WV?$stream_output_adapter@_W@__crt_stdio_output@@V?$standard_base@_WV?$stream_output_adapter@_W@__crt_stdio_output@@@2@@__crt_stdio_output@@AEAA_N_W@Z 0000000180053d8c f i libucrt:output.obj
 0001:00052e34       ?type_case_c_tchar@?$output_processor@_WV?$string_output_adapter@_W@__crt_stdio_output@@V?$format_validation_base@_WV?$string_output_adapter@_W@__crt_stdio_output@@@2@@__crt_stdio_output@@AEAA_N_W@Z 0000000180053e34 f i libucrt:output.obj
 0001:00052edc       ?type_case_c_tchar@?$output_processor@_WV?$string_output_adapter@_W@__crt_stdio_output@@V?$positional_parameter_base@_WV?$string_output_adapter@_W@__crt_stdio_output@@@2@@__crt_stdio_output@@AEAA_N_W@Z 0000000180053edc f i libucrt:output.obj
 0001:00052fa8       ?type_case_c_tchar@?$output_processor@_WV?$string_output_adapter@_W@__crt_stdio_output@@V?$standard_base@_WV?$string_output_adapter@_W@__crt_stdio_output@@@2@@__crt_stdio_output@@AEAA_N_W@Z 0000000180053fa8 f i libucrt:output.obj
 0001:00053050       ?type_case_d@?$output_processor@DV?$stream_output_adapter@D@__crt_stdio_output@@V?$format_validation_base@DV?$stream_output_adapter@D@__crt_stdio_output@@@2@@__crt_stdio_output@@AEAA_NXZ 0000000180054050 f i libucrt:output.obj
 0001:00053060       ?type_case_d@?$output_processor@DV?$stream_output_adapter@D@__crt_stdio_output@@V?$positional_parameter_base@DV?$stream_output_adapter@D@__crt_stdio_output@@@2@@__crt_stdio_output@@AEAA_NXZ 0000000180054060 f i libucrt:output.obj
 0001:00053070       ?type_case_d@?$output_processor@DV?$stream_output_adapter@D@__crt_stdio_output@@V?$standard_base@DV?$stream_output_adapter@D@__crt_stdio_output@@@2@@__crt_stdio_output@@AEAA_NXZ 0000000180054070 f i libucrt:output.obj
 0001:00053080       ?type_case_d@?$output_processor@DV?$string_output_adapter@D@__crt_stdio_output@@V?$format_validation_base@DV?$string_output_adapter@D@__crt_stdio_output@@@2@@__crt_stdio_output@@AEAA_NXZ 0000000180054080 f i libucrt:output.obj
 0001:00053090       ?type_case_d@?$output_processor@DV?$string_output_adapter@D@__crt_stdio_output@@V?$positional_parameter_base@DV?$string_output_adapter@D@__crt_stdio_output@@@2@@__crt_stdio_output@@AEAA_NXZ 0000000180054090 f i libucrt:output.obj
 0001:000530a0       ?type_case_d@?$output_processor@DV?$string_output_adapter@D@__crt_stdio_output@@V?$standard_base@DV?$string_output_adapter@D@__crt_stdio_output@@@2@@__crt_stdio_output@@AEAA_NXZ 00000001800540a0 f i libucrt:output.obj
 0001:000530b0       ?type_case_d@?$output_processor@_WV?$stream_output_adapter@_W@__crt_stdio_output@@V?$format_validation_base@_WV?$stream_output_adapter@_W@__crt_stdio_output@@@2@@__crt_stdio_output@@AEAA_NXZ 00000001800540b0 f i libucrt:output.obj
 0001:000530c0       ?type_case_d@?$output_processor@_WV?$stream_output_adapter@_W@__crt_stdio_output@@V?$positional_parameter_base@_WV?$stream_output_adapter@_W@__crt_stdio_output@@@2@@__crt_stdio_output@@AEAA_NXZ 00000001800540c0 f i libucrt:output.obj
 0001:000530d0       ?type_case_d@?$output_processor@_WV?$stream_output_adapter@_W@__crt_stdio_output@@V?$standard_base@_WV?$stream_output_adapter@_W@__crt_stdio_output@@@2@@__crt_stdio_output@@AEAA_NXZ 00000001800540d0 f i libucrt:output.obj
 0001:000530e0       ?type_case_d@?$output_processor@_WV?$string_output_adapter@_W@__crt_stdio_output@@V?$format_validation_base@_WV?$string_output_adapter@_W@__crt_stdio_output@@@2@@__crt_stdio_output@@AEAA_NXZ 00000001800540e0 f i libucrt:output.obj
 0001:000530f0       ?type_case_d@?$output_processor@_WV?$string_output_adapter@_W@__crt_stdio_output@@V?$positional_parameter_base@_WV?$string_output_adapter@_W@__crt_stdio_output@@@2@@__crt_stdio_output@@AEAA_NXZ 00000001800540f0 f i libucrt:output.obj
 0001:00053100       ?type_case_d@?$output_processor@_WV?$string_output_adapter@_W@__crt_stdio_output@@V?$standard_base@_WV?$string_output_adapter@_W@__crt_stdio_output@@@2@@__crt_stdio_output@@AEAA_NXZ 0000000180054100 f i libucrt:output.obj
 0001:00053110       ?type_case_integer@?$output_processor@DV?$stream_output_adapter@D@__crt_stdio_output@@V?$format_validation_base@DV?$stream_output_adapter@D@__crt_stdio_output@@@2@@__crt_stdio_output@@AEAA_NI_N@Z 0000000180054110 f i libucrt:output.obj
 0001:00053290       ?type_case_integer@?$output_processor@DV?$stream_output_adapter@D@__crt_stdio_output@@V?$positional_parameter_base@DV?$stream_output_adapter@D@__crt_stdio_output@@@2@@__crt_stdio_output@@AEAA_NI_N@Z 0000000180054290 f i libucrt:output.obj
 0001:00053438       ?type_case_integer@?$output_processor@DV?$stream_output_adapter@D@__crt_stdio_output@@V?$standard_base@DV?$stream_output_adapter@D@__crt_stdio_output@@@2@@__crt_stdio_output@@AEAA_NI_N@Z 0000000180054438 f i libucrt:output.obj
 0001:000535b8       ?type_case_integer@?$output_processor@DV?$string_output_adapter@D@__crt_stdio_output@@V?$format_validation_base@DV?$string_output_adapter@D@__crt_stdio_output@@@2@@__crt_stdio_output@@AEAA_NI_N@Z 00000001800545b8 f i libucrt:output.obj
 0001:00053738       ?type_case_integer@?$output_processor@DV?$string_output_adapter@D@__crt_stdio_output@@V?$positional_parameter_base@DV?$string_output_adapter@D@__crt_stdio_output@@@2@@__crt_stdio_output@@AEAA_NI_N@Z 0000000180054738 f i libucrt:output.obj
 0001:000538e0       ?type_case_integer@?$output_processor@DV?$string_output_adapter@D@__crt_stdio_output@@V?$standard_base@DV?$string_output_adapter@D@__crt_stdio_output@@@2@@__crt_stdio_output@@AEAA_NI_N@Z 00000001800548e0 f i libucrt:output.obj
 0001:00053a60       ?type_case_integer@?$output_processor@_WV?$stream_output_adapter@_W@__crt_stdio_output@@V?$format_validation_base@_WV?$stream_output_adapter@_W@__crt_stdio_output@@@2@@__crt_stdio_output@@AEAA_NI_N@Z 0000000180054a60 f i libucrt:output.obj
 0001:00053be8       ?type_case_integer@?$output_processor@_WV?$stream_output_adapter@_W@__crt_stdio_output@@V?$positional_parameter_base@_WV?$stream_output_adapter@_W@__crt_stdio_output@@@2@@__crt_stdio_output@@AEAA_NI_N@Z 0000000180054be8 f i libucrt:output.obj
 0001:00053d98       ?type_case_integer@?$output_processor@_WV?$stream_output_adapter@_W@__crt_stdio_output@@V?$standard_base@_WV?$stream_output_adapter@_W@__crt_stdio_output@@@2@@__crt_stdio_output@@AEAA_NI_N@Z 0000000180054d98 f i libucrt:output.obj
 0001:00053f20       ?type_case_integer@?$output_processor@_WV?$string_output_adapter@_W@__crt_stdio_output@@V?$format_validation_base@_WV?$string_output_adapter@_W@__crt_stdio_output@@@2@@__crt_stdio_output@@AEAA_NI_N@Z 0000000180054f20 f i libucrt:output.obj
 0001:000540a8       ?type_case_integer@?$output_processor@_WV?$string_output_adapter@_W@__crt_stdio_output@@V?$positional_parameter_base@_WV?$string_output_adapter@_W@__crt_stdio_output@@@2@@__crt_stdio_output@@AEAA_NI_N@Z 00000001800550a8 f i libucrt:output.obj
 0001:00054258       ?type_case_integer@?$output_processor@_WV?$string_output_adapter@_W@__crt_stdio_output@@V?$standard_base@_WV?$string_output_adapter@_W@__crt_stdio_output@@@2@@__crt_stdio_output@@AEAA_NI_N@Z 0000000180055258 f i libucrt:output.obj
 0001:000543e0       ?type_case_n@?$output_processor@DV?$stream_output_adapter@D@__crt_stdio_output@@V?$format_validation_base@DV?$stream_output_adapter@D@__crt_stdio_output@@@2@@__crt_stdio_output@@AEAA_NXZ 00000001800553e0 f i libucrt:output.obj
 0001:00054468       ?type_case_n@?$output_processor@DV?$stream_output_adapter@D@__crt_stdio_output@@V?$positional_parameter_base@DV?$stream_output_adapter@D@__crt_stdio_output@@@2@@__crt_stdio_output@@AEAA_NXZ 0000000180055468 f i libucrt:output.obj
 0001:00054518       ?type_case_n@?$output_processor@DV?$stream_output_adapter@D@__crt_stdio_output@@V?$standard_base@DV?$stream_output_adapter@D@__crt_stdio_output@@@2@@__crt_stdio_output@@AEAA_NXZ 0000000180055518 f i libucrt:output.obj
 0001:000545a0       ?type_case_n@?$output_processor@DV?$string_output_adapter@D@__crt_stdio_output@@V?$format_validation_base@DV?$string_output_adapter@D@__crt_stdio_output@@@2@@__crt_stdio_output@@AEAA_NXZ 00000001800555a0 f i libucrt:output.obj
 0001:00054628       ?type_case_n@?$output_processor@DV?$string_output_adapter@D@__crt_stdio_output@@V?$positional_parameter_base@DV?$string_output_adapter@D@__crt_stdio_output@@@2@@__crt_stdio_output@@AEAA_NXZ 0000000180055628 f i libucrt:output.obj
 0001:000546d8       ?type_case_n@?$output_processor@DV?$string_output_adapter@D@__crt_stdio_output@@V?$standard_base@DV?$string_output_adapter@D@__crt_stdio_output@@@2@@__crt_stdio_output@@AEAA_NXZ 00000001800556d8 f i libucrt:output.obj
 0001:00054760       ?type_case_n@?$output_processor@_WV?$stream_output_adapter@_W@__crt_stdio_output@@V?$format_validation_base@_WV?$stream_output_adapter@_W@__crt_stdio_output@@@2@@__crt_stdio_output@@AEAA_NXZ 0000000180055760 f i libucrt:output.obj
 0001:000547e8       ?type_case_n@?$output_processor@_WV?$stream_output_adapter@_W@__crt_stdio_output@@V?$positional_parameter_base@_WV?$stream_output_adapter@_W@__crt_stdio_output@@@2@@__crt_stdio_output@@AEAA_NXZ 00000001800557e8 f i libucrt:output.obj
 0001:00054898       ?type_case_n@?$output_processor@_WV?$stream_output_adapter@_W@__crt_stdio_output@@V?$standard_base@_WV?$stream_output_adapter@_W@__crt_stdio_output@@@2@@__crt_stdio_output@@AEAA_NXZ 0000000180055898 f i libucrt:output.obj
 0001:00054920       ?type_case_n@?$output_processor@_WV?$string_output_adapter@_W@__crt_stdio_output@@V?$format_validation_base@_WV?$string_output_adapter@_W@__crt_stdio_output@@@2@@__crt_stdio_output@@AEAA_NXZ 0000000180055920 f i libucrt:output.obj
 0001:000549a8       ?type_case_n@?$output_processor@_WV?$string_output_adapter@_W@__crt_stdio_output@@V?$positional_parameter_base@_WV?$string_output_adapter@_W@__crt_stdio_output@@@2@@__crt_stdio_output@@AEAA_NXZ 00000001800559a8 f i libucrt:output.obj
 0001:00054a58       ?type_case_n@?$output_processor@_WV?$string_output_adapter@_W@__crt_stdio_output@@V?$standard_base@_WV?$string_output_adapter@_W@__crt_stdio_output@@@2@@__crt_stdio_output@@AEAA_NXZ 0000000180055a58 f i libucrt:output.obj
 0001:00054ae0       ?type_case_o@?$output_processor@DV?$stream_output_adapter@D@__crt_stdio_output@@V?$format_validation_base@DV?$stream_output_adapter@D@__crt_stdio_output@@@2@@__crt_stdio_output@@AEAA_NXZ 0000000180055ae0 f i libucrt:output.obj
 0001:00054b00       ?type_case_o@?$output_processor@DV?$stream_output_adapter@D@__crt_stdio_output@@V?$positional_parameter_base@DV?$stream_output_adapter@D@__crt_stdio_output@@@2@@__crt_stdio_output@@AEAA_NXZ 0000000180055b00 f i libucrt:output.obj
 0001:00054b20       ?type_case_o@?$output_processor@DV?$stream_output_adapter@D@__crt_stdio_output@@V?$standard_base@DV?$stream_output_adapter@D@__crt_stdio_output@@@2@@__crt_stdio_output@@AEAA_NXZ 0000000180055b20 f i libucrt:output.obj
 0001:00054b40       ?type_case_o@?$output_processor@DV?$string_output_adapter@D@__crt_stdio_output@@V?$format_validation_base@DV?$string_output_adapter@D@__crt_stdio_output@@@2@@__crt_stdio_output@@AEAA_NXZ 0000000180055b40 f i libucrt:output.obj
 0001:00054b60       ?type_case_o@?$output_processor@DV?$string_output_adapter@D@__crt_stdio_output@@V?$positional_parameter_base@DV?$string_output_adapter@D@__crt_stdio_output@@@2@@__crt_stdio_output@@AEAA_NXZ 0000000180055b60 f i libucrt:output.obj
 0001:00054b80       ?type_case_o@?$output_processor@DV?$string_output_adapter@D@__crt_stdio_output@@V?$standard_base@DV?$string_output_adapter@D@__crt_stdio_output@@@2@@__crt_stdio_output@@AEAA_NXZ 0000000180055b80 f i libucrt:output.obj
 0001:00054ba0       ?type_case_o@?$output_processor@_WV?$stream_output_adapter@_W@__crt_stdio_output@@V?$format_validation_base@_WV?$stream_output_adapter@_W@__crt_stdio_output@@@2@@__crt_stdio_output@@AEAA_NXZ 0000000180055ba0 f i libucrt:output.obj
 0001:00054bc0       ?type_case_o@?$output_processor@_WV?$stream_output_adapter@_W@__crt_stdio_output@@V?$positional_parameter_base@_WV?$stream_output_adapter@_W@__crt_stdio_output@@@2@@__crt_stdio_output@@AEAA_NXZ 0000000180055bc0 f i libucrt:output.obj
 0001:00054be0       ?type_case_o@?$output_processor@_WV?$stream_output_adapter@_W@__crt_stdio_output@@V?$standard_base@_WV?$stream_output_adapter@_W@__crt_stdio_output@@@2@@__crt_stdio_output@@AEAA_NXZ 0000000180055be0 f i libucrt:output.obj
 0001:00054c00       ?type_case_o@?$output_processor@_WV?$string_output_adapter@_W@__crt_stdio_output@@V?$format_validation_base@_WV?$string_output_adapter@_W@__crt_stdio_output@@@2@@__crt_stdio_output@@AEAA_NXZ 0000000180055c00 f i libucrt:output.obj
 0001:00054c20       ?type_case_o@?$output_processor@_WV?$string_output_adapter@_W@__crt_stdio_output@@V?$positional_parameter_base@_WV?$string_output_adapter@_W@__crt_stdio_output@@@2@@__crt_stdio_output@@AEAA_NXZ 0000000180055c20 f i libucrt:output.obj
 0001:00054c40       ?type_case_o@?$output_processor@_WV?$string_output_adapter@_W@__crt_stdio_output@@V?$standard_base@_WV?$string_output_adapter@_W@__crt_stdio_output@@@2@@__crt_stdio_output@@AEAA_NXZ 0000000180055c40 f i libucrt:output.obj
 0001:00054c60       ?type_case_p@?$output_processor@DV?$stream_output_adapter@D@__crt_stdio_output@@V?$format_validation_base@DV?$stream_output_adapter@D@__crt_stdio_output@@@2@@__crt_stdio_output@@AEAA_NXZ 0000000180055c60 f i libucrt:output.obj
 0001:00054c78       ?type_case_p@?$output_processor@DV?$stream_output_adapter@D@__crt_stdio_output@@V?$positional_parameter_base@DV?$stream_output_adapter@D@__crt_stdio_output@@@2@@__crt_stdio_output@@AEAA_NXZ 0000000180055c78 f i libucrt:output.obj
 0001:00054c90       ?type_case_p@?$output_processor@DV?$stream_output_adapter@D@__crt_stdio_output@@V?$standard_base@DV?$stream_output_adapter@D@__crt_stdio_output@@@2@@__crt_stdio_output@@AEAA_NXZ 0000000180055c90 f i libucrt:output.obj
 0001:00054ca8       ?type_case_p@?$output_processor@DV?$string_output_adapter@D@__crt_stdio_output@@V?$format_validation_base@DV?$string_output_adapter@D@__crt_stdio_output@@@2@@__crt_stdio_output@@AEAA_NXZ 0000000180055ca8 f i libucrt:output.obj
 0001:00054cc0       ?type_case_p@?$output_processor@DV?$string_output_adapter@D@__crt_stdio_output@@V?$positional_parameter_base@DV?$string_output_adapter@D@__crt_stdio_output@@@2@@__crt_stdio_output@@AEAA_NXZ 0000000180055cc0 f i libucrt:output.obj
 0001:00054cd8       ?type_case_p@?$output_processor@DV?$string_output_adapter@D@__crt_stdio_output@@V?$standard_base@DV?$string_output_adapter@D@__crt_stdio_output@@@2@@__crt_stdio_output@@AEAA_NXZ 0000000180055cd8 f i libucrt:output.obj
 0001:00054cf0       ?type_case_p@?$output_processor@_WV?$stream_output_adapter@_W@__crt_stdio_output@@V?$format_validation_base@_WV?$stream_output_adapter@_W@__crt_stdio_output@@@2@@__crt_stdio_output@@AEAA_NXZ 0000000180055cf0 f i libucrt:output.obj
 0001:00054d08       ?type_case_p@?$output_processor@_WV?$stream_output_adapter@_W@__crt_stdio_output@@V?$positional_parameter_base@_WV?$stream_output_adapter@_W@__crt_stdio_output@@@2@@__crt_stdio_output@@AEAA_NXZ 0000000180055d08 f i libucrt:output.obj
 0001:00054d20       ?type_case_p@?$output_processor@_WV?$stream_output_adapter@_W@__crt_stdio_output@@V?$standard_base@_WV?$stream_output_adapter@_W@__crt_stdio_output@@@2@@__crt_stdio_output@@AEAA_NXZ 0000000180055d20 f i libucrt:output.obj
 0001:00054d38       ?type_case_p@?$output_processor@_WV?$string_output_adapter@_W@__crt_stdio_output@@V?$format_validation_base@_WV?$string_output_adapter@_W@__crt_stdio_output@@@2@@__crt_stdio_output@@AEAA_NXZ 0000000180055d38 f i libucrt:output.obj
 0001:00054d50       ?type_case_p@?$output_processor@_WV?$string_output_adapter@_W@__crt_stdio_output@@V?$positional_parameter_base@_WV?$string_output_adapter@_W@__crt_stdio_output@@@2@@__crt_stdio_output@@AEAA_NXZ 0000000180055d50 f i libucrt:output.obj
 0001:00054d68       ?type_case_p@?$output_processor@_WV?$string_output_adapter@_W@__crt_stdio_output@@V?$standard_base@_WV?$string_output_adapter@_W@__crt_stdio_output@@@2@@__crt_stdio_output@@AEAA_NXZ 0000000180055d68 f i libucrt:output.obj
 0001:00054d80       ?type_case_s@?$output_processor@DV?$stream_output_adapter@D@__crt_stdio_output@@V?$format_validation_base@DV?$stream_output_adapter@D@__crt_stdio_output@@@2@@__crt_stdio_output@@AEAA_NXZ 0000000180055d80 f i libucrt:output.obj
 0001:00054e18       ?type_case_s@?$output_processor@DV?$stream_output_adapter@D@__crt_stdio_output@@V?$positional_parameter_base@DV?$stream_output_adapter@D@__crt_stdio_output@@@2@@__crt_stdio_output@@AEAA_NXZ 0000000180055e18 f i libucrt:output.obj
 0001:00054ed0       ?type_case_s@?$output_processor@DV?$stream_output_adapter@D@__crt_stdio_output@@V?$standard_base@DV?$stream_output_adapter@D@__crt_stdio_output@@@2@@__crt_stdio_output@@AEAA_NXZ 0000000180055ed0 f i libucrt:output.obj
 0001:00054f68       ?type_case_s@?$output_processor@DV?$string_output_adapter@D@__crt_stdio_output@@V?$format_validation_base@DV?$string_output_adapter@D@__crt_stdio_output@@@2@@__crt_stdio_output@@AEAA_NXZ 0000000180055f68 f i libucrt:output.obj
 0001:00055000       ?type_case_s@?$output_processor@DV?$string_output_adapter@D@__crt_stdio_output@@V?$positional_parameter_base@DV?$string_output_adapter@D@__crt_stdio_output@@@2@@__crt_stdio_output@@AEAA_NXZ 0000000180056000 f i libucrt:output.obj
 0001:000550b8       ?type_case_s@?$output_processor@DV?$string_output_adapter@D@__crt_stdio_output@@V?$standard_base@DV?$string_output_adapter@D@__crt_stdio_output@@@2@@__crt_stdio_output@@AEAA_NXZ 00000001800560b8 f i libucrt:output.obj
 0001:00055150       ?type_case_s@?$output_processor@_WV?$stream_output_adapter@_W@__crt_stdio_output@@V?$format_validation_base@_WV?$stream_output_adapter@_W@__crt_stdio_output@@@2@@__crt_stdio_output@@AEAA_NXZ 0000000180056150 f i libucrt:output.obj
 0001:00055218       ?type_case_s@?$output_processor@_WV?$stream_output_adapter@_W@__crt_stdio_output@@V?$positional_parameter_base@_WV?$stream_output_adapter@_W@__crt_stdio_output@@@2@@__crt_stdio_output@@AEAA_NXZ 0000000180056218 f i libucrt:output.obj
 0001:00055304       ?type_case_s@?$output_processor@_WV?$stream_output_adapter@_W@__crt_stdio_output@@V?$standard_base@_WV?$stream_output_adapter@_W@__crt_stdio_output@@@2@@__crt_stdio_output@@AEAA_NXZ 0000000180056304 f i libucrt:output.obj
 0001:000553cc       ?type_case_s@?$output_processor@_WV?$string_output_adapter@_W@__crt_stdio_output@@V?$format_validation_base@_WV?$string_output_adapter@_W@__crt_stdio_output@@@2@@__crt_stdio_output@@AEAA_NXZ 00000001800563cc f i libucrt:output.obj
 0001:00055494       ?type_case_s@?$output_processor@_WV?$string_output_adapter@_W@__crt_stdio_output@@V?$positional_parameter_base@_WV?$string_output_adapter@_W@__crt_stdio_output@@@2@@__crt_stdio_output@@AEAA_NXZ 0000000180056494 f i libucrt:output.obj
 0001:00055580       ?type_case_s@?$output_processor@_WV?$string_output_adapter@_W@__crt_stdio_output@@V?$standard_base@_WV?$string_output_adapter@_W@__crt_stdio_output@@@2@@__crt_stdio_output@@AEAA_NXZ 0000000180056580 f i libucrt:output.obj
 0001:00055648       ?type_case_s_compute_narrow_string_length@?$output_processor@DV?$stream_output_adapter@D@__crt_stdio_output@@V?$format_validation_base@DV?$stream_output_adapter@D@__crt_stdio_output@@@2@@__crt_stdio_output@@AEBAHHD@Z 0000000180056648 f i libucrt:output.obj
 0001:00055654       ?type_case_s_compute_narrow_string_length@?$output_processor@DV?$stream_output_adapter@D@__crt_stdio_output@@V?$positional_parameter_base@DV?$stream_output_adapter@D@__crt_stdio_output@@@2@@__crt_stdio_output@@AEBAHHD@Z 0000000180056654 f i libucrt:output.obj
 0001:00055660       ?type_case_s_compute_narrow_string_length@?$output_processor@DV?$stream_output_adapter@D@__crt_stdio_output@@V?$standard_base@DV?$stream_output_adapter@D@__crt_stdio_output@@@2@@__crt_stdio_output@@AEBAHHD@Z 0000000180056660 f i libucrt:output.obj
 0001:0005566c       ?type_case_s_compute_narrow_string_length@?$output_processor@DV?$string_output_adapter@D@__crt_stdio_output@@V?$format_validation_base@DV?$string_output_adapter@D@__crt_stdio_output@@@2@@__crt_stdio_output@@AEBAHHD@Z 000000018005666c f i libucrt:output.obj
 0001:00055678       ?type_case_s_compute_narrow_string_length@?$output_processor@DV?$string_output_adapter@D@__crt_stdio_output@@V?$positional_parameter_base@DV?$string_output_adapter@D@__crt_stdio_output@@@2@@__crt_stdio_output@@AEBAHHD@Z 0000000180056678 f i libucrt:output.obj
 0001:00055684       ?type_case_s_compute_narrow_string_length@?$output_processor@DV?$string_output_adapter@D@__crt_stdio_output@@V?$standard_base@DV?$string_output_adapter@D@__crt_stdio_output@@@2@@__crt_stdio_output@@AEBAHHD@Z 0000000180056684 f i libucrt:output.obj
 0001:00055690       ?type_case_s_compute_narrow_string_length@?$output_processor@_WV?$stream_output_adapter@_W@__crt_stdio_output@@V?$format_validation_base@_WV?$stream_output_adapter@_W@__crt_stdio_output@@@2@@__crt_stdio_output@@AEBAHH_W@Z 0000000180056690 f i libucrt:output.obj
 0001:000556e4       ?type_case_s_compute_narrow_string_length@?$output_processor@_WV?$stream_output_adapter@_W@__crt_stdio_output@@V?$positional_parameter_base@_WV?$stream_output_adapter@_W@__crt_stdio_output@@@2@@__crt_stdio_output@@AEBAHH_W@Z 00000001800566e4 f i libucrt:output.obj
 0001:00055738       ?type_case_s_compute_narrow_string_length@?$output_processor@_WV?$stream_output_adapter@_W@__crt_stdio_output@@V?$standard_base@_WV?$stream_output_adapter@_W@__crt_stdio_output@@@2@@__crt_stdio_output@@AEBAHH_W@Z 0000000180056738 f i libucrt:output.obj
 0001:0005578c       ?type_case_s_compute_narrow_string_length@?$output_processor@_WV?$string_output_adapter@_W@__crt_stdio_output@@V?$format_validation_base@_WV?$string_output_adapter@_W@__crt_stdio_output@@@2@@__crt_stdio_output@@AEBAHH_W@Z 000000018005678c f i libucrt:output.obj
 0001:000557e0       ?type_case_s_compute_narrow_string_length@?$output_processor@_WV?$string_output_adapter@_W@__crt_stdio_output@@V?$positional_parameter_base@_WV?$string_output_adapter@_W@__crt_stdio_output@@@2@@__crt_stdio_output@@AEBAHH_W@Z 00000001800567e0 f i libucrt:output.obj
 0001:00055834       ?type_case_s_compute_narrow_string_length@?$output_processor@_WV?$string_output_adapter@_W@__crt_stdio_output@@V?$standard_base@_WV?$string_output_adapter@_W@__crt_stdio_output@@@2@@__crt_stdio_output@@AEBAHH_W@Z 0000000180056834 f i libucrt:output.obj
 0001:00055888       ?type_case_u@?$output_processor@DV?$stream_output_adapter@D@__crt_stdio_output@@V?$format_validation_base@DV?$stream_output_adapter@D@__crt_stdio_output@@@2@@__crt_stdio_output@@AEAA_NXZ 0000000180056888 f i libucrt:output.obj
 0001:00055894       ?type_case_u@?$output_processor@DV?$stream_output_adapter@D@__crt_stdio_output@@V?$positional_parameter_base@DV?$stream_output_adapter@D@__crt_stdio_output@@@2@@__crt_stdio_output@@AEAA_NXZ 0000000180056894 f i libucrt:output.obj
 0001:000558a0       ?type_case_u@?$output_processor@DV?$stream_output_adapter@D@__crt_stdio_output@@V?$standard_base@DV?$stream_output_adapter@D@__crt_stdio_output@@@2@@__crt_stdio_output@@AEAA_NXZ 00000001800568a0 f i libucrt:output.obj
 0001:000558ac       ?type_case_u@?$output_processor@DV?$string_output_adapter@D@__crt_stdio_output@@V?$format_validation_base@DV?$string_output_adapter@D@__crt_stdio_output@@@2@@__crt_stdio_output@@AEAA_NXZ 00000001800568ac f i libucrt:output.obj
 0001:000558b8       ?type_case_u@?$output_processor@DV?$string_output_adapter@D@__crt_stdio_output@@V?$positional_parameter_base@DV?$string_output_adapter@D@__crt_stdio_output@@@2@@__crt_stdio_output@@AEAA_NXZ 00000001800568b8 f i libucrt:output.obj
 0001:000558c4       ?type_case_u@?$output_processor@DV?$string_output_adapter@D@__crt_stdio_output@@V?$standard_base@DV?$string_output_adapter@D@__crt_stdio_output@@@2@@__crt_stdio_output@@AEAA_NXZ 00000001800568c4 f i libucrt:output.obj
 0001:000558d0       ?type_case_u@?$output_processor@_WV?$stream_output_adapter@_W@__crt_stdio_output@@V?$format_validation_base@_WV?$stream_output_adapter@_W@__crt_stdio_output@@@2@@__crt_stdio_output@@AEAA_NXZ 00000001800568d0 f i libucrt:output.obj
 0001:000558dc       ?type_case_u@?$output_processor@_WV?$stream_output_adapter@_W@__crt_stdio_output@@V?$positional_parameter_base@_WV?$stream_output_adapter@_W@__crt_stdio_output@@@2@@__crt_stdio_output@@AEAA_NXZ 00000001800568dc f i libucrt:output.obj
 0001:000558e8       ?type_case_u@?$output_processor@_WV?$stream_output_adapter@_W@__crt_stdio_output@@V?$standard_base@_WV?$stream_output_adapter@_W@__crt_stdio_output@@@2@@__crt_stdio_output@@AEAA_NXZ 00000001800568e8 f i libucrt:output.obj
 0001:000558f4       ?type_case_u@?$output_processor@_WV?$string_output_adapter@_W@__crt_stdio_output@@V?$format_validation_base@_WV?$string_output_adapter@_W@__crt_stdio_output@@@2@@__crt_stdio_output@@AEAA_NXZ 00000001800568f4 f i libucrt:output.obj
 0001:00055900       ?type_case_u@?$output_processor@_WV?$string_output_adapter@_W@__crt_stdio_output@@V?$positional_parameter_base@_WV?$string_output_adapter@_W@__crt_stdio_output@@@2@@__crt_stdio_output@@AEAA_NXZ 0000000180056900 f i libucrt:output.obj
 0001:0005590c       ?type_case_u@?$output_processor@_WV?$string_output_adapter@_W@__crt_stdio_output@@V?$standard_base@_WV?$string_output_adapter@_W@__crt_stdio_output@@@2@@__crt_stdio_output@@AEAA_NXZ 000000018005690c f i libucrt:output.obj
 0001:00055918       ?type_case_x@?$output_processor@DV?$stream_output_adapter@D@__crt_stdio_output@@V?$format_validation_base@DV?$stream_output_adapter@D@__crt_stdio_output@@@2@@__crt_stdio_output@@AEAA_NXZ 0000000180056918 f i libucrt:output.obj
 0001:00055924       ?type_case_x@?$output_processor@DV?$stream_output_adapter@D@__crt_stdio_output@@V?$positional_parameter_base@DV?$stream_output_adapter@D@__crt_stdio_output@@@2@@__crt_stdio_output@@AEAA_NXZ 0000000180056924 f i libucrt:output.obj
 0001:00055930       ?type_case_x@?$output_processor@DV?$stream_output_adapter@D@__crt_stdio_output@@V?$standard_base@DV?$stream_output_adapter@D@__crt_stdio_output@@@2@@__crt_stdio_output@@AEAA_NXZ 0000000180056930 f i libucrt:output.obj
 0001:0005593c       ?type_case_x@?$output_processor@DV?$string_output_adapter@D@__crt_stdio_output@@V?$format_validation_base@DV?$string_output_adapter@D@__crt_stdio_output@@@2@@__crt_stdio_output@@AEAA_NXZ 000000018005693c f i libucrt:output.obj
 0001:00055948       ?type_case_x@?$output_processor@DV?$string_output_adapter@D@__crt_stdio_output@@V?$positional_parameter_base@DV?$string_output_adapter@D@__crt_stdio_output@@@2@@__crt_stdio_output@@AEAA_NXZ 0000000180056948 f i libucrt:output.obj
 0001:00055954       ?type_case_x@?$output_processor@DV?$string_output_adapter@D@__crt_stdio_output@@V?$standard_base@DV?$string_output_adapter@D@__crt_stdio_output@@@2@@__crt_stdio_output@@AEAA_NXZ 0000000180056954 f i libucrt:output.obj
 0001:00055960       ?type_case_x@?$output_processor@_WV?$stream_output_adapter@_W@__crt_stdio_output@@V?$format_validation_base@_WV?$stream_output_adapter@_W@__crt_stdio_output@@@2@@__crt_stdio_output@@AEAA_NXZ 0000000180056960 f i libucrt:output.obj
 0001:0005596c       ?type_case_x@?$output_processor@_WV?$stream_output_adapter@_W@__crt_stdio_output@@V?$positional_parameter_base@_WV?$stream_output_adapter@_W@__crt_stdio_output@@@2@@__crt_stdio_output@@AEAA_NXZ 000000018005696c f i libucrt:output.obj
 0001:00055978       ?type_case_x@?$output_processor@_WV?$stream_output_adapter@_W@__crt_stdio_output@@V?$standard_base@_WV?$stream_output_adapter@_W@__crt_stdio_output@@@2@@__crt_stdio_output@@AEAA_NXZ 0000000180056978 f i libucrt:output.obj
 0001:00055984       ?type_case_x@?$output_processor@_WV?$string_output_adapter@_W@__crt_stdio_output@@V?$format_validation_base@_WV?$string_output_adapter@_W@__crt_stdio_output@@@2@@__crt_stdio_output@@AEAA_NXZ 0000000180056984 f i libucrt:output.obj
 0001:00055990       ?type_case_x@?$output_processor@_WV?$string_output_adapter@_W@__crt_stdio_output@@V?$positional_parameter_base@_WV?$string_output_adapter@_W@__crt_stdio_output@@@2@@__crt_stdio_output@@AEAA_NXZ 0000000180056990 f i libucrt:output.obj
 0001:0005599c       ?type_case_x@?$output_processor@_WV?$string_output_adapter@_W@__crt_stdio_output@@V?$standard_base@_WV?$string_output_adapter@_W@__crt_stdio_output@@@2@@__crt_stdio_output@@AEAA_NXZ 000000018005699c f i libucrt:output.obj
 0001:000559a8       ?unset_flag@?$output_processor@DV?$stream_output_adapter@D@__crt_stdio_output@@V?$format_validation_base@DV?$stream_output_adapter@D@__crt_stdio_output@@@2@@__crt_stdio_output@@AEAAXI@Z 00000001800569a8 f i libucrt:output.obj
 0001:000559b0       ?unset_flag@?$output_processor@DV?$stream_output_adapter@D@__crt_stdio_output@@V?$positional_parameter_base@DV?$stream_output_adapter@D@__crt_stdio_output@@@2@@__crt_stdio_output@@AEAAXI@Z 00000001800569b0 f i libucrt:output.obj
 0001:000559b8       ?unset_flag@?$output_processor@DV?$stream_output_adapter@D@__crt_stdio_output@@V?$standard_base@DV?$stream_output_adapter@D@__crt_stdio_output@@@2@@__crt_stdio_output@@AEAAXI@Z 00000001800569b8 f i libucrt:output.obj
 0001:000559c0       ?unset_flag@?$output_processor@DV?$string_output_adapter@D@__crt_stdio_output@@V?$format_validation_base@DV?$string_output_adapter@D@__crt_stdio_output@@@2@@__crt_stdio_output@@AEAAXI@Z 00000001800569c0 f i libucrt:output.obj
 0001:000559c8       ?unset_flag@?$output_processor@DV?$string_output_adapter@D@__crt_stdio_output@@V?$positional_parameter_base@DV?$string_output_adapter@D@__crt_stdio_output@@@2@@__crt_stdio_output@@AEAAXI@Z 00000001800569c8 f i libucrt:output.obj
 0001:000559d0       ?unset_flag@?$output_processor@DV?$string_output_adapter@D@__crt_stdio_output@@V?$standard_base@DV?$string_output_adapter@D@__crt_stdio_output@@@2@@__crt_stdio_output@@AEAAXI@Z 00000001800569d0 f i libucrt:output.obj
 0001:000559d8       ?unset_flag@?$output_processor@_WV?$stream_output_adapter@_W@__crt_stdio_output@@V?$format_validation_base@_WV?$stream_output_adapter@_W@__crt_stdio_output@@@2@@__crt_stdio_output@@AEAAXI@Z 00000001800569d8 f i libucrt:output.obj
 0001:000559e0       ?unset_flag@?$output_processor@_WV?$stream_output_adapter@_W@__crt_stdio_output@@V?$positional_parameter_base@_WV?$stream_output_adapter@_W@__crt_stdio_output@@@2@@__crt_stdio_output@@AEAAXI@Z 00000001800569e0 f i libucrt:output.obj
 0001:000559e8       ?unset_flag@?$output_processor@_WV?$stream_output_adapter@_W@__crt_stdio_output@@V?$standard_base@_WV?$stream_output_adapter@_W@__crt_stdio_output@@@2@@__crt_stdio_output@@AEAAXI@Z 00000001800569e8 f i libucrt:output.obj
 0001:000559f0       ?unset_flag@?$output_processor@_WV?$string_output_adapter@_W@__crt_stdio_output@@V?$format_validation_base@_WV?$string_output_adapter@_W@__crt_stdio_output@@@2@@__crt_stdio_output@@AEAAXI@Z 00000001800569f0 f i libucrt:output.obj
 0001:000559f8       ?unset_flag@?$output_processor@_WV?$string_output_adapter@_W@__crt_stdio_output@@V?$positional_parameter_base@_WV?$string_output_adapter@_W@__crt_stdio_output@@@2@@__crt_stdio_output@@AEAAXI@Z 00000001800569f8 f i libucrt:output.obj
 0001:00055a00       ?unset_flag@?$output_processor@_WV?$string_output_adapter@_W@__crt_stdio_output@@V?$standard_base@_WV?$string_output_adapter@_W@__crt_stdio_output@@@2@@__crt_stdio_output@@AEAAXI@Z 0000000180056a00 f i libucrt:output.obj
 0001:00055a08       ?update_field_width@?$positional_parameter_base@DV?$stream_output_adapter@D@__crt_stdio_output@@@__crt_stdio_output@@IEAA_NXZ 0000000180056a08 f i libucrt:output.obj
 0001:00055b20       ?update_field_width@?$positional_parameter_base@DV?$string_output_adapter@D@__crt_stdio_output@@@__crt_stdio_output@@IEAA_NXZ 0000000180056b20 f i libucrt:output.obj
 0001:00055c38       ?update_field_width@?$positional_parameter_base@_WV?$stream_output_adapter@_W@__crt_stdio_output@@@__crt_stdio_output@@IEAA_NXZ 0000000180056c38 f i libucrt:output.obj
 0001:00055d50       ?update_field_width@?$positional_parameter_base@_WV?$string_output_adapter@_W@__crt_stdio_output@@@__crt_stdio_output@@IEAA_NXZ 0000000180056d50 f i libucrt:output.obj
 0001:00055e68       ?update_field_width@?$standard_base@DV?$stream_output_adapter@D@__crt_stdio_output@@@__crt_stdio_output@@IEAA_NXZ 0000000180056e68 f i libucrt:output.obj
 0001:00055e7c       ?update_field_width@?$standard_base@DV?$string_output_adapter@D@__crt_stdio_output@@@__crt_stdio_output@@IEAA_NXZ 0000000180056e7c f i libucrt:output.obj
 0001:00055e90       ?update_field_width@?$standard_base@_WV?$stream_output_adapter@_W@__crt_stdio_output@@@__crt_stdio_output@@IEAA_NXZ 0000000180056e90 f i libucrt:output.obj
 0001:00055ea4       ?update_field_width@?$standard_base@_WV?$string_output_adapter@_W@__crt_stdio_output@@@__crt_stdio_output@@IEAA_NXZ 0000000180056ea4 f i libucrt:output.obj
 0001:00055eb8       ?update_precision@?$positional_parameter_base@DV?$stream_output_adapter@D@__crt_stdio_output@@@__crt_stdio_output@@IEAA_NXZ 0000000180056eb8 f i libucrt:output.obj
 0001:00055fd0       ?update_precision@?$positional_parameter_base@DV?$string_output_adapter@D@__crt_stdio_output@@@__crt_stdio_output@@IEAA_NXZ 0000000180056fd0 f i libucrt:output.obj
 0001:000560e8       ?update_precision@?$positional_parameter_base@_WV?$stream_output_adapter@_W@__crt_stdio_output@@@__crt_stdio_output@@IEAA_NXZ 00000001800570e8 f i libucrt:output.obj
 0001:00056200       ?update_precision@?$positional_parameter_base@_WV?$string_output_adapter@_W@__crt_stdio_output@@@__crt_stdio_output@@IEAA_NXZ 0000000180057200 f i libucrt:output.obj
 0001:00056318       ?update_precision@?$standard_base@DV?$stream_output_adapter@D@__crt_stdio_output@@@__crt_stdio_output@@IEAA_NXZ 0000000180057318 f i libucrt:output.obj
 0001:0005632c       ?update_precision@?$standard_base@DV?$string_output_adapter@D@__crt_stdio_output@@@__crt_stdio_output@@IEAA_NXZ 000000018005732c f i libucrt:output.obj
 0001:00056340       ?update_precision@?$standard_base@_WV?$stream_output_adapter@_W@__crt_stdio_output@@@__crt_stdio_output@@IEAA_NXZ 0000000180057340 f i libucrt:output.obj
 0001:00056354       ?update_precision@?$standard_base@_WV?$string_output_adapter@_W@__crt_stdio_output@@@__crt_stdio_output@@IEAA_NXZ 0000000180057354 f i libucrt:output.obj
 0001:00056368       ?valid@__crt_stdio_stream@@QEBA_NXZ 0000000180057368 f i libucrt:output.obj
 0001:00056370       ?validate@?$stream_output_adapter@D@__crt_stdio_output@@QEBA_NXZ 0000000180057370 f i libucrt:output.obj
 0001:0005639c       ?validate@?$stream_output_adapter@_W@__crt_stdio_output@@QEBA_NXZ 000000018005739c f i libucrt:output.obj
 0001:000563c4       ?validate@?$string_output_adapter@D@__crt_stdio_output@@QEBA_NXZ 00000001800573c4 f i libucrt:output.obj
 0001:000563ec       ?validate@?$string_output_adapter@_W@__crt_stdio_output@@QEBA_NXZ 00000001800573ec f i libucrt:output.obj
 0001:00056414       ?validate_and_store_parameter_data@?$positional_parameter_base@DV?$stream_output_adapter@D@__crt_stdio_output@@@__crt_stdio_output@@AEAA_NAEAUparameter_data@12@W4parameter_type@12@DW4length_modifier@2@@Z 0000000180057414 f i libucrt:output.obj
 0001:00056454       ?validate_and_store_parameter_data@?$positional_parameter_base@DV?$string_output_adapter@D@__crt_stdio_output@@@__crt_stdio_output@@AEAA_NAEAUparameter_data@12@W4parameter_type@12@DW4length_modifier@2@@Z 0000000180057454 f i libucrt:output.obj
 0001:00056494       ?validate_and_store_parameter_data@?$positional_parameter_base@_WV?$stream_output_adapter@_W@__crt_stdio_output@@@__crt_stdio_output@@AEAA_NAEAUparameter_data@12@W4parameter_type@12@_WW4length_modifier@2@@Z 0000000180057494 f i libucrt:output.obj
 0001:000564d4       ?validate_and_store_parameter_data@?$positional_parameter_base@_WV?$string_output_adapter@_W@__crt_stdio_output@@@__crt_stdio_output@@AEAA_NAEAUparameter_data@12@W4parameter_type@12@_WW4length_modifier@2@@Z 00000001800574d4 f i libucrt:output.obj
 0001:00056514       ?validate_and_update_state_at_beginning_of_format_character@?$positional_parameter_base@DV?$stream_output_adapter@D@__crt_stdio_output@@@__crt_stdio_output@@IEAA_NXZ 0000000180057514 f i libucrt:output.obj
 0001:00056620       ?validate_and_update_state_at_beginning_of_format_character@?$positional_parameter_base@DV?$string_output_adapter@D@__crt_stdio_output@@@__crt_stdio_output@@IEAA_NXZ 0000000180057620 f i libucrt:output.obj
 0001:0005672c       ?validate_and_update_state_at_beginning_of_format_character@?$positional_parameter_base@_WV?$stream_output_adapter@_W@__crt_stdio_output@@@__crt_stdio_output@@IEAA_NXZ 000000018005772c f i libucrt:output.obj
 0001:00056840       ?validate_and_update_state_at_beginning_of_format_character@?$positional_parameter_base@_WV?$string_output_adapter@_W@__crt_stdio_output@@@__crt_stdio_output@@IEAA_NXZ 0000000180057840 f i libucrt:output.obj
 0001:00056954       ?validate_and_update_state_at_beginning_of_format_character@?$standard_base@DV?$stream_output_adapter@D@__crt_stdio_output@@@__crt_stdio_output@@IEAA_NXZ 0000000180057954 f i libucrt:output.obj
 0001:00056958       ?validate_and_update_state_at_beginning_of_format_character@?$standard_base@DV?$string_output_adapter@D@__crt_stdio_output@@@__crt_stdio_output@@IEAA_NXZ 0000000180057958 f i libucrt:output.obj
 0001:0005695c       ?validate_and_update_state_at_beginning_of_format_character@?$standard_base@_WV?$stream_output_adapter@_W@__crt_stdio_output@@@__crt_stdio_output@@IEAA_NXZ 000000018005795c f i libucrt:output.obj
 0001:00056960       ?validate_and_update_state_at_beginning_of_format_character@?$standard_base@_WV?$string_output_adapter@_W@__crt_stdio_output@@@__crt_stdio_output@@IEAA_NXZ 0000000180057960 f i libucrt:output.obj
 0001:00056964       ?validate_and_update_state_at_end_of_format_string@?$format_validation_base@DV?$stream_output_adapter@D@__crt_stdio_output@@@__crt_stdio_output@@IEBA_NXZ 0000000180057964 f i libucrt:output.obj
 0001:00056990       ?validate_and_update_state_at_end_of_format_string@?$format_validation_base@DV?$string_output_adapter@D@__crt_stdio_output@@@__crt_stdio_output@@IEBA_NXZ 0000000180057990 f i libucrt:output.obj
 0001:000569bc       ?validate_and_update_state_at_end_of_format_string@?$format_validation_base@_WV?$stream_output_adapter@_W@__crt_stdio_output@@@__crt_stdio_output@@IEBA_NXZ 00000001800579bc f i libucrt:output.obj
 0001:000569e8       ?validate_and_update_state_at_end_of_format_string@?$format_validation_base@_WV?$string_output_adapter@_W@__crt_stdio_output@@@__crt_stdio_output@@IEBA_NXZ 00000001800579e8 f i libucrt:output.obj
 0001:00056a14       ?validate_and_update_state_at_end_of_format_string@?$positional_parameter_base@DV?$stream_output_adapter@D@__crt_stdio_output@@@__crt_stdio_output@@IEAA_NXZ 0000000180057a14 f i libucrt:output.obj
 0001:00056ab0       ?validate_and_update_state_at_end_of_format_string@?$positional_parameter_base@DV?$string_output_adapter@D@__crt_stdio_output@@@__crt_stdio_output@@IEAA_NXZ 0000000180057ab0 f i libucrt:output.obj
 0001:00056b4c       ?validate_and_update_state_at_end_of_format_string@?$positional_parameter_base@_WV?$stream_output_adapter@_W@__crt_stdio_output@@@__crt_stdio_output@@IEAA_NXZ 0000000180057b4c f i libucrt:output.obj
 0001:00056be8       ?validate_and_update_state_at_end_of_format_string@?$positional_parameter_base@_WV?$string_output_adapter@_W@__crt_stdio_output@@@__crt_stdio_output@@IEAA_NXZ 0000000180057be8 f i libucrt:output.obj
 0001:00056c84       ?validate_and_update_state_at_end_of_format_string@?$standard_base@DV?$stream_output_adapter@D@__crt_stdio_output@@@__crt_stdio_output@@IEBA_NXZ 0000000180057c84 f i libucrt:output.obj
 0001:00056c88       ?validate_and_update_state_at_end_of_format_string@?$standard_base@DV?$string_output_adapter@D@__crt_stdio_output@@@__crt_stdio_output@@IEBA_NXZ 0000000180057c88 f i libucrt:output.obj
 0001:00056c8c       ?validate_and_update_state_at_end_of_format_string@?$standard_base@_WV?$stream_output_adapter@_W@__crt_stdio_output@@@__crt_stdio_output@@IEBA_NXZ 0000000180057c8c f i libucrt:output.obj
 0001:00056c90       ?validate_and_update_state_at_end_of_format_string@?$standard_base@_WV?$string_output_adapter@_W@__crt_stdio_output@@@__crt_stdio_output@@IEBA_NXZ 0000000180057c90 f i libucrt:output.obj
 0001:00056c94       ?validate_state_for_type_case_a@?$positional_parameter_base@DV?$stream_output_adapter@D@__crt_stdio_output@@@__crt_stdio_output@@IEAA_NXZ 0000000180057c94 f i libucrt:output.obj
 0001:00056d30       ?validate_state_for_type_case_a@?$positional_parameter_base@DV?$string_output_adapter@D@__crt_stdio_output@@@__crt_stdio_output@@IEAA_NXZ 0000000180057d30 f i libucrt:output.obj
 0001:00056dcc       ?validate_state_for_type_case_a@?$positional_parameter_base@_WV?$stream_output_adapter@_W@__crt_stdio_output@@@__crt_stdio_output@@IEAA_NXZ 0000000180057dcc f i libucrt:output.obj
 0001:00056e6c       ?validate_state_for_type_case_a@?$positional_parameter_base@_WV?$string_output_adapter@_W@__crt_stdio_output@@@__crt_stdio_output@@IEAA_NXZ 0000000180057e6c f i libucrt:output.obj
 0001:00056f0c       ?validate_state_for_type_case_a@?$standard_base@DV?$stream_output_adapter@D@__crt_stdio_output@@@__crt_stdio_output@@IEBA_NXZ 0000000180057f0c f i libucrt:output.obj
 0001:00056f10       ?validate_state_for_type_case_a@?$standard_base@DV?$string_output_adapter@D@__crt_stdio_output@@@__crt_stdio_output@@IEBA_NXZ 0000000180057f10 f i libucrt:output.obj
 0001:00056f14       ?validate_state_for_type_case_a@?$standard_base@_WV?$stream_output_adapter@_W@__crt_stdio_output@@@__crt_stdio_output@@IEBA_NXZ 0000000180057f14 f i libucrt:output.obj
 0001:00056f18       ?validate_state_for_type_case_a@?$standard_base@_WV?$string_output_adapter@_W@__crt_stdio_output@@@__crt_stdio_output@@IEBA_NXZ 0000000180057f18 f i libucrt:output.obj
 0001:00056f1c       ?validate_stream_is_ansi_if_required@?$__acrt_stdio_char_traits@D@@SA_NQEAU_iobuf@@@Z 0000000180057f1c f i libucrt:output.obj
 0001:00056fb8       ?validate_stream_is_ansi_if_required@?$__acrt_stdio_char_traits@_W@@SA_NQEAU_iobuf@@@Z 0000000180057fb8 f i libucrt:output.obj
 0001:00056fbc       ?wide_null_string@?$output_processor@DV?$stream_output_adapter@D@__crt_stdio_output@@V?$format_validation_base@DV?$stream_output_adapter@D@__crt_stdio_output@@@2@@__crt_stdio_output@@CAPEA_WXZ 0000000180057fbc f i libucrt:output.obj
 0001:00056fc4       ?wide_null_string@?$output_processor@DV?$stream_output_adapter@D@__crt_stdio_output@@V?$positional_parameter_base@DV?$stream_output_adapter@D@__crt_stdio_output@@@2@@__crt_stdio_output@@CAPEA_WXZ 0000000180057fc4 f i libucrt:output.obj
 0001:00056fcc       ?wide_null_string@?$output_processor@DV?$stream_output_adapter@D@__crt_stdio_output@@V?$standard_base@DV?$stream_output_adapter@D@__crt_stdio_output@@@2@@__crt_stdio_output@@CAPEA_WXZ 0000000180057fcc f i libucrt:output.obj
 0001:00056fd4       ?wide_null_string@?$output_processor@DV?$string_output_adapter@D@__crt_stdio_output@@V?$format_validation_base@DV?$string_output_adapter@D@__crt_stdio_output@@@2@@__crt_stdio_output@@CAPEA_WXZ 0000000180057fd4 f i libucrt:output.obj
 0001:00056fdc       ?wide_null_string@?$output_processor@DV?$string_output_adapter@D@__crt_stdio_output@@V?$positional_parameter_base@DV?$string_output_adapter@D@__crt_stdio_output@@@2@@__crt_stdio_output@@CAPEA_WXZ 0000000180057fdc f i libucrt:output.obj
 0001:00056fe4       ?wide_null_string@?$output_processor@DV?$string_output_adapter@D@__crt_stdio_output@@V?$standard_base@DV?$string_output_adapter@D@__crt_stdio_output@@@2@@__crt_stdio_output@@CAPEA_WXZ 0000000180057fe4 f i libucrt:output.obj
 0001:00056fec       ?wide_null_string@?$output_processor@_WV?$stream_output_adapter@_W@__crt_stdio_output@@V?$format_validation_base@_WV?$stream_output_adapter@_W@__crt_stdio_output@@@2@@__crt_stdio_output@@CAPEA_WXZ 0000000180057fec f i libucrt:output.obj
 0001:00056ff4       ?wide_null_string@?$output_processor@_WV?$stream_output_adapter@_W@__crt_stdio_output@@V?$positional_parameter_base@_WV?$stream_output_adapter@_W@__crt_stdio_output@@@2@@__crt_stdio_output@@CAPEA_WXZ 0000000180057ff4 f i libucrt:output.obj
 0001:00056ffc       ?wide_null_string@?$output_processor@_WV?$stream_output_adapter@_W@__crt_stdio_output@@V?$standard_base@_WV?$stream_output_adapter@_W@__crt_stdio_output@@@2@@__crt_stdio_output@@CAPEA_WXZ 0000000180057ffc f i libucrt:output.obj
 0001:00057004       ?wide_null_string@?$output_processor@_WV?$string_output_adapter@_W@__crt_stdio_output@@V?$format_validation_base@_WV?$string_output_adapter@_W@__crt_stdio_output@@@2@@__crt_stdio_output@@CAPEA_WXZ 0000000180058004 f i libucrt:output.obj
 0001:0005700c       ?wide_null_string@?$output_processor@_WV?$string_output_adapter@_W@__crt_stdio_output@@V?$positional_parameter_base@_WV?$string_output_adapter@_W@__crt_stdio_output@@@2@@__crt_stdio_output@@CAPEA_WXZ 000000018005800c f i libucrt:output.obj
 0001:00057014       ?wide_null_string@?$output_processor@_WV?$string_output_adapter@_W@__crt_stdio_output@@V?$standard_base@_WV?$string_output_adapter@_W@__crt_stdio_output@@@2@@__crt_stdio_output@@CAPEA_WXZ 0000000180058014 f i libucrt:output.obj
 0001:0005701c       ?write_character@?$output_adapter_common@DV?$stream_output_adapter@D@__crt_stdio_output@@@__crt_stdio_output@@QEBAXDQEAH@Z 000000018005801c f i libucrt:output.obj
 0001:00057064       ?write_character@?$output_adapter_common@_WV?$stream_output_adapter@_W@__crt_stdio_output@@@__crt_stdio_output@@QEBAX_WQEAH@Z 0000000180058064 f i libucrt:output.obj
 0001:000570b0       ?write_character@?$string_output_adapter@D@__crt_stdio_output@@QEBA_NDQEAH@Z 00000001800580b0 f i libucrt:output.obj
 0001:000570f8       ?write_character@?$string_output_adapter@_W@__crt_stdio_output@@QEBA_N_WQEAH@Z 00000001800580f8 f i libucrt:output.obj
 0001:00057140       ?write_character_without_count_update@?$stream_output_adapter@D@__crt_stdio_output@@QEBA_ND@Z 0000000180058140 f i libucrt:output.obj
 0001:00057180       ?write_character_without_count_update@?$stream_output_adapter@_W@__crt_stdio_output@@QEBA_N_W@Z 0000000180058180 f i libucrt:output.obj
 0001:000571c0       ?write_stored_string_tchar@?$output_processor@DV?$stream_output_adapter@D@__crt_stdio_output@@V?$format_validation_base@DV?$stream_output_adapter@D@__crt_stdio_output@@@2@@__crt_stdio_output@@AEAA_ND@Z 00000001800581c0 f i libucrt:output.obj
 0001:000572e4       ?write_stored_string_tchar@?$output_processor@DV?$stream_output_adapter@D@__crt_stdio_output@@V?$positional_parameter_base@DV?$stream_output_adapter@D@__crt_stdio_output@@@2@@__crt_stdio_output@@AEAA_ND@Z 00000001800582e4 f i libucrt:output.obj
 0001:00057408       ?write_stored_string_tchar@?$output_processor@DV?$stream_output_adapter@D@__crt_stdio_output@@V?$standard_base@DV?$stream_output_adapter@D@__crt_stdio_output@@@2@@__crt_stdio_output@@AEAA_ND@Z 0000000180058408 f i libucrt:output.obj
 0001:0005752c       ?write_stored_string_tchar@?$output_processor@DV?$string_output_adapter@D@__crt_stdio_output@@V?$format_validation_base@DV?$string_output_adapter@D@__crt_stdio_output@@@2@@__crt_stdio_output@@AEAA_ND@Z 000000018005852c f i libucrt:output.obj
 0001:00057608       ?write_stored_string_tchar@?$output_processor@DV?$string_output_adapter@D@__crt_stdio_output@@V?$positional_parameter_base@DV?$string_output_adapter@D@__crt_stdio_output@@@2@@__crt_stdio_output@@AEAA_ND@Z 0000000180058608 f i libucrt:output.obj
 0001:000576e4       ?write_stored_string_tchar@?$output_processor@DV?$string_output_adapter@D@__crt_stdio_output@@V?$standard_base@DV?$string_output_adapter@D@__crt_stdio_output@@@2@@__crt_stdio_output@@AEAA_ND@Z 00000001800586e4 f i libucrt:output.obj
 0001:000577c0       ?write_stored_string_tchar@?$output_processor@_WV?$stream_output_adapter@_W@__crt_stdio_output@@V?$format_validation_base@_WV?$stream_output_adapter@_W@__crt_stdio_output@@@2@@__crt_stdio_output@@AEAA_N_W@Z 00000001800587c0 f i libucrt:output.obj
 0001:000578c4       ?write_stored_string_tchar@?$output_processor@_WV?$stream_output_adapter@_W@__crt_stdio_output@@V?$positional_parameter_base@_WV?$stream_output_adapter@_W@__crt_stdio_output@@@2@@__crt_stdio_output@@AEAA_N_W@Z 00000001800588c4 f i libucrt:output.obj
 0001:000579c8       ?write_stored_string_tchar@?$output_processor@_WV?$stream_output_adapter@_W@__crt_stdio_output@@V?$standard_base@_WV?$stream_output_adapter@_W@__crt_stdio_output@@@2@@__crt_stdio_output@@AEAA_N_W@Z 00000001800589c8 f i libucrt:output.obj
 0001:00057acc       ?write_stored_string_tchar@?$output_processor@_WV?$string_output_adapter@_W@__crt_stdio_output@@V?$format_validation_base@_WV?$string_output_adapter@_W@__crt_stdio_output@@@2@@__crt_stdio_output@@AEAA_N_W@Z 0000000180058acc f i libucrt:output.obj
 0001:00057bb4       ?write_stored_string_tchar@?$output_processor@_WV?$string_output_adapter@_W@__crt_stdio_output@@V?$positional_parameter_base@_WV?$string_output_adapter@_W@__crt_stdio_output@@@2@@__crt_stdio_output@@AEAA_N_W@Z 0000000180058bb4 f i libucrt:output.obj
 0001:00057c9c       ?write_stored_string_tchar@?$output_processor@_WV?$string_output_adapter@_W@__crt_stdio_output@@V?$standard_base@_WV?$string_output_adapter@_W@__crt_stdio_output@@@2@@__crt_stdio_output@@AEAA_N_W@Z 0000000180058c9c f i libucrt:output.obj
 0001:00057d84       ?write_string@?$stream_output_adapter@D@__crt_stdio_output@@QEBAXQEBDHQEAHAEAV__crt_deferred_errno_cache@@@Z 0000000180058d84 f i libucrt:output.obj
 0001:00057da8       ?write_string@?$stream_output_adapter@_W@__crt_stdio_output@@QEBAXQEB_WHQEAHAEAV__crt_deferred_errno_cache@@@Z 0000000180058da8 f i libucrt:output.obj
 0001:00057dcc       ?write_string@?$string_output_adapter@D@__crt_stdio_output@@QEBAXQEBDHQEAHAEAV__crt_deferred_errno_cache@@@Z 0000000180058dcc f i libucrt:output.obj
 0001:00057e70       ?write_string@?$string_output_adapter@_W@__crt_stdio_output@@QEBAXQEB_WHQEAHAEAV__crt_deferred_errno_cache@@@Z 0000000180058e70 f i libucrt:output.obj
 0001:00057f18       ?write_string_impl@?$output_adapter_common@DV?$stream_output_adapter@D@__crt_stdio_output@@@__crt_stdio_output@@IEBAXQEBDHQEAHAEAV__crt_deferred_errno_cache@@@Z 0000000180058f18 f i libucrt:output.obj
 0001:00058010       ?write_string_impl@?$output_adapter_common@_WV?$stream_output_adapter@_W@__crt_stdio_output@@@__crt_stdio_output@@IEBAXQEB_WHQEAHAEAV__crt_deferred_errno_cache@@@Z 0000000180059010 f i libucrt:output.obj
 0001:00058110       __acrt_disable_global_locale_sync 0000000180059110 f i libucrt:output.obj
 0001:00058118       __acrt_enable_global_locale_sync 0000000180059118 f i libucrt:output.obj
 0001:00058124       __acrt_isleadbyte_l_noupdate 0000000180059124 f i libucrt:output.obj
 0001:00058148       __acrt_locale_changed      0000000180059148 f i libucrt:output.obj
 0001:00058154       __acrt_locale_get_ctype_array_value 0000000180059154 f i libucrt:output.obj
 0001:0005816c       __stdio_common_vfprintf    000000018005916c f   libucrt:output.obj
 0001:000581f8       __stdio_common_vfprintf_p  00000001800591f8 f   libucrt:output.obj
 0001:00058284       __stdio_common_vfprintf_s  0000000180059284 f   libucrt:output.obj
 0001:00058310       __stdio_common_vfwprintf   0000000180059310 f   libucrt:output.obj
 0001:0005839c       __stdio_common_vfwprintf_p 000000018005939c f   libucrt:output.obj
 0001:00058428       __stdio_common_vfwprintf_s 0000000180059428 f   libucrt:output.obj
 0001:000584b4       __stdio_common_vsnprintf_s 00000001800594b4 f   libucrt:output.obj
 0001:00058600       __stdio_common_vsnwprintf_s 0000000180059600 f   libucrt:output.obj
 0001:0005875c       __stdio_common_vsprintf    000000018005975c f   libucrt:output.obj
 0001:00058764       __stdio_common_vsprintf_p  0000000180059764 f   libucrt:output.obj
 0001:0005876c       __stdio_common_vsprintf_s  000000018005976c f   libucrt:output.obj
 0001:000587d0       __stdio_common_vswprintf   00000001800597d0 f   libucrt:output.obj
 0001:000587d8       __stdio_common_vswprintf_p 00000001800597d8 f   libucrt:output.obj
 0001:000587e0       __stdio_common_vswprintf_s 00000001800597e0 f   libucrt:output.obj
 0001:00058850       _ctype_fast_check_internal 0000000180059850 f i libucrt:output.obj
 0001:00058864       _isdigit_fast_internal     0000000180059864 f i libucrt:output.obj
 0001:00058878       _tolower_fast_internal     0000000180059878 f i libucrt:output.obj
 0001:0005888c       ??$is_overflow_condition@K@__crt_strtox@@YA_NIK@Z 000000018005988c f i libucrt:atox.obj
 0001:000588b0       ??$is_overflow_condition@_K@__crt_strtox@@YA_NI_K@Z 00000001800598b0 f i libucrt:atox.obj
 0001:000588e0       ??$make_c_string_character_source@D$$T@__crt_strtox@@YA?AV?$c_string_character_source@D@0@QEBD$$T@Z 00000001800598e0 f i libucrt:atox.obj
 0001:000588f4       ??$make_c_string_character_source@_W$$T@__crt_strtox@@YA?AV?$c_string_character_source@_W@0@QEB_W$$T@Z 00000001800598f4 f i libucrt:atox.obj
 0001:00058908       ??$parse_integer@KV?$c_string_character_source@D@__crt_strtox@@@__crt_strtox@@YAKQEAU__crt_locale_pointers@@V?$c_string_character_source@D@0@H_N@Z 0000000180059908 f i libucrt:atox.obj
 0001:00058c0c       ??$parse_integer@KV?$c_string_character_source@_W@__crt_strtox@@@__crt_strtox@@YAKQEAU__crt_locale_pointers@@V?$c_string_character_source@_W@0@H_N@Z 0000000180059c0c f i libucrt:atox.obj
 0001:000592b4       ??$parse_integer@_KV?$c_string_character_source@D@__crt_strtox@@@__crt_strtox@@YA_KQEAU__crt_locale_pointers@@V?$c_string_character_source@D@0@H_N@Z 000000018005a2b4 f i libucrt:atox.obj
 0001:000595a4       ??$parse_integer@_KV?$c_string_character_source@_W@__crt_strtox@@@__crt_strtox@@YA_KQEAU__crt_locale_pointers@@V?$c_string_character_source@_W@0@H_N@Z 000000018005a5a4 f i libucrt:atox.obj
 0001:00059cfc       ??$parse_integer_from_string@JD$$T@__crt_strtox@@YAJQEBD$$THQEAU__crt_locale_pointers@@@Z 000000018005acfc f i libucrt:atox.obj
 0001:00059d2c       ??$parse_integer_from_string@J_W$$T@__crt_strtox@@YAJQEB_W$$THQEAU__crt_locale_pointers@@@Z 000000018005ad2c f i libucrt:atox.obj
 0001:00059d5c       ??$parse_integer_from_string@_JD$$T@__crt_strtox@@YA_JQEBD$$THQEAU__crt_locale_pointers@@@Z 000000018005ad5c f i libucrt:atox.obj
 0001:00059d8c       ??$parse_integer_from_string@_J_W$$T@__crt_strtox@@YA_JQEB_W$$THQEAU__crt_locale_pointers@@@Z 000000018005ad8c f i libucrt:atox.obj
 0001:00059dbc       ??0?$c_string_character_source@D@__crt_strtox@@QEAA@QEBDQEAPEBD@Z 000000018005adbc f i libucrt:atox.obj
 0001:00059dd0       ??0?$c_string_character_source@_W@__crt_strtox@@QEAA@QEB_WQEAPEB_W@Z 000000018005add0 f i libucrt:atox.obj
 0001:00059de4       ??1?$c_string_character_source@D@__crt_strtox@@QEAA@XZ 000000018005ade4 f i libucrt:atox.obj
 0001:00059df4       ??1?$c_string_character_source@_W@__crt_strtox@@QEAA@XZ 000000018005adf4 f i libucrt:atox.obj
 0001:00059e04       ?get@?$c_string_character_source@D@__crt_strtox@@QEAADXZ 000000018005ae04 f i libucrt:atox.obj
 0001:00059e10       ?get@?$c_string_character_source@_W@__crt_strtox@@QEAA_WXZ 000000018005ae10 f i libucrt:atox.obj
 0001:00059e20       ?is_space@__crt_strtox@@YA_NDQEAU__crt_locale_pointers@@@Z 000000018005ae20 f i libucrt:atox.obj
 0001:00059e40       ?is_space@__crt_strtox@@YA_N_WPEAU__crt_locale_pointers@@@Z 000000018005ae40 f i libucrt:atox.obj
 0001:00059e58       ?maximum_signed_value@__crt_strtox@@YAJK@Z 000000018005ae58 f i libucrt:atox.obj
 0001:00059e60       ?maximum_signed_value@__crt_strtox@@YA_J_K@Z 000000018005ae60 f i libucrt:atox.obj
 0001:00059e6c       ?minimum_signed_value@__crt_strtox@@YAJK@Z 000000018005ae6c f i libucrt:atox.obj
 0001:00059e74       ?minimum_signed_value@__crt_strtox@@YA_J_K@Z 000000018005ae74 f i libucrt:atox.obj
 0001:00059e80       ?parse_digit@__crt_strtox@@YAID@Z 000000018005ae80 f i libucrt:atox.obj
 0001:00059eb0       ?parse_digit@__crt_strtox@@YAI_W@Z 000000018005aeb0 f i libucrt:atox.obj
 0001:0005a080       ?restore_state@?$c_string_character_source@D@__crt_strtox@@QEAA_NQEBD@Z 000000018005b080 f i libucrt:atox.obj
 0001:0005a088       ?restore_state@?$c_string_character_source@_W@__crt_strtox@@QEAA_NQEB_W@Z 000000018005b088 f i libucrt:atox.obj
 0001:0005a090       ?save_state@?$c_string_character_source@D@__crt_strtox@@QEBAPEBDXZ 000000018005b090 f i libucrt:atox.obj
 0001:0005a094       ?save_state@?$c_string_character_source@_W@__crt_strtox@@QEBAPEB_WXZ 000000018005b094 f i libucrt:atox.obj
 0001:0005a098       ?unget@?$c_string_character_source@D@__crt_strtox@@QEAAXD@Z 000000018005b098 f i libucrt:atox.obj
 0001:0005a0c4       ?unget@?$c_string_character_source@_W@__crt_strtox@@QEAAX_W@Z 000000018005b0c4 f i libucrt:atox.obj
 0001:0005a0f4       ?validate@?$c_string_character_source@D@__crt_strtox@@QEBA_NXZ 000000018005b0f4 f i libucrt:atox.obj
 0001:0005a11c       ?validate@?$c_string_character_source@_W@__crt_strtox@@QEBA_NXZ 000000018005b11c f i libucrt:atox.obj
 0001:0005a144       ?wide_character_to_digit@__crt_strtox@@YAH_W@Z 000000018005b144 f i libucrt:atox.obj
 0001:0005a2e4       __acrt_get_locale_data_prefix 000000018005b2e4 f i libucrt:atox.obj
 0001:0005a2e8       __ascii_iswalpha           000000018005b2e8 f i libucrt:atox.obj
 0001:0005a304       __ascii_toupper            000000018005b304 f i libucrt:atox.obj
 0001:0005a314       __ascii_towupper           000000018005b314 f i libucrt:atox.obj
 0001:0005a324       _atoi64                    000000018005b324 f   libucrt:atox.obj
 0001:0005a350       _atoi64_l                  000000018005b350 f   libucrt:atox.obj
 0001:0005a380       _atoi_l                    000000018005b380 f   libucrt:atox.obj
 0001:0005a3b0       _atol_l                    000000018005b3b0 f   libucrt:atox.obj
 0001:0005a3e0       _atoll_l                   000000018005b3e0 f   libucrt:atox.obj
 0001:0005a410       _chvalidchk_l              000000018005b410 f i libucrt:atox.obj
 0001:0005a474       _ischartype_l              000000018005b474 f i libucrt:atox.obj
 0001:0005a4ec       _wtoi                      000000018005b4ec f   libucrt:atox.obj
 0001:0005a518       _wtoi64                    000000018005b518 f   libucrt:atox.obj
 0001:0005a544       _wtoi64_l                  000000018005b544 f   libucrt:atox.obj
 0001:0005a574       _wtoi_l                    000000018005b574 f   libucrt:atox.obj
 0001:0005a5a4       _wtol                      000000018005b5a4 f   libucrt:atox.obj
 0001:0005a5d0       _wtol_l                    000000018005b5d0 f   libucrt:atox.obj
 0001:0005a600       _wtoll                     000000018005b600 f   libucrt:atox.obj
 0001:0005a62c       _wtoll_l                   000000018005b62c f   libucrt:atox.obj
 0001:0005a65c       atoi                       000000018005b65c f   libucrt:atox.obj
 0001:0005a688       atol                       000000018005b688 f   libucrt:atox.obj
 0001:0005a6b4       atoll                      000000018005b6b4 f   libucrt:atox.obj
 0001:0005a6f0       strncmp                    000000018005b6f0 f   libucrt:strncmp.obj
 0001:0005a770       calloc                     000000018005b770 f   libucrt:calloc.obj
 0001:0005a778       wcsncmp                    000000018005b778 f   libucrt:wcsncmp.obj
 0001:0005a7a4       _clrfp                     000000018005b7a4 f   libucrt:fpctrl.obj
 0001:0005a7c4       _ctrlfp                    000000018005b7c4 f   libucrt:fpctrl.obj
 0001:0005a840       _set_statfp                000000018005b840 f   libucrt:fpctrl.obj
 0001:0005a860       _statfp                    000000018005b860 f   libucrt:fpctrl.obj
 0001:0005a998       _handle_error              000000018005b998 f   libucrt:libm_error.obj
 0001:0005aac0       _handle_errorf             000000018005bac0 f   libucrt:libm_error.obj
 0001:0005abf4       _handle_nan                000000018005bbf4 f   libucrt:libm_error.obj
 0001:0005ac10       _handle_nanf               000000018005bc10 f   libucrt:libm_error.obj
 0001:0005ac20       __remainder_piby2d2f_forAsm 000000018005bc20 f   libucrt:remainder_piby2f_forasm.obj
 0001:0005ad70       __remainder_piby2_fma3     000000018005bd70 f   libucrt:remainder_piby2_forfma3.obj
 0001:0005af60       __remainder_piby2_fma3_bdl 000000018005bf60 f   libucrt:remainder_piby2_forfma3.obj
 0001:0005afd8       _cos_special               000000018005bfd8 f   libucrt:sincos_special.obj
 0001:0005afec       _cosf_special              000000018005bfec f   libucrt:sincos_special.obj
 0001:0005b000       _sin_special               000000018005c000 f   libucrt:sincos_special.obj
 0001:0005b144       _sinf_special              000000018005c144 f   libucrt:sincos_special.obj
 0001:0005b158       _tan_special               000000018005c158 f   libucrt:sincos_special.obj
 0001:0005b16c       _tanf_special              000000018005c16c f   libucrt:sincos_special.obj
 0001:0005b180       __acrt_initialize_fma3     000000018005c180 f   libucrt:fma3_available.obj
 0001:0005b1f0       _get_FMA3_enable           000000018005c1f0 f   libucrt:fma3_available.obj
 0001:0005b1f8       _set_FMA3_enable           000000018005c1f8 f   libucrt:fma3_available.obj
 0001:0005b210       __remainder_piby2d2f_forC  000000018005c210 f   libucrt:remainder_piby2f_forc.obj
 0001:0005b39c       nextafter                  000000018005c39c f   libucrt:nextafter.obj
 0001:0005b3a4       nextafterf                 000000018005c3a4 f   libucrt:nextafterf.obj
 0001:0005b3b8       _free_base                 000000018005c3b8 f   libucrt:free_base.obj
 0001:0005b3f8       ??$?RU__acrt_ptd@@@__crt_internal_free_policy@@QEBAXQEBU__acrt_ptd@@@Z 000000018005c3f8 f i libucrt:per_thread_data.obj
 0001:0005b62c       ??0?$__crt_unique_heap_ptr@U__acrt_ptd@@U__crt_internal_free_policy@@@@QEAA@QEAU__acrt_ptd@@@Z 000000018005c62c f i libucrt:per_thread_data.obj
 0001:0005b634       ??0__crt_scoped_get_last_error_reset@@QEAA@XZ 000000018005c634 f i libucrt:per_thread_data.obj
 0001:0005b650       ??1?$__crt_unique_heap_ptr@U__acrt_ptd@@U__crt_internal_free_policy@@@@QEAA@XZ 000000018005c650 f i libucrt:per_thread_data.obj
 0001:0005b66c       ??1__crt_scoped_get_last_error_reset@@QEAA@XZ 000000018005c66c f i libucrt:per_thread_data.obj
 0001:0005b678       ??B?$__crt_unique_heap_ptr@U__acrt_ptd@@U__crt_internal_free_policy@@@@QEBA_NXZ 000000018005c678 f i libucrt:per_thread_data.obj
 0001:0005b8cc       ?dangerous_get_state_array@?$dual_state_global@PEAU__crt_locale_data@@@__crt_state_management@@QEAAPEAPEAU__crt_locale_data@@XZ 000000018005c8cc f i libucrt:per_thread_data.obj
 0001:0005bae0       ?detach@?$__crt_unique_heap_ptr@U__acrt_ptd@@U__crt_internal_free_policy@@@@QEAAPEAU__acrt_ptd@@XZ 000000018005cae0 f i libucrt:per_thread_data.obj
 0001:0005bae8       ?get@?$__crt_unique_heap_ptr@U__acrt_ptd@@U__crt_internal_free_policy@@@@QEBAPEAU__acrt_ptd@@XZ 000000018005cae8 f i libucrt:per_thread_data.obj
 0001:0005baec       ?get_current_state_index@__crt_state_management@@YA_KAEBV__crt_scoped_get_last_error_reset@@@Z 000000018005caec f i libucrt:per_thread_data.obj
 0001:0005bc58       ?is_valid@?$__crt_unique_heap_ptr@U__acrt_ptd@@U__crt_internal_free_policy@@@@QEBA_NXZ 000000018005cc58 f i libucrt:per_thread_data.obj
 0001:0005bc60       ?release@?$__crt_unique_heap_ptr@U__acrt_ptd@@U__crt_internal_free_policy@@@@QEAAXXZ 000000018005cc60 f i libucrt:per_thread_data.obj
 0001:0005bd04       ?value@?$dual_state_global@PEAU__crt_locale_data@@@__crt_state_management@@QEAAAEAPEAU__crt_locale_data@@XZ 000000018005cd04 f i libucrt:per_thread_data.obj
 0001:0005bd08       __acrt_freeptd             000000018005cd08 f   libucrt:per_thread_data.obj
 0001:0005bd4c       __acrt_getptd              000000018005cd4c f   libucrt:per_thread_data.obj
 0001:0005be20       __acrt_getptd_head         000000018005ce20 f   libucrt:per_thread_data.obj
 0001:0005bec8       __acrt_getptd_noexit       000000018005cec8 f   libucrt:per_thread_data.obj
 0001:0005bf94       __acrt_initialize_ptd      000000018005cf94 f   libucrt:per_thread_data.obj
 0001:0005bfd0       __acrt_uninitialize_ptd    000000018005cfd0 f   libucrt:per_thread_data.obj
 0001:0005bff4       __threadhandle             000000018005cff4 f   libucrt:per_thread_data.obj
 0001:0005bffc       __threadid                 000000018005cffc f   libucrt:per_thread_data.obj
 0001:0005c004       __acrt_initialize_locks    000000018005d004 f   libucrt:locks.obj
 0001:0005c04c       __acrt_lock                000000018005d04c f   libucrt:locks.obj
 0001:0005c068       __acrt_uninitialize_locks  000000018005d068 f   libucrt:locks.obj
 0001:0005c0a0       __acrt_unlock              000000018005d0a0 f   libucrt:locks.obj
 0001:0005c0bc       _lock_locales              000000018005d0bc f   libucrt:locks.obj
 0001:0005c0d8       _unlock_locales            000000018005d0d8 f   libucrt:locks.obj
 0001:0005c290       __acrt_get_begin_thread_init_policy 000000018005d290 f   libucrt:win_policies.obj
 0001:0005c2e4       __acrt_get_developer_information_policy 000000018005d2e4 f   libucrt:win_policies.obj
 0001:0005c338       __acrt_get_process_end_policy 000000018005d338 f   libucrt:win_policies.obj
 0001:0005c374       __acrt_get_windowing_model_policy 000000018005d374 f   libucrt:win_policies.obj
 0001:0005c3e0       ??$__crt_fast_decode_pointer@P6AXPEB_W00I_K@Z@@YAP6AXPEB_W00I_K@ZQ6AX000I1@Z@Z 000000018005d3e0 f i libucrt:invalid_parameter.obj
 0001:0005c3f8       ??$__crt_fast_encode_pointer@P6AXPEB_W00I_K@Z@@YAP6AXPEB_W00I_K@ZQ6AX000I1@Z@Z 000000018005d3f8 f i libucrt:invalid_parameter.obj
 0001:0005c418       ??$initialize_from_array@$$BY00Q6AXPEB_W00I_K@Z@?$dual_state_global@P6AXPEB_W00I_K@Z@__crt_state_management@@QEAAXAEAY00Q6AXPEB_W00I_K@Z@Z 000000018005d418 f i libucrt:invalid_parameter.obj
 0001:0005c490       ?dangerous_get_state_array@?$dual_state_global@P6AXPEB_W00I_K@Z@__crt_state_management@@QEAAPEAP6AXPEB_W00I_K@ZXZ 000000018005d490 f i libucrt:invalid_parameter.obj
 0001:0005c494       ?value@?$dual_state_global@P6AXPEB_W00I_K@Z@__crt_state_management@@QEAAAEAP6AXPEB_W00I_K@ZXZ 000000018005d494 f i libucrt:invalid_parameter.obj
 0001:0005c498       __acrt_call_reportfault    000000018005d498 f   libucrt:invalid_parameter.obj
 0001:0005c5f4       __acrt_initialize_invalid_parameter_handler 000000018005d5f4 f   libucrt:invalid_parameter.obj
 0001:0005c5fc       _get_invalid_parameter_handler 000000018005d5fc f   libucrt:invalid_parameter.obj
 0001:0005c614       _get_thread_local_invalid_parameter_handler 000000018005d614 f   libucrt:invalid_parameter.obj
 0001:0005c630       _invalid_parameter         000000018005d630 f   libucrt:invalid_parameter.obj
 0001:0005c6e0       _invalid_parameter_noinfo  000000018005d6e0 f   libucrt:invalid_parameter.obj
 0001:0005c700       _invalid_parameter_noinfo_noreturn 000000018005d700 f   libucrt:invalid_parameter.obj
 0001:0005c730       _invoke_watson             000000018005d730 f   libucrt:invalid_parameter.obj
 0001:0005c778       _set_invalid_parameter_handler 000000018005d778 f   libucrt:invalid_parameter.obj
 0001:0005c7ac       _set_thread_local_invalid_parameter_handler 000000018005d7ac f   libucrt:invalid_parameter.obj
 0001:0005c7d4       __acrt_errno_from_os_error 000000018005d7d4 f   libucrt:errno.obj
 0001:0005c81c       __acrt_errno_map_os_error  000000018005d81c f   libucrt:errno.obj
 0001:0005c86c       __doserrno                 000000018005d86c f   libucrt:errno.obj
 0001:0005c88c       _errno                     000000018005d88c f   libucrt:errno.obj
 0001:0005c8ac       _get_doserrno              000000018005d8ac f   libucrt:errno.obj
 0001:0005c8e8       _get_errno                 000000018005d8e8 f   libucrt:errno.obj
 0001:0005c924       _set_doserrno              000000018005d924 f   libucrt:errno.obj
 0001:0005c960       _set_errno                 000000018005d960 f   libucrt:errno.obj
 0001:0005c99c       _calloc_base               000000018005d99c f   libucrt:calloc_base.obj
 0001:0005cd44       ??$__acrt_mbs_to_wcs_cp@U__crt_win32_buffer_internal_dynamic_resizing@@@@YAHQEBDAEAV?$__crt_win32_buffer@_WU__crt_win32_buffer_internal_dynamic_resizing@@@@I@Z 000000018005dd44 f i libucrt:argv_wildcards.obj
 0001:0005cebc       ??$__acrt_wcs_to_mbs_cp@U__crt_win32_buffer_internal_dynamic_resizing@@@@YAHQEB_WAEAV?$__crt_win32_buffer@DU__crt_win32_buffer_internal_dynamic_resizing@@@@I@Z 000000018005debc f i libucrt:argv_wildcards.obj
 0001:0005dde0       ??$tcslen@AEBQEBD@?$__crt_char_traits@D@@SA_KAEBQEBD@Z 000000018005ede0 f i libucrt:argv_wildcards.obj
 0001:0005ddf4       ??$tcslen@AEBQEB_W@?$__crt_char_traits@_W@@SA_KAEBQEB_W@Z 000000018005edf4 f i libucrt:argv_wildcards.obj
 0001:0005de08       ??$tcsncpy_s@AEAPEAD_KAEAPEADAEB_K@?$__crt_char_traits@D@@SAHAEAPEAD$$QEA_K0AEB_K@Z 000000018005ee08 f i libucrt:argv_wildcards.obj
 0001:0005de1c       ??$tcsncpy_s@AEAPEA_W_KAEAPEA_WAEB_K@?$__crt_char_traits@_W@@SAHAEAPEA_W$$QEA_K0AEB_K@Z 000000018005ee1c f i libucrt:argv_wildcards.obj
 0001:0005de30       ??$tcsncpy_s@PEADAEB_KAEBQEBDAEB_K@?$__crt_char_traits@D@@SAH$$QEAPEADAEB_KAEBQEBD1@Z 000000018005ee30 f i libucrt:argv_wildcards.obj
 0001:0005de44       ??$tcsncpy_s@PEAD_KAEBQEBDAEB_K@?$__crt_char_traits@D@@SAH$$QEAPEAD$$QEA_KAEBQEBDAEB_K@Z 000000018005ee44 f i libucrt:argv_wildcards.obj
 0001:0005de58       ??$tcsncpy_s@PEA_WAEB_KAEBQEB_WAEB_K@?$__crt_char_traits@_W@@SAH$$QEAPEA_WAEB_KAEBQEB_W1@Z 000000018005ee58 f i libucrt:argv_wildcards.obj
 0001:0005de6c       ??$tcsncpy_s@PEA_W_KAEBQEB_WAEB_K@?$__crt_char_traits@_W@@SAH$$QEAPEA_W$$QEA_KAEBQEB_WAEB_K@Z 000000018005ee6c f i libucrt:argv_wildcards.obj
 0001:0005de80       ??$tcspbrk@AEAPEADAEAY02$$CBD@?$__crt_char_traits@D@@SAPEADAEAPEADAEAY02$$CBD@Z 000000018005ee80 f i libucrt:argv_wildcards.obj
 0001:0005de88       ??$tcspbrk@AEAPEA_WAEAY02$$CB_W@?$__crt_char_traits@_W@@SAPEA_WAEAPEA_WAEAY02$$CB_W@Z 000000018005ee88 f i libucrt:argv_wildcards.obj
 0001:0005de90       ??0?$__crt_unique_handle_t@U__crt_findfile_traits@@@@QEAA@QEAX@Z 000000018005ee90 f i libucrt:argv_wildcards.obj
 0001:0005de98       ??0?$__crt_win32_buffer@DU__crt_win32_buffer_internal_dynamic_resizing@@@@QEAA@XZ 000000018005ee98 f i libucrt:argv_wildcards.obj
 0001:0005deb4       ??0?$__crt_win32_buffer@_WU__crt_win32_buffer_internal_dynamic_resizing@@@@QEAA@XZ 000000018005eeb4 f i libucrt:argv_wildcards.obj
 0001:0005def8       ??1?$__crt_unique_handle_t@U__crt_findfile_traits@@@@QEAA@XZ 000000018005eef8 f i libucrt:argv_wildcards.obj
 0001:0005df1c       ??1?$__crt_win32_buffer@DU__crt_win32_buffer_internal_dynamic_resizing@@@@QEAA@XZ 000000018005ef1c f i libucrt:argv_wildcards.obj
 0001:0005df40       ??1?$__crt_win32_buffer@_WU__crt_win32_buffer_internal_dynamic_resizing@@@@QEAA@XZ 000000018005ef40 f i libucrt:argv_wildcards.obj
 0001:0005e0b4       ?__acrt_get_utf8_acp_compatibility_codepage@@YAIXZ 000000018005f0b4 f i libucrt:argv_wildcards.obj
 0001:0005e100       ?_deallocate@?$__crt_win32_buffer@DU__crt_win32_buffer_internal_dynamic_resizing@@@@AEAAXXZ 000000018005f100 f i libucrt:argv_wildcards.obj
 0001:0005e124       ?_deallocate@?$__crt_win32_buffer@_WU__crt_win32_buffer_internal_dynamic_resizing@@@@AEAAXXZ 000000018005f124 f i libucrt:argv_wildcards.obj
 0001:0005e148       ?allocate@?$__crt_win32_buffer@DU__crt_win32_buffer_internal_dynamic_resizing@@@@QEAAH_K@Z 000000018005f148 f i libucrt:argv_wildcards.obj
 0001:0005e1a4       ?allocate@?$__crt_win32_buffer@_WU__crt_win32_buffer_internal_dynamic_resizing@@@@QEAAH_K@Z 000000018005f1a4 f i libucrt:argv_wildcards.obj
 0001:0005e200       ?allocate@__crt_win32_buffer_internal_dynamic_resizing@@SAHQEAPEAX_KAEBV__crt_win32_buffer_empty_debug_info@@@Z 000000018005f200 f i libucrt:argv_wildcards.obj
 0001:0005e3ec       ?capacity@?$__crt_win32_buffer@DU__crt_win32_buffer_internal_dynamic_resizing@@@@QEBA_KXZ 000000018005f3ec f i libucrt:argv_wildcards.obj
 0001:0005e3f4       ?capacity@?$__crt_win32_buffer@_WU__crt_win32_buffer_internal_dynamic_resizing@@@@QEBA_KXZ 000000018005f3f4 f i libucrt:argv_wildcards.obj
 0001:0005e3fc       ?close@?$__crt_unique_handle_t@U__crt_findfile_traits@@@@QEAAXXZ 000000018005f3fc f i libucrt:argv_wildcards.obj
 0001:0005e420       ?close@__crt_findfile_traits@@SA_NPEAX@Z 000000018005f420 f i libucrt:argv_wildcards.obj
 0001:0005e434       ?data@?$__crt_win32_buffer@DU__crt_win32_buffer_internal_dynamic_resizing@@@@QEAAPEADXZ 000000018005f434 f i libucrt:argv_wildcards.obj
 0001:0005e43c       ?data@?$__crt_win32_buffer@_WU__crt_win32_buffer_internal_dynamic_resizing@@@@QEAAPEA_WXZ 000000018005f43c f i libucrt:argv_wildcards.obj
 0001:0005e444       ?deallocate@__crt_win32_buffer_internal_dynamic_resizing@@SAXQEAXAEBV__crt_win32_buffer_empty_debug_info@@@Z 000000018005f444 f i libucrt:argv_wildcards.obj
 0001:0005e44c       ?debug_info@?$__crt_win32_buffer@DU__crt_win32_buffer_internal_dynamic_resizing@@@@QEBAAEBV__crt_win32_buffer_empty_debug_info@@XZ 000000018005f44c f i libucrt:argv_wildcards.obj
 0001:0005e450       ?debug_info@?$__crt_win32_buffer@_WU__crt_win32_buffer_internal_dynamic_resizing@@@@QEBAAEBV__crt_win32_buffer_empty_debug_info@@XZ 000000018005f450 f i libucrt:argv_wildcards.obj
 0001:0005e5f4       ?get@?$__crt_unique_handle_t@U__crt_findfile_traits@@@@QEBAPEAXXZ 000000018005f5f4 f i libucrt:argv_wildcards.obj
 0001:0005e69c       ?get_invalid_value@__crt_findfile_traits@@SAPEAXXZ 000000018005f69c f i libucrt:argv_wildcards.obj
 0001:0005e758       ?set_to_nullptr@?$__crt_win32_buffer@DU__crt_win32_buffer_internal_dynamic_resizing@@@@QEAAXXZ 000000018005f758 f i libucrt:argv_wildcards.obj
 0001:0005e78c       ?set_to_nullptr@?$__crt_win32_buffer@_WU__crt_win32_buffer_internal_dynamic_resizing@@@@QEAAXXZ 000000018005f78c f i libucrt:argv_wildcards.obj
 0001:0005e7c0       ?size@?$__crt_win32_buffer@DU__crt_win32_buffer_internal_dynamic_resizing@@@@QEAAX_K@Z 000000018005f7c0 f i libucrt:argv_wildcards.obj
 0001:0005e7c8       ?size@?$__crt_win32_buffer@_WU__crt_win32_buffer_internal_dynamic_resizing@@@@QEAAX_K@Z 000000018005f7c8 f i libucrt:argv_wildcards.obj
 0001:0005e7e8       ?strpbrk@@YAPEADQEADQEBD@Z 000000018005f7e8 f i libucrt:argv_wildcards.obj
 0001:0005e7f0       ?wcspbrk@@YAPEA_WPEA_WPEB_W@Z 000000018005f7f0 f i libucrt:argv_wildcards.obj
 0001:0005e7f8       __acrt_expand_narrow_argv_wildcards 000000018005f7f8 f   libucrt:argv_wildcards.obj
 0001:0005e800       __acrt_expand_wide_argv_wildcards 000000018005f800 f   libucrt:argv_wildcards.obj
 0001:0005e924       ??$__acrt_wcs_to_mbs_cp@U__crt_win32_buffer_no_resizing@@@@YAHQEB_WAEAV?$__crt_win32_buffer@DU__crt_win32_buffer_no_resizing@@@@I@Z 000000018005f924 f i libucrt:getmodulefilenamea.obj
 0001:0005ea38       ??0?$__crt_win32_buffer@DU__crt_win32_buffer_no_resizing@@@@QEAA@QEAD_K@Z 000000018005fa38 f i libucrt:getmodulefilenamea.obj
 0001:0005ea54       ??1?$__crt_win32_buffer@DU__crt_win32_buffer_no_resizing@@@@QEAA@XZ 000000018005fa54 f i libucrt:getmodulefilenamea.obj
 0001:0005ea90       ?_deallocate@?$__crt_win32_buffer@DU__crt_win32_buffer_no_resizing@@@@AEAAXXZ 000000018005fa90 f i libucrt:getmodulefilenamea.obj
 0001:0005ea9c       ?allocate@?$__crt_win32_buffer@DU__crt_win32_buffer_no_resizing@@@@QEAAH_K@Z 000000018005fa9c f i libucrt:getmodulefilenamea.obj
 0001:0005eacc       ?allocate@__crt_win32_buffer_no_resizing@@SAHQEAPEAX_KAEBV__crt_win32_buffer_empty_debug_info@@@Z 000000018005facc f i libucrt:getmodulefilenamea.obj
 0001:0005eae4       ?capacity@?$__crt_win32_buffer@DU__crt_win32_buffer_no_resizing@@@@QEBA_KXZ 000000018005fae4 f i libucrt:getmodulefilenamea.obj
 0001:0005eaec       ?data@?$__crt_win32_buffer@DU__crt_win32_buffer_no_resizing@@@@QEAAPEADXZ 000000018005faec f i libucrt:getmodulefilenamea.obj
 0001:0005eaf4       ?deallocate@__crt_win32_buffer_no_resizing@@SAXQEAXAEBV__crt_win32_buffer_empty_debug_info@@@Z 000000018005faf4 f i libucrt:getmodulefilenamea.obj
 0001:0005eaf8       ?debug_info@?$__crt_win32_buffer@DU__crt_win32_buffer_no_resizing@@@@QEBAAEBV__crt_win32_buffer_empty_debug_info@@XZ 000000018005faf8 f i libucrt:getmodulefilenamea.obj
 0001:0005eafc       ?set_to_nullptr@?$__crt_win32_buffer@DU__crt_win32_buffer_no_resizing@@@@QEAAXXZ 000000018005fafc f i libucrt:getmodulefilenamea.obj
 0001:0005eb14       ?size@?$__crt_win32_buffer@DU__crt_win32_buffer_no_resizing@@@@QEAAX_K@Z 000000018005fb14 f i libucrt:getmodulefilenamea.obj
 0001:0005eb1c       ?size@?$__crt_win32_buffer@DU__crt_win32_buffer_no_resizing@@@@QEBA_KXZ 000000018005fb1c f i libucrt:getmodulefilenamea.obj
 0001:0005eb24       __acrt_GetModuleFileNameA  000000018005fb24 f   libucrt:getmodulefilenamea.obj
 0001:0005ec44       ??$?RU__crt_multibyte_data@@@__crt_internal_free_policy@@QEBAXQEBU__crt_multibyte_data@@@Z 000000018005fc44 f i libucrt:mbctype.obj
 0001:0005ee30       ??$initialize_from_array@$$BY10BAA@E@?$dual_state_global@PEAE@__crt_state_management@@QEAAXAEAY10BAA@E@Z 000000018005fe30 f i libucrt:mbctype.obj
 0001:0005ee34       ??$initialize_from_array@$$BY10BAB@E@?$dual_state_global@PEAE@__crt_state_management@@QEAAXAEAY10BAB@E@Z 000000018005fe34 f i libucrt:mbctype.obj
 0001:0005ee54       ??0?$__crt_unique_heap_ptr@U__crt_multibyte_data@@U__crt_internal_free_policy@@@@QEAA@QEAU__crt_multibyte_data@@@Z 000000018005fe54 f i libucrt:mbctype.obj
 0001:0005ee5c       ??1?$__crt_unique_heap_ptr@U__crt_multibyte_data@@U__crt_internal_free_policy@@@@QEAA@XZ 000000018005fe5c f i libucrt:mbctype.obj
 0001:0005ee78       ??B?$__crt_unique_heap_ptr@U__crt_multibyte_data@@U__crt_internal_free_policy@@@@QEBA_NXZ 000000018005fe78 f i libucrt:mbctype.obj
 0001:0005f06c       ?dangerous_get_state_array@?$dual_state_global@PEAE@__crt_state_management@@QEAAPEAPEAEXZ 000000018006006c f i libucrt:mbctype.obj
 0001:0005f070       ?dangerous_get_state_array@?$dual_state_global@PEAU__crt_multibyte_data@@@__crt_state_management@@QEAAPEAPEAU__crt_multibyte_data@@XZ 0000000180060070 f i libucrt:mbctype.obj
 0001:0005f074       ?detach@?$__crt_unique_heap_ptr@U__crt_multibyte_data@@U__crt_internal_free_policy@@@@QEAAPEAU__crt_multibyte_data@@XZ 0000000180060074 f i libucrt:mbctype.obj
 0001:0005f07c       ?get@?$__crt_unique_heap_ptr@U__crt_multibyte_data@@U__crt_internal_free_policy@@@@QEBAPEAU__crt_multibyte_data@@XZ 000000018006007c f i libucrt:mbctype.obj
 0001:0005f100       ?initialize@?$dual_state_global@PEAU__crt_multibyte_data@@@__crt_state_management@@QEAAXQEAU__crt_multibyte_data@@@Z 0000000180060100 f i libucrt:mbctype.obj
 0001:0005f128       ?is_valid@?$__crt_unique_heap_ptr@U__crt_multibyte_data@@U__crt_internal_free_policy@@@@QEBA_NXZ 0000000180060128 f i libucrt:mbctype.obj
 0001:0005f130       ?release@?$__crt_unique_heap_ptr@U__crt_multibyte_data@@U__crt_internal_free_policy@@@@QEAAXXZ 0000000180060130 f i libucrt:mbctype.obj
 0001:0005f638       ?value@?$dual_state_global@PEAE@__crt_state_management@@QEAAAEAPEAEXZ 0000000180060638 f i libucrt:mbctype.obj
 0001:0005f63c       ?value@?$dual_state_global@PEAU__crt_multibyte_data@@@__crt_state_management@@QEAAAEAPEAU__crt_multibyte_data@@XZ 000000018006063c f i libucrt:mbctype.obj
 0001:0005f640       __acrt_initialize_multibyte 0000000180060640 f   libucrt:mbctype.obj
 0001:0005f6a0       __acrt_should_sync_with_global_locale 00000001800606a0 f i libucrt:mbctype.obj
 0001:0005f6b0       __acrt_update_thread_multibyte_data 00000001800606b0 f   libucrt:mbctype.obj
 0001:0005f6cc       __p__mbcasemap             00000001800606cc f   libucrt:mbctype.obj
 0001:0005f6d4       __p__mbctype               00000001800606d4 f   libucrt:mbctype.obj
 0001:0005f6dc       _getmbcp                   00000001800606dc f   libucrt:mbctype.obj
 0001:0005f718       _setmbcp                   0000000180060718 f   libucrt:mbctype.obj
 0001:0005f740       _setmbcp_nolock            0000000180060740 f   libucrt:mbctype.obj
 0001:0005fafc       _ismbbalnum                0000000180060afc f   libucrt:ismbbyte.obj
 0001:0005fb14       _ismbbalnum_l              0000000180060b14 f   libucrt:ismbbyte.obj
 0001:0005fb30       _ismbbalpha                0000000180060b30 f   libucrt:ismbbyte.obj
 0001:0005fb48       _ismbbalpha_l              0000000180060b48 f   libucrt:ismbbyte.obj
 0001:0005fb64       _ismbbblank                0000000180060b64 f   libucrt:ismbbyte.obj
 0001:0005fb80       _ismbbblank_l              0000000180060b80 f   libucrt:ismbbyte.obj
 0001:0005fba0       _ismbbgraph                0000000180060ba0 f   libucrt:ismbbyte.obj
 0001:0005fbb8       _ismbbgraph_l              0000000180060bb8 f   libucrt:ismbbyte.obj
 0001:0005fbd4       _ismbbkalnum               0000000180060bd4 f   libucrt:ismbbyte.obj
 0001:0005fbe8       _ismbbkalnum_l             0000000180060be8 f   libucrt:ismbbyte.obj
 0001:0005fc00       _ismbbkana                 0000000180060c00 f   libucrt:ismbbyte.obj
 0001:0005fc08       _ismbbkana_l               0000000180060c08 f   libucrt:ismbbyte.obj
 0001:0005fc70       _ismbbkprint               0000000180060c70 f   libucrt:ismbbyte.obj
 0001:0005fc84       _ismbbkprint_l             0000000180060c84 f   libucrt:ismbbyte.obj
 0001:0005fc9c       _ismbbkpunct               0000000180060c9c f   libucrt:ismbbyte.obj
 0001:0005fcb0       _ismbbkpunct_l             0000000180060cb0 f   libucrt:ismbbyte.obj
 0001:0005fcc8       _ismbblead                 0000000180060cc8 f   libucrt:ismbbyte.obj
 0001:0005fcdc       _ismbblead_l               0000000180060cdc f   libucrt:ismbbyte.obj
 0001:0005fcf4       _ismbbprint                0000000180060cf4 f   libucrt:ismbbyte.obj
 0001:0005fd0c       _ismbbprint_l              0000000180060d0c f   libucrt:ismbbyte.obj
 0001:0005fd28       _ismbbpunct                0000000180060d28 f   libucrt:ismbbyte.obj
 0001:0005fd3c       _ismbbpunct_l              0000000180060d3c f   libucrt:ismbbyte.obj
 0001:0005fd54       _ismbbtrail                0000000180060d54 f   libucrt:ismbbyte.obj
 0001:0005fd68       _ismbbtrail_l              0000000180060d68 f   libucrt:ismbbyte.obj
 0001:0005fd80       __acrt_initialize_command_line 0000000180060d80 f   libucrt:argv_data.obj
 0001:0005fda8       __acrt_uninitialize_command_line 0000000180060da8 f   libucrt:argv_data.obj
 0001:0005fdac       __p___argc                 0000000180060dac f   libucrt:argv_data.obj
 0001:0005fdb4       __p___argv                 0000000180060db4 f   libucrt:argv_data.obj
 0001:0005fdbc       __p___wargv                0000000180060dbc f   libucrt:argv_data.obj
 0001:0005fdc4       __p__acmdln                0000000180060dc4 f   libucrt:argv_data.obj
 0001:0005fdcc       __p__pgmptr                0000000180060dcc f   libucrt:argv_data.obj
 0001:0005fdd4       __p__wcmdln                0000000180060dd4 f   libucrt:argv_data.obj
 0001:0005fddc       __p__wpgmptr               0000000180060ddc f   libucrt:argv_data.obj
 0001:0005fde4       _get_pgmptr                0000000180060de4 f   libucrt:argv_data.obj
 0001:0005fe1c       _get_wpgmptr               0000000180060e1c f   libucrt:argv_data.obj
 0001:0005fec0       wcscpy_s                   0000000180060ec0 f   libucrt:wcscpy_s.obj
 0001:0005ff80       __acrt_MultiByteToWideChar 0000000180060f80 f   libucrt:multibytetowidechar.obj
 0001:00060020       __acrt_WideCharToMultiByte 0000000180061020 f   libucrt:widechartomultibyte.obj
 0001:00060170       __dcrt_get_narrow_environment_from_os 0000000180061170 f   libucrt:get_environment_from_os.obj
 0001:00060274       __dcrt_get_wide_environment_from_os 0000000180061274 f   libucrt:get_environment_from_os.obj
 0001:00060c98       ??$get_or_create_environment_nolock@$$V@?$__crt_char_traits@D@@SAPEAPEADXZ 0000000180061c98 f i libucrt:setenv.obj
 0001:00060ca0       ??$get_or_create_environment_nolock@$$V@?$__crt_char_traits@_W@@SAPEAPEA_WXZ 0000000180061ca0 f i libucrt:setenv.obj
 0001:00060ca8       ??$set_environment_variable@AEBQEADQEAD@?$__crt_char_traits@D@@SAHAEBQEAD$$QEBQEAD@Z 0000000180061ca8 f i libucrt:setenv.obj
 0001:00060cb4       ??$set_environment_variable@AEBQEA_WQEA_W@?$__crt_char_traits@_W@@SAHAEBQEA_W$$QEBQEA_W@Z 0000000180061cb4 f i libucrt:setenv.obj
 0001:00060cc4       ??$tcschr@AEBQEADD@?$__crt_char_traits@D@@SAPEADAEBQEAD$$QEAD@Z 0000000180061cc4 f i libucrt:setenv.obj
 0001:00060cd0       ??$tcschr@AEBQEA_WD@?$__crt_char_traits@_W@@SAPEA_WAEBQEA_W$$QEAD@Z 0000000180061cd0 f i libucrt:setenv.obj
 0001:00060cdc       ??$tcscpy_s@AEAPEADAEB_KAEAPEAD@?$__crt_char_traits@D@@SAHAEAPEADAEB_K0@Z 0000000180061cdc f i libucrt:setenv.obj
 0001:00060cec       ??$tcscpy_s@AEAPEA_WAEB_KAEAPEA_W@?$__crt_char_traits@_W@@SAHAEAPEA_WAEB_K0@Z 0000000180061cec f i libucrt:setenv.obj
 0001:00060cfc       ??$tcscpy_s@AEBQEADAEB_KAEBQEAD@?$__crt_char_traits@D@@SAHAEBQEADAEB_K0@Z 0000000180061cfc f i libucrt:setenv.obj
 0001:00060d0c       ??$tcscpy_s@AEBQEA_WAEB_KAEBQEA_W@?$__crt_char_traits@_W@@SAHAEBQEA_WAEB_K0@Z 0000000180061d0c f i libucrt:setenv.obj
 0001:00060d1c       ??$tcslen@AEBQEAD@?$__crt_char_traits@D@@SA_KAEBQEAD@Z 0000000180061d1c f i libucrt:setenv.obj
 0001:00060d30       ??$tcslen@AEBQEA_W@?$__crt_char_traits@_W@@SA_KAEBQEA_W@Z 0000000180061d30 f i libucrt:setenv.obj
 0001:00060d44       ??$tcsnicoll@AEBQEBDAEAPEADAEB_K@?$__crt_char_traits@D@@SAHAEBQEBDAEAPEADAEB_K@Z 0000000180061d44 f i libucrt:setenv.obj
 0001:00060d54       ??$tcsnicoll@AEBQEB_WAEAPEA_WAEB_K@?$__crt_char_traits@_W@@SAHAEBQEB_WAEAPEA_WAEB_K@Z 0000000180061d54 f i libucrt:setenv.obj
 0001:00060d94       ?strchr@@YAPEADQEADH@Z     0000000180061d94 f i libucrt:setenv.obj
 0001:00060d9c       ?wcschr@@YAPEA_WPEA_W_W@Z  0000000180061d9c f i libucrt:setenv.obj
 0001:00060da4       __dcrt_set_variable_in_narrow_environment_nolock 0000000180061da4 f   libucrt:setenv.obj
 0001:00060dac       __dcrt_set_variable_in_wide_environment_nolock 0000000180061dac f   libucrt:setenv.obj
 0001:00060db4       _recalloc                  0000000180061db4 f   libucrt:recalloc.obj
 0001:00060dbc       _recalloc_base             0000000180061dbc f   libucrt:recalloc.obj
 0001:00060e7c       ??$?B$$A6AHPEA_WK_J@Z@__crt_fast_encoded_nullptr_t@@QEBAP6AHPEA_WK_J@ZXZ 0000000180061e7c f i libucrt:winapi_thunks.obj
 0001:00060f28       ??$__crt_fast_decode_pointer@P6AHPEA_WK_J@Z@@YAP6AHPEA_WK_J@ZQ6AH0K1@Z@Z 0000000180061f28 f i libucrt:winapi_thunks.obj
 0001:00060f40       ??$__crt_fast_decode_pointer@PEAX@@YAPEAXQEAX@Z 0000000180061f40 f i libucrt:winapi_thunks.obj
 0001:00060f58       ??$__crt_fast_encode_pointer@P6AHPEA_WK_J@Z@@YAP6AHPEA_WK_J@ZQ6AH0K1@Z@Z 0000000180061f58 f i libucrt:winapi_thunks.obj
 0001:00061a58       GetCurrentThreadEffectiveToken 0000000180062a58 f i libucrt:winapi_thunks.obj
 0001:00061a60       __acrt_AppPolicyGetProcessTerminationMethodInternal 0000000180062a60 f   libucrt:winapi_thunks.obj
 0001:00061ab0       __acrt_AppPolicyGetShowDeveloperDiagnosticInternal 0000000180062ab0 f   libucrt:winapi_thunks.obj
 0001:00061b00       __acrt_AppPolicyGetThreadInitializationTypeInternal 0000000180062b00 f   libucrt:winapi_thunks.obj
 0001:00061b50       __acrt_AppPolicyGetWindowingModelInternal 0000000180062b50 f   libucrt:winapi_thunks.obj
 0001:00061ba0       __acrt_AreFileApisANSI     0000000180062ba0 f   libucrt:winapi_thunks.obj
 0001:00061bdc       __acrt_CompareStringEx     0000000180062bdc f   libucrt:winapi_thunks.obj
 0001:00061cb8       __acrt_EnumSystemLocalesEx 0000000180062cb8 f   libucrt:winapi_thunks.obj
 0001:00061d50       __acrt_FlsAlloc            0000000180062d50 f   libucrt:winapi_thunks.obj
 0001:00061d98       __acrt_FlsFree             0000000180062d98 f   libucrt:winapi_thunks.obj
 0001:00061de0       __acrt_FlsGetValue         0000000180062de0 f   libucrt:winapi_thunks.obj
 0001:00061e28       __acrt_FlsSetValue         0000000180062e28 f   libucrt:winapi_thunks.obj
 0001:00061e7c       __acrt_GetDateFormatEx     0000000180062e7c f   libucrt:winapi_thunks.obj
 0001:00061f34       __acrt_GetEnabledXStateFeatures 0000000180062f34 f   libucrt:winapi_thunks.obj
 0001:00061f70       __acrt_GetLocaleInfoEx     0000000180062f70 f   libucrt:winapi_thunks.obj
 0001:00061ff4       __acrt_GetSystemTimePreciseAsFileTime 0000000180062ff4 f   libucrt:winapi_thunks.obj
 0001:0006203c       __acrt_GetTimeFormatEx     000000018006303c f   libucrt:winapi_thunks.obj
 0001:000620e8       __acrt_GetUserDefaultLocaleName 00000001800630e8 f   libucrt:winapi_thunks.obj
 0001:0006214c       __acrt_GetXStateFeaturesMask 000000018006314c f   libucrt:winapi_thunks.obj
 0001:000621a0       __acrt_InitializeCriticalSectionEx 00000001800631a0 f   libucrt:winapi_thunks.obj
 0001:00062204       __acrt_IsValidLocaleName   0000000180063204 f   libucrt:winapi_thunks.obj
 0001:0006225c       __acrt_LCIDToLocaleName    000000018006325c f   libucrt:winapi_thunks.obj
 0001:000622cc       __acrt_LCMapStringEx       00000001800632cc f   libucrt:winapi_thunks.obj
 0001:000623a8       __acrt_LocaleNameToLCID    00000001800633a8 f   libucrt:winapi_thunks.obj
 0001:000623f8       __acrt_LocateXStateFeature 00000001800633f8 f   libucrt:winapi_thunks.obj
 0001:00062458       __acrt_MessageBoxA         0000000180063458 f   libucrt:winapi_thunks.obj
 0001:000624cc       __acrt_MessageBoxW         00000001800634cc f   libucrt:winapi_thunks.obj
 0001:00062540       __acrt_RoInitialize        0000000180063540 f   libucrt:winapi_thunks.obj
 0001:00062580       __acrt_RoUninitialize      0000000180063580 f   libucrt:winapi_thunks.obj
 0001:000625b4       __acrt_RtlGenRandom        00000001800635b4 f   libucrt:winapi_thunks.obj
 0001:00062604       __acrt_SetThreadStackGuarantee 0000000180063604 f   libucrt:winapi_thunks.obj
 0001:00062648       __acrt_can_show_message_box 0000000180063648 f   libucrt:winapi_thunks.obj
 0001:000626b8       __acrt_can_use_vista_locale_apis 00000001800636b8 f   libucrt:winapi_thunks.obj
 0001:000626e8       __acrt_can_use_xstate_apis 00000001800636e8 f   libucrt:winapi_thunks.obj
 0001:00062718       __acrt_eagerly_load_locale_apis 0000000180063718 f   libucrt:winapi_thunks.obj
 0001:00062874       __acrt_get_parent_window   0000000180063874 f   libucrt:winapi_thunks.obj
 0001:000628ec       __acrt_initialize_winapi_thunks 00000001800638ec f   libucrt:winapi_thunks.obj
 0001:00062920       __acrt_is_interactive      0000000180063920 f   libucrt:winapi_thunks.obj
 0001:000629e8       __acrt_uninitialize_winapi_thunks 00000001800639e8 f   libucrt:winapi_thunks.obj
 0001:00062a2c       __acrt_getheap             0000000180063a2c f   libucrt:heap_handle.obj
 0001:00062a34       __acrt_initialize_heap     0000000180063a34 f   libucrt:heap_handle.obj
 0001:00062a50       __acrt_uninitialize_heap   0000000180063a50 f   libucrt:heap_handle.obj
 0001:00062a5c       _get_heap_handle           0000000180063a5c f   libucrt:heap_handle.obj
 0001:00062c7c       __acrt_initialize_lowio    0000000180063c7c f   libucrt:ioinit.obj
 0001:00062cb8       __acrt_uninitialize_lowio  0000000180063cb8 f   libucrt:ioinit.obj
 0001:00062cf8       __acrt_execute_initializers 0000000180063cf8 f   libucrt:shared_initialization.obj
 0001:00062d78       __acrt_execute_uninitializers 0000000180063d78 f   libucrt:shared_initialization.obj
 0001:00062db4       ??$?B$$A6AH_K@Z@__crt_fast_encoded_nullptr_t@@QEBAP6AH_K@ZXZ 0000000180063db4 f i libucrt:new_handler.obj
 0001:00062dbc       ??$__crt_fast_decode_pointer@P6AH_K@Z@@YAP6AH_K@ZQ6AH0@Z@Z 0000000180063dbc f i libucrt:new_handler.obj
 0001:00062dd4       ??$__crt_fast_encode_pointer@P6AH_K@Z@@YAP6AH_K@ZQ6AH0@Z@Z 0000000180063dd4 f i libucrt:new_handler.obj
 0001:00062df4       ?_set_new_handler@@YAP6AH_K@ZH@Z 0000000180063df4 f   libucrt:new_handler.obj
 0001:00062e00       ?initialize@?$dual_state_global@P6AH_K@Z@__crt_state_management@@QEAAXQ6AH_K@Z@Z 0000000180063e00 f i libucrt:new_handler.obj
 0001:00062e28       ?value@?$dual_state_global@P6AH_K@Z@__crt_state_management@@QEAAAEAP6AH_K@ZXZ 0000000180063e28 f i libucrt:new_handler.obj
 0001:00062e2c       __acrt_initialize_new_handler 0000000180063e2c f   libucrt:new_handler.obj
 0001:00062e34       _callnewh                  0000000180063e34 f   libucrt:new_handler.obj
 0001:00062e64       _query_new_handler         0000000180063e64 f   libucrt:new_handler.obj
 0001:00062e98       _set_new_handler           0000000180063e98 f   libucrt:new_handler.obj
 0001:00062ef4       ??$?B$$A6AXH@Z@__crt_fast_encoded_nullptr_t@@QEBAP6AXH@ZXZ 0000000180063ef4 f i libucrt:signal.obj
 0001:00062f6c       ??$__crt_fast_decode_pointer@P6AXH@Z@@YAP6AXH@ZQ6AXH@Z@Z 0000000180063f6c f i libucrt:signal.obj
 0001:00062f84       ??$__crt_fast_encode_pointer@P6AXH@Z@@YAP6AXH@ZQ6AXH@Z@Z 0000000180063f84 f i libucrt:signal.obj
 0001:000630ac       ?initialize@?$dual_state_global@P6AXH@Z@__crt_state_management@@QEAAXQ6AXH@Z@Z 00000001800640ac f i libucrt:signal.obj
 0001:00063148       ?value@?$dual_state_global@P6AXH@Z@__crt_state_management@@QEAAAEAP6AXH@ZXZ 0000000180064148 f i libucrt:signal.obj
 0001:0006314c       __acrt_get_sigabrt_handler 000000018006414c f   libucrt:signal.obj
 0001:0006317c       __acrt_initialize_signal_handlers 000000018006417c f   libucrt:signal.obj
 0001:0006319c       __fpecode                  000000018006419c f   libucrt:signal.obj
 0001:000631b0       __pxcptinfoptrs            00000001800641b0 f   libucrt:signal.obj
 0001:000631c4       raise                      00000001800641c4 f   libucrt:signal.obj
 0001:00063430       signal                     0000000180064430 f   libucrt:signal.obj
 0001:0006360c       ??$__crt_fast_decode_pointer@P6AHPEAU_exception@@@Z@@YAP6AHPEAU_exception@@@ZQ6AH0@Z@Z 000000018006460c f i libucrt:matherr.obj
 0001:00063624       ??$__crt_fast_encode_pointer@P6AHPEAU_exception@@@Z@@YAP6AHPEAU_exception@@@ZQ6AH0@Z@Z 0000000180064624 f i libucrt:matherr.obj
 0001:00063644       ?initialize@?$dual_state_global@P6AHPEAU_exception@@@Z@__crt_state_management@@QEAAXQ6AHPEAU_exception@@@Z@Z 0000000180064644 f i libucrt:matherr.obj
 0001:0006366c       ?value@?$dual_state_global@P6AHPEAU_exception@@@Z@__crt_state_management@@QEAAAEAP6AHPEAU_exception@@@ZXZ 000000018006466c f i libucrt:matherr.obj
 0001:00063670       __acrt_has_user_matherr    0000000180064670 f   libucrt:matherr.obj
 0001:00063690       __acrt_initialize_user_matherr 0000000180064690 f   libucrt:matherr.obj
 0001:00063698       __acrt_invoke_user_matherr 0000000180064698 f   libucrt:matherr.obj
 0001:000636c8       __setusermatherr           00000001800646c8 f   libucrt:matherr.obj
 0001:00063994       ??0__crt_stdio_stream@@QEAA@QEAU__crt_stdio_stream_data@@@Z 0000000180064994 f i libucrt:fflush.obj
 0001:00063b00       ?__acrt_stdio_reset_buffer@@YAXV__crt_stdio_stream@@@Z 0000000180064b00 f i libucrt:fflush.obj
 0001:00063ba0       ?has_all_of@__crt_stdio_stream@@QEBA_NJ@Z 0000000180064ba0 f i libucrt:fflush.obj
 0001:00063bec       ?set_flags@__crt_stdio_stream@@QEBA_NJ@Z 0000000180064bec f i libucrt:fflush.obj
 0001:00063c0c       ?unset_flags@__crt_stdio_stream@@QEBA_NJ@Z 0000000180064c0c f i libucrt:fflush.obj
 0001:00063c34       __acrt_stdio_flush_nolock  0000000180064c34 f   libucrt:fflush.obj
 0001:00063cb0       _fflush_nolock             0000000180064cb0 f   libucrt:fflush.obj
 0001:00063cfc       _flushall                  0000000180064cfc f   libucrt:fflush.obj
 0001:00063d04       fflush                     0000000180064d04 f   libucrt:fflush.obj
 0001:00063d6c       __p___mb_cur_max           0000000180064d6c f   libucrt:nlsdata.obj
 0001:00063d9c       ??$?RPEAU__crt_stdio_stream_data@@@__crt_internal_free_policy@@QEBAXQEBQEAU__crt_stdio_stream_data@@@Z 0000000180064d9c f i libucrt:_file.obj
 0001:00063da4       ??0?$__crt_unique_heap_ptr@PEAU__crt_stdio_stream_data@@U__crt_internal_free_policy@@@@QEAA@QEAPEAU__crt_stdio_stream_data@@@Z 0000000180064da4 f i libucrt:_file.obj
 0001:00063dac       ??1?$__crt_unique_heap_ptr@PEAU__crt_stdio_stream_data@@U__crt_internal_free_policy@@@@QEAA@XZ 0000000180064dac f i libucrt:_file.obj
 0001:00063dc8       ?detach@?$__crt_unique_heap_ptr@PEAU__crt_stdio_stream_data@@U__crt_internal_free_policy@@@@QEAAPEAPEAU__crt_stdio_stream_data@@XZ 0000000180064dc8 f i libucrt:_file.obj
 0001:00063dd0       ?release@?$__crt_unique_heap_ptr@PEAU__crt_stdio_stream_data@@U__crt_internal_free_policy@@@@QEAAXXZ 0000000180064dd0 f i libucrt:_file.obj
 0001:00063dec       __acrt_initialize_stdio    0000000180064dec f   libucrt:_file.obj
 0001:00063f0c       __acrt_iob_func            0000000180064f0c f   libucrt:_file.obj
 0001:00063f20       __acrt_uninitialize_stdio  0000000180064f20 f   libucrt:_file.obj
 0001:00063f7c       _get_stream_buffer_pointers 0000000180064f7c f   libucrt:_file.obj
 0001:00063fc4       _lock_file                 0000000180064fc4 f   libucrt:_file.obj
 0001:00063fd0       _unlock_file               0000000180064fd0 f   libucrt:_file.obj
 0001:00063fdc       ?has_any_buffer@__crt_stdio_stream@@QEBA_NXZ 0000000180064fdc f i libucrt:_sftbuf.obj
 0001:00063fec       ?has_any_of@__crt_stdio_stream@@QEBA_NJ@Z 0000000180064fec f i libucrt:_sftbuf.obj
 0001:00063ff8       ?has_temporary_buffer@__crt_stdio_stream@@QEBA_NXZ 0000000180064ff8 f i libucrt:_sftbuf.obj
 0001:00064004       __acrt_should_use_temporary_buffer 0000000180065004 f   libucrt:_sftbuf.obj
 0001:0006404c       __acrt_stdio_begin_temporary_buffering_nolock 000000018006504c f   libucrt:_sftbuf.obj
 0001:00064114       __acrt_stdio_end_temporary_buffering_nolock 0000000180065114 f   libucrt:_sftbuf.obj
 0001:00064150       _malloc_base               0000000180065150 f   libucrt:malloc_base.obj
 0001:000641b0       ??$make_c_string_character_source@DPEAPEAD@__crt_strtox@@YA?AV?$c_string_character_source@D@0@QEBDQEAPEAD@Z 00000001800651b0 f i libucrt:strtox.obj
 0001:000641c4       ??$make_c_string_character_source@_WPEAPEA_W@__crt_strtox@@YA?AV?$c_string_character_source@_W@0@QEB_WQEAPEA_W@Z 00000001800651c4 f i libucrt:strtox.obj
 0001:000641d8       ??$parse_integer_from_string@JDPEAPEAD@__crt_strtox@@YAJQEBDQEAPEADHQEAU__crt_locale_pointers@@@Z 00000001800651d8 f i libucrt:strtox.obj
 0001:00064208       ??$parse_integer_from_string@J_WPEAPEA_W@__crt_strtox@@YAJQEB_WQEAPEA_WHQEAU__crt_locale_pointers@@@Z 0000000180065208 f i libucrt:strtox.obj
 0001:00064238       ??$parse_integer_from_string@KDPEAPEAD@__crt_strtox@@YAKQEBDQEAPEADHQEAU__crt_locale_pointers@@@Z 0000000180065238 f i libucrt:strtox.obj
 0001:00064268       ??$parse_integer_from_string@K_WPEAPEA_W@__crt_strtox@@YAKQEB_WQEAPEA_WHQEAU__crt_locale_pointers@@@Z 0000000180065268 f i libucrt:strtox.obj
 0001:00064298       ??$parse_integer_from_string@_JDPEAPEAD@__crt_strtox@@YA_JQEBDQEAPEADHQEAU__crt_locale_pointers@@@Z 0000000180065298 f i libucrt:strtox.obj
 0001:000642c8       ??$parse_integer_from_string@_J_WPEAPEA_W@__crt_strtox@@YA_JQEB_WQEAPEA_WHQEAU__crt_locale_pointers@@@Z 00000001800652c8 f i libucrt:strtox.obj
 0001:000642f8       ??$parse_integer_from_string@_KDPEAPEAD@__crt_strtox@@YA_KQEBDQEAPEADHQEAU__crt_locale_pointers@@@Z 00000001800652f8 f i libucrt:strtox.obj
 0001:00064328       ??$parse_integer_from_string@_K_WPEAPEA_W@__crt_strtox@@YA_KQEB_WQEAPEA_WHQEAU__crt_locale_pointers@@@Z 0000000180065328 f i libucrt:strtox.obj
 0001:00064358       _strtoi64                  0000000180065358 f   libucrt:strtox.obj
 0001:00064384       _strtoi64_l                0000000180065384 f   libucrt:strtox.obj
 0001:000643b4       _strtoimax_l               00000001800653b4 f   libucrt:strtox.obj
 0001:000643e4       _strtol_l                  00000001800653e4 f   libucrt:strtox.obj
 0001:00064414       _strtoll_l                 0000000180065414 f   libucrt:strtox.obj
 0001:00064444       _strtoui64                 0000000180065444 f   libucrt:strtox.obj
 0001:00064470       _strtoui64_l               0000000180065470 f   libucrt:strtox.obj
 0001:000644a0       _strtoul_l                 00000001800654a0 f   libucrt:strtox.obj
 0001:000644d0       _strtoull_l                00000001800654d0 f   libucrt:strtox.obj
 0001:00064500       _strtoumax_l               0000000180065500 f   libucrt:strtox.obj
 0001:00064530       _wcstoi64                  0000000180065530 f   libucrt:strtox.obj
 0001:0006455c       _wcstoi64_l                000000018006555c f   libucrt:strtox.obj
 0001:0006458c       _wcstoimax_l               000000018006558c f   libucrt:strtox.obj
 0001:000645bc       _wcstol_l                  00000001800655bc f   libucrt:strtox.obj
 0001:000645ec       _wcstoll_l                 00000001800655ec f   libucrt:strtox.obj
 0001:0006461c       _wcstoui64                 000000018006561c f   libucrt:strtox.obj
 0001:00064648       _wcstoui64_l               0000000180065648 f   libucrt:strtox.obj
 0001:00064678       _wcstoul_l                 0000000180065678 f   libucrt:strtox.obj
 0001:000646a8       _wcstoull_l                00000001800656a8 f   libucrt:strtox.obj
 0001:000646d8       _wcstoumax_l               00000001800656d8 f   libucrt:strtox.obj
 0001:00064708       strtoimax                  0000000180065708 f   libucrt:strtox.obj
 0001:00064734       strtol                     0000000180065734 f   libucrt:strtox.obj
 0001:00064760       strtoll                    0000000180065760 f   libucrt:strtox.obj
 0001:0006478c       strtoul                    000000018006578c f   libucrt:strtox.obj
 0001:000647b8       strtoull                   00000001800657b8 f   libucrt:strtox.obj
 0001:000647e4       strtoumax                  00000001800657e4 f   libucrt:strtox.obj
 0001:00064810       wcstoimax                  0000000180065810 f   libucrt:strtox.obj
 0001:0006483c       wcstol                     000000018006583c f   libucrt:strtox.obj
 0001:00064868       wcstoll                    0000000180065868 f   libucrt:strtox.obj
 0001:00064894       wcstoul                    0000000180065894 f   libucrt:strtox.obj
 0001:000648c0       wcstoull                   00000001800658c0 f   libucrt:strtox.obj
 0001:000648ec       wcstoumax                  00000001800658ec f   libucrt:strtox.obj
 0001:00064918       _mbtowc_l                  0000000180065918 f   libucrt:mbtowc.obj
 0001:00064a98       mbtowc                     0000000180065a98 f   libucrt:mbtowc.obj
 0001:00064aa0       _wctomb_l                  0000000180065aa0 f   libucrt:wctomb.obj
 0001:00064b14       _wctomb_s_l                0000000180065b14 f   libucrt:wctomb.obj
 0001:00064cb0       wctomb                     0000000180065cb0 f   libucrt:wctomb.obj
 0001:00064d00       wctomb_s                   0000000180065d00 f   libucrt:wctomb.obj
 0001:000655c8       ??1?$__crt_simd_cleanup_guard@$00@@QEAA@XZ 00000001800665c8 f i libucrt:strnlen.obj
 0001:000655cc       ??1?$__crt_simd_cleanup_guard@$0A@@@QEAA@XZ 00000001800665cc f i libucrt:strnlen.obj
 0001:000655d0       ?compare_equals@?$__crt_simd_traits@$00E@@SA?AT__m256i@@T2@0@Z 00000001800665d0 f i libucrt:strnlen.obj
 0001:000655dc       ?compare_equals@?$__crt_simd_traits@$00G@@SA?AT__m256i@@T2@0@Z 00000001800665dc f i libucrt:strnlen.obj
 0001:000655e8       ?compare_equals@?$__crt_simd_traits@$0A@E@@SA?AT__m128i@@T2@0@Z 00000001800665e8 f i libucrt:strnlen.obj
 0001:000655f4       ?compare_equals@?$__crt_simd_traits@$0A@G@@SA?AT__m128i@@T2@0@Z 00000001800665f4 f i libucrt:strnlen.obj
 0001:00065600       ?compute_byte_mask@?$__crt_simd_pack_traits@$00@@SAHT__m256i@@@Z 0000000180066600 f i libucrt:strnlen.obj
 0001:0006560c       ?compute_byte_mask@?$__crt_simd_pack_traits@$0A@@@SAHT__m128i@@@Z 000000018006660c f i libucrt:strnlen.obj
 0001:00065618       ?get_zero_pack@?$__crt_simd_pack_traits@$00@@SA?AT__m256i@@XZ 0000000180066618 f i libucrt:strnlen.obj
 0001:00065620       ?get_zero_pack@?$__crt_simd_pack_traits@$0A@@@SA?AT__m128i@@XZ 0000000180066620 f i libucrt:strnlen.obj
 0001:00065624       strnlen                    0000000180066624 f   libucrt:strnlen.obj
 0001:00065774       wcslen                     0000000180066774 f   libucrt:strnlen.obj
 0001:000658a0       wcsnlen                    00000001800668a0 f   libucrt:strnlen.obj
 0001:00065a78       __acrt_update_locale_info  0000000180066a78 f   libucrt:locale_update.obj
 0001:00065aac       __acrt_update_multibyte_info 0000000180066aac f   libucrt:locale_update.obj
 0001:00065ae0       ?__acrt_fp_classify@@YA?AW4__acrt_fp_class@@AEBN@Z 0000000180066ae0 f i libucrt:cvt.obj
 0001:00065b3c       ?__acrt_fp_is_negative@@YA_NAEBN@Z 0000000180066b3c f i libucrt:cvt.obj
 0001:00066754       ?strrchr@@YAPEADQEADH@Z    0000000180067754 f i libucrt:cvt.obj
 0001:0006675c       __acrt_fp_format           000000018006775c f   libucrt:cvt.obj
 0001:00066ab0       _fputwc_nolock             0000000180067ab0 f   libucrt:fputwc.obj
 0001:00066c2c       _fputwchar                 0000000180067c2c f   libucrt:fputwc.obj
 0001:00066c50       _putwc_nolock              0000000180067c50 f   libucrt:fputwc.obj
 0001:00066c58       fputwc                     0000000180067c58 f   libucrt:fputwc.obj
 0001:00066cb8       putwc                      0000000180067cb8 f   libucrt:fputwc.obj
 0001:00066cc0       putwchar                   0000000180067cc0 f   libucrt:fputwc.obj
 0001:00066cc8       ?lowio_handle@__crt_stdio_stream@@QEBAHXZ 0000000180067cc8 f i libucrt:fileno.obj
 0001:00066cd0       _fileno                    0000000180067cd0 f   libucrt:fileno.obj
 0001:00066cf8       _fputc_nolock              0000000180067cf8 f   libucrt:fputc.obj
 0001:00066d10       _fputchar                  0000000180067d10 f   libucrt:fputc.obj
 0001:00066d34       _putc_nolock               0000000180067d34 f   libucrt:fputc.obj
 0001:00066d4c       fputc                      0000000180067d4c f   libucrt:fputc.obj
 0001:00066e70       putc                       0000000180067e70 f   libucrt:fputc.obj
 0001:00066e78       putchar                    0000000180067e78 f   libucrt:fputc.obj
 0001:00066e80       _get_printf_count_output   0000000180067e80 f   libucrt:printf_count_output.obj
 0001:00066e98       _set_printf_count_output   0000000180067e98 f   libucrt:printf_count_output.obj
 0001:00066ec4       ??$?RU__crt_locale_data@@@__crt_internal_free_policy@@QEBAXQEBU__crt_locale_data@@@Z 0000000180067ec4 f i libucrt:wsetlocale.obj
 0001:00066ecc       ??$?RU__crt_locale_pointers@@@__crt_internal_free_policy@@QEBAXQEBU__crt_locale_pointers@@@Z 0000000180067ecc f i libucrt:wsetlocale.obj
 0001:000672d8       ??0?$__crt_unique_heap_ptr@U__crt_locale_data@@U__crt_internal_free_policy@@@@QEAA@QEAU__crt_locale_data@@@Z 00000001800682d8 f i libucrt:wsetlocale.obj
 0001:000672e0       ??0?$__crt_unique_heap_ptr@U__crt_locale_pointers@@U__crt_internal_free_policy@@@@QEAA@QEAU__crt_locale_pointers@@@Z 00000001800682e0 f i libucrt:wsetlocale.obj
 0001:000672e8       ??0_expandlocale_locale_name_cache@@QEAA@QEA_W_KQEAU__crt_qualified_locale_data@@@Z 00000001800682e8 f i libucrt:wsetlocale.obj
 0001:00067344       ??1?$__crt_unique_heap_ptr@U__crt_locale_data@@U__crt_internal_free_policy@@@@QEAA@XZ 0000000180068344 f i libucrt:wsetlocale.obj
 0001:00067360       ??1?$__crt_unique_heap_ptr@U__crt_locale_pointers@@U__crt_internal_free_policy@@@@QEAA@XZ 0000000180068360 f i libucrt:wsetlocale.obj
 0001:0006737c       ??1_expandlocale_locale_name_cache@@QEAA@XZ 000000018006837c f i libucrt:wsetlocale.obj
 0001:000673c4       ??B?$__crt_unique_heap_ptr@U__crt_locale_data@@U__crt_internal_free_policy@@@@QEBA_NXZ 00000001800683c4 f i libucrt:wsetlocale.obj
 0001:000673cc       ??B?$__crt_unique_heap_ptr@U__crt_locale_pointers@@U__crt_internal_free_policy@@@@QEBA_NXZ 00000001800683cc f i libucrt:wsetlocale.obj
 0001:0006764c       ?commit_locale_name@_expandlocale_locale_name_cache@@QEAAXQEB_W_K@Z 000000018006864c f i libucrt:wsetlocale.obj
 0001:000676c4       ?commit_locale_name_cache_already_updated@_expandlocale_locale_name_cache@@QEAAXQEB_W_K@Z 00000001800686c4 f i libucrt:wsetlocale.obj
 0001:00067704       ?detach@?$__crt_unique_heap_ptr@U__crt_locale_data@@U__crt_internal_free_policy@@@@QEAAPEAU__crt_locale_data@@XZ 0000000180068704 f i libucrt:wsetlocale.obj
 0001:0006770c       ?detach@?$__crt_unique_heap_ptr@U__crt_locale_pointers@@U__crt_internal_free_policy@@@@QEAAPEAU__crt_locale_pointers@@XZ 000000018006870c f i libucrt:wsetlocale.obj
 0001:00067714       ?get@?$__crt_unique_heap_ptr@U__crt_locale_data@@U__crt_internal_free_policy@@@@QEBAPEAU__crt_locale_data@@XZ 0000000180068714 f i libucrt:wsetlocale.obj
 0001:00067718       ?get@?$__crt_unique_heap_ptr@U__crt_locale_pointers@@U__crt_internal_free_policy@@@@QEBAPEAU__crt_locale_pointers@@XZ 0000000180068718 f i libucrt:wsetlocale.obj
 0001:0006771c       ?is_valid@?$__crt_unique_heap_ptr@U__crt_locale_data@@U__crt_internal_free_policy@@@@QEBA_NXZ 000000018006871c f i libucrt:wsetlocale.obj
 0001:00067724       ?is_valid@?$__crt_unique_heap_ptr@U__crt_locale_pointers@@U__crt_internal_free_policy@@@@QEBA_NXZ 0000000180068724 f i libucrt:wsetlocale.obj
 0001:0006772c       ?release@?$__crt_unique_heap_ptr@U__crt_locale_data@@U__crt_internal_free_policy@@@@QEAAXXZ 000000018006872c f i libucrt:wsetlocale.obj
 0001:00067748       ?release@?$__crt_unique_heap_ptr@U__crt_locale_pointers@@U__crt_internal_free_policy@@@@QEAAXXZ 0000000180068748 f i libucrt:wsetlocale.obj
 0001:00067764       __acrt_copy_locale_name    0000000180068764 f   libucrt:wsetlocale.obj
 0001:000677e8       __acrt_set_locale_changed  00000001800687e8 f   libucrt:wsetlocale.obj
 0001:000677f4       __acrt_uninitialize_locale 00000001800687f4 f   libucrt:wsetlocale.obj
 0001:00067824       __ascii_tolower            0000000180068824 f i libucrt:wsetlocale.obj
 0001:00067834       __ascii_towlower           0000000180068834 f i libucrt:wsetlocale.obj
 0001:00067844       __lc_lctowcs               0000000180068844 f   libucrt:wsetlocale.obj
 0001:000678e8       __lc_wcstolc               00000001800688e8 f   libucrt:wsetlocale.obj
 0001:00067a50       _configthreadlocale        0000000180068a50 f   libucrt:wsetlocale.obj
 0001:00067b7c       _create_locale             0000000180068b7c f   libucrt:wsetlocale.obj
 0001:00068074       _free_locale               0000000180069074 f   libucrt:wsetlocale.obj
 0001:00068118       _get_current_locale        0000000180069118 f   libucrt:wsetlocale.obj
 0001:000681d4       _wcreate_locale            00000001800691d4 f   libucrt:wsetlocale.obj
 0001:0006831c       _wcscats                   000000018006931c f   libucrt:wsetlocale.obj
 0001:00068384       _wsetlocale                0000000180069384 f   libucrt:wsetlocale.obj
 0001:000691c4       __pctype_func              000000018006a1c4 f   libucrt:ctype.obj
 0001:000691f4       __pwctype_func             000000018006a1f4 f   libucrt:ctype.obj
 0001:000691fc       _iswctype_l                000000018006a1fc f   libucrt:iswctype.obj
 0001:00069204       iswctype                   000000018006a204 f   libucrt:iswctype.obj
 0001:00069270       _isctype                   000000018006a270 f   libucrt:isctype.obj
 0001:000692a0       _isctype_l                 000000018006a2a0 f   libucrt:isctype.obj
 0001:000693a8       _isleadbyte_fast_internal  000000018006a3a8 f i libucrt:isctype.obj
 0001:000693d0       _get_fpsr                  000000018006a3d0 f   libucrt:fpsr.obj
 0001:000693e0       _set_fpsr                  000000018006a3e0 f   libucrt:fpsr.obj
 0001:000693ea       _fclrf                     000000018006a3ea f   libucrt:fpsr.obj
 0001:000693fe       _frnd                      000000018006a3fe f   libucrt:fpsr.obj
 0001:00069420       _errcode                   000000018006a420 f   libucrt:fpexcept.obj
 0001:00069464       _except1                   000000018006a464 f   libucrt:fpexcept.obj
 0001:00069558       _except2                   000000018006a558 f   libucrt:fpexcept.obj
 0001:00069694       _handle_exc                000000018006a694 f   libucrt:fpexcept.obj
 0001:000698fc       _handle_qnan2              000000018006a8fc f   libucrt:fpexcept.obj
 0001:00069904       _raise_exc                 000000018006a904 f   libucrt:fpexcept.obj
 0001:0006992c       _raise_exc_ex              000000018006a92c f   libucrt:fpexcept.obj
 0001:00069c3c       _raise_excf                000000018006ac3c f   libucrt:fpexcept.obj
 0001:00069c68       _set_errno_from_matherr    000000018006ac68 f   libucrt:fpexcept.obj
 0001:00069c98       _umatherr                  000000018006ac98 f   libucrt:fpexcept.obj
 0001:00069d6c       nexttoward                 000000018006ad6c f   libucrt:nexttoward.obj
 0001:00069ed4       nexttowardf                000000018006aed4 f   libucrt:nexttowardf.obj
 0001:0006a010       __acrt_add_locale_ref      000000018006b010 f   libucrt:locale_refcounting.obj
 0001:0006a09c       __acrt_free_locale         000000018006b09c f   libucrt:locale_refcounting.obj
 0001:0006a214       __acrt_locale_add_lc_time_reference 000000018006b214 f   libucrt:locale_refcounting.obj
 0001:0006a23c       __acrt_locale_free_lc_time_if_unreferenced 000000018006b23c f   libucrt:locale_refcounting.obj
 0001:0006a274       __acrt_locale_release_lc_time_reference 000000018006b274 f   libucrt:locale_refcounting.obj
 0001:0006a29c       __acrt_release_locale_ref  000000018006b29c f   libucrt:locale_refcounting.obj
 0001:0006a344       __acrt_update_thread_locale_data 000000018006b344 f   libucrt:locale_refcounting.obj
 0001:0006a3b4       _updatetlocinfoEx_nolock   000000018006b3b4 f   libucrt:locale_refcounting.obj
 0001:0006a41c       ?value@?$dual_state_global@J@__crt_state_management@@QEAAAEAJXZ 000000018006b41c f i libucrt:new_mode.obj
 0001:0006a420       _query_new_mode            000000018006b420 f   libucrt:new_mode.obj
 0001:0006a428       _set_new_mode              000000018006b428 f   libucrt:new_mode.obj
 0001:0006a550       qsort                      000000018006b550 f   libucrt:qsort.obj
 0001:0006a9cc       wcsncpy_s                  000000018006b9cc f   libucrt:wcsncpy_s.obj
 0001:0006aab0       wcspbrk                    000000018006bab0 f   libucrt:wcspbrk.obj
 0001:0006abac       strncpy_s                  000000018006bbac f   libucrt:strncpy_s.obj
 0001:0006ad20       strpbrk                    000000018006bd20 f   libucrt:strpbrk.obj
 0001:0006b0e8       _mbsdec                    000000018006c0e8 f   libucrt:mbsdec.obj
 0001:0006b0f0       _mbsdec_l                  000000018006c0f0 f   libucrt:mbsdec.obj
 0001:0006b184       ??0?$__crt_scoped_stack_ptr@_W@@QEAA@U?$__crt_scoped_stack_ptr_tag@_W@@@Z 000000018006c184 f i libucrt:getstringtypea.obj
 0001:0006b18c       ??0?$__crt_scoped_stack_ptr_tag@_W@@QEAA@QEA_W@Z 000000018006c18c f i libucrt:getstringtypea.obj
 0001:0006b194       ??1?$__crt_scoped_stack_ptr@_W@@QEAA@XZ 000000018006c194 f i libucrt:getstringtypea.obj
 0001:0006b1b8       ?get@?$__crt_scoped_stack_ptr@_W@@QEBAPEA_WXZ 000000018006c1b8 f i libucrt:getstringtypea.obj
 0001:0006b1bc       _MallocaComputeSize        000000018006c1bc f i libucrt:getstringtypea.obj
 0001:0006b1cc       _MarkAllocaS               000000018006c1cc f i libucrt:getstringtypea.obj
 0001:0006b1dc       __acrt_GetStringTypeA      000000018006c1dc f   libucrt:getstringtypea.obj
 0001:0006b36c       _freea_crt                 000000018006c36c f i libucrt:getstringtypea.obj
 0001:0006b38c       ??B?$__crt_scoped_stack_ptr@_W@@QEBA_NXZ 000000018006c38c f i libucrt:lcmapstringa.obj
 0001:0006b6ac       __acrt_LCMapStringA        000000018006c6ac f   libucrt:lcmapstringa.obj
 0001:0006b75c       _wcsnicoll                 000000018006c75c f   libucrt:wcsnicol.obj
 0001:0006b7ac       _wcsnicoll_l               000000018006c7ac f   libucrt:wcsnicol.obj
 0001:0006b89c       _strnicoll                 000000018006c89c f   libucrt:strnicol.obj
 0001:0006b8b4       _strnicoll_l               000000018006c8b4 f   libucrt:strnicol.obj
 0001:0006bb58       __acrt_SetEnvironmentVariableA 000000018006cb58 f   libucrt:setenvironmentvariablea.obj
 0001:0006bcf0       _msize                     000000018006ccf0 f   libucrt:msize.obj
 0001:0006bcf8       _msize_base                000000018006ccf8 f   libucrt:msize.obj
 0001:0006bd34       _realloc_base              000000018006cd34 f   libucrt:realloc_base.obj
 0001:0006be84       __acrt_DownlevelLCIDToLocaleName 000000018006ce84 f   libucrt:lcidtoname_downlevel.obj
 0001:0006bf78       __acrt_DownlevelLocaleNameToLCID 000000018006cf78 f   libucrt:lcidtoname_downlevel.obj
 0001:0006c028       ??$?RU__crt_lowio_handle_data@@@__crt_internal_free_policy@@QEBAXQEBU__crt_lowio_handle_data@@@Z 000000018006d028 f i libucrt:osfinfo.obj
 0001:0006c030       ??0?$__crt_unique_heap_ptr@U__crt_lowio_handle_data@@U__crt_internal_free_policy@@@@QEAA@QEAU__crt_lowio_handle_data@@@Z 000000018006d030 f i libucrt:osfinfo.obj
 0001:0006c038       ??1?$__crt_unique_heap_ptr@U__crt_lowio_handle_data@@U__crt_internal_free_policy@@@@QEAA@XZ 000000018006d038 f i libucrt:osfinfo.obj
 0001:0006c054       ??B?$__crt_unique_heap_ptr@U__crt_lowio_handle_data@@U__crt_internal_free_policy@@@@QEBA_NXZ 000000018006d054 f i libucrt:osfinfo.obj
 0001:0006c05c       ?detach@?$__crt_unique_heap_ptr@U__crt_lowio_handle_data@@U__crt_internal_free_policy@@@@QEAAPEAU__crt_lowio_handle_data@@XZ 000000018006d05c f i libucrt:osfinfo.obj
 0001:0006c064       ?get@?$__crt_unique_heap_ptr@U__crt_lowio_handle_data@@U__crt_internal_free_policy@@@@QEBAPEAU__crt_lowio_handle_data@@XZ 000000018006d064 f i libucrt:osfinfo.obj
 0001:0006c068       ?is_valid@?$__crt_unique_heap_ptr@U__crt_lowio_handle_data@@U__crt_internal_free_policy@@@@QEBA_NXZ 000000018006d068 f i libucrt:osfinfo.obj
 0001:0006c070       ?release@?$__crt_unique_heap_ptr@U__crt_lowio_handle_data@@U__crt_internal_free_policy@@@@QEAAXXZ 000000018006d070 f i libucrt:osfinfo.obj
 0001:0006c08c       __acrt_lowio_create_handle_array 000000018006d08c f   libucrt:osfinfo.obj
 0001:0006c134       __acrt_lowio_destroy_handle_array 000000018006d134 f   libucrt:osfinfo.obj
 0001:0006c184       __acrt_lowio_ensure_fh_exists 000000018006d184 f   libucrt:osfinfo.obj
 0001:0006c22c       __acrt_lowio_lock_fh       000000018006d22c f   libucrt:osfinfo.obj
 0001:0006c254       __acrt_lowio_set_os_handle 000000018006d254 f   libucrt:osfinfo.obj
 0001:0006c314       __acrt_lowio_unlock_fh     000000018006d314 f   libucrt:osfinfo.obj
 0001:0006c33c       _alloc_osfhnd              000000018006d33c f   libucrt:osfinfo.obj
 0001:0006c47c       _free_osfhnd               000000018006d47c f   libucrt:osfinfo.obj
 0001:0006c538       _get_osfhandle             000000018006d538 f   libucrt:osfinfo.obj
 0001:0006c5b0       _open_osfhandle            000000018006d5b0 f   libucrt:osfinfo.obj
 0001:0006c7fc       _commit                    000000018006d7fc f   libucrt:commit.obj
 0001:0006d2a0       _utf8_no_of_trailbytes     000000018006e2a0 f i libucrt:write.obj
 0001:0006d2b0       _write                     000000018006e2b0 f   libucrt:write.obj
 0001:0006d39c       _write_nolock              000000018006e39c f   libucrt:write.obj
 0001:0006d680       localeconv                 000000018006e680 f   libucrt:localeconv.obj
 0001:0006d6b4       ?is_in_use@__crt_stdio_stream@@QEBA_NXZ 000000018006e6b4 f i libucrt:closeall.obj
 0001:0006d6c0       _fcloseall                 000000018006e6c0 f   libucrt:closeall.obj
 0001:0006d774       ?has_crt_buffer@__crt_stdio_stream@@QEBA_NXZ 000000018006e774 f i libucrt:_freebuf.obj
 0001:0006d780       __acrt_stdio_free_buffer_nolock 000000018006e780 f   libucrt:_freebuf.obj
 0001:0006d7c0       _isatty                    000000018006e7c0 f   libucrt:isatty.obj
 0001:0006d820       __iswcsym                  000000018006e820 f i libucrt:_wctype.obj
 0001:0006d84c       __iswcsymf                 000000018006e84c f i libucrt:_wctype.obj
 0001:0006d878       _isleadbyte_l              000000018006e878 f i libucrt:_wctype.obj
 0001:0006d8c4       _iswalnum_l                000000018006e8c4 f i libucrt:_wctype.obj
 0001:0006d8d0       _iswalpha_l                000000018006e8d0 f i libucrt:_wctype.obj
 0001:0006d8dc       _iswblank_l                000000018006e8dc f i libucrt:_wctype.obj
 0001:0006d8f4       _iswcntrl_l                000000018006e8f4 f i libucrt:_wctype.obj
 0001:0006d900       _iswcsym_l                 000000018006e900 f i libucrt:_wctype.obj
 0001:0006d92c       _iswcsymf_l                000000018006e92c f i libucrt:_wctype.obj
 0001:0006d958       _iswdigit_l                000000018006e958 f i libucrt:_wctype.obj
 0001:0006d964       _iswgraph_l                000000018006e964 f i libucrt:_wctype.obj
 0001:0006d970       _iswlower_l                000000018006e970 f i libucrt:_wctype.obj
 0001:0006d97c       _iswprint_l                000000018006e97c f i libucrt:_wctype.obj
 0001:0006d988       _iswpunct_l                000000018006e988 f i libucrt:_wctype.obj
 0001:0006d994       _iswspace_l                000000018006e994 f i libucrt:_wctype.obj
 0001:0006d9a0       _iswupper_l                000000018006e9a0 f i libucrt:_wctype.obj
 0001:0006d9ac       _iswxdigit_l               000000018006e9ac f i libucrt:_wctype.obj
 0001:0006d9b8       isleadbyte                 000000018006e9b8 f i libucrt:_wctype.obj
 0001:0006da08       iswalnum                   000000018006ea08 f i libucrt:_wctype.obj
 0001:0006da14       iswalpha                   000000018006ea14 f i libucrt:_wctype.obj
 0001:0006da20       iswascii                   000000018006ea20 f i libucrt:_wctype.obj
 0001:0006da30       iswblank                   000000018006ea30 f i libucrt:_wctype.obj
 0001:0006da48       iswcntrl                   000000018006ea48 f i libucrt:_wctype.obj
 0001:0006da54       iswdigit                   000000018006ea54 f i libucrt:_wctype.obj
 0001:0006da60       iswgraph                   000000018006ea60 f i libucrt:_wctype.obj
 0001:0006da6c       iswlower                   000000018006ea6c f i libucrt:_wctype.obj
 0001:0006da78       iswprint                   000000018006ea78 f i libucrt:_wctype.obj
 0001:0006da84       iswpunct                   000000018006ea84 f i libucrt:_wctype.obj
 0001:0006da90       iswspace                   000000018006ea90 f i libucrt:_wctype.obj
 0001:0006da9c       iswupper                   000000018006ea9c f i libucrt:_wctype.obj
 0001:0006daa8       iswxdigit                  000000018006eaa8 f i libucrt:_wctype.obj
 0001:0006dadc       ?__mbrtowc_utf8@__crt_mbstring@@YA_KPEA_WPEBD_KPEAU_Mbstatet@@@Z 000000018006eadc f   libucrt:mbrtowc.obj
 0001:0006db18       ?__mbsrtowcs_utf8@__crt_mbstring@@YA_KPEA_WPEAPEBD_KPEAU_Mbstatet@@@Z 000000018006eb18 f   libucrt:mbrtowc.obj
 0001:0006e044       btowc                      000000018006f044 f   libucrt:mbrtowc.obj
 0001:0006e0ac       mbrlen                     000000018006f0ac f   libucrt:mbrtowc.obj
 0001:0006e0ec       mbrtowc                    000000018006f0ec f   libucrt:mbrtowc.obj
 0001:0006e14c       mbsrtowcs                  000000018006f14c f   libucrt:mbrtowc.obj
 0001:0006e154       mbsrtowcs_s                000000018006f154 f   libucrt:mbrtowc.obj
 0001:0006e21c       ??$?RG@__crt_internal_free_policy@@QEBAXQEBG@Z 000000018006f21c f i libucrt:initctype.obj
 0001:0006e224       ??$?RJ@__crt_internal_free_policy@@QEBAXQEBJ@Z 000000018006f224 f i libucrt:initctype.obj
 0001:0006e22c       ??0?$__crt_unique_heap_ptr@GU__crt_internal_free_policy@@@@QEAA@QEAG@Z 000000018006f22c f i libucrt:initctype.obj
 0001:0006e234       ??0?$__crt_unique_heap_ptr@JU__crt_internal_free_policy@@@@QEAA@QEAJ@Z 000000018006f234 f i libucrt:initctype.obj
 0001:0006e23c       ??1?$__crt_unique_heap_ptr@GU__crt_internal_free_policy@@@@QEAA@XZ 000000018006f23c f i libucrt:initctype.obj
 0001:0006e258       ??1?$__crt_unique_heap_ptr@JU__crt_internal_free_policy@@@@QEAA@XZ 000000018006f258 f i libucrt:initctype.obj
 0001:0006e274       ?detach@?$__crt_unique_heap_ptr@GU__crt_internal_free_policy@@@@QEAAPEAGXZ 000000018006f274 f i libucrt:initctype.obj
 0001:0006e27c       ?detach@?$__crt_unique_heap_ptr@JU__crt_internal_free_policy@@@@QEAAPEAJXZ 000000018006f27c f i libucrt:initctype.obj
 0001:0006e284       ?release@?$__crt_unique_heap_ptr@GU__crt_internal_free_policy@@@@QEAAXXZ 000000018006f284 f i libucrt:initctype.obj
 0001:0006e2a0       ?release@?$__crt_unique_heap_ptr@JU__crt_internal_free_policy@@@@QEAAXXZ 000000018006f2a0 f i libucrt:initctype.obj
 0001:0006e2bc       ___lc_codepage_func        000000018006f2bc f   libucrt:initctype.obj
 0001:0006e2ec       ___lc_collate_cp_func      000000018006f2ec f   libucrt:initctype.obj
 0001:0006e31c       ___lc_locale_name_func     000000018006f31c f   libucrt:initctype.obj
 0001:0006e350       ___mb_cur_max_func         000000018006f350 f   libucrt:initctype.obj
 0001:0006e380       ___mb_cur_max_l_func       000000018006f380 f   libucrt:initctype.obj
 0001:0006e390       __acrt_locale_initialize_ctype 000000018006f390 f   libucrt:initctype.obj
 0001:0006e9f4       ?__c32rtomb_utf8@__crt_mbstring@@YA_KPEAD_UPEAU_Mbstatet@@@Z 000000018006f9f4 f   libucrt:c32rtomb.obj
 0001:0006eaa8       ?reset_and_return@__crt_mbstring@@YA_K_KPEAU_Mbstatet@@@Z 000000018006faa8 f i libucrt:c32rtomb.obj
 0001:0006eab0       ?return_illegal_sequence@__crt_mbstring@@YA_KPEAU_Mbstatet@@@Z 000000018006fab0 f i libucrt:c32rtomb.obj
 0001:0006eacc       c32rtomb                   000000018006facc f   libucrt:c32rtomb.obj
 0001:0006eb60       __acrt_fp_strflt_to_string 000000018006fb60 f   libucrt:_fptostr.obj
 0001:0006fe00       ??0big_integer@__crt_strtox@@QEAA@AEBU01@@Z 0000000180070e00 f i libucrt:cfout.obj
 0001:0006fe30       ??0big_integer@__crt_strtox@@QEAA@XZ 0000000180070e30 f i libucrt:cfout.obj
 0001:0006fe90       ??4big_integer@__crt_strtox@@QEAAAEAU01@AEBU01@@Z 0000000180070e90 f i libucrt:cfout.obj
 0001:0006fec0       ??8__crt_strtox@@YA_NAEBUbig_integer@0@0@Z 0000000180070ec0 f i libucrt:cfout.obj
 0001:0006fef0       ??9__crt_strtox@@YA_NAEBUbig_integer@0@0@Z 0000000180070ef0 f i libucrt:cfout.obj
 0001:0006ff30       ?add_carry@__crt_strtox@@YAIAEAIII@Z 0000000180070f30 f i libucrt:cfout.obj
 0001:0006ff50       ?add_multiply_carry@__crt_strtox@@YAIAEAIIII@Z 0000000180070f50 f i libucrt:cfout.obj
 0001:0006ff70       ?bit_scan_reverse@__crt_strtox@@YAII@Z 0000000180070f70 f i libucrt:cfout.obj
 0001:0006ff90       ?count_sequential_high_zeroes@__crt_strtox@@YAII@Z 0000000180070f90 f i libucrt:cfout.obj
 0001:0006ffb0       ?divide@__crt_strtox@@YA_KAEAUbig_integer@1@AEBU21@@Z 0000000180070fb0 f i libucrt:cfout.obj
 0001:000703e0       ?is_zero@__crt_strtox@@YA_NAEBUbig_integer@1@@Z 00000001800713e0 f i libucrt:cfout.obj
 0001:000703f0       ?make_big_integer@__crt_strtox@@YA?AUbig_integer@1@_K@Z 00000001800713f0 f i libucrt:cfout.obj
 0001:00070410       ?make_big_integer_power_of_two@__crt_strtox@@YA?AUbig_integer@1@I@Z 0000000180071410 f i libucrt:cfout.obj
 0001:00070480       ?multiply@__crt_strtox@@YA_NAEAUbig_integer@1@AEBU21@@Z 0000000180071480 f i libucrt:cfout.obj
 0001:00070830       ?multiply@__crt_strtox@@YA_NAEAUbig_integer@1@I@Z 0000000180071830 f i libucrt:cfout.obj
 0001:00070920       ?multiply_64_32@__crt_strtox@@YA_K_KI@Z 0000000180071920 f i libucrt:cfout.obj
 0001:00070930       ?multiply_by_power_of_ten@__crt_strtox@@YA_NAEAUbig_integer@1@I@Z 0000000180071930 f i libucrt:cfout.obj
 0001:00070ee0       ?multiply_core@__crt_strtox@@YAIQEAIII@Z 0000000180071ee0 f i libucrt:cfout.obj
 0001:00070f30       ?shift_left@__crt_strtox@@YA_NAEAUbig_integer@1@I@Z 0000000180071f30 f i libucrt:cfout.obj
 0001:000710ac       __acrt_fltout              00000001800720ac f   libucrt:cfout.obj
 0001:00072378       __fpe_flt_rounds           0000000180073378 f   libucrt:fegetround.obj
 0001:000723c0       fegetround                 00000001800733c0 f   libucrt:fegetround.obj
 0001:00072714       ?has_big_buffer@__crt_stdio_stream@@QEBA_NXZ 0000000180073714 f i libucrt:_flsbuf.obj
 0001:000727a0       __acrt_stdio_flush_and_write_narrow_nolock 00000001800737a0 f   libucrt:_flsbuf.obj
 0001:00072858       __acrt_stdio_flush_and_write_wide_nolock 0000000180073858 f   libucrt:_flsbuf.obj
 0001:00072914       ??$?RUlconv@@@__crt_internal_free_policy@@QEBAXQEBUlconv@@@Z 0000000180073914 f i libucrt:initmon.obj
 0001:0007291c       ??0?$__crt_unique_heap_ptr@Ulconv@@U__crt_internal_free_policy@@@@QEAA@QEAUlconv@@@Z 000000018007391c f i libucrt:initmon.obj
 0001:00072924       ??1?$__crt_unique_heap_ptr@Ulconv@@U__crt_internal_free_policy@@@@QEAA@XZ 0000000180073924 f i libucrt:initmon.obj
 0001:00072940       ?detach@?$__crt_unique_heap_ptr@Ulconv@@U__crt_internal_free_policy@@@@QEAAPEAUlconv@@XZ 0000000180073940 f i libucrt:initmon.obj
 0001:00072948       ?release@?$__crt_unique_heap_ptr@Ulconv@@U__crt_internal_free_policy@@@@QEAAXXZ 0000000180073948 f i libucrt:initmon.obj
 0001:00072964       __acrt_locale_free_monetary 0000000180073964 f   libucrt:initmon.obj
 0001:00072a70       __acrt_locale_initialize_monetary 0000000180073a70 f   libucrt:initmon.obj
 0001:00072fd8       __acrt_locale_free_numeric 0000000180073fd8 f   libucrt:initnum.obj
 0001:00073044       __acrt_locale_initialize_numeric 0000000180074044 f   libucrt:initnum.obj
 0001:00073360       ??$?RU__crt_lc_time_data@@@__crt_internal_free_policy@@QEBAXQEBU__crt_lc_time_data@@@Z 0000000180074360 f i libucrt:inittime.obj
 0001:000733b0       ??0?$__crt_unique_heap_ptr@U__crt_lc_time_data@@U__crt_internal_free_policy@@@@QEAA@QEAU__crt_lc_time_data@@@Z 00000001800743b0 f i libucrt:inittime.obj
 0001:000733b8       ??1?$__crt_unique_heap_ptr@U__crt_lc_time_data@@U__crt_internal_free_policy@@@@QEAA@XZ 00000001800743b8 f i libucrt:inittime.obj
 0001:000733d4       ??B?$__crt_unique_heap_ptr@U__crt_lc_time_data@@U__crt_internal_free_policy@@@@QEBA_NXZ 00000001800743d4 f i libucrt:inittime.obj
 0001:000733dc       ?detach@?$__crt_unique_heap_ptr@U__crt_lc_time_data@@U__crt_internal_free_policy@@@@QEAAPEAU__crt_lc_time_data@@XZ 00000001800743dc f i libucrt:inittime.obj
 0001:0007343c       ?get@?$__crt_unique_heap_ptr@U__crt_lc_time_data@@U__crt_internal_free_policy@@@@QEBAPEAU__crt_lc_time_data@@XZ 000000018007443c f i libucrt:inittime.obj
 0001:000737f8       ?is_valid@?$__crt_unique_heap_ptr@U__crt_lc_time_data@@U__crt_internal_free_policy@@@@QEBA_NXZ 00000001800747f8 f i libucrt:inittime.obj
 0001:00073800       ?release@?$__crt_unique_heap_ptr@U__crt_lc_time_data@@U__crt_internal_free_policy@@@@QEAAXXZ 0000000180074800 f i libucrt:inittime.obj
 0001:0007381c       __acrt_locale_free_time    000000018007481c f   libucrt:inittime.obj
 0001:00073924       __acrt_locale_initialize_time 0000000180074924 f   libucrt:inittime.obj
 0001:00073a48       wcscat_s                   0000000180074a48 f   libucrt:wcscat_s.obj
 0001:00073bc0       wcsncat_s                  0000000180074bc0 f   libucrt:wcsncat_s.obj
 0001:00073cc0       wcscspn                    0000000180074cc0 f   libucrt:wcscspn.obj
 0001:0007455c       __acrt_get_qualified_locale 000000018007555c f   libucrt:get_qualified_locale.obj
 0001:00075060       __acrt_get_qualified_locale_downlevel 0000000180076060 f   libucrt:getqloc_downlevel.obj
 0001:000752e0       __acrt_GetStringTypeW      00000001800762e0 f   libucrt:getstringtypew.obj
 0001:000752e8       _add_exp                   00000001800762e8 f   libucrt:util.obj
 0001:00075338       _decomp                    0000000180076338 f   libucrt:util.obj
 0001:00075468       _get_exp                   0000000180076468 f   libucrt:util.obj
 0001:00075488       _set_bexp                  0000000180076488 f   libucrt:util.obj
 0001:000754b8       _set_exp                   00000001800764b8 f   libucrt:util.obj
 0001:000754f0       _sptype                    00000001800764f0 f   libucrt:util.obj
 0001:000755f4       _d_int                     00000001800765f4 f   libucrt:_test.obj
 0001:0007570c       _dtest                     000000018007670c f   libucrt:_test.obj
 0001:00075770       _fd_int                    0000000180076770 f   libucrt:_test.obj
 0001:00075848       _fdtest                    0000000180076848 f   libucrt:_test.obj
 0001:00075894       _fperrraise                0000000180076894 f   libucrt:_test.obj
 0001:00075948       _ld_int                    0000000180076948 f   libucrt:_test.obj
 0001:00075950       _ldtest                    0000000180076950 f   libucrt:_test.obj
 0001:00075958       __strncnt                  0000000180076958 f   libucrt:strncnt.obj
 0001:00075970       __acrt_CompareStringW      0000000180076970 f   libucrt:comparestringw.obj
 0001:00075a30       __ascii_wcsnicmp           0000000180076a30 f   libucrt:wcsnicmp.obj
 0001:00075a7c       _towlower_fast_internal    0000000180076a7c f i libucrt:wcsnicmp.obj
 0001:00075aa4       _towlower_internal         0000000180076aa4 f i libucrt:wcsnicmp.obj
 0001:00075ad8       _wcsnicmp                  0000000180076ad8 f   libucrt:wcsnicmp.obj
 0001:00075b20       _wcsnicmp_l                0000000180076b20 f   libucrt:wcsnicmp.obj
 0001:00075c70       __ascii_strnicmp           0000000180076c70 f   libucrt:strnicmp.obj
 0001:00075cbc       _strnicmp                  0000000180076cbc f   libucrt:strnicmp.obj
 0001:00075d0c       _strnicmp_l                0000000180076d0c f   libucrt:strnicmp.obj
 0001:0007611c       __acrt_CompareStringA      000000018007711c f   libucrt:comparestringa.obj
 0001:00076280       __acrt_report_runtime_error 0000000180077280 f   libucrt:report_runtime_error.obj
 0001:000763e0       _query_app_type            00000001800773e0 f   libucrt:report_runtime_error.obj
 0001:000763e8       _set_app_type              00000001800773e8 f   libucrt:report_runtime_error.obj
 0001:00076830       _lseek                     0000000180077830 f   libucrt:lseek.obj
 0001:00076838       _lseek_nolock              0000000180077838 f   libucrt:lseek.obj
 0001:00076840       _lseeki64                  0000000180077840 f   libucrt:lseek.obj
 0001:00076848       _lseeki64_nolock           0000000180077848 f   libucrt:lseek.obj
 0001:000768ec       _putwch                    00000001800778ec f   libucrt:putwch.obj
 0001:00076928       _putwch_nolock             0000000180077928 f   libucrt:putwch.obj
 0001:00077168       _read                      0000000180078168 f   libucrt:read.obj
 0001:00077284       _read_nolock               0000000180078284 f   libucrt:read.obj
 0001:000776dc       _fclose_nolock             00000001800786dc f   libucrt:fclose.obj
 0001:00077760       fclose                     0000000180078760 f   libucrt:fclose.obj
 0001:000777c4       ?__mbrtoc32_utf8@__crt_mbstring@@YA_KPEA_UPEBD_KPEAU_Mbstatet@@@Z 00000001800787c4 f   libucrt:mbrtoc32.obj
 0001:0007799c       mbrtoc32                   000000018007899c f   libucrt:mbrtoc32.obj
 0001:00077b20       __acrt_GetLocaleInfoA      0000000180078b20 f   libucrt:getlocaleinfoa.obj
 0001:00077ce8       _controlfp_s               0000000180078ce8 f   libucrt:contrlfp.obj
 0001:00077d4c       fegetenv                   0000000180078d4c f   libucrt:fegetenv.obj
 0001:00077d6c       fesetenv                   0000000180078d6c f   libucrt:fesetenv.obj
 0001:00077db8       feholdexcept               0000000180078db8 f   libucrt:feholdexcept.obj
 0001:00077e08       ceil                       0000000180078e08 f   libucrt:ceil.obj
 0001:00077ed0       log10                      0000000180078ed0 f   libucrt:log10.obj
 0001:0007847c       ??$__acrt_fenv_shift_bits@W4__acrt_fenv_abstract_control@@@@YA?AW4__acrt_fenv_abstract_control@@W40@0I@Z 000000018007947c f i libucrt:_fenvutils.obj
 0001:00078488       ??$__acrt_fenv_shift_bits@W4__acrt_fenv_abstract_status@@@@YA?AW4__acrt_fenv_abstract_status@@W40@0I@Z 0000000180079488 f i libucrt:_fenvutils.obj
 0001:00078494       ??$__acrt_fenv_translate_bit@W4__acrt_fenv_abstract_control@@W4__acrt_fenv_machine_sse_control@@@@YA?AW4__acrt_fenv_abstract_control@@W4__acrt_fenv_machine_sse_control@@0W40@1@Z 0000000180079494 f i libucrt:_fenvutils.obj
 0001:000784a0       ??$__acrt_fenv_translate_bit@W4__acrt_fenv_abstract_status@@W4__acrt_fenv_machine_sse_status@@@@YA?AW4__acrt_fenv_abstract_status@@W4__acrt_fenv_machine_sse_status@@0W40@1@Z 00000001800794a0 f i libucrt:_fenvutils.obj
 0001:000784ac       ??$__acrt_fenv_translate_bit@W4__acrt_fenv_machine_sse_control@@W4__acrt_fenv_abstract_control@@@@YA?AW4__acrt_fenv_machine_sse_control@@W4__acrt_fenv_abstract_control@@0W40@1@Z 00000001800794ac f i libucrt:_fenvutils.obj
 0001:000784b8       ??$__acrt_fenv_translate_bit@W4__acrt_fenv_machine_sse_status@@W4__acrt_fenv_abstract_status@@@@YA?AW4__acrt_fenv_machine_sse_status@@W4__acrt_fenv_abstract_status@@0W40@1@Z 00000001800794b8 f i libucrt:_fenvutils.obj
 0001:000784c4       ??$__acrt_fenv_unshift_bits@W4__acrt_fenv_abstract_control@@@@YA?AW4__acrt_fenv_abstract_control@@W40@0I@Z 00000001800794c4 f i libucrt:_fenvutils.obj
 0001:000784d0       ??$__acrt_fenv_unshift_bits@W4__acrt_fenv_abstract_status@@@@YA?AW4__acrt_fenv_abstract_status@@W40@0I@Z 00000001800794d0 f i libucrt:_fenvutils.obj
 0001:00078728       ??I@YA?AW4__acrt_fenv_abstract_control@@W40@0@Z 0000000180079728 f i libucrt:_fenvutils.obj
 0001:00078730       ??I@YA?AW4__acrt_fenv_abstract_status@@W40@0@Z 0000000180079730 f i libucrt:_fenvutils.obj
 0001:00078738       ??I@YA?AW4__acrt_fenv_machine_sse_control@@W40@0@Z 0000000180079738 f i libucrt:_fenvutils.obj
 0001:00078740       ??I@YA?AW4__acrt_fenv_machine_sse_status@@W40@0@Z 0000000180079740 f i libucrt:_fenvutils.obj
 0001:00078748       ??U@YA?AW4__acrt_fenv_abstract_control@@W40@0@Z 0000000180079748 f i libucrt:_fenvutils.obj
 0001:00078750       ??U@YA?AW4__acrt_fenv_abstract_status@@W40@0@Z 0000000180079750 f i libucrt:_fenvutils.obj
 0001:00078758       ??U@YA?AW4__acrt_fenv_machine_sse_control@@W40@0@Z 0000000180079758 f i libucrt:_fenvutils.obj
 0001:00078760       ??_5@YAAEAW4__acrt_fenv_abstract_control@@AEAW40@W40@@Z 0000000180079760 f i libucrt:_fenvutils.obj
 0001:00078768       ??_5@YAAEAW4__acrt_fenv_abstract_status@@AEAW40@W40@@Z 0000000180079768 f i libucrt:_fenvutils.obj
 0001:00078770       ??_5@YAAEAW4__acrt_fenv_machine_sse_control@@AEAW40@W40@@Z 0000000180079770 f i libucrt:_fenvutils.obj
 0001:00078778       ??_5@YAAEAW4__acrt_fenv_machine_sse_status@@AEAW40@W40@@Z 0000000180079778 f i libucrt:_fenvutils.obj
 0001:00078780       ?__acrt_fenv_shift_abstract_sse_control@@YA?AW4__acrt_fenv_abstract_control@@W41@@Z 0000000180079780 f i libucrt:_fenvutils.obj
 0001:00078794       ?__acrt_fenv_shift_abstract_sse_status@@YA?AW4__acrt_fenv_abstract_status@@W41@@Z 0000000180079794 f i libucrt:_fenvutils.obj
 0001:000787a0       ?__acrt_fenv_unshift_abstract_sse_control@@YA?AW4__acrt_fenv_abstract_control@@W41@@Z 00000001800797a0 f i libucrt:_fenvutils.obj
 0001:000787b8       ?__acrt_fenv_unshift_abstract_sse_status@@YA?AW4__acrt_fenv_abstract_status@@W41@@Z 00000001800797b8 f i libucrt:_fenvutils.obj
 0001:00078af8       __acrt_fenv_expand_round_control 0000000180079af8 f   libucrt:_fenvutils.obj
 0001:00078b10       __acrt_fenv_get_common_round_control 0000000180079b10 f   libucrt:_fenvutils.obj
 0001:00078b1c       __acrt_fenv_get_control    0000000180079b1c f   libucrt:_fenvutils.obj
 0001:00078c10       __acrt_fenv_get_fp_status_word_from_exception_mask 0000000180079c10 f   libucrt:_fenvutils.obj
 0001:00078c1c       __acrt_fenv_get_status     0000000180079c1c f   libucrt:_fenvutils.obj
 0001:00078c70       __acrt_fenv_set_control    0000000180079c70 f   libucrt:_fenvutils.obj
 0001:00078db8       __acrt_fenv_set_status     0000000180079db8 f   libucrt:_fenvutils.obj
 0001:00078e3c       __acrt_stdio_allocate_buffer_nolock 0000000180079e3c f   libucrt:_getbuf.obj
 0001:00079394       _i64toa                    000000018007a394 f   libucrt:xtoa.obj
 0001:000793c8       _i64toa_s                  000000018007a3c8 f   libucrt:xtoa.obj
 0001:000793ec       _i64tow                    000000018007a3ec f   libucrt:xtoa.obj
 0001:00079420       _i64tow_s                  000000018007a420 f   libucrt:xtoa.obj
 0001:00079444       _itoa                      000000018007a444 f   libucrt:xtoa.obj
 0001:00079474       _itoa_s                    000000018007a474 f   libucrt:xtoa.obj
 0001:00079494       _itow                      000000018007a494 f   libucrt:xtoa.obj
 0001:000794c4       _itow_s                    000000018007a4c4 f   libucrt:xtoa.obj
 0001:000794e4       _ltoa                      000000018007a4e4 f   libucrt:xtoa.obj
 0001:00079514       _ltoa_s                    000000018007a514 f   libucrt:xtoa.obj
 0001:00079534       _ltow                      000000018007a534 f   libucrt:xtoa.obj
 0001:00079564       _ltow_s                    000000018007a564 f   libucrt:xtoa.obj
 0001:00079584       _ui64toa                   000000018007a584 f   libucrt:xtoa.obj
 0001:000795a8       _ui64toa_s                 000000018007a5a8 f   libucrt:xtoa.obj
 0001:000795bc       _ui64tow                   000000018007a5bc f   libucrt:xtoa.obj
 0001:000795e0       _ui64tow_s                 000000018007a5e0 f   libucrt:xtoa.obj
 0001:000795f4       _ultoa                     000000018007a5f4 f   libucrt:xtoa.obj
 0001:00079618       _ultoa_s                   000000018007a618 f   libucrt:xtoa.obj
 0001:0007962c       _ultow                     000000018007a62c f   libucrt:xtoa.obj
 0001:00079650       _ultow_s                   000000018007a650 f   libucrt:xtoa.obj
 0001:00079664       __ascii_wcsicmp            000000018007a664 f   libucrt:wcsicmp.obj
 0001:000796a4       _wcsicmp                   000000018007a6a4 f   libucrt:wcsicmp.obj
 0001:000796ec       _wcsicmp_l                 000000018007a6ec f   libucrt:wcsicmp.obj
 0001:00079814       wcscmp                     000000018007a814 f   libucrt:wcscmp.obj
 0001:0007984c       ??_4@YAAEAW4__acrt_fenv_abstract_status@@AEAW40@W40@@Z 000000018007a84c f i libucrt:fegetexceptflag.obj
 0001:00079854       fegetexceptflag            000000018007a854 f   libucrt:fegetexceptflag.obj
 0001:00079898       ??S@YA?AW4__acrt_fenv_abstract_status@@W40@@Z 000000018007a898 f i libucrt:fesetexceptflag.obj
 0001:000798a0       fesetexceptflag            000000018007a8a0 f   libucrt:fesetexceptflag.obj
 0001:00079910       _towlower_l                000000018007a910 f   libucrt:towlower.obj
 0001:000799cc       towlower                   000000018007a9cc f   libucrt:towlower.obj
 0001:000799d4       _set_error_mode            000000018007a9d4 f   libucrt:set_error_mode.obj
 0001:00079b5c       ??$message_box@$$TAEBQEBDAEBQEBDK@?$__crt_char_traits@D@@SAH$$QEA$$TAEBQEBD1$$QEAK@Z 000000018007ab5c f i libucrt:crtmbox.obj
 0001:00079b70       ??$message_box@$$TAEBQEB_WAEBQEB_WK@?$__crt_char_traits@_W@@SAH$$QEA$$TAEBQEB_W1$$QEAK@Z 000000018007ab70 f i libucrt:crtmbox.obj
 0001:00079b84       ??$message_box@PEAUHWND__@@AEBQEBDAEBQEBDAEBI@?$__crt_char_traits@D@@SAH$$QEAPEAUHWND__@@AEBQEBD1AEBI@Z 000000018007ab84 f i libucrt:crtmbox.obj
 0001:00079b98       ??$message_box@PEAUHWND__@@AEBQEB_WAEBQEB_WAEBI@?$__crt_char_traits@_W@@SAH$$QEAPEAUHWND__@@AEBQEB_W1AEBI@Z 000000018007ab98 f i libucrt:crtmbox.obj
 0001:00079bac       ??$output_debug_string@AEBQEBD@?$__crt_char_traits@D@@SAXAEBQEBD@Z 000000018007abac f i libucrt:crtmbox.obj
 0001:00079bb4       ??$output_debug_string@AEBQEB_W@?$__crt_char_traits@_W@@SAXAEBQEB_W@Z 000000018007abb4 f i libucrt:crtmbox.obj
 0001:00079bc0       __acrt_show_narrow_message_box 000000018007abc0 f   libucrt:crtmbox.obj
 0001:00079c64       __acrt_show_wide_message_box 000000018007ac64 f   libucrt:crtmbox.obj
 0001:00079e30       __dcrt_lowio_ensure_console_output_initialized 000000018007ae30 f   libucrt:initcon.obj
 0001:00079e84       __dcrt_terminate_console_output 000000018007ae84 f   libucrt:initcon.obj
 0001:00079ea0       __dcrt_write_console       000000018007aea0 f   libucrt:initcon.obj
 0001:0007a0f0       _close                     000000018007b0f0 f   libucrt:close.obj
 0001:0007a194       _close_nolock              000000018007b194 f   libucrt:close.obj
 0001:0007a254       ??$?RU__crt_stdio_stream_data@@@__crt_internal_free_policy@@QEBAXQEBU__crt_stdio_stream_data@@@Z 000000018007b254 f i libucrt:stream.obj
 0001:0007a25c       ??0?$__crt_unique_heap_ptr@U__crt_stdio_stream_data@@U__crt_internal_free_policy@@@@QEAA@QEAU__crt_stdio_stream_data@@@Z 000000018007b25c f i libucrt:stream.obj
 0001:0007a264       ??0__crt_stdio_stream@@QEAA@XZ 000000018007b264 f i libucrt:stream.obj
 0001:0007a26c       ??1?$__crt_unique_heap_ptr@U__crt_stdio_stream_data@@U__crt_internal_free_policy@@@@QEAA@XZ 000000018007b26c f i libucrt:stream.obj
 0001:0007a288       ?__acrt_stdio_allocate_stream@@YA?AV__crt_stdio_stream@@XZ 000000018007b288 f   libucrt:stream.obj
 0001:0007a2e0       ?__acrt_stdio_free_stream@@YAXV__crt_stdio_stream@@@Z 000000018007b2e0 f   libucrt:stream.obj
 0001:0007a2fc       ?deallocate@__crt_stdio_stream@@QEAAXXZ 000000018007b2fc f i libucrt:stream.obj
 0001:0007a308       ?detach@?$__crt_unique_heap_ptr@U__crt_stdio_stream_data@@U__crt_internal_free_policy@@@@QEAAPEAU__crt_stdio_stream_data@@XZ 000000018007b308 f i libucrt:stream.obj
 0001:0007a3fc       ?lock@__crt_stdio_stream@@QEBAXXZ 000000018007b3fc f i libucrt:stream.obj
 0001:0007a404       ?release@?$__crt_unique_heap_ptr@U__crt_stdio_stream_data@@U__crt_internal_free_policy@@@@QEAAXXZ 000000018007b404 f i libucrt:stream.obj
 0001:0007a420       ?try_allocate@__crt_stdio_stream@@QEAA_NXZ 000000018007b420 f i libucrt:stream.obj
 0001:0007a440       ?unlock@__crt_stdio_stream@@QEBAXXZ 000000018007b440 f i libucrt:stream.obj
 0001:0007a56c       _clearfp                   000000018007b56c f   libucrt:ieee.obj
 0001:0007a5dc       _control87                 000000018007b5dc f   libucrt:ieee.obj
 0001:0007a5e4       _controlfp                 000000018007b5e4 f   libucrt:ieee.obj
 0001:0007a5f0       _fpreset                   000000018007b5f0 f   libucrt:ieee.obj
 0001:0007a6bc       _set_controlfp             000000018007b6bc f   libucrt:ieee.obj
 0001:0007a6f0       _statusfp                  000000018007b6f0 f   libucrt:ieee.obj
 0001:0007aa20       _log10_special             000000018007ba20 f   libucrt:log_special.obj
 0001:0007aa40       _log10f_special            000000018007ba40 f   libucrt:log_special.obj
 0001:0007aa60       _log_special               000000018007ba60 f   libucrt:log_special.obj
 0001:0007ab18       _logf_special              000000018007bb18 f   libucrt:log_special.obj
 0001:0007abd4       fetestexcept               000000018007bbd4 f   libucrt:fetestexcept.obj
 0001:0007abf8       __acrt_LCMapStringW        000000018007bbf8 f   libucrt:lcmapstringw.obj
 0001:0007ac80       __acrt_OutputDebugStringA  000000018007bc80 f   libucrt:outputdebugstringa.obj
 0001:0007af1c       _mbstowcs_l                000000018007bf1c f   libucrt:mbstowcs.obj
 0001:0007af24       _mbstowcs_s_l              000000018007bf24 f   libucrt:mbstowcs.obj
 0001:0007b058       mbstowcs                   000000018007c058 f   libucrt:mbstowcs.obj
 0001:0007b074       mbstowcs_s                 000000018007c074 f   libucrt:mbstowcs.obj
 0001:0007b092       RaiseException             000000018007c092 f   kernel32:KERNEL32.dll
 0001:0007b098       GetLastError               000000018007c098 f   kernel32:KERNEL32.dll
 0001:0007b09e       GetSystemInfo              000000018007c09e f   kernel32:KERNEL32.dll
 0001:0007b0a4       VirtualProtect             000000018007c0a4 f   kernel32:KERNEL32.dll
 0001:0007b0aa       VirtualQuery               000000018007c0aa f   kernel32:KERNEL32.dll
 0001:0007b0b0       FreeLibrary                000000018007c0b0 f   kernel32:KERNEL32.dll
 0001:0007b0b6       GetModuleHandleW           000000018007c0b6 f   kernel32:KERNEL32.dll
 0001:0007b0bc       GetProcAddress             000000018007c0bc f   kernel32:KERNEL32.dll
 0001:0007b0c2       LoadLibraryExA             000000018007c0c2 f   kernel32:KERNEL32.dll
 0001:0007b0c8       InitializeSListHead        000000018007c0c8 f   kernel32:KERNEL32.dll
 0001:0007b0ce       QueryPerformanceCounter    000000018007c0ce f   kernel32:KERNEL32.dll
 0001:0007b0d4       GetCurrentProcessId        000000018007c0d4 f   kernel32:KERNEL32.dll
 0001:0007b0da       GetCurrentThreadId         000000018007c0da f   kernel32:KERNEL32.dll
 0001:0007b0e0       GetSystemTimeAsFileTime    000000018007c0e0 f   kernel32:KERNEL32.dll
 0001:0007b0e6       RtlCaptureContext          000000018007c0e6 f   kernel32:KERNEL32.dll
 0001:0007b0ec       RtlLookupFunctionEntry     000000018007c0ec f   kernel32:KERNEL32.dll
 0001:0007b0f2       RtlVirtualUnwind           000000018007c0f2 f   kernel32:KERNEL32.dll
 0001:0007b0f8       IsDebuggerPresent          000000018007c0f8 f   kernel32:KERNEL32.dll
 0001:0007b0fe       UnhandledExceptionFilter   000000018007c0fe f   kernel32:KERNEL32.dll
 0001:0007b104       SetUnhandledExceptionFilter 000000018007c104 f   kernel32:KERNEL32.dll
 0001:0007b10a       GetStartupInfoW            000000018007c10a f   kernel32:KERNEL32.dll
 0001:0007b110       IsProcessorFeaturePresent  000000018007c110 f   kernel32:KERNEL32.dll
 0001:0007b116       InterlockedPushEntrySList  000000018007c116 f   kernel32:KERNEL32.dll
 0001:0007b11c       InterlockedFlushSList      000000018007c11c f   kernel32:KERNEL32.dll
 0001:0007b122       RtlUnwindEx                000000018007c122 f   kernel32:KERNEL32.dll
 0001:0007b128       SetLastError               000000018007c128 f   kernel32:KERNEL32.dll
 0001:0007b12e       EnterCriticalSection       000000018007c12e f   kernel32:KERNEL32.dll
 0001:0007b134       LeaveCriticalSection       000000018007c134 f   kernel32:KERNEL32.dll
 0001:0007b13a       DeleteCriticalSection      000000018007c13a f   kernel32:KERNEL32.dll
 0001:0007b140       InitializeCriticalSectionAndSpinCount 000000018007c140 f   kernel32:KERNEL32.dll
 0001:0007b146       TlsAlloc                   000000018007c146 f   kernel32:KERNEL32.dll
 0001:0007b14c       TlsGetValue                000000018007c14c f   kernel32:KERNEL32.dll
 0001:0007b152       TlsSetValue                000000018007c152 f   kernel32:KERNEL32.dll
 0001:0007b158       TlsFree                    000000018007c158 f   kernel32:KERNEL32.dll
 0001:0007b15e       LoadLibraryExW             000000018007c15e f   kernel32:KERNEL32.dll
 0001:0007b164       EncodePointer              000000018007c164 f   kernel32:KERNEL32.dll
 0001:0007b16a       RtlPcToFileHeader          000000018007c16a f   kernel32:KERNEL32.dll
 0001:0007b170       GetCurrentProcess          000000018007c170 f   kernel32:KERNEL32.dll
 0001:0007b176       ExitProcess                000000018007c176 f   kernel32:KERNEL32.dll
 0001:0007b17c       TerminateProcess           000000018007c17c f   kernel32:KERNEL32.dll
 0001:0007b182       GetModuleHandleExW         000000018007c182 f   kernel32:KERNEL32.dll
 0001:0007b188       GetModuleFileNameW         000000018007c188 f   kernel32:KERNEL32.dll
 0001:0007b18e       HeapFree                   000000018007c18e f   kernel32:KERNEL32.dll
 0001:0007b194       GetCurrentThread           000000018007c194 f   kernel32:KERNEL32.dll
 0001:0007b19a       HeapAlloc                  000000018007c19a f   kernel32:KERNEL32.dll
 0001:0007b1a0       FindClose                  000000018007c1a0 f   kernel32:KERNEL32.dll
 0001:0007b1a6       FindFirstFileExW           000000018007c1a6 f   kernel32:KERNEL32.dll
 0001:0007b1ac       FindNextFileW              000000018007c1ac f   kernel32:KERNEL32.dll
 0001:0007b1b2       IsValidCodePage            000000018007c1b2 f   kernel32:KERNEL32.dll
 0001:0007b1b8       GetACP                     000000018007c1b8 f   kernel32:KERNEL32.dll
 0001:0007b1be       GetOEMCP                   000000018007c1be f   kernel32:KERNEL32.dll
 0001:0007b1c4       GetCPInfo                  000000018007c1c4 f   kernel32:KERNEL32.dll
 0001:0007b1ca       GetCommandLineA            000000018007c1ca f   kernel32:KERNEL32.dll
 0001:0007b1d0       GetCommandLineW            000000018007c1d0 f   kernel32:KERNEL32.dll
 0001:0007b1d6       MultiByteToWideChar        000000018007c1d6 f   kernel32:KERNEL32.dll
 0001:0007b1dc       WideCharToMultiByte        000000018007c1dc f   kernel32:KERNEL32.dll
 0001:0007b1e2       GetEnvironmentStringsW     000000018007c1e2 f   kernel32:KERNEL32.dll
 0001:0007b1e8       FreeEnvironmentStringsW    000000018007c1e8 f   kernel32:KERNEL32.dll
 0001:0007b1ee       SetEnvironmentVariableW    000000018007c1ee f   kernel32:KERNEL32.dll
 0001:0007b1f4       GetDateFormatW             000000018007c1f4 f   kernel32:KERNEL32.dll
 0001:0007b1fa       GetTimeFormatW             000000018007c1fa f   kernel32:KERNEL32.dll
 0001:0007b200       CompareStringW             000000018007c200 f   kernel32:KERNEL32.dll
 0001:0007b206       LCMapStringW               000000018007c206 f   kernel32:KERNEL32.dll
 0001:0007b20c       GetLocaleInfoW             000000018007c20c f   kernel32:KERNEL32.dll
 0001:0007b212       IsValidLocale              000000018007c212 f   kernel32:KERNEL32.dll
 0001:0007b218       GetUserDefaultLCID         000000018007c218 f   kernel32:KERNEL32.dll
 0001:0007b21e       EnumSystemLocalesW         000000018007c21e f   kernel32:KERNEL32.dll
 0001:0007b224       GetProcessHeap             000000018007c224 f   kernel32:KERNEL32.dll
 0001:0007b22a       GetStdHandle               000000018007c22a f   kernel32:KERNEL32.dll
 0001:0007b230       GetFileType                000000018007c230 f   kernel32:KERNEL32.dll
 0001:0007b236       SetConsoleCtrlHandler      000000018007c236 f   kernel32:KERNEL32.dll
 0001:0007b23c       GetStringTypeW             000000018007c23c f   kernel32:KERNEL32.dll
 0001:0007b242       HeapSize                   000000018007c242 f   kernel32:KERNEL32.dll
 0001:0007b248       HeapReAlloc                000000018007c248 f   kernel32:KERNEL32.dll
 0001:0007b24e       SetStdHandle               000000018007c24e f   kernel32:KERNEL32.dll
 0001:0007b254       FlushFileBuffers           000000018007c254 f   kernel32:KERNEL32.dll
 0001:0007b25a       WriteFile                  000000018007c25a f   kernel32:KERNEL32.dll
 0001:0007b260       GetConsoleOutputCP         000000018007c260 f   kernel32:KERNEL32.dll
 0001:0007b266       GetConsoleMode             000000018007c266 f   kernel32:KERNEL32.dll
 0001:0007b26c       GetFileSizeEx              000000018007c26c f   kernel32:KERNEL32.dll
 0001:0007b272       SetFilePointerEx           000000018007c272 f   kernel32:KERNEL32.dll
 0001:0007b278       ReadFile                   000000018007c278 f   kernel32:KERNEL32.dll
 0001:0007b27e       ReadConsoleW               000000018007c27e f   kernel32:KERNEL32.dll
 0001:0007b284       OutputDebugStringW         000000018007c284 f   kernel32:KERNEL32.dll
 0001:0007b28a       CreateFileW                000000018007c28a f   kernel32:KERNEL32.dll
 0001:0007b290       CloseHandle                000000018007c290 f   kernel32:KERNEL32.dll
 0001:0007b296       WriteConsoleW              000000018007c296 f   kernel32:KERNEL32.dll
 0001:0007b2a0       _FindPESection             000000018007c2a0 f   LIBCMT:pesect.obj
 0001:0007b2f0       _IsNonwritableInCurrentImage 000000018007c2f0 f   LIBCMT:pesect.obj
 0001:0007b340       _ValidateImageBase         000000018007c340 f   LIBCMT:pesect.obj
 0001:0007b370       __GSHandlerCheck           000000018007c370 f   LIBCMT:gshandler.obj
 0001:0007b390       __GSHandlerCheckCommon     000000018007c390 f   LIBCMT:gshandler.obj
 0001:0007b400       __security_check_cookie    000000018007c400 f   LIBCMT:amdsecgs.obj
 0001:0007b424       __GSHandlerCheck_SEH       000000018007c424 f   LIBCMT:gshandlerseh.obj
 0001:0007b4ac       __raise_securityfailure    000000018007c4ac f   LIBCMT:gs_report.obj
 0001:0007b4e0       __report_gsfailure         000000018007c4e0 f   LIBCMT:gs_report.obj
 0001:0007b5b4       __report_rangecheckfailure 000000018007c5b4 f   LIBCMT:gs_report.obj
 0001:0007b5c8       __report_securityfailure   000000018007c5c8 f   LIBCMT:gs_report.obj
 0001:0007b664       __report_securityfailureEx 000000018007c664 f   LIBCMT:gs_report.obj
 0001:0007b858       strchr                     000000018007c858 f   libvcruntime:strchr.obj
 0001:0007b8d8       wcschr                     000000018007c8d8 f   libvcruntime:wcschr.obj
 0001:0007b954       strrchr                    000000018007c954 f   libvcruntime:strrchr.obj
 0001:0007ba84       _local_unwind              000000018007ca84 f   libvcruntime:jmpuwind.obj
 0001:0007bac0       memcmp                     000000018007cac0 f   libvcruntime:memcmp.obj
 0001:0007bb87       RtlUnwind                  000000018007cb87 f   kernel32:KERNEL32.dll
 0001:0007bba0       _guard_dispatch_icall_nop  000000018007cba0 f   LIBCMT:guard_dispatch.obj
 0001:0007bbc0       _guard_xfg_dispatch_icall_nop 000000018007cbc0 f   LIBCMT:guard_xfg_dispatch.obj
 0002:00000000       __imp_LoadLibraryA         000000018007e000     kernel32:KERNEL32.dll
 0002:00000008       __imp_WriteConsoleW        000000018007e008     kernel32:KERNEL32.dll
 0002:00000010       __imp_RaiseException       000000018007e010     kernel32:KERNEL32.dll
 0002:00000018       __imp_GetLastError         000000018007e018     kernel32:KERNEL32.dll
 0002:00000020       __imp_GetSystemInfo        000000018007e020     kernel32:KERNEL32.dll
 0002:00000028       __imp_VirtualProtect       000000018007e028     kernel32:KERNEL32.dll
 0002:00000030       __imp_VirtualQuery         000000018007e030     kernel32:KERNEL32.dll
 0002:00000038       __imp_FreeLibrary          000000018007e038     kernel32:KERNEL32.dll
 0002:00000040       __imp_GetModuleHandleW     000000018007e040     kernel32:KERNEL32.dll
 0002:00000048       __imp_GetProcAddress       000000018007e048     kernel32:KERNEL32.dll
 0002:00000050       __imp_LoadLibraryExA       000000018007e050     kernel32:KERNEL32.dll
 0002:00000058       __imp_InitializeSListHead  000000018007e058     kernel32:KERNEL32.dll
 0002:00000060       __imp_QueryPerformanceCounter 000000018007e060     kernel32:KERNEL32.dll
 0002:00000068       __imp_GetCurrentProcessId  000000018007e068     kernel32:KERNEL32.dll
 0002:00000070       __imp_GetCurrentThreadId   000000018007e070     kernel32:KERNEL32.dll
 0002:00000078       __imp_GetSystemTimeAsFileTime 000000018007e078     kernel32:KERNEL32.dll
 0002:00000080       __imp_RtlCaptureContext    000000018007e080     kernel32:KERNEL32.dll
 0002:00000088       __imp_RtlLookupFunctionEntry 000000018007e088     kernel32:KERNEL32.dll
 0002:00000090       __imp_RtlVirtualUnwind     000000018007e090     kernel32:KERNEL32.dll
 0002:00000098       __imp_IsDebuggerPresent    000000018007e098     kernel32:KERNEL32.dll
 0002:000000a0       __imp_UnhandledExceptionFilter 000000018007e0a0     kernel32:KERNEL32.dll
 0002:000000a8       __imp_SetUnhandledExceptionFilter 000000018007e0a8     kernel32:KERNEL32.dll
 0002:000000b0       __imp_GetStartupInfoW      000000018007e0b0     kernel32:KERNEL32.dll
 0002:000000b8       __imp_IsProcessorFeaturePresent 000000018007e0b8     kernel32:KERNEL32.dll
 0002:000000c0       __imp_InterlockedPushEntrySList 000000018007e0c0     kernel32:KERNEL32.dll
 0002:000000c8       __imp_InterlockedFlushSList 000000018007e0c8     kernel32:KERNEL32.dll
 0002:000000d0       __imp_RtlUnwindEx          000000018007e0d0     kernel32:KERNEL32.dll
 0002:000000d8       __imp_SetLastError         000000018007e0d8     kernel32:KERNEL32.dll
 0002:000000e0       __imp_EnterCriticalSection 000000018007e0e0     kernel32:KERNEL32.dll
 0002:000000e8       __imp_LeaveCriticalSection 000000018007e0e8     kernel32:KERNEL32.dll
 0002:000000f0       __imp_DeleteCriticalSection 000000018007e0f0     kernel32:KERNEL32.dll
 0002:000000f8       __imp_InitializeCriticalSectionAndSpinCount 000000018007e0f8     kernel32:KERNEL32.dll
 0002:00000100       __imp_TlsAlloc             000000018007e100     kernel32:KERNEL32.dll
 0002:00000108       __imp_TlsGetValue          000000018007e108     kernel32:KERNEL32.dll
 0002:00000110       __imp_TlsSetValue          000000018007e110     kernel32:KERNEL32.dll
 0002:00000118       __imp_TlsFree              000000018007e118     kernel32:KERNEL32.dll
 0002:00000120       __imp_LoadLibraryExW       000000018007e120     kernel32:KERNEL32.dll
 0002:00000128       __imp_EncodePointer        000000018007e128     kernel32:KERNEL32.dll
 0002:00000130       __imp_RtlPcToFileHeader    000000018007e130     kernel32:KERNEL32.dll
 0002:00000138       __imp_GetCurrentProcess    000000018007e138     kernel32:KERNEL32.dll
 0002:00000140       __imp_ExitProcess          000000018007e140     kernel32:KERNEL32.dll
 0002:00000148       __imp_TerminateProcess     000000018007e148     kernel32:KERNEL32.dll
 0002:00000150       __imp_GetModuleHandleExW   000000018007e150     kernel32:KERNEL32.dll
 0002:00000158       __imp_GetModuleFileNameW   000000018007e158     kernel32:KERNEL32.dll
 0002:00000160       __imp_HeapFree             000000018007e160     kernel32:KERNEL32.dll
 0002:00000168       __imp_GetCurrentThread     000000018007e168     kernel32:KERNEL32.dll
 0002:00000170       __imp_HeapAlloc            000000018007e170     kernel32:KERNEL32.dll
 0002:00000178       __imp_FindClose            000000018007e178     kernel32:KERNEL32.dll
 0002:00000180       __imp_FindFirstFileExW     000000018007e180     kernel32:KERNEL32.dll
 0002:00000188       __imp_FindNextFileW        000000018007e188     kernel32:KERNEL32.dll
 0002:00000190       __imp_IsValidCodePage      000000018007e190     kernel32:KERNEL32.dll
 0002:00000198       __imp_GetACP               000000018007e198     kernel32:KERNEL32.dll
 0002:000001a0       __imp_GetOEMCP             000000018007e1a0     kernel32:KERNEL32.dll
 0002:000001a8       __imp_GetCPInfo            000000018007e1a8     kernel32:KERNEL32.dll
 0002:000001b0       __imp_GetCommandLineA      000000018007e1b0     kernel32:KERNEL32.dll
 0002:000001b8       __imp_GetCommandLineW      000000018007e1b8     kernel32:KERNEL32.dll
 0002:000001c0       __imp_MultiByteToWideChar  000000018007e1c0     kernel32:KERNEL32.dll
 0002:000001c8       __imp_WideCharToMultiByte  000000018007e1c8     kernel32:KERNEL32.dll
 0002:000001d0       __imp_GetEnvironmentStringsW 000000018007e1d0     kernel32:KERNEL32.dll
 0002:000001d8       __imp_FreeEnvironmentStringsW 000000018007e1d8     kernel32:KERNEL32.dll
 0002:000001e0       __imp_SetEnvironmentVariableW 000000018007e1e0     kernel32:KERNEL32.dll
 0002:000001e8       __imp_GetDateFormatW       000000018007e1e8     kernel32:KERNEL32.dll
 0002:000001f0       __imp_GetTimeFormatW       000000018007e1f0     kernel32:KERNEL32.dll
 0002:000001f8       __imp_CompareStringW       000000018007e1f8     kernel32:KERNEL32.dll
 0002:00000200       __imp_LCMapStringW         000000018007e200     kernel32:KERNEL32.dll
 0002:00000208       __imp_GetLocaleInfoW       000000018007e208     kernel32:KERNEL32.dll
 0002:00000210       __imp_IsValidLocale        000000018007e210     kernel32:KERNEL32.dll
 0002:00000218       __imp_GetUserDefaultLCID   000000018007e218     kernel32:KERNEL32.dll
 0002:00000220       __imp_EnumSystemLocalesW   000000018007e220     kernel32:KERNEL32.dll
 0002:00000228       __imp_GetProcessHeap       000000018007e228     kernel32:KERNEL32.dll
 0002:00000230       __imp_GetStdHandle         000000018007e230     kernel32:KERNEL32.dll
 0002:00000238       __imp_GetFileType          000000018007e238     kernel32:KERNEL32.dll
 0002:00000240       __imp_SetConsoleCtrlHandler 000000018007e240     kernel32:KERNEL32.dll
 0002:00000248       __imp_GetStringTypeW       000000018007e248     kernel32:KERNEL32.dll
 0002:00000250       __imp_HeapSize             000000018007e250     kernel32:KERNEL32.dll
 0002:00000258       __imp_HeapReAlloc          000000018007e258     kernel32:KERNEL32.dll
 0002:00000260       __imp_SetStdHandle         000000018007e260     kernel32:KERNEL32.dll
 0002:00000268       __imp_FlushFileBuffers     000000018007e268     kernel32:KERNEL32.dll
 0002:00000270       __imp_WriteFile            000000018007e270     kernel32:KERNEL32.dll
 0002:00000278       __imp_GetConsoleOutputCP   000000018007e278     kernel32:KERNEL32.dll
 0002:00000280       __imp_GetConsoleMode       000000018007e280     kernel32:KERNEL32.dll
 0002:00000288       __imp_GetFileSizeEx        000000018007e288     kernel32:KERNEL32.dll
 0002:00000290       __imp_SetFilePointerEx     000000018007e290     kernel32:KERNEL32.dll
 0002:00000298       __imp_ReadFile             000000018007e298     kernel32:KERNEL32.dll
 0002:000002a0       __imp_ReadConsoleW         000000018007e2a0     kernel32:KERNEL32.dll
 0002:000002a8       __imp_OutputDebugStringW   000000018007e2a8     kernel32:KERNEL32.dll
 0002:000002b0       __imp_CreateFileW          000000018007e2b0     kernel32:KERNEL32.dll
 0002:000002b8       __imp_CloseHandle          000000018007e2b8     kernel32:KERNEL32.dll
 0002:000002c0       __imp_RtlUnwind            000000018007e2c0     kernel32:KERNEL32.dll
 0002:000002c8       \177KERNEL32_NULL_THUNK_DATA 000000018007e2c8     kernel32:KERNEL32.dll
 0002:000002d0       __guard_check_icall_fptr   000000018007e2d0     LIBCMT:guard_support.obj
 0002:000002d8       __guard_xfg_check_icall_fptr 000000018007e2d8     LIBCMT:guard_support.obj
 0002:000002e0       __guard_dispatch_icall_fptr 000000018007e2e0     LIBCMT:guard_support.obj
 0002:000002e8       __guard_xfg_dispatch_icall_fptr 000000018007e2e8     LIBCMT:guard_support.obj
 0002:000002f0       __guard_xfg_table_dispatch_icall_fptr 000000018007e2f0     LIBCMT:guard_support.obj
 0002:000002f8       __xc_a                     000000018007e2f8     LIBCMT:initializers.obj
 0002:000004e0       __xc_z                     000000018007e4e0     LIBCMT:initializers.obj
 0002:000004e8       __xi_a                     000000018007e4e8     LIBCMT:initializers.obj
 0002:000004f0       __acrt_tran_fma3_initializer 000000018007e4f0     libucrt:fma3_initializer.obj
 0002:000004f8       __acrt_multibyte_initializer 000000018007e4f8     libucrt:multibyte_initializer.obj
 0002:00000500       __acrt_stdio_initializer   000000018007e500     libucrt:stdio_initializer.obj
 0002:00000508       __xi_z                     000000018007e508     LIBCMT:initializers.obj
 0002:00000510       __xp_a                     000000018007e510     LIBCMT:initializers.obj
 0002:00000518       __acrt_locale_terminator   000000018007e518     libucrt:locale_initializer.obj
 0002:00000520       __dcrt_console_output_terminator 000000018007e520     libucrt:console_output_initializer.obj
 0002:00000528       __acrt_stdio_terminator    000000018007e528     libucrt:stdio_initializer.obj
 0002:00000530       __xp_z                     000000018007e530     LIBCMT:initializers.obj
 0002:00000538       __xt_a                     000000018007e538     LIBCMT:initializers.obj
 0002:00000540       __xt_z                     000000018007e540     LIBCMT:initializers.obj
 0002:00000550       ??_7PxFoundation@physx@@6B@ 000000018007e550     Adjacencies.obj
 0002:00000590       ??_C@_0DC@DMHHONHL@Adjacencies?3?3GetBoundaryVertice@ 000000018007e590     Adjacencies.obj
 0002:000005d0       ??_C@_0EB@NHPOGNIN@E?3?2Documents?2PhysX?2physx?2source@ 000000018007e5d0     Adjacencies.obj
 0002:00000618       ??_C@_0CK@KKNAOLHI@Adjacencies?3?3MakeLastRef?3?5NULL?5@ 000000018007e618     Adjacencies.obj
 0002:00000648       ??_C@_0DA@FMEHLBKI@Adjacencies?3?3UpdateLink?3?5invali@ 000000018007e648     Adjacencies.obj
 0002:00000680       ??_C@_0EA@CPHOACLK@Adjacencies?3?3CreateDatabase?3?5ca@ 000000018007e680     Adjacencies.obj
 0002:000006c0       ??_C@_0BM@OIFKLHDN@?$DMallocation?5names?5disabled?$DO@ 000000018007e6c0     Adjacencies.obj
 0002:00000700       ?sBufferSize@DebugText@Cm@physx@@2HB 000000018007e700     Cooking.obj
 0002:00000710       ?g_PXSinCoefficients0@aos@shdfnd@physx@@3UPX_VECTORF32@123@B 000000018007e710     Cooking.obj
 0002:00000720       ?g_PXSinCoefficients1@aos@shdfnd@physx@@3UPX_VECTORF32@123@B 000000018007e720     Cooking.obj
 0002:00000730       ?g_PXSinCoefficients2@aos@shdfnd@physx@@3UPX_VECTORF32@123@B 000000018007e730     Cooking.obj
 0002:00000740       ?g_PXCosCoefficients0@aos@shdfnd@physx@@3UPX_VECTORF32@123@B 000000018007e740     Cooking.obj
 0002:00000750       ?g_PXCosCoefficients1@aos@shdfnd@physx@@3UPX_VECTORF32@123@B 000000018007e750     Cooking.obj
 0002:00000760       ?g_PXCosCoefficients2@aos@shdfnd@physx@@3UPX_VECTORF32@123@B 000000018007e760     Cooking.obj
 0002:00000770       ?g_PXTanCoefficients0@aos@shdfnd@physx@@3UPX_VECTORF32@123@B 000000018007e770     Cooking.obj
 0002:00000780       ?g_PXTanCoefficients1@aos@shdfnd@physx@@3UPX_VECTORF32@123@B 000000018007e780     Cooking.obj
 0002:00000790       ?g_PXTanCoefficients2@aos@shdfnd@physx@@3UPX_VECTORF32@123@B 000000018007e790     Cooking.obj
 0002:000007a0       ?g_PXASinCoefficients0@aos@shdfnd@physx@@3UPX_VECTORF32@123@B 000000018007e7a0     Cooking.obj
 0002:000007b0       ?g_PXASinCoefficients1@aos@shdfnd@physx@@3UPX_VECTORF32@123@B 000000018007e7b0     Cooking.obj
 0002:000007c0       ?g_PXASinCoefficients2@aos@shdfnd@physx@@3UPX_VECTORF32@123@B 000000018007e7c0     Cooking.obj
 0002:000007d0       ?g_PXATanCoefficients0@aos@shdfnd@physx@@3UPX_VECTORF32@123@B 000000018007e7d0     Cooking.obj
 0002:000007e0       ?g_PXATanCoefficients1@aos@shdfnd@physx@@3UPX_VECTORF32@123@B 000000018007e7e0     Cooking.obj
 0002:000007f0       ?g_PXATanCoefficients2@aos@shdfnd@physx@@3UPX_VECTORF32@123@B 000000018007e7f0     Cooking.obj
 0002:00000800       ?g_PXSinEstCoefficients@aos@shdfnd@physx@@3UPX_VECTORF32@123@B 000000018007e800     Cooking.obj
 0002:00000810       ?g_PXCosEstCoefficients@aos@shdfnd@physx@@3UPX_VECTORF32@123@B 000000018007e810     Cooking.obj
 0002:00000820       ?g_PXTanEstCoefficients@aos@shdfnd@physx@@3UPX_VECTORF32@123@B 000000018007e820     Cooking.obj
 0002:00000830       ?g_PXATanEstCoefficients@aos@shdfnd@physx@@3UPX_VECTORF32@123@B 000000018007e830     Cooking.obj
 0002:00000840       ?g_PXASinEstCoefficients@aos@shdfnd@physx@@3UPX_VECTORF32@123@B 000000018007e840     Cooking.obj
 0002:00000850       ?g_PXASinEstConstants@aos@shdfnd@physx@@3UPX_VECTORF32@123@B 000000018007e850     Cooking.obj
 0002:00000860       ?g_PXPiConstants0@aos@shdfnd@physx@@3UPX_VECTORF32@123@B 000000018007e860     Cooking.obj
 0002:00000870       ?g_PXReciprocalTwoPi@aos@shdfnd@physx@@3UPX_VECTORF32@123@B 000000018007e870     Cooking.obj
 0002:00000880       ?g_PXTwoPi@aos@shdfnd@physx@@3UPX_VECTORF32@123@B 000000018007e880     Cooking.obj
 0002:00000890       ??_C@_06EJKDJEDO@PxBase@   000000018007e890     Cooking.obj
 0002:00000898       ??_C@_0N@CDGINLLF@PxConvexMesh@ 000000018007e898     Cooking.obj
 0002:000008a8       ??_C@_0O@PBAKPCEC@PxHeightField@ 000000018007e8a8     Cooking.obj
 0002:000008b8       ??_7PxBase@physx@@6B@      000000018007e8b8     Cooking.obj
 0002:000008e0       ??_7PxCooking@physx@@6B@   000000018007e8e0     Cooking.obj
 0002:00000960       ??_7Cooking@physx@@6B@     000000018007e960     Cooking.obj
 0002:000009e0       ??_C@_0FC@PJIHAFK@Cooking?3?3validateTriangleMesh?3?5@ 000000018007e9e0     Cooking.obj
 0002:00000a38       ??_C@_0DN@OHKEFKPF@E?3?2Documents?2PhysX?2physx?2source@ 000000018007ea38     Cooking.obj
 0002:00000a80       ??_C@_0EK@EKAIJEBL@Cooking?3?3cookConvexMesh?3?5user?9p@ 000000018007ea80     Cooking.obj
 0002:00000ad0       ??_C@_0FA@GFFGAPML@Cooking?3?3cookConvexMesh?3?5provid@ 000000018007ead0     Cooking.obj
 0002:00000b20       ??_C@_0EP@PKDCPNNO@Cooking?3?3cookConvexMesh?3?5provid@ 000000018007eb20     Cooking.obj
 0002:00000b70       ??_C@_0EO@LKFMMDE@Cooking?3?3cookConvexMesh?3?5user?9p@ 000000018007eb70     Cooking.obj
 0002:00000bc0       ??_C@_0DN@OMMMDOJI@E?3?2Documents?2PhysX?2physx?2source@ 000000018007ebc0     Cooking.obj
 0002:00000c00       __real@3f800000            000000018007ec00     Cooking.obj
 0002:00000c10       __xmm@000000003a83126f3a83126f3a83126f 000000018007ec10     Cooking.obj
 0002:00000c20       __xmm@00000000ba83126fba83126fba83126f 000000018007ec20     Cooking.obj
 0002:00000c30       __xmm@3a83126f3a83126f3a83126f3a83126f 000000018007ec30     Cooking.obj
 0002:00000c40       __xmm@80000000800000008000000080000000 000000018007ec40     Cooking.obj
 0002:00000c50       __xmm@ba83126fba83126fba83126fba83126f 000000018007ec50     Cooking.obj
 0002:00000c60       ??_C@_0BA@DLCJDKDM@NonTrackedAlloc@ 000000018007ec60     CookingUtils.obj
 0002:00000c70       ??_C@_0EC@EPLCIKFA@E?3?2Documents?2PhysX?2physx?2source@ 000000018007ec70     CookingUtils.obj
 0002:00000cb8       ??_C@_0DO@IJJKEICK@E?3?2Documents?2PhysX?2physx?2source@ 000000018007ecb8     EdgeList.obj
 0002:00000cf8       ??_C@_0CO@GBNJFPN@EdgeList?3?3CreateFacesToEdges?3?5N@ 000000018007ecf8     EdgeList.obj
 0002:00000d28       ??_C@_0CO@EHJBBMNK@EdgeList?3?3ComputeActiveEdges?3?5N@ 000000018007ed28     EdgeList.obj
 0002:00000d58       ??_C@_0DI@GBHLFOFP@ActiveEdges?3?3ComputeConvexEdges@ 000000018007ed58     EdgeList.obj
 0002:00000d90       ??_C@_0DM@JOGBLHDI@ActiveEdges?3?3ComputeConvexEdges@ 000000018007ed90     EdgeList.obj
 0002:00000dd0       ??_C@_0ED@FEMJKPEL@ActiveEdges?3?3ComputeConvexEdges@ 000000018007edd0     EdgeList.obj
 0002:00000e20       ??_C@_0EB@BFDPMFCD@ActiveEdges?3?3ComputeConvexEdges@ 000000018007ee20     EdgeList.obj
 0002:00000e64       __real@bf7fbe77            000000018007ee64     EdgeList.obj
 0002:00000e70       __xmm@7fffffff7fffffff7fffffff7fffffff 000000018007ee70     EdgeList.obj
 0002:00000e80       ??_C@_0EB@PCKFEANJ@E?3?2Documents?2PhysX?2physx?2source@ 000000018007ee80     MeshCleaner.obj
 0002:00000ec4       __real@3f000000            000000018007eec4     MeshCleaner.obj
 0002:00000ec8       ??_7Quantizer@physx@@6B@   000000018007eec8     Quantizer.obj
 0002:00000ef0       ??_7QuantizerImpl@@6B@     000000018007eef0     Quantizer.obj
 0002:00000f18       ??_C@_0DP@BCNPCGHM@E?3?2Documents?2PhysX?2physx?2source@ 000000018007ef18     Quantizer.obj
 0002:00000f58       __real@38d1b717            000000018007ef58     Quantizer.obj
 0002:00000f5c       __real@3c23d70a            000000018007ef5c     Quantizer.obj
 0002:00000f60       __real@3f0020c5            000000018007ef60     Quantizer.obj
 0002:00000f64       __real@3f8020c5            000000018007ef64     Quantizer.obj
 0002:00000f68       __real@7f7fffff            000000018007ef68     Quantizer.obj
 0002:00000f6c       __real@fe7fffff            000000018007ef6c     Quantizer.obj
 0002:00000f70       __xmm@fe7fffff7e7fffff7e7fffff7e7fffff 000000018007ef70     Quantizer.obj
 0002:00000fa0       ??_C@_0EJ@INKCBPMG@E?3?2Documents?2PhysX?2physx?2source@ 000000018007efa0     BVHStructureBuilder.obj
 0002:00000ff0       __xmm@3ba3d70a3ba3d70a3ba3d70a3ba3d70a 000000018007eff0     BVHStructureBuilder.obj
 0002:00001020       ?reductionFactors@SubSortQuick@physx@@2QBMB 000000018007f020     RTreeCooking.obj
 0002:00001030       ?stopAtTrisPerLeaf1@SubSortQuick@physx@@2QBIB 000000018007f030     RTreeCooking.obj
 0002:000010e0       ??_C@_0EH@OBDGACDO@E?3?2Documents?2PhysX?2physx?2source@ 000000018007f0e0     RTreeCooking.obj
 0002:00001128       ??_C@_0DM@LLLLMBC@E?3?2Documents?2PhysX?2physx?2source@ 000000018007f128     RTreeCooking.obj
 0002:00001170       ??_C@_0EF@FKBIIOJK@E?3?2Documents?2PhysX?2physx?2source@ 000000018007f170     RTreeCooking.obj
 0002:000011b8       __real@37800080            000000018007f1b8     RTreeCooking.obj
 0002:000011bc       __real@41100000            000000018007f1bc     RTreeCooking.obj
 0002:000011c0       __real@41700000            000000018007f1c0     RTreeCooking.obj
 0002:000011c4       __real@42200000            000000018007f1c4     RTreeCooking.obj
 0002:000011c8       __real@ff7fffff            000000018007f1c8     RTreeCooking.obj
 0002:000011d0       __xmm@00000004000000030000000200000001 000000018007f1d0     RTreeCooking.obj
 0002:000011e0       __xmm@3a03126f3a03126f3a03126f3a03126f 000000018007f1e0     RTreeCooking.obj
 0002:000011f0       __xmm@7f7fffff7f7fffff7f7fffff7f7fffff 000000018007f1f0     RTreeCooking.obj
 0002:00001200       __xmm@ff7fffffff7fffffff7fffffff7fffff 000000018007f200     RTreeCooking.obj
 0002:00001230       __real@34800000            000000018007f230     MeshBuilder.obj
 0002:00001260       ??_7MeshDataBase@Gu@physx@@6B@ 000000018007f260     TriangleMeshBuilder.obj
 0002:00001270       ??_C@_0EA@NCJMMFJD@E?3?2Documents?2PhysX?2physx?2source@ 000000018007f270     TriangleMeshBuilder.obj
 0002:000012b0       ??_7TriangleMeshData@Gu@physx@@6B@ 000000018007f2b0     TriangleMeshBuilder.obj
 0002:000012b8       ??_7RTreeTriangleData@Gu@physx@@6B@ 000000018007f2b8     TriangleMeshBuilder.obj
 0002:000012c0       ??_7BV4TriangleData@Gu@physx@@6B@ 000000018007f2c0     TriangleMeshBuilder.obj
 0002:000012c8       ??_7RemapCallback@RTreeCooker@physx@@6B@ 000000018007f2c8     TriangleMeshBuilder.obj
 0002:000012d8       ??_7TriangleMeshBuilder@physx@@6B@ 000000018007f2d8     TriangleMeshBuilder.obj
 0002:00001300       ??_7RTreeTriangleMeshBuilder@physx@@6B@ 000000018007f300     TriangleMeshBuilder.obj
 0002:00001328       ??_7BV4TriangleMeshBuilder@physx@@6B@ 000000018007f328     TriangleMeshBuilder.obj
 0002:00001350       ??_C@_0EP@HHGGKNHH@E?3?2Documents?2PhysX?2physx?2source@ 000000018007f350     TriangleMeshBuilder.obj
 0002:000013a0       ??_C@_0EO@FOHLLABM@E?3?2Documents?2PhysX?2physx?2source@ 000000018007f3a0     TriangleMeshBuilder.obj
 0002:000013f0       ??_C@_0DJ@IGODLHLP@TriangleMesh?3?5Enable?5mesh?5weldi@ 000000018007f3f0     TriangleMeshBuilder.obj
 0002:00001430       ??_C@_0FJ@HHJLKGDF@TriangleMesh?3?5triangles?5are?5too@ 000000018007f430     TriangleMeshBuilder.obj
 0002:00001490       ??_C@_0CN@KGPHHHLK@TriangleMesh?3?5mesh?5is?5too?5big?5f@ 000000018007f490     TriangleMeshBuilder.obj
 0002:000014c0       ??_C@_0DD@CMJGDCNN@TriangleMesh?3?3loadFromDesc?3?5des@ 000000018007f4c0     TriangleMeshBuilder.obj
 0002:00001500       ??_C@_0ED@ILJJNHIP@TriangleMesh?3?3loadFromDesc?3?5mPa@ 000000018007f500     TriangleMeshBuilder.obj
 0002:00001548       ??_C@_0BJ@BKHDBBHO@cleaning?5the?5mesh?5failed@ 000000018007f548     TriangleMeshBuilder.obj
 0002:00001568       ??_C@_0BK@JIDHMMCE@BV4?5tree?5failed?5to?5build?4@ 000000018007f568     TriangleMeshBuilder.obj
 0002:00001588       ??_C@_0BL@DHNECNBE@BV32?5tree?5failed?5to?5build?4@ 000000018007f588     TriangleMeshBuilder.obj
 0002:000015a8       ??_7RTreeCookerRemap@physx@@6B@ 000000018007f5a8     TriangleMeshBuilder.obj
 0002:000015b8       __real@3951b717            000000018007f5b8     TriangleMeshBuilder.obj
 0002:000015bc       __real@3dcccccd            000000018007f5bc     TriangleMeshBuilder.obj
 0002:000015c0       __real@48742400            000000018007f5c0     TriangleMeshBuilder.obj
 0002:000015d0       __xmm@00000003000000020000000100000000 000000018007f5d0     TriangleMeshBuilder.obj
 0002:00001600       ??_C@_0FB@LEJADHG@E?3?2Documents?2PhysX?2physx?2source@ 000000018007f600     BigConvexDataBuilder.obj
 0002:00001654       __real@40000000            000000018007f654     BigConvexDataBuilder.obj
 0002:00001680       ??_C@_0EO@MMMFFCHJ@E?3?2Documents?2PhysX?2physx?2source@ 000000018007f680     ConvexHullBuilder.obj
 0002:000016d0       ??_C@_0EB@DCEIFDGC@ConvexHullBuilder?3?3init?3?5convex@ 000000018007f6d0     ConvexHullBuilder.obj
 0002:00001720       ??_C@_0FM@KICBLCBH@Gu?3?3ConvexMesh?3?3checkHullPolygo@ 000000018007f720     ConvexHullBuilder.obj
 0002:00001780       ??_C@_0GO@HBFIOGLL@Gu?3?3ConvexMesh?3?3checkHullPolygo@ 000000018007f780     ConvexHullBuilder.obj
 0002:000017f0       ??_C@_0HF@OLJFBIEL@ConvexHullBuilder?3?5convex?5hull?5@ 000000018007f7f0     ConvexHullBuilder.obj
 0002:00001870       ??_C@_0OG@JNHFOIL@ConvexHullBuilder?3?5convex?5hull?5@ 000000018007f870     ConvexHullBuilder.obj
 0002:00001960       ??_C@_0EJ@NIOIBAKH@Cooking?3?3cookConvexMesh?3?5non?9ma@ 000000018007f960     ConvexHullBuilder.obj
 0002:000019ac       __real@3ca3d70a            000000018007f9ac     ConvexHullBuilder.obj
 0002:000019b0       __real@3eaaaaab            000000018007f9b0     ConvexHullBuilder.obj
 0002:000019b8       ??_7ConvexHullLib@physx@@6B@ 000000018007f9b8     ConvexHullLib.obj
 0002:000019e0       ??_C@_0EK@LFGMGJDD@E?3?2Documents?2PhysX?2physx?2source@ 000000018007f9e0     ConvexHullLib.obj
