 PhysXCommon_64

 Timestamp is 5ee82dd8 (Mon Jun 15 19:26:32 2020)

 Preferred load address is 0000000180000000

 Start         Length     Name                   Class
 0001:00000000 000028c0H .text$di                CODE
 0001:000028c0 0018a1b0H .text$mn                CODE
 0001:0018ca70 00000040H .text$mn$00             CODE
 0001:0018cab0 000009f0H .text$x                 CODE
 0002:00000000 000002d0H .idata$5                DATA
 0002:000002d0 00000028H .00cfg                  DATA
 0002:000002f8 00000008H .CRT$XCA                DATA
 0002:00000300 00001428H .CRT$XCU                DATA
 0002:00001728 00000008H .CRT$XCZ                DATA
 0002:00001730 00000008H .CRT$XIA                DATA
 0002:00001738 00000018H .CRT$XIC                DATA
 0002:00001750 00000008H .CRT$XIZ                DATA
 0002:00001758 00000008H .CRT$XPA                DATA
 0002:00001760 00000010H .CRT$XPX                DATA
 0002:00001770 00000008H .CRT$XPXA               DATA
 0002:00001778 00000008H .CRT$XPZ                DATA
 0002:00001780 00000008H .CRT$XTA                DATA
 0002:00001788 00000008H .CRT$XTZ                DATA
 0002:00001790 00000000H .gfids$y                DATA
 0002:00001790 0000f200H .rdata                  DATA
 0002:00010990 00000464H .rdata$r                DATA
 0002:00010df4 000003dcH .rdata$zzzdbg           DATA
 0002:000111d0 00000008H .rtc$IAA                DATA
 0002:000111d8 00000008H .rtc$IZZ                DATA
 0002:000111e0 00000008H .rtc$TAA                DATA
 0002:000111e8 00000008H .rtc$TZZ                DATA
 0002:000111f0 000132b8H .xdata                  DATA
 0002:000244a8 00000084H .xdata$x                DATA
 0002:0002452c 00000020H .didat$2                DATA
 0002:0002454c 00000024H .didat$3                DATA
 0002:00024570 00000090H .didat$4                DATA
 0002:00024600 00000320H .didat$6                DATA
 0002:00024920 00000090H .didat$7                DATA
 0002:000249b0 0000a180H .edata                  DATA
 0002:0002eb30 00000014H .idata$2                DATA
 0002:0002eb44 00000014H .idata$3                DATA
 0002:0002eb58 000002d0H .idata$4                DATA
 0002:0002ee28 00000694H .idata$6                DATA
 0003:00000000 000014a0H .data                   DATA
 0003:000014a0 000006e0H .data$r                 DATA
 0003:00001b80 00000090H .didat$5                DATA
 0003:00001c10 00004370H .bss                    DATA
 0004:00000000 0000aaacH .pdata                  DATA
 0005:00000000 000022a4H _RDATA                  DATA
 0006:00000000 000000a0H .rsrc$01                DATA
 0006:000000a0 000004b0H .rsrc$02                DATA

  Address         Publics by Value              Rva+Base               Lib:Object

 0000:00000000       __enclave_config           0000000000000000     <absolute>
 0000:00000000       __guard_eh_cont_table      0000000000000000     <absolute>
 0000:00000000       __guard_eh_cont_count      0000000000000000     <absolute>
 0000:00000000       __arm64x_native_entrypoint 0000000000000000     <absolute>
 0000:00000000       __volatile_metadata        0000000000000000     <absolute>
 0000:00000000       __arm64x_redirection_metadata 0000000000000000     <absolute>
 0000:00000000       __guard_fids_table         0000000000000000     <absolute>
 0000:00000000       __guard_fids_count         0000000000000000     <absolute>
 0000:00000000       __guard_iat_table          0000000000000000     <absolute>
 0000:00000000       __guard_longjmp_count      0000000000000000     <absolute>
 0000:00000000       __hybrid_code_map_count    0000000000000000     <absolute>
 0000:00000000       __AbsoluteZero             0000000000000000     <absolute>
 0000:00000000       __guard_longjmp_table      0000000000000000     <absolute>
 0000:00000000       ___safe_se_handler_count   0000000000000000     <absolute>
 0000:00000000       ___safe_se_handler_table   0000000000000000     <absolute>
 0000:00000000       __guard_iat_count          0000000000000000     <absolute>
 0000:00000000       __hybrid_auxiliary_iat     0000000000000000     <absolute>
 0000:00000000       __dynamic_value_reloc_table 0000000000000000     <absolute>
 0000:00000000       __hybrid_code_map          0000000000000000     <absolute>
 0000:00000000       __x64_code_ranges_to_entry_points 0000000000000000     <absolute>
 0000:00000100       __guard_flags              0000000000000100     <absolute>
 0000:00000000       __ImageBase                0000000180000000     <linker-defined>
 0001:000028c0       ?PxCreateCollection@@YAPEAVPxCollection@physx@@XZ 00000001800038c0 f   CmCollection.obj
 0001:000029c0       ?add@Collection@Cm@physx@@UEAAXAEAVPxBase@3@_K@Z 00000001800039c0 f   CmCollection.obj
 0001:00002ab0       ?remove@Collection@Cm@physx@@UEAAXAEAVPxBase@3@@Z 0000000180003ab0 f   CmCollection.obj
 0001:00002ba0       ?contains@Collection@Cm@physx@@UEBA_NAEAVPxBase@3@@Z 0000000180003ba0 f   CmCollection.obj
 0001:00002c50       ?addId@Collection@Cm@physx@@UEAAXAEAVPxBase@3@_K@Z 0000000180003c50 f   CmCollection.obj
 0001:00002d80       ?removeId@Collection@Cm@physx@@UEAAX_K@Z 0000000180003d80 f   CmCollection.obj
 0001:00002e00       ?find@Collection@Cm@physx@@UEBAPEAVPxBase@3@_K@Z 0000000180003e00 f   CmCollection.obj
 0001:00002e30       ?add@Collection@Cm@physx@@UEAAXAEAVPxCollection@3@@Z 0000000180003e30 f   CmCollection.obj
 0001:00002fd0       ?remove@Collection@Cm@physx@@UEAAXAEAVPxCollection@3@@Z 0000000180003fd0 f   CmCollection.obj
 0001:000030f0       ?getNbObjects@Collection@Cm@physx@@UEBAIXZ 00000001800040f0 f   CmCollection.obj
 0001:00003100       ?getObject@Collection@Cm@physx@@UEBAAEAVPxBase@3@I@Z 0000000180004100 f   CmCollection.obj
 0001:00003120       ?getObjects@Collection@Cm@physx@@UEBAIPEAPEAVPxBase@3@II@Z 0000000180004120 f   CmCollection.obj
 0001:00003180       ?getNbIds@Collection@Cm@physx@@UEBAIXZ 0000000180004180 f   CmCollection.obj
 0001:00003190       ?getId@Collection@Cm@physx@@UEBA_KAEBVPxBase@3@@Z 0000000180004190 f   CmCollection.obj
 0001:00003240       ?getIds@Collection@Cm@physx@@UEBAIPEA_KII@Z 0000000180004240 f   CmCollection.obj
 0001:00003300       ??1PxCollection@physx@@MEAA@XZ 0000000180004300 f i CmCollection.obj
 0001:00003310       ??_GCollection@Cm@physx@@UEAAPEAXI@Z 0000000180004310 f i CmCollection.obj
 0001:00003310       ??_ECollection@Cm@physx@@UEAAPEAXI@Z 0000000180004310 f i CmCollection.obj
 0001:000033c0       ??_GPxCollection@physx@@MEAAPEAXI@Z 00000001800043c0 f i CmCollection.obj
 0001:000033c0       ??_EPxCollection@physx@@MEAAPEAXI@Z 00000001800043c0 f i CmCollection.obj
 0001:000033f0       ?__empty_global_delete@@YAXPEAX@Z 00000001800043f0 f i CmCollection.obj
 0001:00003400       ?__empty_global_delete@@YAXPEAX_K@Z 0000000180004400 f i CmCollection.obj
 0001:00003410       ?create@?$HashBase@V?$Pair@$$CB_KPEAVPxBase@physx@@@shdfnd@physx@@_KU?$Hash@_K@23@UGetKey@?$HashMapBase@_KPEAVPxBase@physx@@U?$Hash@_K@shdfnd@2@VNonTrackingAllocator@42@@internal@23@VNonTrackingAllocator@23@$00@internal@shdfnd@physx@@QEAAPEAV?$Pair@$$CB_KPEAVPxBase@physx@@@34@AEB_KAEA_N@Z 0000000180004410 f i CmCollection.obj
 0001:000035b0       ?create@?$HashBase@V?$Pair@QEAVPxBase@physx@@_K@shdfnd@physx@@PEAVPxBase@3@U?$Hash@PEAVPxBase@physx@@@23@UGetKey@?$HashMapBase@PEAVPxBase@physx@@_KU?$Hash@PEAVPxBase@physx@@@shdfnd@2@VNonTrackingAllocator@42@@internal@23@VNonTrackingAllocator@23@$00@internal@shdfnd@physx@@QEAAPEAV?$Pair@QEAVPxBase@physx@@_K@34@AEBQEAVPxBase@4@AEA_N@Z 00000001800045b0 f i CmCollection.obj
 0001:00003750       ?erase@?$HashBase@V?$Pair@$$CB_KPEAVPxBase@physx@@@shdfnd@physx@@_KU?$Hash@_K@23@UGetKey@?$HashMapBase@_KPEAVPxBase@physx@@U?$Hash@_K@shdfnd@2@VNonTrackingAllocator@42@@internal@23@VNonTrackingAllocator@23@$00@internal@shdfnd@physx@@QEAA_NAEB_K@Z 0000000180004750 f i CmCollection.obj
 0001:000038f0       ?erase@?$HashBase@V?$Pair@QEAVPxBase@physx@@_K@shdfnd@physx@@PEAVPxBase@3@U?$Hash@PEAVPxBase@physx@@@23@UGetKey@?$HashMapBase@PEAVPxBase@physx@@_KU?$Hash@PEAVPxBase@physx@@@shdfnd@2@VNonTrackingAllocator@42@@internal@23@VNonTrackingAllocator@23@$00@internal@shdfnd@physx@@QEAA_NAEBQEAVPxBase@4@@Z 00000001800048f0 f i CmCollection.obj
 0001:00003a90       ?find@?$HashMapBase@_KPEAVPxBase@physx@@U?$Hash@_K@shdfnd@2@VNonTrackingAllocator@42@@internal@shdfnd@physx@@QEBAPEBV?$Pair@$$CB_KPEAVPxBase@physx@@@34@AEB_K@Z 0000000180004a90 f i CmCollection.obj
 0001:00003b30       ?release@Collection@Cm@physx@@UEAAXXZ 0000000180004b30 f i CmCollection.obj
 0001:00003b50       ?reserveInternal@?$HashBase@V?$Pair@$$CB_KPEAVPxBase@physx@@@shdfnd@physx@@_KU?$Hash@_K@23@UGetKey@?$HashMapBase@_KPEAVPxBase@physx@@U?$Hash@_K@shdfnd@2@VNonTrackingAllocator@42@@internal@23@VNonTrackingAllocator@23@$00@internal@shdfnd@physx@@AEAAXI@Z 0000000180004b50 f i CmCollection.obj
 0001:00003d40       ?reserveInternal@?$HashBase@V?$Pair@QEAVPxBase@physx@@_K@shdfnd@physx@@PEAVPxBase@3@U?$Hash@PEAVPxBase@physx@@@23@UGetKey@?$HashMapBase@PEAVPxBase@physx@@_KU?$Hash@PEAVPxBase@physx@@@shdfnd@2@VNonTrackingAllocator@42@@internal@23@VNonTrackingAllocator@23@$00@internal@shdfnd@physx@@AEAAXI@Z 0000000180004d40 f i CmCollection.obj
 0001:00003f30       ?PxTransformFromPlaneEquation@physx@@YA?AVPxTransform@1@AEBVPxPlane@1@@Z 0000000180004f30 f   CmMathUtils.obj
 0001:00004100       ?PxTransformFromSegment@physx@@YA?AVPxTransform@1@AEBVPxVec3@1@0PEAM@Z 0000000180005100 f   CmMathUtils.obj
 0001:00004270       ??0PtrTable@Cm@physx@@QEAA@XZ 0000000180005270 f   CmPtrTable.obj
 0001:00004290       ??1PtrTable@Cm@physx@@QEAA@XZ 0000000180005290 f   CmPtrTable.obj
 0001:000042a0       ?add@PtrTable@Cm@physx@@QEAAXPEAXAEAVPtrTableStorageManager@23@@Z 00000001800052a0 f   CmPtrTable.obj
 0001:00004370       ?replaceWithLast@PtrTable@Cm@physx@@QEAAXIAEAVPtrTableStorageManager@23@@Z 0000000180005370 f   CmPtrTable.obj
 0001:00004470       ?clear@PtrTable@Cm@physx@@QEAAXAEAVPtrTableStorageManager@23@@Z 0000000180005470 f   CmPtrTable.obj
 0001:000044f0       ?find@PtrTable@Cm@physx@@QEBAIPEBX@Z 00000001800054f0 f   CmPtrTable.obj
 0001:00004530       ?exportExtraData@PtrTable@Cm@physx@@QEAAXAEAVPxSerializationContext@3@@Z 0000000180005530 f   CmPtrTable.obj
 0001:00004580       ?importExtraData@PtrTable@Cm@physx@@QEAAXAEAVPxDeserializationContext@3@@Z 0000000180005580 f   CmPtrTable.obj
 0001:000045b0       ?getBinaryMetaData@PtrTable@Cm@physx@@SAXAEAVPxOutputStream@3@@Z 00000001800055b0 f   CmPtrTable.obj
 0001:00004770       ?realloc@PtrTable@Cm@physx@@AEAAXIIAEAVPtrTableStorageManager@23@@Z 0000000180005770 f   CmPtrTable.obj
 0001:00004800       ??0PtrTable@Cm@physx@@QEAA@W4PxEMPTY@2@@Z 0000000180005800 f i CmPtrTable.obj
 0001:00004820       ??4PtrTable@Cm@physx@@QEAAAEAU012@AEBU012@@Z 0000000180005820 f i CmPtrTable.obj
 0001:00004830       ?getCount@PtrTable@Cm@physx@@QEBAIXZ 0000000180005830 f i CmPtrTable.obj
 0001:00004840       ?getPtrs@PtrTable@Cm@physx@@QEAAPEAPEAXXZ 0000000180005840 f i CmPtrTable.obj
 0001:00004850       ?getPtrs@PtrTable@Cm@physx@@QEBAPEBQEAXXZ 0000000180005850 f i CmPtrTable.obj
 0001:00004860       ??0RadixSort@Cm@physx@@QEAA@XZ 0000000180005860 f   CmRadixSort.obj
 0001:000048a0       ??1RadixSort@Cm@physx@@UEAA@XZ 00000001800058a0 f   CmRadixSort.obj
 0001:000048c0       ?Sort@RadixSort@Cm@physx@@QEAAAEAV123@PEBIIW4RadixHint@23@@Z 00000001800058c0 f   CmRadixSort.obj
 0001:00004f10       ?Sort@RadixSort@Cm@physx@@QEAAAEAV123@PEBMI@Z 0000000180005f10 f   CmRadixSort.obj
 0001:00005670       ?SetBuffers@RadixSort@Cm@physx@@QEAA_NPEAI00PEAPEAI@Z 0000000180006670 f   CmRadixSort.obj
 0001:000056b0       ??_ERadixSort@Cm@physx@@UEAAPEAXI@Z 00000001800066b0 f i CmRadixSort.obj
 0001:00005740       ??_GRadixSort@Cm@physx@@UEAAPEAXI@Z 0000000180006740 f i CmRadixSort.obj
 0001:00005770       ??_I@YAXPEAX_K1P6AX0@Z@Z   0000000180006770 f i CmRadixSort.obj
 0001:000057d0       ?GetNbHits@RadixSort@Cm@physx@@QEBAIXZ 00000001800067d0 f i CmRadixSort.obj
 0001:000057e0       ?GetNbTotalCalls@RadixSort@Cm@physx@@QEBAIXZ 00000001800067e0 f i CmRadixSort.obj
 0001:000057f0       ?GetRanks@RadixSort@Cm@physx@@QEBAPEBIXZ 00000001800067f0 f i CmRadixSort.obj
 0001:00005800       ?GetRecyclable@RadixSort@Cm@physx@@QEBAPEAIXZ 0000000180006800 f i CmRadixSort.obj
 0001:00005810       ?invalidateRanks@RadixSort@Cm@physx@@QEAAXXZ 0000000180006810 f i CmRadixSort.obj
 0001:00005820       ??0RadixSortBuffered@Cm@physx@@QEAA@XZ 0000000180006820 f   CmRadixSortBuffered.obj
 0001:00005850       ??1RadixSortBuffered@Cm@physx@@UEAA@XZ 0000000180006850 f   CmRadixSortBuffered.obj
 0001:00005880       ?reset@RadixSortBuffered@Cm@physx@@QEAAXXZ 0000000180006880 f   CmRadixSortBuffered.obj
 0001:00005910       ?Sort@RadixSortBuffered@Cm@physx@@QEAAAEAV123@PEBIIW4RadixHint@23@@Z 0000000180006910 f   CmRadixSortBuffered.obj
 0001:000059b0       ?Sort@RadixSortBuffered@Cm@physx@@QEAAAEAV123@PEBMI@Z 00000001800069b0 f   CmRadixSortBuffered.obj
 0001:00005a40       ?Resize@RadixSortBuffered@Cm@physx@@AEAA_NI@Z 0000000180006a40 f   CmRadixSortBuffered.obj
 0001:00005b30       ??_ERadixSortBuffered@Cm@physx@@UEAAPEAXI@Z 0000000180006b30 f i CmRadixSortBuffered.obj
 0001:00005c60       ??_GRadixSortBuffered@Cm@physx@@UEAAPEAXI@Z 0000000180006c60 f i CmRadixSortBuffered.obj
 0001:00005cb0       ?CheckResize@RadixSortBuffered@Cm@physx@@AEAAXI@Z 0000000180006cb0 f i CmRadixSortBuffered.obj
 0001:00005cf0       ??6RenderOutput@Cm@physx@@QEAAAEAV012@W4Primitive@012@@Z 0000000180006cf0 f   CmRenderOutput.obj
 0001:00005d10       ??6RenderOutput@Cm@physx@@QEAAAEAV012@I@Z 0000000180006d10 f   CmRenderOutput.obj
 0001:00005d20       ??6RenderOutput@Cm@physx@@QEAAAEAV012@AEBVPxMat44@2@@Z 0000000180006d20 f   CmRenderOutput.obj
 0001:00005d90       ??6RenderOutput@Cm@physx@@QEAAAEAV012@AEBVPxTransform@2@@Z 0000000180006d90 f   CmRenderOutput.obj
 0001:00005f20       ??6RenderOutput@Cm@physx@@QEAAAEAV012@VPxVec3@2@@Z 0000000180006f20 f   CmRenderOutput.obj
 0001:00006470       ??6RenderOutput@Cm@physx@@QEAAAEAV012@AEBUDebugText@12@@Z 0000000180007470 f   CmRenderOutput.obj
 0001:00006690       ?outputCapsule@RenderOutput@Cm@physx@@QEAAAEAV123@MMAEBVPxMat44@3@@Z 0000000180007690 f   CmRenderOutput.obj
 0001:00007170       ??0DebugText@Cm@physx@@QEAA@AEBVPxVec3@2@MPEBDZZ 0000000180008170 f   CmRenderOutput.obj
 0001:000071d0       ??6Cm@physx@@YAAEAVRenderOutput@01@AEAV201@AEBUDebugBox@01@@Z 00000001800081d0 f   CmRenderOutput.obj
 0001:000076d0       ??6Cm@physx@@YAAEAVRenderOutput@01@AEAV201@AEBUDebugArrow@01@@Z 00000001800086d0 f   CmRenderOutput.obj
 0001:00007ad0       ??6Cm@physx@@YAAEAVRenderOutput@01@AEAV201@AEBUDebugBasis@01@@Z 0000000180008ad0 f   CmRenderOutput.obj
 0001:00007bd0       ??6Cm@physx@@YAAEAVRenderOutput@01@AEAV201@AEBUDebugCircle@01@@Z 0000000180008bd0 f   CmRenderOutput.obj
 0001:00007cc0       ??6Cm@physx@@YAAEAVRenderOutput@01@AEAV201@AEBUDebugArc@01@@Z 0000000180008cc0 f   CmRenderOutput.obj
 0001:00007dc0       ??0DebugText@Cm@physx@@QEAA@$$QEAU012@@Z 0000000180008dc0 f i CmRenderOutput.obj
 0001:00007ea0       ??0DebugText@Cm@physx@@QEAA@AEBU012@@Z 0000000180008ea0 f i CmRenderOutput.obj
 0001:00007f80       ??0RenderOutput@Cm@physx@@QEAA@AEAVRenderBuffer@12@@Z 0000000180008f80 f i CmRenderOutput.obj
 0001:00007fd0       ??0RenderOutput@Cm@physx@@QEAA@AEBV012@@Z 0000000180008fd0 f i CmRenderOutput.obj
 0001:00008070       ??4DebugText@Cm@physx@@QEAAAEAU012@$$QEAU012@@Z 0000000180009070 f i CmRenderOutput.obj
 0001:000081a0       ??4DebugText@Cm@physx@@QEAAAEAU012@AEBU012@@Z 00000001800091a0 f i CmRenderOutput.obj
 0001:000082d0       ?allocate@?$Array@DV?$ReflectionAllocator@D@shdfnd@physx@@@shdfnd@physx@@IEAAPEADI@Z 00000001800092d0 f i CmRenderOutput.obj
 0001:00008360       ?allocate@?$Array@UPxDebugLine@physx@@V?$ReflectionAllocator@UPxDebugLine@physx@@@shdfnd@2@@shdfnd@physx@@IEAAPEAUPxDebugLine@3@I@Z 0000000180009360 f i CmRenderOutput.obj
 0001:00008400       ?allocate@?$Array@UPxDebugPoint@physx@@V?$ReflectionAllocator@UPxDebugPoint@physx@@@shdfnd@2@@shdfnd@physx@@IEAAPEAUPxDebugPoint@3@I@Z 0000000180009400 f i CmRenderOutput.obj
 0001:000084a0       ?allocate@?$Array@UPxDebugText@physx@@V?$ReflectionAllocator@UPxDebugText@physx@@@shdfnd@2@@shdfnd@physx@@IEAAPEAUPxDebugText@3@I@Z 00000001800094a0 f i CmRenderOutput.obj
 0001:00008540       ?allocate@?$Array@UPxDebugTriangle@physx@@V?$ReflectionAllocator@UPxDebugTriangle@physx@@@shdfnd@2@@shdfnd@physx@@IEAAPEAUPxDebugTriangle@3@I@Z 0000000180009540 f i CmRenderOutput.obj
 0001:000085e0       ?copy@?$Array@UPxDebugLine@physx@@V?$ReflectionAllocator@UPxDebugLine@physx@@@shdfnd@2@@shdfnd@physx@@KAXPEAUPxDebugLine@3@0PEBU43@@Z 00000001800095e0 f i CmRenderOutput.obj
 0001:00008790       ?copy@?$Array@UPxDebugPoint@physx@@V?$ReflectionAllocator@UPxDebugPoint@physx@@@shdfnd@2@@shdfnd@physx@@KAXPEAUPxDebugPoint@3@0PEBU43@@Z 0000000180009790 f i CmRenderOutput.obj
 0001:00008890       ?copy@?$Array@UPxDebugText@physx@@V?$ReflectionAllocator@UPxDebugText@physx@@@shdfnd@2@@shdfnd@physx@@KAXPEAUPxDebugText@3@0PEBU43@@Z 0000000180009890 f i CmRenderOutput.obj
 0001:00008a00       ?copy@?$Array@UPxDebugTriangle@physx@@V?$ReflectionAllocator@UPxDebugTriangle@physx@@@shdfnd@2@@shdfnd@physx@@KAXPEAUPxDebugTriangle@3@0PEBU43@@Z 0000000180009a00 f i CmRenderOutput.obj
 0001:00008c00       ?growAndPushBack@?$Array@DV?$ReflectionAllocator@D@shdfnd@physx@@@shdfnd@physx@@IEAAAEADAEBD@Z 0000000180009c00 f i CmRenderOutput.obj
 0001:00008cc0       ?growAndPushBack@?$Array@UPxDebugLine@physx@@V?$ReflectionAllocator@UPxDebugLine@physx@@@shdfnd@2@@shdfnd@physx@@IEAAAEAUPxDebugLine@3@AEBU43@@Z 0000000180009cc0 f i CmRenderOutput.obj
 0001:00008da0       ?growAndPushBack@?$Array@UPxDebugPoint@physx@@V?$ReflectionAllocator@UPxDebugPoint@physx@@@shdfnd@2@@shdfnd@physx@@IEAAAEAUPxDebugPoint@3@AEBU43@@Z 0000000180009da0 f i CmRenderOutput.obj
 0001:00008e60       ?growAndPushBack@?$Array@UPxDebugText@physx@@V?$ReflectionAllocator@UPxDebugText@physx@@@shdfnd@2@@shdfnd@physx@@IEAAAEAUPxDebugText@3@AEBU43@@Z 0000000180009e60 f i CmRenderOutput.obj
 0001:00008f30       ?growAndPushBack@?$Array@UPxDebugTriangle@physx@@V?$ReflectionAllocator@UPxDebugTriangle@physx@@@shdfnd@2@@shdfnd@physx@@IEAAAEAUPxDebugTriangle@3@AEBU43@@Z 0000000180009f30 f i CmRenderOutput.obj
 0001:00009030       ?outputSegment@RenderOutput@Cm@physx@@QEAAXAEBVPxVec3@3@0@Z 000000018000a030 f i CmRenderOutput.obj
 0001:000090f0       ?recreate@?$Array@DV?$ReflectionAllocator@D@shdfnd@physx@@@shdfnd@physx@@IEAAXI@Z 000000018000a0f0 f i CmRenderOutput.obj
 0001:00009190       ?recreate@?$Array@UPxDebugLine@physx@@V?$ReflectionAllocator@UPxDebugLine@physx@@@shdfnd@2@@shdfnd@physx@@IEAAXI@Z 000000018000a190 f i CmRenderOutput.obj
 0001:00009220       ?reserveSegments@RenderOutput@Cm@physx@@QEAAPEAUPxDebugLine@3@I@Z 000000018000a220 f i CmRenderOutput.obj
 0001:00009290       ?visualizeJointFrames@Cm@physx@@YAXAEAVRenderOutput@12@MAEBVPxTransform@2@1@Z 000000018000a290 f   CmVisualization.obj
 0001:00009360       ?visualizeLinearLimit@Cm@physx@@YAXAEAVRenderOutput@12@MAEBVPxTransform@2@1M_N@Z 000000018000a360 f   CmVisualization.obj
 0001:000095f0       ?visualizeAngularLimit@Cm@physx@@YAXAEAVRenderOutput@12@MAEBVPxTransform@2@MM_N@Z 000000018000a5f0 f   CmVisualization.obj
 0001:000097b0       ?visualizeLimitCone@Cm@physx@@YAXAEAVRenderOutput@12@MAEBVPxTransform@2@MM_N@Z 000000018000a7b0 f   CmVisualization.obj
 0001:00009a50       ?visualizeDoubleCone@Cm@physx@@YAXAEAVRenderOutput@12@MAEBVPxTransform@2@M_N@Z 000000018000aa50 f   CmVisualization.obj
 0001:00009cb0       ??DPxQuat@physx@@QEBA?AV01@AEBV01@@Z 000000018000acb0 f i CmVisualization.obj
 0001:00009df0       ??0CmModuleUpdateLoader@Cm@physx@@QEAA@PEBD@Z 000000018000adf0 f   CmWindowsModuleUpdateLoader.obj
 0001:00009e40       ??1CmModuleUpdateLoader@Cm@physx@@QEAA@XZ 000000018000ae40 f   CmWindowsModuleUpdateLoader.obj
 0001:00009e70       ?LoadModule@CmModuleUpdateLoader@Cm@physx@@QEAAPEAUHINSTANCE__@@PEBD0@Z 000000018000ae70 f   CmWindowsModuleUpdateLoader.obj
 0001:00009e90       ??4CmModuleUpdateLoader@Cm@physx@@QEAAAEAV012@AEBV012@@Z 000000018000ae90 f i CmWindowsModuleUpdateLoader.obj
 0001:00009ea0       PxSetPhysXCommonDelayLoadHook 000000018000aea0 f   CmWindowsDelayLoadHook.obj
 0001:00009eb0       ?commonDelayHook@@YAP6A_JXZIPEAUDelayLoadInfo@@@Z 000000018000aeb0 f   CmWindowsDelayLoadHook.obj
 0001:00009f90       ?computeBounds@Gu@physx@@YAXAEAVPxBounds3@2@AEBVPxGeometry@2@AEBVPxTransform@2@MPEIBVCenterExtentsPadded@12@M@Z 000000018000af90 f   GuBounds.obj
 0001:0000a870       ?computeBoundsWithCCDThreshold@Gu@physx@@YAMAEAVVec3p@12@0AEBVPxGeometry@2@AEBVPxTransform@2@PEIBVCenterExtentsPadded@12@@Z 000000018000b870 f   GuBounds.obj
 0001:0000aa50       ??0ShapeData@Gu@physx@@QEAA@AEBVPxGeometry@2@AEBVPxTransform@2@M@Z 000000018000ba50 f   GuBounds.obj
 0001:0000afa0       ??0Box@Gu@physx@@QEAA@AEBV012@@Z 000000018000bfa0 f i GuBounds.obj
 0001:0000b000       ??0Box@Gu@physx@@QEAA@AEBVPxVec3@2@0AEBVPxMat33@2@@Z 000000018000c000 f i GuBounds.obj
 0001:0000b070       ??0Box@Gu@physx@@QEAA@XZ   000000018000c070 f i GuBounds.obj
 0001:0000b080       ??0HeightFieldData@Gu@physx@@QEAA@$$QEAU012@@Z 000000018000c080 f i GuBounds.obj
 0001:0000b0e0       ??0HeightFieldData@Gu@physx@@QEAA@AEBU012@@Z 000000018000c0e0 f i GuBounds.obj
 0001:0000b140       ??0HeightFieldData@Gu@physx@@QEAA@W4PxEMPTY@2@@Z 000000018000c140 f i GuBounds.obj
 0001:0000b150       ??0HeightFieldData@Gu@physx@@QEAA@XZ 000000018000c150 f i GuBounds.obj
 0001:0000b160       ??0PxQuat@physx@@QEAA@AEBVPxMat33@1@@Z 000000018000c160 f i GuBounds.obj
 0001:0000b340       ??0PxVec3@physx@@QEAA@XZ   000000018000c340 f i GuBounds.obj
 0001:0000b350       ??0PxVec4@physx@@QEAA@XZ   000000018000c350 f i GuBounds.obj
 0001:0000b360       ??1Box@Gu@physx@@QEAA@XZ   000000018000c360 f i GuBounds.obj
 0001:0000b370       ??1HeightFieldData@Gu@physx@@QEAA@XZ 000000018000c370 f i GuBounds.obj
 0001:0000b380       ??1PxBase@physx@@MEAA@XZ   000000018000c380 f i GuBounds.obj
 0001:0000b390       ??1PxConvexMesh@physx@@MEAA@XZ 000000018000c390 f i GuBounds.obj
 0001:0000b3a0       ??1PxHeightField@physx@@MEAA@XZ 000000018000c3a0 f i GuBounds.obj
 0001:0000b3b0       ??4Box@Gu@physx@@QEAAAEBV012@AEBV012@@Z 000000018000c3b0 f i GuBounds.obj
 0001:0000b410       ??4HeightFieldData@Gu@physx@@QEAAAEAU012@$$QEAU012@@Z 000000018000c410 f i GuBounds.obj
 0001:0000b470       ??4HeightFieldData@Gu@physx@@QEAAAEAU012@AEBU012@@Z 000000018000c470 f i GuBounds.obj
 0001:0000b4d0       ??_EPxBase@physx@@MEAAPEAXI@Z 000000018000c4d0 f i GuBounds.obj
 0001:0000b4d0       ??_GPxBase@physx@@MEAAPEAXI@Z 000000018000c4d0 f i GuBounds.obj
 0001:0000b500       ??_H@YAXPEAX_K1P6APEAX0@Z@Z 000000018000c500 f i GuBounds.obj
 0001:0000b550       ?computeAABBExtent@Box@Gu@physx@@QEBA?AVPxVec3@3@XZ 000000018000c550 f i GuBounds.obj
 0001:0000b610       ?computeBoxPoints@Box@Gu@physx@@QEBAXPEIAVPxVec3@3@@Z 000000018000c610 f i GuBounds.obj
 0001:0000c5c0       ?getConcreteTypeName@PxConvexMesh@physx@@UEBAPEBDXZ 000000018000d5c0 f i GuBounds.obj
 0001:0000c5d0       ?getConcreteTypeName@PxHeightField@physx@@UEBAPEBDXZ 000000018000d5d0 f i GuBounds.obj
 0001:0000c5e0       ?getConvexEdgeThreshold@HeightField@Gu@physx@@UEBAMXZ 000000018000d5e0 f i GuBounds.obj
 0001:0000c5f0       ?getFlags@HeightField@Gu@physx@@UEBA?AV?$PxFlags@W4Enum@PxHeightFieldFlag@physx@@G@3@XZ 000000018000d5f0 f i GuBounds.obj
 0001:0000c600       ?getFormat@HeightField@Gu@physx@@UEBA?AW4Enum@PxHeightFieldFormat@3@XZ 000000018000d600 f i GuBounds.obj
 0001:0000c610       ?getHeight@HeightField@Gu@physx@@UEBAMMM@Z 000000018000d610 f i GuBounds.obj
 0001:0000c650       ?getHeightInternal2@HeightField@Gu@physx@@QEBAMIMM@Z 000000018000d650 f i GuBounds.obj
 0001:0000c7c0       ?getIndexBuffer@ConvexMesh@Gu@physx@@UEBAPEBEXZ 000000018000d7c0 f i GuBounds.obj
 0001:0000c800       ?getNbColumns@HeightField@Gu@physx@@UEBAIXZ 000000018000d800 f i GuBounds.obj
 0001:0000c810       ?getNbPolygons@ConvexMesh@Gu@physx@@UEBAIXZ 000000018000d810 f i GuBounds.obj
 0001:0000c820       ?getNbRows@HeightField@Gu@physx@@UEBAIXZ 000000018000d820 f i GuBounds.obj
 0001:0000c830       ?getNbVertices@ConvexMesh@Gu@physx@@UEBAIXZ 000000018000d830 f i GuBounds.obj
 0001:0000c840       ?getPaddedBounds@HeightFieldData@Gu@physx@@QEBAAEBVCenterExtentsPadded@23@XZ 000000018000d840 f i GuBounds.obj
 0001:0000c850       ?getSample@HeightField@Gu@physx@@UEBAAEBUPxHeightFieldSample@3@II@Z 000000018000d850 f i GuBounds.obj
 0001:0000c860       ?getSampleStride@HeightField@Gu@physx@@UEBAIXZ 000000018000d860 f i GuBounds.obj
 0001:0000c870       ?getTimestamp@HeightField@Gu@physx@@UEBAIXZ 000000018000d870 f i GuBounds.obj
 0001:0000c880       ?getTransform@Box@Gu@physx@@QEBA?AVPxTransform@3@XZ 000000018000d880 f i GuBounds.obj
 0001:0000c8e0       ?getTriangleMaterialIndex@HeightField@Gu@physx@@UEBAGI@Z 000000018000d8e0 f i GuBounds.obj
 0001:0000c910       ?getTriangleNormal@HeightField@Gu@physx@@UEBA?AVPxVec3@3@I@Z 000000018000d910 f i GuBounds.obj
 0001:0000ca10       ?getVertices@ConvexMesh@Gu@physx@@UEBAPEBVPxVec3@3@XZ 000000018000da10 f i GuBounds.obj
 0001:0000ca30       ?isKindOf@PxBase@physx@@MEBA_NPEBD@Z 000000018000da30 f i GuBounds.obj
 0001:0000ca60       ?isKindOf@PxConvexMesh@physx@@MEBA_NPEBD@Z 000000018000da60 f i GuBounds.obj
 0001:0000cab0       ?isKindOf@PxHeightField@physx@@MEBA_NPEBD@Z 000000018000dab0 f i GuBounds.obj
 0001:0000cb00       ?isReleasable@PxBase@physx@@UEBA_NXZ 000000018000db00 f i GuBounds.obj
 0001:0000cb10       ?isValid@Box@Gu@physx@@QEBA_NXZ 000000018000db10 f i GuBounds.obj
 0001:0000cb30       ?preExportDataReset@ConvexMesh@Gu@physx@@QEAAXXZ 000000018000db30 f i GuBounds.obj
 0001:0000cb40       ?preExportDataReset@HeightField@Gu@physx@@QEAAXXZ 000000018000db40 f i GuBounds.obj
 0001:0000cb50       ?rotate@Box@Gu@physx@@QEBA?AVPxVec3@3@AEBV43@@Z 000000018000db50 f i GuBounds.obj
 0001:0000cbe0       ?rotateInv@Box@Gu@physx@@QEBA?AVPxVec3@3@AEBV43@@Z 000000018000dbe0 f i GuBounds.obj
 0001:0000cc70       ?setAxes@Box@Gu@physx@@QEAAXAEBVPxVec3@3@00@Z 000000018000dc70 f i GuBounds.obj
 0001:0000ccb0       ?setEmpty@Box@Gu@physx@@QEAAXXZ 000000018000dcb0 f i GuBounds.obj
 0001:0000ccf0       ?transform@Box@Gu@physx@@QEBA?AVPxVec3@3@AEBV43@@Z 000000018000dcf0 f i GuBounds.obj
 0001:0000cd90       ?computeOBBPoints@Gu@physx@@YAXPEIAVPxVec3@2@AEBV32@1111@Z 000000018000dd90 f   GuBox.obj
 0001:0000d010       ?create@Box@Gu@physx@@QEAAXAEBVCapsule@23@@Z 000000018000e010 f   GuBox.obj
 0001:0000d250       ?getBoxEdges@Gu@physx@@YAPEBEXZ 000000018000e250 f   GuBox.obj
 0001:0000d260       ?computeBoxAroundCapsule@Gu@physx@@YAXAEBVCapsule@12@AEAVBox@12@@Z 000000018000e260 f   GuCapsule.obj
 0001:0000d3b0       ?computeBasis@shdfnd@physx@@YAXAEBVPxVec3@2@0AEAV32@11@Z 000000018000e3b0 f i GuCapsule.obj
 0001:0000d550       ?sweepBoxTriangles_Precise@Gu@physx@@YA_NIPEBVPxTriangle@2@_NAEBVPxBoxGeometry@2@AEBVPxTransform@2@AEBVPxVec3@2@MAEAUPxSweepHit@2@PEBIMV?$PxFlags@W4Enum@PxHitFlag@physx@@G@2@@Z 000000018000e550 f   GuCCTSweepTests.obj
 0001:0000d690       ?sweepCapsule_BoxGeom_Precise@@YA_NAEBVPxGeometry@physx@@AEBVPxTransform@2@AEBVPxCapsuleGeometry@2@1AEBVCapsule@Gu@2@AEBVPxVec3@2@MAEAUPxSweepHit@2@V?$PxFlags@W4Enum@PxHitFlag@physx@@G@2@M@Z 000000018000e690 f   GuCCTSweepTests.obj
 0001:0000dce0       ?sweepBox_SphereGeom_Precise@@YA_NAEBVPxGeometry@physx@@AEBVPxTransform@2@AEBVPxBoxGeometry@2@1AEBVBox@Gu@2@AEBVPxVec3@2@MAEAUPxSweepHit@2@V?$PxFlags@W4Enum@PxHitFlag@physx@@G@2@M@Z 000000018000ece0 f   GuCCTSweepTests.obj
 0001:0000dfc0       ?sweepBox_CapsuleGeom_Precise@@YA_NAEBVPxGeometry@physx@@AEBVPxTransform@2@AEBVPxBoxGeometry@2@1AEBVBox@Gu@2@AEBVPxVec3@2@MAEAUPxSweepHit@2@V?$PxFlags@W4Enum@PxHitFlag@physx@@G@2@M@Z 000000018000efc0 f   GuCCTSweepTests.obj
 0001:0000e390       ?sweepBox_BoxGeom_Precise@@YA_NAEBVPxGeometry@physx@@AEBVPxTransform@2@AEBVPxBoxGeometry@2@1AEBVBox@Gu@2@AEBVPxVec3@2@MAEAUPxSweepHit@2@V?$PxFlags@W4Enum@PxHitFlag@physx@@G@2@M@Z 000000018000f390 f   GuCCTSweepTests.obj
 0001:0000e550       ?sweepBox_HeightFieldGeom_Precise@@YA_NAEBVPxGeometry@physx@@AEBVPxTransform@2@AEBVPxBoxGeometry@2@1AEBVBox@Gu@2@AEBVPxVec3@2@MAEAUPxSweepHit@2@V?$PxFlags@W4Enum@PxHitFlag@physx@@G@2@M@Z 000000018000f550 f   GuCCTSweepTests.obj
 0001:0000e920       ??0HeightFieldTraceUtil@Gu@physx@@QEAA@AEBVPxHeightFieldGeometry@2@@Z 000000018000f920 f i GuCCTSweepTests.obj
 0001:0000e960       ??0HeightFieldUtil@Gu@physx@@QEAA@AEBVPxHeightFieldGeometry@2@@Z 000000018000f960 f i GuCCTSweepTests.obj
 0001:0000e9a0       ??1?$EntityReport@I@Gu@physx@@UEAA@XZ 000000018000f9a0 f i GuCCTSweepTests.obj
 0001:0000e9b0       ??4HeightFieldTraceUtil@Gu@physx@@QEAAAEAV012@$$QEAV012@@Z 000000018000f9b0 f i GuCCTSweepTests.obj
 0001:0000e9d0       ??4HeightFieldTraceUtil@Gu@physx@@QEAAAEAV012@AEBV012@@Z 000000018000f9d0 f i GuCCTSweepTests.obj
 0001:0000e9f0       ??4HeightFieldUtil@Gu@physx@@QEAAAEAV012@$$QEAV012@@Z 000000018000f9f0 f i GuCCTSweepTests.obj
 0001:0000ea20       ??4HeightFieldUtil@Gu@physx@@QEAAAEAV012@AEBV012@@Z 000000018000fa20 f i GuCCTSweepTests.obj
 0001:0000ea40       ??_G?$EntityReport@I@Gu@physx@@UEAAPEAXI@Z 000000018000fa40 f i GuCCTSweepTests.obj
 0001:0000ea40       ??_E?$EntityReport@I@Gu@physx@@UEAAPEAXI@Z 000000018000fa40 f i GuCCTSweepTests.obj
 0001:0000eaa0       ?ceilUp@HeightFieldTraceUtil@Gu@physx@@SAMM@Z 000000018000faa0 f i GuCCTSweepTests.obj
 0001:0000eae0       ?computePointNormal@HeightFieldUtil@Gu@physx@@QEBA?AVPxVec3@3@IAEBV43@AEBVPxTransform@3@MMMMAEAM@Z 000000018000fae0 f i GuCCTSweepTests.obj
 0001:0000ef00       ?floorDown@HeightFieldTraceUtil@Gu@physx@@SAMM@Z 000000018000ff00 f i GuCCTSweepTests.obj
 0001:0000ef40       ?getFeatureIndex@HeightFieldUtil@Gu@physx@@SAII@Z 000000018000ff40 f i GuCCTSweepTests.obj
 0001:0000ef50       ?getFeatureType@HeightFieldUtil@Gu@physx@@SA?AW4Feature@123@I@Z 000000018000ff50 f i GuCCTSweepTests.obj
 0001:0000ef60       ?getHeightAtShapePoint@HeightFieldUtil@Gu@physx@@QEBAMMM@Z 000000018000ff60 f i GuCCTSweepTests.obj
 0001:0000efc0       ?getHeightField@HeightFieldUtil@Gu@physx@@QEBAAEBVHeightField@23@XZ 000000018000ffc0 f i GuCCTSweepTests.obj
 0001:0000efd0       ?getHeightFieldGeometry@HeightFieldUtil@Gu@physx@@QEBAAEBVPxHeightFieldGeometry@3@XZ 000000018000ffd0 f i GuCCTSweepTests.obj
 0001:0000efe0       ?getNormalAtShapePoint@HeightFieldUtil@Gu@physx@@QEBA?AVPxVec3@3@MM@Z 000000018000ffe0 f i GuCCTSweepTests.obj
 0001:0000f0a0       ?getNormal_2@HeightField@Gu@physx@@QEBA?AVPxVec3@3@IMMMMM@Z 00000001800100a0 f i GuCCTSweepTests.obj
 0001:0000f1c0       ?getOneOverColumnScale@HeightFieldUtil@Gu@physx@@QEBAMXZ 00000001800101c0 f i GuCCTSweepTests.obj
 0001:0000f1d0       ?getOneOverHeightScale@HeightFieldUtil@Gu@physx@@QEBAMXZ 00000001800101d0 f i GuCCTSweepTests.obj
 0001:0000f1e0       ?getOneOverRowScale@HeightFieldUtil@Gu@physx@@QEBAMXZ 00000001800101e0 f i GuCCTSweepTests.obj
 0001:0000f1f0       ?getVertexNormal@HeightFieldUtil@Gu@physx@@QEBA?AVPxVec3@3@I@Z 00000001800101f0 f i GuCCTSweepTests.obj
 0001:0000f230       ?hf2shapen@HeightFieldUtil@Gu@physx@@QEBA?AVPxVec3@3@AEBV43@@Z 0000000180010230 f i GuCCTSweepTests.obj
 0001:0000f270       ?hf2shapep@HeightFieldUtil@Gu@physx@@QEBA?AVPxVec3@3@AEBV43@@Z 0000000180010270 f i GuCCTSweepTests.obj
 0001:0000f2b0       ?hf2worldn@HeightFieldUtil@Gu@physx@@QEBA?AVPxVec3@3@AEBVPxTransform@3@AEBV43@@Z 00000001800102b0 f i GuCCTSweepTests.obj
 0001:0000f420       ?hf2worldp@HeightFieldUtil@Gu@physx@@QEBA?AVPxVec3@3@AEBVPxTransform@3@AEBV43@@Z 0000000180010420 f i GuCCTSweepTests.obj
 0001:0000f5a0       ?isCollisionVertex@HeightFieldUtil@Gu@physx@@QEBA_NIII@Z 00000001800105a0 f i GuCCTSweepTests.obj
 0001:0000f5c0       ?isQueryVertex@HeightFieldUtil@Gu@physx@@QEBA_NIII@Z 00000001800105c0 f i GuCCTSweepTests.obj
 0001:0000f680       ?isShapePointOnHeightField@HeightFieldUtil@Gu@physx@@QEBA_NMM@Z 0000000180010680 f i GuCCTSweepTests.obj
 0001:0000f6d0       ?makeFeatureCode@HeightFieldUtil@Gu@physx@@SAIIW4Feature@123@@Z 00000001800106d0 f i GuCCTSweepTests.obj
 0001:0000f890       ?shape2hfp@HeightFieldUtil@Gu@physx@@QEBA?AVPxVec3@3@AEBV43@@Z 0000000180010890 f i GuCCTSweepTests.obj
 0001:00010510       ?sweep@PxGeometryQuery@physx@@SA_NAEBVPxVec3@2@MAEBVPxGeometry@2@AEBVPxTransform@2@12AEAUPxSweepHit@2@V?$PxFlags@W4Enum@PxHitFlag@physx@@G@2@M@Z 0000000180011510 f   GuGeometryQuery.obj
 0001:00010910       ?overlap@PxGeometryQuery@physx@@SA_NAEBVPxGeometry@2@AEBVPxTransform@2@01@Z 0000000180011910 f   GuGeometryQuery.obj
 0001:000109a0       ?raycast@PxGeometryQuery@physx@@SAIAEBVPxVec3@2@0AEBVPxGeometry@2@AEBVPxTransform@2@MV?$PxFlags@W4Enum@PxHitFlag@physx@@G@2@IPEIAUPxRaycastHit@2@@Z 00000001800119a0 f   GuGeometryQuery.obj
 0001:00010a40       ?computePenetration@PxGeometryQuery@physx@@SA_NAEAVPxVec3@2@AEAMAEBVPxGeometry@2@AEBVPxTransform@2@23@Z 0000000180011a40 f   GuGeometryQuery.obj
 0001:00010b30       ?pointDistance@PxGeometryQuery@physx@@SAMAEBVPxVec3@2@AEBVPxGeometry@2@AEBVPxTransform@2@PEAV32@@Z 0000000180011b30 f   GuGeometryQuery.obj
 0001:000111c0       ?getWorldBounds@PxGeometryQuery@physx@@SA?AVPxBounds3@2@AEBVPxGeometry@2@AEBVPxTransform@2@M@Z 00000001800121c0 f   GuGeometryQuery.obj
 0001:00011230       ?isValid@PxGeometryQuery@physx@@SA_NAEBVPxGeometry@2@@Z 0000000180012230 f   GuGeometryQuery.obj
 0001:00011420       ?isFinite@PxQuat@physx@@QEBA_NXZ 0000000180012420 f i GuGeometryQuery.obj
 0001:00011490       ?set@GeometryUnion@Gu@physx@@QEAAXAEBVPxGeometry@3@@Z 0000000180012490 f   GuGeometryUnion.obj
 0001:00011670       ??0GeometryUnion@Gu@physx@@QEAA@AEBVPxGeometry@2@@Z 0000000180012670 f i GuGeometryUnion.obj
 0001:00011690       ??0GeometryUnion@Gu@physx@@QEAA@W4PxEMPTY@2@@Z 0000000180012690 f i GuGeometryUnion.obj
 0001:000116a0       ??0GeometryUnion@Gu@physx@@QEAA@XZ 00000001800126a0 f i GuGeometryUnion.obj
 0001:000116b0       ??0MaterialIndicesStruct@physx@@QEAA@W4PxEMPTY@1@@Z 00000001800126b0 f i GuGeometryUnion.obj
 0001:000116c0       ??0MaterialIndicesStruct@physx@@QEAA@XZ 00000001800126c0 f i GuGeometryUnion.obj
 0001:000116e0       ??1MaterialIndicesStruct@physx@@QEAA@XZ 00000001800126e0 f i GuGeometryUnion.obj
 0001:000116f0       ??4GeometryUnion@Gu@physx@@QEAAAEAV012@$$QEAV012@@Z 00000001800126f0 f i GuGeometryUnion.obj
 0001:00011720       ??4GeometryUnion@Gu@physx@@QEAAAEAV012@AEBV012@@Z 0000000180012720 f i GuGeometryUnion.obj
 0001:00011750       ??4MaterialIndicesStruct@physx@@QEAAAEAU01@AEBU01@@Z 0000000180012750 f i GuGeometryUnion.obj
 0001:00011760       ?allocate@MaterialIndicesStruct@physx@@QEAAXG@Z 0000000180012760 f i GuGeometryUnion.obj
 0001:000117e0       ?deallocate@MaterialIndicesStruct@physx@@QEAAXXZ 00000001800127e0 f i GuGeometryUnion.obj
 0001:00011830       ?getGeometry@GeometryUnion@Gu@physx@@QEBAAEBVPxGeometry@3@XZ 0000000180012830 f i GuGeometryUnion.obj
 0001:00011840       ?getType@GeometryUnion@Gu@physx@@QEBA?AW4Enum@PxGeometryType@3@XZ 0000000180012840 f i GuGeometryUnion.obj
 0001:00011850       ?computeBoxPoints@Gu@physx@@YAXAEBVPxBounds3@2@PEIAVPxVec3@2@@Z 0000000180012850 f   GuInternal.obj
 0001:000118f0       ?computeBoundsAroundVertices@Gu@physx@@YAXAEAVPxBounds3@2@IPEIBVPxVec3@2@@Z 00000001800128f0 f   GuInternal.obj
 0001:000119a0       ?getPlane@Gu@physx@@YA?AVPxPlane@2@AEBVPxTransform@2@@Z 00000001800129a0 f   GuInternal.obj
 0001:00011a50       ?computeSweptBox@Gu@physx@@YAXAEAVBox@12@AEBVPxVec3@2@1AEBVPxMat33@2@1M@Z 0000000180012a50 f   GuInternal.obj
 0001:00011f80       ??0GuMeshFactory@physx@@QEAA@XZ 0000000180012f80 f   GuMeshFactory.obj
 0001:00012120       ??1GuMeshFactory@physx@@MEAA@XZ 0000000180013120 f   GuMeshFactory.obj
 0001:00012220       ?release@GuMeshFactory@physx@@QEAAXXZ 0000000180013220 f   GuMeshFactory.obj
 0001:000122d0       ?addTriangleMesh@GuMeshFactory@physx@@QEAAXPEAVTriangleMesh@Gu@2@_N@Z 00000001800132d0 f   GuMeshFactory.obj
 0001:00012350       ?createTriangleMesh@GuMeshFactory@physx@@QEAAPEAVPxTriangleMesh@2@AEAVPxInputStream@2@@Z 0000000180013350 f   GuMeshFactory.obj
 0001:000123b0       ?createTriangleMesh@GuMeshFactory@physx@@QEAAPEAVPxTriangleMesh@2@PEAX@Z 00000001800133b0 f   GuMeshFactory.obj
 0001:000123c0       ?removeTriangleMesh@GuMeshFactory@physx@@QEAA_NAEAVPxTriangleMesh@2@@Z 00000001800133c0 f   GuMeshFactory.obj
 0001:00012410       ?getNbTriangleMeshes@GuMeshFactory@physx@@QEBAIXZ 0000000180013410 f   GuMeshFactory.obj
 0001:00012450       ?getTriangleMeshes@GuMeshFactory@physx@@QEBAIPEAPEAVPxTriangleMesh@2@II@Z 0000000180013450 f   GuMeshFactory.obj
 0001:000124e0       ?addConvexMesh@GuMeshFactory@physx@@QEAAXPEAVConvexMesh@Gu@2@_N@Z 00000001800134e0 f   GuMeshFactory.obj
 0001:00012560       ?createConvexMesh@GuMeshFactory@physx@@QEAAPEAVPxConvexMesh@2@AEAVPxInputStream@2@@Z 0000000180013560 f   GuMeshFactory.obj
 0001:00012680       ?createConvexMesh@GuMeshFactory@physx@@QEAAPEAVPxConvexMesh@2@PEAX@Z 0000000180013680 f   GuMeshFactory.obj
 0001:00012690       ?removeConvexMesh@GuMeshFactory@physx@@QEAA_NAEAVPxConvexMesh@2@@Z 0000000180013690 f   GuMeshFactory.obj
 0001:000126e0       ?getNbConvexMeshes@GuMeshFactory@physx@@QEBAIXZ 00000001800136e0 f   GuMeshFactory.obj
 0001:00012720       ?getConvexMeshes@GuMeshFactory@physx@@QEBAIPEAPEAVPxConvexMesh@2@II@Z 0000000180013720 f   GuMeshFactory.obj
 0001:000127b0       ?addHeightField@GuMeshFactory@physx@@QEAAXPEAVHeightField@Gu@2@_N@Z 00000001800137b0 f   GuMeshFactory.obj
 0001:00012830       ?createHeightField@GuMeshFactory@physx@@QEAAPEAVPxHeightField@2@PEAX@Z 0000000180013830 f   GuMeshFactory.obj
 0001:00012930       ?createHeightField@GuMeshFactory@physx@@QEAAPEAVPxHeightField@2@AEAVPxInputStream@2@@Z 0000000180013930 f   GuMeshFactory.obj
 0001:00012a50       ?removeHeightField@GuMeshFactory@physx@@QEAA_NAEAVPxHeightField@2@@Z 0000000180013a50 f   GuMeshFactory.obj
 0001:00012ab0       ?getNbHeightFields@GuMeshFactory@physx@@QEBAIXZ 0000000180013ab0 f   GuMeshFactory.obj
 0001:00012af0       ?getHeightFields@GuMeshFactory@physx@@QEBAIPEAPEAVPxHeightField@2@II@Z 0000000180013af0 f   GuMeshFactory.obj
 0001:00012b90       ?addBVHStructure@GuMeshFactory@physx@@QEAAXPEAVBVHStructure@Gu@2@_N@Z 0000000180013b90 f   GuMeshFactory.obj
 0001:00012c10       ?createBVHStructure@GuMeshFactory@physx@@QEAAPEAVPxBVHStructure@2@AEAVPxInputStream@2@@Z 0000000180013c10 f   GuMeshFactory.obj
 0001:00012d30       ?createBVHStructure@GuMeshFactory@physx@@QEAAPEAVPxBVHStructure@2@PEAX@Z 0000000180013d30 f   GuMeshFactory.obj
 0001:00012d40       ?removeBVHStructure@GuMeshFactory@physx@@QEAA_NAEAVPxBVHStructure@2@@Z 0000000180013d40 f   GuMeshFactory.obj
 0001:00012da0       ?getNbBVHStructures@GuMeshFactory@physx@@QEBAIXZ 0000000180013da0 f   GuMeshFactory.obj
 0001:00012de0       ?getBVHStructures@GuMeshFactory@physx@@QEBAIPEAPEAVPxBVHStructure@2@II@Z 0000000180013de0 f   GuMeshFactory.obj
 0001:00012e80       ?addFactoryListener@GuMeshFactory@physx@@QEAAXAEAVGuMeshFactoryListener@2@@Z 0000000180013e80 f   GuMeshFactory.obj
 0001:00012ef0       ?removeFactoryListener@GuMeshFactory@physx@@QEAAXAEAVGuMeshFactoryListener@2@@Z 0000000180013ef0 f   GuMeshFactory.obj
 0001:00012f80       ?notifyFactoryListener@GuMeshFactory@physx@@QEAAXPEBVPxBase@2@G@Z 0000000180013f80 f   GuMeshFactory.obj
 0001:00013000       ?createTriangleMesh@GuMeshFactory@physx@@IEAAPEAVPxTriangleMesh@2@AEAVTriangleMeshData@Gu@2@@Z 0000000180014000 f   GuMeshFactory.obj
 0001:00013190       ?createConvexMesh@GuMeshFactory@physx@@IEAAPEAVPxConvexMesh@2@AEAUConvexHullInitData@Gu@2@@Z 0000000180014190 f   GuMeshFactory.obj
 0001:00013290       ?createBVHStructure@GuMeshFactory@physx@@IEAAPEAVPxBVHStructure@2@AEAUBVHStructureData@Gu@2@@Z 0000000180014290 f   GuMeshFactory.obj
 0001:00013390       ??$?_UI@@YAPEAX_KV?$ReflectionAllocator@I@shdfnd@physx@@PEBDH@Z 0000000180014390 f i GuMeshFactory.obj
 0001:00013430       ??1BV4TriangleData@Gu@physx@@UEAA@XZ 0000000180014430 f i GuMeshFactory.obj
 0001:00013470       ??1MeshDataBase@Gu@physx@@UEAA@XZ 0000000180014470 f i GuMeshFactory.obj
 0001:00013560       ??1RTreeTriangleData@Gu@physx@@UEAA@XZ 0000000180014560 f i GuMeshFactory.obj
 0001:000135d0       ??1TriangleMeshData@Gu@physx@@UEAA@XZ 00000001800145d0 f i GuMeshFactory.obj
 0001:000136a0       ??_EGuMeshFactory@physx@@MEAAPEAXI@Z 00000001800146a0 f i GuMeshFactory.obj
 0001:000137b0       ??_GBV4TriangleData@Gu@physx@@UEAAPEAXI@Z 00000001800147b0 f i GuMeshFactory.obj
 0001:000137b0       ??_EBV4TriangleData@Gu@physx@@UEAAPEAXI@Z 00000001800147b0 f i GuMeshFactory.obj
 0001:00013840       ??_GGuMeshFactory@physx@@MEAAPEAXI@Z 0000000180014840 f i GuMeshFactory.obj
 0001:000138b0       ??_EMeshDataBase@Gu@physx@@UEAAPEAXI@Z 00000001800148b0 f i GuMeshFactory.obj
 0001:000138b0       ??_GMeshDataBase@Gu@physx@@UEAAPEAXI@Z 00000001800148b0 f i GuMeshFactory.obj
 0001:00013920       ??_ERTreeTriangleData@Gu@physx@@UEAAPEAXI@Z 0000000180014920 f i GuMeshFactory.obj
 0001:00013920       ??_GRTreeTriangleData@Gu@physx@@UEAAPEAXI@Z 0000000180014920 f i GuMeshFactory.obj
 0001:000139d0       ??_ETriangleMeshData@Gu@physx@@UEAAPEAXI@Z 00000001800149d0 f i GuMeshFactory.obj
 0001:000139d0       ??_GTriangleMeshData@Gu@physx@@UEAAPEAXI@Z 00000001800149d0 f i GuMeshFactory.obj
 0001:00013a40       ?__global_array_delete@@YAXPEAX@Z 0000000180014a40 f i GuMeshFactory.obj
 0001:00013a50       ?__global_array_delete@@YAXPEAX_K@Z 0000000180014a50 f i GuMeshFactory.obj
 0001:00013a60       ?__global_delete@@YAXPEAX@Z 0000000180014a60 f i GuMeshFactory.obj
 0001:00013a70       ?__global_delete@@YAXPEAX_K@Z 0000000180014a70 f i GuMeshFactory.obj
 0001:00013a80       ?create@?$HashBase@PEAVBVHStructure@Gu@physx@@PEAV123@U?$Hash@PEAVBVHStructure@Gu@physx@@@shdfnd@3@UGetKey@?$HashSetBase@PEAVBVHStructure@Gu@physx@@U?$Hash@PEAVBVHStructure@Gu@physx@@@shdfnd@3@VNonTrackingAllocator@53@$00@internal@53@VNonTrackingAllocator@53@$00@internal@shdfnd@physx@@QEAAPEAPEAVBVHStructure@Gu@4@AEBQEAV564@AEA_N@Z 0000000180014a80 f i GuMeshFactory.obj
 0001:00013c20       ?create@?$HashBase@PEAVConvexMesh@Gu@physx@@PEAV123@U?$Hash@PEAVConvexMesh@Gu@physx@@@shdfnd@3@UGetKey@?$HashSetBase@PEAVConvexMesh@Gu@physx@@U?$Hash@PEAVConvexMesh@Gu@physx@@@shdfnd@3@VNonTrackingAllocator@53@$00@internal@53@VNonTrackingAllocator@53@$00@internal@shdfnd@physx@@QEAAPEAPEAVConvexMesh@Gu@4@AEBQEAV564@AEA_N@Z 0000000180014c20 f i GuMeshFactory.obj
 0001:00013dc0       ?create@?$HashBase@PEAVHeightField@Gu@physx@@PEAV123@U?$Hash@PEAVHeightField@Gu@physx@@@shdfnd@3@UGetKey@?$HashSetBase@PEAVHeightField@Gu@physx@@U?$Hash@PEAVHeightField@Gu@physx@@@shdfnd@3@VNonTrackingAllocator@53@$00@internal@53@VNonTrackingAllocator@53@$00@internal@shdfnd@physx@@QEAAPEAPEAVHeightField@Gu@4@AEBQEAV564@AEA_N@Z 0000000180014dc0 f i GuMeshFactory.obj
 0001:00013f60       ?create@?$HashBase@PEAVTriangleMesh@Gu@physx@@PEAV123@U?$Hash@PEAVTriangleMesh@Gu@physx@@@shdfnd@3@UGetKey@?$HashSetBase@PEAVTriangleMesh@Gu@physx@@U?$Hash@PEAVTriangleMesh@Gu@physx@@@shdfnd@3@VNonTrackingAllocator@53@$00@internal@53@VNonTrackingAllocator@53@$00@internal@shdfnd@physx@@QEAAPEAPEAVTriangleMesh@Gu@4@AEBQEAV564@AEA_N@Z 0000000180014f60 f i GuMeshFactory.obj
 0001:00014100       ?erase@?$HashBase@PEAVBVHStructure@Gu@physx@@PEAV123@U?$Hash@PEAVBVHStructure@Gu@physx@@@shdfnd@3@UGetKey@?$HashSetBase@PEAVBVHStructure@Gu@physx@@U?$Hash@PEAVBVHStructure@Gu@physx@@@shdfnd@3@VNonTrackingAllocator@53@$00@internal@53@VNonTrackingAllocator@53@$00@internal@shdfnd@physx@@QEAA_NAEBQEAVBVHStructure@Gu@4@@Z 0000000180015100 f i GuMeshFactory.obj
 0001:00014270       ?erase@?$HashBase@PEAVConvexMesh@Gu@physx@@PEAV123@U?$Hash@PEAVConvexMesh@Gu@physx@@@shdfnd@3@UGetKey@?$HashSetBase@PEAVConvexMesh@Gu@physx@@U?$Hash@PEAVConvexMesh@Gu@physx@@@shdfnd@3@VNonTrackingAllocator@53@$00@internal@53@VNonTrackingAllocator@53@$00@internal@shdfnd@physx@@QEAA_NAEBQEAVConvexMesh@Gu@4@@Z 0000000180015270 f i GuMeshFactory.obj
 0001:000143e0       ?erase@?$HashBase@PEAVHeightField@Gu@physx@@PEAV123@U?$Hash@PEAVHeightField@Gu@physx@@@shdfnd@3@UGetKey@?$HashSetBase@PEAVHeightField@Gu@physx@@U?$Hash@PEAVHeightField@Gu@physx@@@shdfnd@3@VNonTrackingAllocator@53@$00@internal@53@VNonTrackingAllocator@53@$00@internal@shdfnd@physx@@QEAA_NAEBQEAVHeightField@Gu@4@@Z 00000001800153e0 f i GuMeshFactory.obj
 0001:00014550       ?erase@?$HashBase@PEAVTriangleMesh@Gu@physx@@PEAV123@U?$Hash@PEAVTriangleMesh@Gu@physx@@@shdfnd@3@UGetKey@?$HashSetBase@PEAVTriangleMesh@Gu@physx@@U?$Hash@PEAVTriangleMesh@Gu@physx@@@shdfnd@3@VNonTrackingAllocator@53@$00@internal@53@VNonTrackingAllocator@53@$00@internal@shdfnd@physx@@QEAA_NAEBQEAVTriangleMesh@Gu@4@@Z 0000000180015550 f i GuMeshFactory.obj
 0001:000146c0       ?growAndPushBack@?$Array@PEAVGuMeshFactoryListener@physx@@V?$ReflectionAllocator@PEAVGuMeshFactoryListener@physx@@@shdfnd@2@@shdfnd@physx@@IEAAAEAPEAVGuMeshFactoryListener@3@AEBQEAV43@@Z 00000001800156c0 f i GuMeshFactory.obj
 0001:00015670       ?reserveInternal@?$HashBase@PEAVBVHStructure@Gu@physx@@PEAV123@U?$Hash@PEAVBVHStructure@Gu@physx@@@shdfnd@3@UGetKey@?$HashSetBase@PEAVBVHStructure@Gu@physx@@U?$Hash@PEAVBVHStructure@Gu@physx@@@shdfnd@3@VNonTrackingAllocator@53@$00@internal@53@VNonTrackingAllocator@53@$00@internal@shdfnd@physx@@AEAAXI@Z 0000000180016670 f i GuMeshFactory.obj
 0001:00015840       ?reserveInternal@?$HashBase@PEAVConvexMesh@Gu@physx@@PEAV123@U?$Hash@PEAVConvexMesh@Gu@physx@@@shdfnd@3@UGetKey@?$HashSetBase@PEAVConvexMesh@Gu@physx@@U?$Hash@PEAVConvexMesh@Gu@physx@@@shdfnd@3@VNonTrackingAllocator@53@$00@internal@53@VNonTrackingAllocator@53@$00@internal@shdfnd@physx@@AEAAXI@Z 0000000180016840 f i GuMeshFactory.obj
 0001:00015a10       ?reserveInternal@?$HashBase@PEAVHeightField@Gu@physx@@PEAV123@U?$Hash@PEAVHeightField@Gu@physx@@@shdfnd@3@UGetKey@?$HashSetBase@PEAVHeightField@Gu@physx@@U?$Hash@PEAVHeightField@Gu@physx@@@shdfnd@3@VNonTrackingAllocator@53@$00@internal@53@VNonTrackingAllocator@53@$00@internal@shdfnd@physx@@AEAAXI@Z 0000000180016a10 f i GuMeshFactory.obj
 0001:00015be0       ?reserveInternal@?$HashBase@PEAVTriangleMesh@Gu@physx@@PEAV123@U?$Hash@PEAVTriangleMesh@Gu@physx@@@shdfnd@3@UGetKey@?$HashSetBase@PEAVTriangleMesh@Gu@physx@@U?$Hash@PEAVTriangleMesh@Gu@physx@@@shdfnd@3@VNonTrackingAllocator@53@$00@internal@53@VNonTrackingAllocator@53@$00@internal@shdfnd@physx@@AEAAXI@Z 0000000180016be0 f i GuMeshFactory.obj
 0001:00015db0       ?getBinaryMetaData@HeightField@Gu@physx@@SAXAEAVPxOutputStream@3@@Z 0000000180016db0 f   GuMetaData.obj
 0001:000161e0       ?getBinaryMetaData@BigConvexData@physx@@SAXAEAVPxOutputStream@2@@Z 00000001800171e0 f   GuMetaData.obj
 0001:000164b0       ?getBinaryMetaData@ConvexMesh@Gu@physx@@SAXAEAVPxOutputStream@3@@Z 00000001800174b0 f   GuMetaData.obj
 0001:00016b40       ?getBinaryMetaData@RTree@Gu@physx@@SAXAEAVPxOutputStream@3@@Z 0000000180017b40 f   GuMetaData.obj
 0001:00016e80       ?getBinaryMetaData@SourceMesh@Gu@physx@@SAXAEAVPxOutputStream@3@@Z 0000000180017e80 f   GuMetaData.obj
 0001:00017070       ?getBinaryMetaData@BV4Tree@Gu@physx@@SAXAEAVPxOutputStream@3@@Z 0000000180018070 f   GuMetaData.obj
 0001:00017400       ?getBinaryMetaData@TriangleMesh@Gu@physx@@SAXAEAVPxOutputStream@3@@Z 0000000180018400 f   GuMetaData.obj
 0001:00017c20       ?getBinaryMetaData@BV4TriangleMesh@Gu@physx@@SAXAEAVPxOutputStream@3@@Z 0000000180018c20 f   GuMetaData.obj
 0001:00017f00       ?getBinaryMetaData@RTreeTriangleMesh@Gu@physx@@SAXAEAVPxOutputStream@3@@Z 0000000180018f00 f   GuMetaData.obj
 0001:00017ff0       ?getBinaryMetaData@MaterialIndicesStruct@physx@@SAXAEAVPxOutputStream@2@@Z 0000000180018ff0 f   GuMetaData.obj
 0001:000181a0       ?getBinaryMetaData@GeometryUnion@Gu@physx@@SAXAEAVPxOutputStream@3@@Z 00000001800191a0 f   GuMetaData.obj
 0001:000187f0       ??0BigConvexData@physx@@QEAA@W4PxEMPTY@1@@Z 00000001800197f0 f i GuMetaData.obj
 0001:00018800       ??4BigConvexData@physx@@QEAAAEAV01@AEBV01@@Z 0000000180019800 f i GuMetaData.obj
 0001:00018820       ?GetAdjacentVerts@BigConvexData@physx@@QEBAPEBEXZ 0000000180019820 f i GuMetaData.obj
 0001:00018830       ?GetNbNeighbors@BigConvexData@physx@@QEBAGI@Z 0000000180019830 f i GuMetaData.obj
 0001:00018840       ?GetNbSamples@BigConvexData@physx@@QEBAIXZ 0000000180019840 f i GuMetaData.obj
 0001:00018850       ?GetNbVerts@BigConvexData@physx@@QEBAIXZ 0000000180019850 f i GuMetaData.obj
 0001:00018860       ?GetNeighbors@BigConvexData@physx@@QEBAPEBEI@Z 0000000180019860 f i GuMetaData.obj
 0001:00018870       ?GetOffset@BigConvexData@physx@@QEBAGI@Z 0000000180019870 f i GuMetaData.obj
 0001:00018880       ?GetSubdiv@BigConvexData@physx@@QEBAIXZ 0000000180019880 f i GuMetaData.obj
 0001:00018890       ?GetValencies@BigConvexData@physx@@QEBAPEBUValency@Gu@2@XZ 0000000180019890 f i GuMetaData.obj
 0001:000188a0       ?GetValency@BigConvexData@physx@@QEBAGI@Z 00000001800198a0 f i GuMetaData.obj
 0001:00019cc0       ?doSupport@?$SupportLocalImpl@VConvexHullV@Gu@physx@@@Gu@physx@@UEBA?AT__m128@@AEBT4@@Z 000000018001acc0 f i GuMTD.obj
 0001:00019da0       ?doSupport@?$SupportLocalImpl@VConvexHullV@Gu@physx@@@Gu@physx@@UEBAXAEBT__m128@@AEAT4@1@Z 000000018001ada0 f i GuMTD.obj
 0001:0001a100       ?populateVerts@?$SupportLocalImpl@VConvexHullV@Gu@physx@@@Gu@physx@@UEBAXPEBEIPEBVPxVec3@3@PEAT__m128@@@Z 000000018001b100 f i GuMTD.obj
 0001:0001a160       ??_G?$SupportLocalImpl@VConvexHullV@Gu@physx@@@Gu@physx@@UEAAPEAXI@Z 000000018001b160 f i GuMTD.obj
 0001:0001a160       ??_E?$SupportLocalImpl@VConvexHullV@Gu@physx@@@Gu@physx@@UEAAPEAXI@Z 000000018001b160 f i GuMTD.obj
 0001:0001a190       ?doSupport@?$SupportLocalImpl@VConvexHullNoScaleV@Gu@physx@@@Gu@physx@@UEBA?AT__m128@@AEBT4@@Z 000000018001b190 f i GuMTD.obj
 0001:0001a1e0       ?doSupport@?$SupportLocalImpl@VConvexHullNoScaleV@Gu@physx@@@Gu@physx@@UEBAXAEBT__m128@@AEAT4@1@Z 000000018001b1e0 f i GuMTD.obj
 0001:0001a360       ?populateVerts@?$SupportLocalImpl@VConvexHullNoScaleV@Gu@physx@@@Gu@physx@@UEBAXPEBEIPEBVPxVec3@3@PEAT__m128@@@Z 000000018001b360 f i GuMTD.obj
 0001:0001a3a0       ??_G?$SupportLocalImpl@VConvexHullNoScaleV@Gu@physx@@@Gu@physx@@UEAAPEAXI@Z 000000018001b3a0 f i GuMTD.obj
 0001:0001a3a0       ??_E?$SupportLocalImpl@VConvexHullNoScaleV@Gu@physx@@@Gu@physx@@UEAAPEAXI@Z 000000018001b3a0 f i GuMTD.obj
 0001:0001a3d0       ?doSupport@?$SupportLocalImpl@VBoxV@Gu@physx@@@Gu@physx@@UEBA?AT__m128@@AEBT4@@Z 000000018001b3d0 f i GuMTD.obj
 0001:0001a400       ?doSupport@?$SupportLocalImpl@VBoxV@Gu@physx@@@Gu@physx@@UEBAXAEBT__m128@@AEAT4@1@Z 000000018001b400 f i GuMTD.obj
 0001:0001a450       ?populateVerts@?$SupportLocalImpl@VBoxV@Gu@physx@@@Gu@physx@@UEBAXPEBEIPEBVPxVec3@3@PEAT__m128@@@Z 000000018001b450 f i GuMTD.obj
 0001:0001a490       ??_G?$SupportLocalImpl@VBoxV@Gu@physx@@@Gu@physx@@UEAAPEAXI@Z 000000018001b490 f i GuMTD.obj
 0001:0001a490       ??_E?$SupportLocalImpl@VBoxV@Gu@physx@@@Gu@physx@@UEAAPEAXI@Z 000000018001b490 f i GuMTD.obj
 0001:0001a4c0       ??_GSupportLocal@Gu@physx@@UEAAPEAXI@Z 000000018001b4c0 f i GuMTD.obj
 0001:0001a4c0       ??_ESupportLocal@Gu@physx@@UEAAPEAXI@Z 000000018001b4c0 f i GuMTD.obj
 0001:0001a4f0       ?pointConvexDistance@@YA_NAEAVPxVec3@physx@@0AEAMAEBV12@PEBVConvexMesh@Gu@2@AEBVPxMeshScale@2@AEBVPxTransform@2@@Z 000000018001b4f0 f   GuMTD.obj
 0001:0001ccd0       ??$gjk@U?$LocalConvex@VCapsuleV@Gu@physx@@@Gu@physx@@U?$LocalConvex@VConvexHullV@Gu@physx@@@23@@Gu@physx@@YA?AW4GjkStatus@01@AEBU?$LocalConvex@VCapsuleV@Gu@physx@@@01@AEBU?$LocalConvex@VConvexHullV@Gu@physx@@@01@AEBT__m128@@2AEAT5@333@Z 000000018001dcd0 f i GuMTD.obj
 0001:0001d930       ??0ContactPoint@Gu@physx@@QEAA@XZ 000000018001e930 f i GuMTD.obj
 0001:0001d940       ??0HullPolygonData@Gu@physx@@QEAA@AEBU012@@Z 000000018001e940 f i GuMTD.obj
 0001:0001d970       ??0MeshPersistentContact@Gu@physx@@QEAA@XZ 000000018001e970 f i GuMTD.obj
 0001:0001d980       ??0MultiplePersistentContactManifold@Gu@physx@@QEAA@XZ 000000018001e980 f i GuMTD.obj
 0001:0001d9d0       ??0PersistentContact@Gu@physx@@QEAA@XZ 000000018001e9d0 f i GuMTD.obj
 0001:0001d9e0       ??0PolygonalBox@Gu@physx@@QEAA@AEBV012@@Z 000000018001e9e0 f i GuMTD.obj
 0001:0001dc60       ??0PxVec3@physx@@QEAA@AEBV01@@Z 000000018001ec60 f i GuMTD.obj
 0001:0001dc80       ??0SeparatingAxes@Gu@physx@@QEAA@$$QEAV012@@Z 000000018001ec80 f i GuMTD.obj
 0001:0001dd90       ??0SeparatingAxes@Gu@physx@@QEAA@AEBV012@@Z 000000018001ed90 f i GuMTD.obj
 0001:0001dea0       ??0SeparatingAxes@Gu@physx@@QEAA@XZ 000000018001eea0 f i GuMTD.obj
 0001:0001deb0       ??0SinglePersistentContactManifold@Gu@physx@@QEAA@XZ 000000018001eeb0 f i GuMTD.obj
 0001:0001dec0       ??1GjkConvexBase@Gu@physx@@UEAA@XZ 000000018001eec0 f i GuMTD.obj
 0001:0001ded0       ??1SupportLocal@Gu@physx@@UEAA@XZ 000000018001eed0 f i GuMTD.obj
 0001:0001dee0       ??4MultiplePersistentContactManifold@Gu@physx@@QEAAAEAV012@$$QEAV012@@Z 000000018001eee0 f i GuMTD.obj
 0001:0001e1f0       ??4MultiplePersistentContactManifold@Gu@physx@@QEAAAEAV012@AEBV012@@Z 000000018001f1f0 f i GuMTD.obj
 0001:0001e210       ??4SeparatingAxes@Gu@physx@@QEAAAEAV012@$$QEAV012@@Z 000000018001f210 f i GuMTD.obj
 0001:0001e320       ??4SeparatingAxes@Gu@physx@@QEAAAEAV012@AEBV012@@Z 000000018001f320 f i GuMTD.obj
 0001:0001e430       ??_G?$LocalConvex@VCapsuleV@Gu@physx@@@Gu@physx@@UEAAPEAXI@Z 000000018001f430 f i GuMTD.obj
 0001:0001e430       ??_E?$LocalConvex@VCapsuleV@Gu@physx@@@Gu@physx@@UEAAPEAXI@Z 000000018001f430 f i GuMTD.obj
 0001:0001e460       ??_G?$LocalConvex@VConvexHullV@Gu@physx@@@Gu@physx@@UEAAPEAXI@Z 000000018001f460 f i GuMTD.obj
 0001:0001e460       ??_E?$LocalConvex@VConvexHullV@Gu@physx@@@Gu@physx@@UEAAPEAXI@Z 000000018001f460 f i GuMTD.obj
 0001:0001e490       ??_GGjkConvex@Gu@physx@@UEAAPEAXI@Z 000000018001f490 f i GuMTD.obj
 0001:0001e490       ??_EGjkConvex@Gu@physx@@UEAAPEAXI@Z 000000018001f490 f i GuMTD.obj
 0001:0001e4c0       ??_GGjkConvexBase@Gu@physx@@UEAAPEAXI@Z 000000018001f4c0 f i GuMTD.obj
 0001:0001e4c0       ??_EGjkConvexBase@Gu@physx@@UEAAPEAXI@Z 000000018001f4c0 f i GuMTD.obj
 0001:0001e4f0       ??__G@YAXPEAX0_K1P6APEAX00@Z@Z 000000018001f4f0 f i GuMTD.obj
 0001:0001ecb0       ?clearManifold@MultiplePersistentContactManifold@Gu@physx@@QEAAXXZ 000000018001fcb0 f i GuMTD.obj
 0001:00022870       ?getAxes@SeparatingAxes@Gu@physx@@QEBAPEBVPxVec3@3@XZ 0000000180023870 f i GuMTD.obj
 0001:00022880       ?getCenter@?$LocalConvex@VCapsuleV@Gu@physx@@@Gu@physx@@UEBA?AT__m128@@XZ 0000000180023880 f i GuMTD.obj
 0001:00022890       ?getCenter@?$LocalConvex@VConvexHullV@Gu@physx@@@Gu@physx@@UEBA?AT__m128@@XZ 0000000180023890 f i GuMTD.obj
 0001:000228a0       ?getEmptyManifold@MultiplePersistentContactManifold@Gu@physx@@QEAAPEAVSinglePersistentContactManifold@23@XZ 00000001800238a0 f i GuMTD.obj
 0001:000228c0       ?getManifold@MultiplePersistentContactManifold@Gu@physx@@QEAAPEAVSinglePersistentContactManifold@23@I@Z 00000001800238c0 f i GuMTD.obj
 0001:000228e0       ?getNumAxes@SeparatingAxes@Gu@physx@@QEBAIXZ 00000001800238e0 f i GuMTD.obj
 0001:000228f0       ?getSweepMargin@?$LocalConvex@VCapsuleV@Gu@physx@@@Gu@physx@@UEBA?AT__m128@@XZ 00000001800238f0 f i GuMTD.obj
 0001:00022900       ?getSweepMargin@?$LocalConvex@VConvexHullV@Gu@physx@@@Gu@physx@@UEBA?AT__m128@@XZ 0000000180023900 f i GuMTD.obj
 0001:00022920       ?getSweepMargin@GjkConvex@Gu@physx@@UEBA?AT__m128@@XZ 0000000180023920 f i GuMTD.obj
 0001:00022940       ?hillClimbing@ConvexHullV@Gu@physx@@QEBAIAEBT__m128@@@Z 0000000180023940 f i GuMTD.obj
 0001:00022b70       ?initialize@MultiplePersistentContactManifold@Gu@physx@@QEAAXXZ 0000000180023b70 f i GuMTD.obj
 0001:00022bd0       ?invalidate@MultiplePersistentContactManifold@Gu@physx@@QEAAIAEBVPsTransformV@aos@shdfnd@3@AEBT__m128@@1@Z 0000000180023bd0 f i GuMTD.obj
 0001:00022c50       ?invalidate@MultiplePersistentContactManifold@Gu@physx@@QEAAIAEBVPsTransformV@aos@shdfnd@3@AEBT__m128@@@Z 0000000180023c50 f i GuMTD.obj
 0001:00022cd0       ?maxTransformPositionDelta@MultiplePersistentContactManifold@Gu@physx@@QEAA?AT__m128@@AEBT4@@Z 0000000180023cd0 f i GuMTD.obj
 0001:00022d10       ?maxTransformQuatDelta@MultiplePersistentContactManifold@Gu@physx@@QEAA?AT__m128@@AEBT4@@Z 0000000180023d10 f i GuMTD.obj
 0001:000230f0       ?reduceManifoldContactsInDifferentPatches@MultiplePersistentContactManifold@Gu@physx@@QEAAIPEAPEAUPCMContactPatch@23@IPEAVMeshPersistentContact@23@IAEBT__m128@@@Z 00000001800240f0 f i GuMTD.obj
 0001:00023250       ?refineContactPatchConnective@MultiplePersistentContactManifold@Gu@physx@@QEAAXPEAPEAUPCMContactPatch@23@IPEAVMeshPersistentContact@23@AEBT__m128@@@Z 0000000180024250 f i GuMTD.obj
 0001:00023340       ?refreshManifold@MultiplePersistentContactManifold@Gu@physx@@QEAAXAEBVPsMatTransformV@aos@shdfnd@3@AEBT__m128@@1@Z 0000000180024340 f i GuMTD.obj
 0001:00023440       ?reset@SeparatingAxes@Gu@physx@@QEAAXXZ 0000000180024440 f i GuMTD.obj
 0001:00023450       ?setRelativeTransform@MultiplePersistentContactManifold@Gu@physx@@QEAAXAEBVPsTransformV@aos@shdfnd@3@@Z 0000000180024450 f i GuMTD.obj
 0001:00023460       ?support@?$LocalConvex@VCapsuleV@Gu@physx@@@Gu@physx@@UEBA?AT__m128@@AEBT4@@Z 0000000180024460 f i GuMTD.obj
 0001:000234c0       ?support@?$LocalConvex@VCapsuleV@Gu@physx@@@Gu@physx@@UEBA?AT__m128@@AEBT4@AEAH@Z 00000001800244c0 f i GuMTD.obj
 0001:00023530       ?support@?$LocalConvex@VConvexHullV@Gu@physx@@@Gu@physx@@UEBA?AT__m128@@AEBT4@@Z 0000000180024530 f i GuMTD.obj
 0001:00023610       ?support@?$LocalConvex@VConvexHullV@Gu@physx@@@Gu@physx@@UEBA?AT__m128@@AEBT4@AEAH@Z 0000000180024610 f i GuMTD.obj
 0001:000236e0       ?support@GjkConvex@Gu@physx@@UEBA?AT__m128@@AEBT4@@Z 00000001800246e0 f i GuMTD.obj
 0001:00023700       ?support@GjkConvex@Gu@physx@@UEBA?AT__m128@@AEBT4@AEAH@Z 0000000180024700 f i GuMTD.obj
 0001:00023720       ?supportPoint@?$LocalConvex@VCapsuleV@Gu@physx@@@Gu@physx@@UEBA?AT__m128@@H@Z 0000000180024720 f i GuMTD.obj
 0001:00023750       ?supportPoint@?$LocalConvex@VConvexHullV@Gu@physx@@@Gu@physx@@UEBA?AT__m128@@H@Z 0000000180024750 f i GuMTD.obj
 0001:000237a0       ?supportPoint@GjkConvex@Gu@physx@@UEBA?AT__m128@@H@Z 00000001800247a0 f i GuMTD.obj
 0001:000237c0       ?supportVertexIndex@ConvexHullV@Gu@physx@@QEBAIAEBT__m128@@@Z 00000001800247c0 f i GuMTD.obj
 0001:00023a40       ?toBuffer@MultiplePersistentContactManifold@Gu@physx@@QEAAXPEIAE@Z 0000000180024a40 f i GuMTD.obj
 0001:00023b20       ?supportPoint@?$RelativeConvex@VBoxV@Gu@physx@@@Gu@physx@@UEBA?AT__m128@@H@Z 0000000180024b20 f i GuOverlapTests.obj
 0001:00023b90       ?support@?$RelativeConvex@VBoxV@Gu@physx@@@Gu@physx@@UEBA?AT__m128@@AEBT4@@Z 0000000180024b90 f i GuOverlapTests.obj
 0001:00023c10       ?support@?$RelativeConvex@VBoxV@Gu@physx@@@Gu@physx@@UEBA?AT__m128@@AEBT4@AEAH@Z 0000000180024c10 f i GuOverlapTests.obj
 0001:00023ca0       ?getCenter@?$RelativeConvex@VBoxV@Gu@physx@@@Gu@physx@@UEBA?AT__m128@@XZ 0000000180024ca0 f i GuOverlapTests.obj
 0001:00023ce0       ?getSweepMargin@?$RelativeConvex@VBoxV@Gu@physx@@@Gu@physx@@UEBA?AT__m128@@XZ 0000000180024ce0 f i GuOverlapTests.obj
 0001:00023d00       ??_G?$RelativeConvex@VBoxV@Gu@physx@@@Gu@physx@@UEAAPEAXI@Z 0000000180024d00 f i GuOverlapTests.obj
 0001:00023d00       ??_E?$RelativeConvex@VBoxV@Gu@physx@@@Gu@physx@@UEAAPEAXI@Z 0000000180024d00 f i GuOverlapTests.obj
 0001:00023d30       ?getOverlapFuncTable@Gu@physx@@YAPEAY06Q6A_NAEBVPxGeometry@2@AEBVPxTransform@2@01PEAUTriggerCache@12@@ZXZ 0000000180024d30 f   GuOverlapTests.obj
 0001:00023d40       ?registerHeightFields@Gu@physx@@YAXXZ 0000000180024d40 f   GuOverlapTests.obj
 0001:00025fc0       ?supportPoint@?$RelativeConvex@VConvexHullV@Gu@physx@@@Gu@physx@@UEBA?AT__m128@@H@Z 0000000180026fc0 f i GuOverlapTests.obj
 0001:00026040       ?support@?$RelativeConvex@VConvexHullV@Gu@physx@@@Gu@physx@@UEBA?AT__m128@@AEBT4@@Z 0000000180027040 f i GuOverlapTests.obj
 0001:00026170       ?support@?$RelativeConvex@VConvexHullV@Gu@physx@@@Gu@physx@@UEBA?AT__m128@@AEBT4@AEAH@Z 0000000180027170 f i GuOverlapTests.obj
 0001:000262a0       ?getCenter@?$RelativeConvex@VConvexHullV@Gu@physx@@@Gu@physx@@UEBA?AT__m128@@XZ 00000001800272a0 f i GuOverlapTests.obj
 0001:000262e0       ?getSweepMargin@?$RelativeConvex@VConvexHullV@Gu@physx@@@Gu@physx@@UEBA?AT__m128@@XZ 00000001800272e0 f i GuOverlapTests.obj
 0001:00026300       ??_G?$RelativeConvex@VConvexHullV@Gu@physx@@@Gu@physx@@UEAAPEAXI@Z 0000000180027300 f i GuOverlapTests.obj
 0001:00026300       ??_E?$RelativeConvex@VConvexHullV@Gu@physx@@@Gu@physx@@UEAAPEAXI@Z 0000000180027300 f i GuOverlapTests.obj
 0001:00026330       ??$gjk@U?$RelativeConvex@VBoxV@Gu@physx@@@Gu@physx@@U?$LocalConvex@VConvexHullV@Gu@physx@@@23@@Gu@physx@@YA?AW4GjkStatus@01@AEBU?$RelativeConvex@VBoxV@Gu@physx@@@01@AEBU?$LocalConvex@VConvexHullV@Gu@physx@@@01@AEBT__m128@@2AEAT5@333@Z 0000000180027330 f i GuOverlapTests.obj
 0001:00026fc0       ??$gjk@U?$RelativeConvex@VConvexHullV@Gu@physx@@@Gu@physx@@U?$LocalConvex@VConvexHullV@Gu@physx@@@23@@Gu@physx@@YA?AW4GjkStatus@01@AEBU?$RelativeConvex@VConvexHullV@Gu@physx@@@01@AEBU?$LocalConvex@VConvexHullV@Gu@physx@@@01@AEBT__m128@@2AEAT5@333@Z 0000000180027fc0 f i GuOverlapTests.obj
 0001:00027cc0       ?ComputeCubemapNearestOffset@physx@@YAIAEBVPxVec3@1@I@Z 0000000180028cc0 f i GuOverlapTests.obj
 0001:00029830       ?getRaycastFuncTable@Gu@physx@@YAAEAY06Q6AIAEBVPxGeometry@2@AEBVPxTransform@2@AEBVPxVec3@2@2MV?$PxFlags@W4Enum@PxHitFlag@physx@@G@2@IPEIAUPxRaycastHit@2@@ZXZ 000000018002a830 f   GuRaycastTests.obj
 0001:00029840       ?raycast_box@@YAIAEBVPxGeometry@physx@@AEBVPxTransform@2@AEBVPxVec3@2@2MV?$PxFlags@W4Enum@PxHitFlag@physx@@G@2@IPEIAUPxRaycastHit@2@@Z 000000018002a840 f   GuRaycastTests.obj
 0001:00029e70       ?raycast_sphere@@YAIAEBVPxGeometry@physx@@AEBVPxTransform@2@AEBVPxVec3@2@2MV?$PxFlags@W4Enum@PxHitFlag@physx@@G@2@IPEIAUPxRaycastHit@2@@Z 000000018002ae70 f   GuRaycastTests.obj
 0001:0002a000       ?raycast_capsule@@YAIAEBVPxGeometry@physx@@AEBVPxTransform@2@AEBVPxVec3@2@2MV?$PxFlags@W4Enum@PxHitFlag@physx@@G@2@IPEIAUPxRaycastHit@2@@Z 000000018002b000 f   GuRaycastTests.obj
 0001:0002a570       ?raycast_plane@@YAIAEBVPxGeometry@physx@@AEBVPxTransform@2@AEBVPxVec3@2@2MV?$PxFlags@W4Enum@PxHitFlag@physx@@G@2@IPEIAUPxRaycastHit@2@@Z 000000018002b570 f   GuRaycastTests.obj
 0001:0002a6f0       ?raycast_convexMesh@@YAIAEBVPxGeometry@physx@@AEBVPxTransform@2@AEBVPxVec3@2@2MV?$PxFlags@W4Enum@PxHitFlag@physx@@G@2@IPEIAUPxRaycastHit@2@@Z 000000018002b6f0 f   GuRaycastTests.obj
 0001:0002b220       ?raycast_triangleMesh@@YAIAEBVPxGeometry@physx@@AEBVPxTransform@2@AEBVPxVec3@2@2MV?$PxFlags@W4Enum@PxHitFlag@physx@@G@2@IPEIAUPxRaycastHit@2@@Z 000000018002c220 f   GuRaycastTests.obj
 0001:0002b2b0       ?raycast_heightField@@YAIAEBVPxGeometry@physx@@AEBVPxTransform@2@AEBVPxVec3@2@2MV?$PxFlags@W4Enum@PxHitFlag@physx@@G@2@IPEIAUPxRaycastHit@2@@Z 000000018002c2b0 f   GuRaycastTests.obj
 0001:0002ba30       ?registerHeightFields_Raycasts@@YAXXZ 000000018002ca30 f   GuRaycastTests.obj
 0001:0002cca0       ??Dphysx@@YA?AVMatrix34@Cm@0@AEBVPxMeshScale@0@AEBVPxTransform@0@@Z 000000018002dca0 f i GuRaycastTests.obj
 0001:0002d8e0       ?readChunk@physx@@YAXAEAC000AEAVPxInputStream@1@@Z 000000018002e8e0 f   GuSerialize.obj
 0001:0002d970       ?readWord@physx@@YAG_NAEAVPxInputStream@1@@Z 000000018002e970 f   GuSerialize.obj
 0001:0002d9c0       ?readDword@physx@@YAI_NAEAVPxInputStream@1@@Z 000000018002e9c0 f   GuSerialize.obj
 0001:0002da20       ?readFloat@physx@@YAM_NAEAVPxInputStream@1@@Z 000000018002ea20 f   GuSerialize.obj
 0001:0002da80       ?writeWord@physx@@YAXG_NAEAVPxOutputStream@1@@Z 000000018002ea80 f   GuSerialize.obj
 0001:0002dac0       ?writeDword@physx@@YAXI_NAEAVPxOutputStream@1@@Z 000000018002eac0 f   GuSerialize.obj
 0001:0002db10       ?writeFloat@physx@@YAXM_NAEAVPxOutputStream@1@@Z 000000018002eb10 f   GuSerialize.obj
 0001:0002db70       ?readFloatBuffer@physx@@YA_NPEAMI_NAEAVPxInputStream@1@@Z 000000018002eb70 f   GuSerialize.obj
 0001:0002dbf0       ?writeFloatBuffer@physx@@YAXPEBMI_NAEAVPxOutputStream@1@@Z 000000018002ebf0 f   GuSerialize.obj
 0001:0002dca0       ?writeWordBuffer@physx@@YAXPEBGI_NAEAVPxOutputStream@1@@Z 000000018002eca0 f   GuSerialize.obj
 0001:0002dd30       ?readWordBuffer@physx@@YAXPEAGI_NAEAVPxInputStream@1@@Z 000000018002ed30 f   GuSerialize.obj
 0001:0002dda0       ?writeHeader@physx@@YA_NCCCCI_NAEAVPxOutputStream@1@@Z 000000018002eda0 f   GuSerialize.obj
 0001:0002ded0       ?readHeader@physx@@YA_NCCCCAEAIAEA_NAEAVPxInputStream@1@@Z 000000018002eed0 f   GuSerialize.obj
 0001:0002e030       ?computeMaxIndex@physx@@YAIPEBII@Z 000000018002f030 f   GuSerialize.obj
 0001:0002e060       ?computeMaxIndex@physx@@YAGPEBGI@Z 000000018002f060 f   GuSerialize.obj
 0001:0002e0a0       ?storeIndices@physx@@YAXIIPEBIAEAVPxOutputStream@1@_N@Z 000000018002f0a0 f   GuSerialize.obj
 0001:0002e190       ?readIndices@physx@@YAXIIPEAIAEAVPxInputStream@1@_N@Z 000000018002f190 f   GuSerialize.obj
 0001:0002e290       ?WriteHeader@Gu@physx@@YA_NEEEEI_NAEAVPxOutputStream@2@@Z 000000018002f290 f   GuSerialize.obj
 0001:0002e3c0       ?ReadHeader@Gu@physx@@YA_NEEEEAEAIAEA_NAEAVPxInputStream@2@@Z 000000018002f3c0 f   GuSerialize.obj
 0001:0002e530       ?StoreIndices@Gu@physx@@YAXIIPEBIAEAVPxOutputStream@2@_N@Z 000000018002f530 f   GuSerialize.obj
 0001:0002e660       ?ReadIndices@Gu@physx@@YAXIIPEAIAEAVPxInputStream@2@_N@Z 000000018002f660 f   GuSerialize.obj
 0001:0002e8d0       ?StoreIndices@Gu@physx@@YAXGIPEBGAEAVPxOutputStream@2@_N@Z 000000018002f8d0 f   GuSerialize.obj
 0001:0002e9a0       ?ReadIndices@Gu@physx@@YAXGIPEAGAEAVPxInputStream@2@_N@Z 000000018002f9a0 f   GuSerialize.obj
 0001:0002eaf0       ?computeCapsule_TriangleMeshMTD@Gu@physx@@YA_NAEBVPxTriangleMeshGeometry@2@AEBVPxTransform@2@AEAVCapsuleV@12@M_NAEAUPxSweepHit@2@@Z 000000018002faf0 f   GuSweepMTD.obj
 0001:0002f3a0       ?computeCapsule_HeightFieldMTD@Gu@physx@@YA_NAEBVPxHeightFieldGeometry@2@AEBVPxTransform@2@AEAVCapsuleV@12@M_NIAEAUPxSweepHit@2@@Z 00000001800303a0 f   GuSweepMTD.obj
 0001:0002fbc0       ?computeBox_TriangleMeshMTD@Gu@physx@@YA_NAEBVPxTriangleMeshGeometry@2@AEBVPxTransform@2@AEBVBox@12@1M_NAEAUPxSweepHit@2@@Z 0000000180030bc0 f   GuSweepMTD.obj
 0001:00030840       ?computeBox_HeightFieldMTD@Gu@physx@@YA_NAEBVPxHeightFieldGeometry@2@AEBVPxTransform@2@AEBVBox@12@1M_NIAEAUPxSweepHit@2@@Z 0000000180031840 f   GuSweepMTD.obj
 0001:00031690       ?computeConvex_TriangleMeshMTD@Gu@physx@@YA_NAEBVPxTriangleMeshGeometry@2@AEBVPxTransform@2@AEBVPxConvexMeshGeometry@2@1M_NAEAUPxSweepHit@2@@Z 0000000180032690 f   GuSweepMTD.obj
 0001:000328d0       ?computeConvex_HeightFieldMTD@Gu@physx@@YA_NAEBVPxHeightFieldGeometry@2@AEBVPxTransform@2@AEBVPxConvexMeshGeometry@2@1M_NIAEAUPxSweepHit@2@@Z 00000001800338d0 f   GuSweepMTD.obj
 0001:00033c40       ?computeSphere_SphereMTD@Gu@physx@@YA_NAEBVSphere@12@0AEAUPxSweepHit@2@@Z 0000000180034c40 f   GuSweepMTD.obj
 0001:00033d30       ?computeSphere_CapsuleMTD@Gu@physx@@YA_NAEBVSphere@12@AEBVCapsule@12@AEAUPxSweepHit@2@@Z 0000000180034d30 f   GuSweepMTD.obj
 0001:00033ee0       ?computeCapsule_CapsuleMTD@Gu@physx@@YA_NAEBVCapsule@12@0AEAUPxSweepHit@2@@Z 0000000180034ee0 f   GuSweepMTD.obj
 0001:00034120       ?computePlane_CapsuleMTD@Gu@physx@@YA_NAEBVPxPlane@2@AEBVCapsule@12@AEAUPxSweepHit@2@@Z 0000000180035120 f   GuSweepMTD.obj
 0001:00034250       ?computePlane_BoxMTD@Gu@physx@@YA_NAEBVPxPlane@2@AEBVBox@12@AEAUPxSweepHit@2@@Z 0000000180035250 f   GuSweepMTD.obj
 0001:00034590       ?computePlane_ConvexMTD@Gu@physx@@YA_NAEBVPxPlane@2@AEBVPxConvexMeshGeometry@2@AEBVPxTransform@2@AEAUPxSweepHit@2@@Z 0000000180035590 f   GuSweepMTD.obj
 0001:00035100       ??0MTDTriangle@@QEAA@XZ    0000000180036100 f i GuSweepMTD.obj
 0001:00035110       ??1?$MeshHitCallback@UPxRaycastHit@physx@@@Gu@physx@@UEAA@XZ 0000000180036110 f i GuSweepMTD.obj
 0001:00035120       ??1MTDTriangle@@QEAA@XZ    0000000180036120 f i GuSweepMTD.obj
 0001:00035130       ??Dphysx@@YA?AVMatrix34@Cm@0@AEBVPxTransform@0@AEBVPxMeshScale@0@@Z 0000000180036130 f i GuSweepMTD.obj
 0001:00035780       ??_G?$MeshHitCallback@UPxRaycastHit@physx@@@Gu@physx@@UEAAPEAXI@Z 0000000180036780 f i GuSweepMTD.obj
 0001:00035780       ??_E?$MeshHitCallback@UPxRaycastHit@physx@@@Gu@physx@@UEAAPEAXI@Z 0000000180036780 f i GuSweepMTD.obj
 0001:000357b0       ??_EMeshMTDGenerationCallback@@UEAAPEAXI@Z 00000001800367b0 f i GuSweepMTD.obj
 0001:000357b0       ??_GMeshMTDGenerationCallback@@UEAAPEAXI@Z 00000001800367b0 f i GuSweepMTD.obj
 0001:000357e0       ??_GMidPhaseQueryLocalReport@@UEAAPEAXI@Z 00000001800367e0 f i GuSweepMTD.obj
 0001:000357e0       ??_EMidPhaseQueryLocalReport@@UEAAPEAXI@Z 00000001800367e0 f i GuSweepMTD.obj
 0001:00035810       ?allocate@?$ReflectionAllocator@I@shdfnd@physx@@QEAAPEAX_KPEBDH@Z 0000000180036810 f i GuSweepMTD.obj
 0001:000358b0       ?getInverse@PxMat33@physx@@QEBA?BV12@XZ 00000001800368b0 f i GuSweepMTD.obj
 0001:00035b00       ?growAndPushBack@?$Array@IV?$ReflectionAllocator@I@shdfnd@physx@@@shdfnd@physx@@IEAAAEAIAEBI@Z 0000000180036b00 f i GuSweepMTD.obj
 0001:00035bd0       ?init@FastVertex2ShapeScaling@Cm@physx@@QEAAXAEBVPxVec3@3@AEBVPxQuat@3@@Z 0000000180036bd0 f i GuSweepMTD.obj
 0001:00035fb0       ?onEvent@MidPhaseQueryLocalReport@@UEAA_NIPEAI@Z 0000000180036fb0 f i GuSweepMTD.obj
 0001:00036020       ?processHit@MeshMTDGenerationCallback@@UEAA_NAEBUPxRaycastHit@physx@@AEBVPxVec3@3@11AEAMPEBI@Z 0000000180037020 f i GuSweepMTD.obj
 0001:00036070       ?recreate@?$Array@IV?$ReflectionAllocator@I@shdfnd@physx@@@shdfnd@physx@@IEAAXI@Z 0000000180037070 f i GuSweepMTD.obj
 0001:00036130       ?sweepCapsuleTriangles@Gu@physx@@YA_NIPEBVPxTriangle@2@_NAEBVPxCapsuleGeometry@2@AEBVPxTransform@2@AEBVPxVec3@2@MAEAUPxSweepHit@2@PEBIMV?$PxFlags@W4Enum@PxHitFlag@physx@@G@2@@Z 0000000180037130 f   GuSweepSharedTests.obj
 0001:00036320       ?sweepCapsule_SphereGeom@@YA_NAEBVPxGeometry@physx@@AEBVPxTransform@2@AEBVPxCapsuleGeometry@2@1AEBVCapsule@Gu@2@AEBVPxVec3@2@MAEAUPxSweepHit@2@V?$PxFlags@W4Enum@PxHitFlag@physx@@G@2@M@Z 0000000180037320 f   GuSweepSharedTests.obj
 0001:000364c0       ?sweepCapsule_PlaneGeom@@YA_NAEBVPxGeometry@physx@@AEBVPxTransform@2@AEBVPxCapsuleGeometry@2@1AEBVCapsule@Gu@2@AEBVPxVec3@2@MAEAUPxSweepHit@2@V?$PxFlags@W4Enum@PxHitFlag@physx@@G@2@M@Z 00000001800374c0 f   GuSweepSharedTests.obj
 0001:000367c0       ?sweepCapsule_CapsuleGeom@@YA_NAEBVPxGeometry@physx@@AEBVPxTransform@2@AEBVPxCapsuleGeometry@2@1AEBVCapsule@Gu@2@AEBVPxVec3@2@MAEAUPxSweepHit@2@V?$PxFlags@W4Enum@PxHitFlag@physx@@G@2@M@Z 00000001800377c0 f   GuSweepSharedTests.obj
 0001:000369a0       ?sweepCapsule_ConvexGeom@@YA_NAEBVPxGeometry@physx@@AEBVPxTransform@2@AEBVPxCapsuleGeometry@2@1AEBVCapsule@Gu@2@AEBVPxVec3@2@MAEAUPxSweepHit@2@V?$PxFlags@W4Enum@PxHitFlag@physx@@G@2@M@Z 00000001800379a0 f   GuSweepSharedTests.obj
 0001:00037710       ?sweepBox_PlaneGeom@@YA_NAEBVPxGeometry@physx@@AEBVPxTransform@2@AEBVPxBoxGeometry@2@1AEBVBox@Gu@2@AEBVPxVec3@2@MAEAUPxSweepHit@2@V?$PxFlags@W4Enum@PxHitFlag@physx@@G@2@M@Z 0000000180038710 f   GuSweepSharedTests.obj
 0001:00037bc0       ?sweepBox_ConvexGeom@@YA_NAEBVPxGeometry@physx@@AEBVPxTransform@2@AEBVPxBoxGeometry@2@1AEBVBox@Gu@2@AEBVPxVec3@2@MAEAUPxSweepHit@2@V?$PxFlags@W4Enum@PxHitFlag@physx@@G@2@M@Z 0000000180038bc0 f   GuSweepSharedTests.obj
 0001:00038a10       ?sweepConvex_SphereGeom@@YA_NAEBVPxGeometry@physx@@AEBVPxTransform@2@AEBVPxConvexMeshGeometry@2@1AEBVPxVec3@2@MAEAUPxSweepHit@2@V?$PxFlags@W4Enum@PxHitFlag@physx@@G@2@M@Z 0000000180039a10 f   GuSweepSharedTests.obj
 0001:00039670       ?sweepConvex_PlaneGeom@@YA_NAEBVPxGeometry@physx@@AEBVPxTransform@2@AEBVPxConvexMeshGeometry@2@1AEBVPxVec3@2@MAEAUPxSweepHit@2@V?$PxFlags@W4Enum@PxHitFlag@physx@@G@2@M@Z 000000018003a670 f   GuSweepSharedTests.obj
 0001:00039ac0       ?sweepConvex_CapsuleGeom@@YA_NAEBVPxGeometry@physx@@AEBVPxTransform@2@AEBVPxConvexMeshGeometry@2@1AEBVPxVec3@2@MAEAUPxSweepHit@2@V?$PxFlags@W4Enum@PxHitFlag@physx@@G@2@M@Z 000000018003aac0 f   GuSweepSharedTests.obj
 0001:00039cf0       ?sweepConvex_BoxGeom@@YA_NAEBVPxGeometry@physx@@AEBVPxTransform@2@AEBVPxConvexMeshGeometry@2@1AEBVPxVec3@2@MAEAUPxSweepHit@2@V?$PxFlags@W4Enum@PxHitFlag@physx@@G@2@M@Z 000000018003acf0 f   GuSweepSharedTests.obj
 0001:00039f00       ?sweepConvex_ConvexGeom@@YA_NAEBVPxGeometry@physx@@AEBVPxTransform@2@AEBVPxConvexMeshGeometry@2@1AEBVPxVec3@2@MAEAUPxSweepHit@2@V?$PxFlags@W4Enum@PxHitFlag@physx@@G@2@M@Z 000000018003af00 f   GuSweepSharedTests.obj
 0001:0003aea0       ??$gjkPenetration@U?$LocalConvex@VCapsuleV@Gu@physx@@@Gu@physx@@U?$LocalConvex@VConvexHullV@Gu@physx@@@23@@Gu@physx@@YA?AW4GjkStatus@01@AEBU?$LocalConvex@VCapsuleV@Gu@physx@@@01@AEBU?$LocalConvex@VConvexHullV@Gu@physx@@@01@AEBT__m128@@2_NPEIAE4AEAEAEAUGjkOutput@01@@Z 000000018003bea0 f i GuSweepSharedTests.obj
 0001:0003c4a0       ??$gjkPenetration@U?$RelativeConvex@VBoxV@Gu@physx@@@Gu@physx@@U?$LocalConvex@VConvexHullV@Gu@physx@@@23@@Gu@physx@@YA?AW4GjkStatus@01@AEBU?$RelativeConvex@VBoxV@Gu@physx@@@01@AEBU?$LocalConvex@VConvexHullV@Gu@physx@@@01@AEBT__m128@@2_NPEIAE4AEAEAEAUGjkOutput@01@@Z 000000018003d4a0 f i GuSweepSharedTests.obj
 0001:0003dae0       ??$gjkPenetration@U?$RelativeConvex@VConvexHullV@Gu@physx@@@Gu@physx@@U?$LocalConvex@VConvexHullV@Gu@physx@@@23@@Gu@physx@@YA?AW4GjkStatus@01@AEBU?$RelativeConvex@VConvexHullV@Gu@physx@@@01@AEBU?$LocalConvex@VConvexHullV@Gu@physx@@@01@AEBT__m128@@2_NPEIAE4AEAEAEAUGjkOutput@01@@Z 000000018003eae0 f i GuSweepSharedTests.obj
 0001:0003f190       ??$gjkRaycast@U?$LocalConvex@VCapsuleV@Gu@physx@@@Gu@physx@@U?$LocalConvex@VConvexHullV@Gu@physx@@@23@@Gu@physx@@YA_NAEBU?$LocalConvex@VCapsuleV@Gu@physx@@@01@AEBU?$LocalConvex@VConvexHullV@Gu@physx@@@01@AEBT__m128@@222AEAT4@33M@Z 0000000180040190 f i GuSweepSharedTests.obj
 0001:0003fee0       ??$gjkRaycast@U?$RelativeConvex@VBoxV@Gu@physx@@@Gu@physx@@U?$LocalConvex@VConvexHullV@Gu@physx@@@23@@Gu@physx@@YA_NAEBU?$RelativeConvex@VBoxV@Gu@physx@@@01@AEBU?$LocalConvex@VConvexHullV@Gu@physx@@@01@AEBT__m128@@222AEAT4@33M@Z 0000000180040ee0 f i GuSweepSharedTests.obj
 0001:00040cb0       ??$gjkRaycast@U?$RelativeConvex@VConvexHullV@Gu@physx@@@Gu@physx@@U?$LocalConvex@VConvexHullV@Gu@physx@@@23@@Gu@physx@@YA_NAEBU?$RelativeConvex@VConvexHullV@Gu@physx@@@01@AEBU?$LocalConvex@VConvexHullV@Gu@physx@@@01@AEBT__m128@@222AEAT4@33M@Z 0000000180041cb0 f i GuSweepSharedTests.obj
 0001:00041bb0       ??$gjkRaycastPenetration@U?$LocalConvex@VCapsuleV@Gu@physx@@@Gu@physx@@U?$LocalConvex@VConvexHullV@Gu@physx@@@23@@Gu@physx@@YA_NAEBU?$LocalConvex@VCapsuleV@Gu@physx@@@01@AEBU?$LocalConvex@VConvexHullV@Gu@physx@@@01@AEBT__m128@@222AEAT4@33M_N@Z 0000000180042bb0 f i GuSweepSharedTests.obj
 0001:00041de0       ??$gjkRaycastPenetration@U?$RelativeConvex@VBoxV@Gu@physx@@@Gu@physx@@U?$LocalConvex@VConvexHullV@Gu@physx@@@23@@Gu@physx@@YA_NAEBU?$RelativeConvex@VBoxV@Gu@physx@@@01@AEBU?$LocalConvex@VConvexHullV@Gu@physx@@@01@AEBT__m128@@222AEAT4@33M_N@Z 0000000180042de0 f i GuSweepSharedTests.obj
 0001:00042060       ??$gjkRaycastPenetration@U?$RelativeConvex@VConvexHullV@Gu@physx@@@Gu@physx@@U?$LocalConvex@VConvexHullV@Gu@physx@@@23@@Gu@physx@@YA_NAEBU?$RelativeConvex@VConvexHullV@Gu@physx@@@01@AEBU?$LocalConvex@VConvexHullV@Gu@physx@@@01@AEBT__m128@@222AEAT4@33M_N@Z 0000000180043060 f i GuSweepSharedTests.obj
 0001:00042c90       ?getSweepFuncTable@Gu@physx@@YAAEBUGeomSweepFuncs@12@XZ 0000000180043c90 f   GuSweepTests.obj
 0001:00042ca0       ?sweepBoxTriangles@Gu@physx@@YA_NIPEBVPxTriangle@2@_NAEBVPxBoxGeometry@2@AEBVPxTransform@2@AEBVPxVec3@2@MAEAUPxSweepHit@2@PEBIMV?$PxFlags@W4Enum@PxHitFlag@physx@@G@2@@Z 0000000180043ca0 f   GuSweepTests.obj
 0001:00043730       ?sweepCapsule_BoxGeom@@YA_NAEBVPxGeometry@physx@@AEBVPxTransform@2@AEBVPxCapsuleGeometry@2@1AEBVCapsule@Gu@2@AEBVPxVec3@2@MAEAUPxSweepHit@2@V?$PxFlags@W4Enum@PxHitFlag@physx@@G@2@M@Z 0000000180044730 f   GuSweepTests.obj
 0001:00043fc0       ?sweepBox_SphereGeom@@YA_NAEBVPxGeometry@physx@@AEBVPxTransform@2@AEBVPxBoxGeometry@2@1AEBVBox@Gu@2@AEBVPxVec3@2@MAEAUPxSweepHit@2@V?$PxFlags@W4Enum@PxHitFlag@physx@@G@2@M@Z 0000000180044fc0 f   GuSweepTests.obj
 0001:00044690       ?sweepBox_CapsuleGeom@@YA_NAEBVPxGeometry@physx@@AEBVPxTransform@2@AEBVPxBoxGeometry@2@1AEBVBox@Gu@2@AEBVPxVec3@2@MAEAUPxSweepHit@2@V?$PxFlags@W4Enum@PxHitFlag@physx@@G@2@M@Z 0000000180045690 f   GuSweepTests.obj
 0001:00044f40       ?sweepBox_BoxGeom@@YA_NAEBVPxGeometry@physx@@AEBVPxTransform@2@AEBVPxBoxGeometry@2@1AEBVBox@Gu@2@AEBVPxVec3@2@MAEAUPxSweepHit@2@V?$PxFlags@W4Enum@PxHitFlag@physx@@G@2@M@Z 0000000180045f40 f   GuSweepTests.obj
 0001:000458e0       ?registerHeightFields_Sweeps@@YAXXZ 00000001800468e0 f   GuSweepTests.obj
 0001:00045920       ??$gjkPenetration@U?$LocalConvex@VCapsuleV@Gu@physx@@@Gu@physx@@U?$LocalConvex@VBoxV@Gu@physx@@@23@@Gu@physx@@YA?AW4GjkStatus@01@AEBU?$LocalConvex@VCapsuleV@Gu@physx@@@01@AEBU?$LocalConvex@VBoxV@Gu@physx@@@01@AEBT__m128@@2_NPEIAE4AEAEAEAUGjkOutput@01@@Z 0000000180046920 f i GuSweepTests.obj
 0001:00046e60       ??$gjkPenetration@U?$LocalConvex@VTriangleV@Gu@physx@@@Gu@physx@@U?$LocalConvex@VBoxV@Gu@physx@@@23@@Gu@physx@@YA?AW4GjkStatus@01@AEBU?$LocalConvex@VTriangleV@Gu@physx@@@01@AEBU?$LocalConvex@VBoxV@Gu@physx@@@01@AEBT__m128@@2_NPEIAE4AEAEAEAUGjkOutput@01@@Z 0000000180047e60 f i GuSweepTests.obj
 0001:000483a0       ??$gjkPenetration@U?$RelativeConvex@VBoxV@Gu@physx@@@Gu@physx@@U?$LocalConvex@VBoxV@Gu@physx@@@23@@Gu@physx@@YA?AW4GjkStatus@01@AEBU?$RelativeConvex@VBoxV@Gu@physx@@@01@AEBU?$LocalConvex@VBoxV@Gu@physx@@@01@AEBT__m128@@2_NPEIAE4AEAEAEAUGjkOutput@01@@Z 00000001800493a0 f i GuSweepTests.obj
 0001:00049930       ??$gjkRaycast@U?$LocalConvex@VCapsuleV@Gu@physx@@@Gu@physx@@U?$LocalConvex@VBoxV@Gu@physx@@@23@@Gu@physx@@YA_NAEBU?$LocalConvex@VCapsuleV@Gu@physx@@@01@AEBU?$LocalConvex@VBoxV@Gu@physx@@@01@AEBT__m128@@222AEAT4@33M@Z 000000018004a930 f i GuSweepTests.obj
 0001:0004a510       ??$gjkRaycast@U?$LocalConvex@VTriangleV@Gu@physx@@@Gu@physx@@U?$LocalConvex@VBoxV@Gu@physx@@@23@@Gu@physx@@YA_NAEBU?$LocalConvex@VTriangleV@Gu@physx@@@01@AEBU?$LocalConvex@VBoxV@Gu@physx@@@01@AEBT__m128@@222AEAT4@33M@Z 000000018004b510 f i GuSweepTests.obj
 0001:0004b170       ??$gjkRaycast@U?$RelativeConvex@VBoxV@Gu@physx@@@Gu@physx@@U?$LocalConvex@VBoxV@Gu@physx@@@23@@Gu@physx@@YA_NAEBU?$RelativeConvex@VBoxV@Gu@physx@@@01@AEBU?$LocalConvex@VBoxV@Gu@physx@@@01@AEBT__m128@@222AEAT4@33M@Z 000000018004c170 f i GuSweepTests.obj
 0001:0004bdc0       ??$gjkRaycastPenetration@U?$LocalConvex@VCapsuleV@Gu@physx@@@Gu@physx@@U?$LocalConvex@VBoxV@Gu@physx@@@23@@Gu@physx@@YA_NAEBU?$LocalConvex@VCapsuleV@Gu@physx@@@01@AEBU?$LocalConvex@VBoxV@Gu@physx@@@01@AEBT__m128@@222AEAT4@33M_N@Z 000000018004cdc0 f i GuSweepTests.obj
 0001:0004bff0       ??$gjkRaycastPenetration@U?$LocalConvex@VTriangleV@Gu@physx@@@Gu@physx@@U?$LocalConvex@VBoxV@Gu@physx@@@23@@Gu@physx@@YA_NAEBU?$LocalConvex@VTriangleV@Gu@physx@@@01@AEBU?$LocalConvex@VBoxV@Gu@physx@@@01@AEBT__m128@@222AEAT4@33M_N@Z 000000018004cff0 f i GuSweepTests.obj
 0001:0004c220       ??$gjkRaycastPenetration@U?$RelativeConvex@VBoxV@Gu@physx@@@Gu@physx@@U?$LocalConvex@VBoxV@Gu@physx@@@23@@Gu@physx@@YA_NAEBU?$RelativeConvex@VBoxV@Gu@physx@@@01@AEBU?$LocalConvex@VBoxV@Gu@physx@@@01@AEBT__m128@@222AEAT4@33M_N@Z 000000018004d220 f i GuSweepTests.obj
 0001:0004c4a0       ??_E?$LocalConvex@VBoxV@Gu@physx@@@Gu@physx@@UEAAPEAXI@Z 000000018004d4a0 f i GuSweepTests.obj
 0001:0004c4a0       ??_G?$LocalConvex@VBoxV@Gu@physx@@@Gu@physx@@UEAAPEAXI@Z 000000018004d4a0 f i GuSweepTests.obj
 0001:0004c4d0       ??_E?$LocalConvex@VTriangleV@Gu@physx@@@Gu@physx@@UEAAPEAXI@Z 000000018004d4d0 f i GuSweepTests.obj
 0001:0004c4d0       ??_G?$LocalConvex@VTriangleV@Gu@physx@@@Gu@physx@@UEAAPEAXI@Z 000000018004d4d0 f i GuSweepTests.obj
 0001:0004c500       ?getCenter@?$LocalConvex@VBoxV@Gu@physx@@@Gu@physx@@UEBA?AT__m128@@XZ 000000018004d500 f i GuSweepTests.obj
 0001:0004c510       ?getCenter@?$LocalConvex@VTriangleV@Gu@physx@@@Gu@physx@@UEBA?AT__m128@@XZ 000000018004d510 f i GuSweepTests.obj
 0001:0004c520       ?getSweepMargin@?$LocalConvex@VBoxV@Gu@physx@@@Gu@physx@@UEBA?AT__m128@@XZ 000000018004d520 f i GuSweepTests.obj
 0001:0004c540       ?getSweepMargin@?$LocalConvex@VTriangleV@Gu@physx@@@Gu@physx@@UEBA?AT__m128@@XZ 000000018004d540 f i GuSweepTests.obj
 0001:0004c550       ?support@?$LocalConvex@VBoxV@Gu@physx@@@Gu@physx@@UEBA?AT__m128@@AEBT4@@Z 000000018004d550 f i GuSweepTests.obj
 0001:0004c580       ?support@?$LocalConvex@VBoxV@Gu@physx@@@Gu@physx@@UEBA?AT__m128@@AEBT4@AEAH@Z 000000018004d580 f i GuSweepTests.obj
 0001:0004c5c0       ?support@?$LocalConvex@VTriangleV@Gu@physx@@@Gu@physx@@UEBA?AT__m128@@AEBT4@@Z 000000018004d5c0 f i GuSweepTests.obj
 0001:0004c650       ?support@?$LocalConvex@VTriangleV@Gu@physx@@@Gu@physx@@UEBA?AT__m128@@AEBT4@AEAH@Z 000000018004d650 f i GuSweepTests.obj
 0001:0004c730       ?supportPoint@?$LocalConvex@VBoxV@Gu@physx@@@Gu@physx@@UEBA?AT__m128@@H@Z 000000018004d730 f i GuSweepTests.obj
 0001:0004c770       ?supportPoint@?$LocalConvex@VTriangleV@Gu@physx@@@Gu@physx@@UEBA?AT__m128@@H@Z 000000018004d770 f i GuSweepTests.obj
 0001:0004c790       ?subdivide@AABBTreeBuildNode@Gu@physx@@QEAAXAEBVAABBTreeBuildParams@23@AEAUBuildStats@23@AEAVNodeAllocator@23@QEAI@Z 000000018004d790 f   GuAABBTreeBuild.obj
 0001:0004c980       ?_buildHierarchy@AABBTreeBuildNode@Gu@physx@@QEAAXAEAVAABBTreeBuildParams@23@AEAUBuildStats@23@AEAVNodeAllocator@23@QEAI@Z 000000018004d980 f   GuAABBTreeBuild.obj
 0001:0004ca10       ??0NodeAllocator@Gu@physx@@QEAA@XZ 000000018004da10 f   GuAABBTreeBuild.obj
 0001:0004ca30       ??1NodeAllocator@Gu@physx@@QEAA@XZ 000000018004da30 f   GuAABBTreeBuild.obj
 0001:0004ca80       ?release@NodeAllocator@Gu@physx@@QEAAXXZ 000000018004da80 f   GuAABBTreeBuild.obj
 0001:0004cb30       ?init@NodeAllocator@Gu@physx@@QEAAXII@Z 000000018004db30 f   GuAABBTreeBuild.obj
 0001:0004cc40       ?getBiNode@NodeAllocator@Gu@physx@@QEAAPEAVAABBTreeBuildNode@23@XZ 000000018004dc40 f   GuAABBTreeBuild.obj
 0001:0004cd80       ?initAABBTreeBuild@Gu@physx@@YA_NAEAVAABBTreeBuildParams@12@AEAVNodeAllocator@12@AEAUBuildStats@12@AEAPEAI@Z 000000018004dd80 f   GuAABBTreeBuild.obj
 0001:0004cf90       ?buildAABBTree@Gu@physx@@YA_NAEAVAABBTreeBuildParams@12@AEAVNodeAllocator@12@AEAUBuildStats@12@AEAPEAI@Z 000000018004df90 f   GuAABBTreeBuild.obj
 0001:0004cff0       ??$?_UV?$ReflectionAllocator@VAABBTreeBuildNode@Gu@physx@@@shdfnd@physx@@@UserAllocated@shdfnd@physx@@SAPEAX_KV?$ReflectionAllocator@VAABBTreeBuildNode@Gu@physx@@@12@PEBDH@Z 000000018004dff0 f i GuAABBTreeBuild.obj
 0001:0004d090       ??$copy@V?$ReflectionAllocator@USlab@NodeAllocator@Gu@physx@@@shdfnd@physx@@@?$Array@USlab@NodeAllocator@Gu@physx@@V?$ReflectionAllocator@USlab@NodeAllocator@Gu@physx@@@shdfnd@4@@shdfnd@physx@@IEAAXAEBV012@@Z 000000018004e090 f i GuAABBTreeBuild.obj
 0001:0004d110       ??0AABBTreeBuildNode@Gu@physx@@QEAA@AEBV012@@Z 000000018004e110 f i GuAABBTreeBuild.obj
 0001:0004d150       ??0AABBTreeBuildNode@Gu@physx@@QEAA@XZ 000000018004e150 f i GuAABBTreeBuild.obj
 0001:0004d160       ??0AABBTreeBuildParams@Gu@physx@@QEAA@IIPEBVPxBounds3@2@@Z 000000018004e160 f i GuAABBTreeBuild.obj
 0001:0004d180       ??0BuildStats@Gu@physx@@QEAA@XZ 000000018004e180 f i GuAABBTreeBuild.obj
 0001:0004d190       ??0NodeAllocator@Gu@physx@@QEAA@AEBV012@@Z 000000018004e190 f i GuAABBTreeBuild.obj
 0001:0004d1d0       ??1AABBTreeBuildNode@Gu@physx@@QEAA@XZ 000000018004e1d0 f i GuAABBTreeBuild.obj
 0001:0004d1e0       ??1AABBTreeBuildParams@Gu@physx@@QEAA@XZ 000000018004e1e0 f i GuAABBTreeBuild.obj
 0001:0004d240       ??4AABBTreeBuildNode@Gu@physx@@QEAAAEAV012@AEBV012@@Z 000000018004e240 f i GuAABBTreeBuild.obj
 0001:0004d280       ??4AABBTreeBuildParams@Gu@physx@@QEAAAEAV012@AEBV012@@Z 000000018004e280 f i GuAABBTreeBuild.obj
 0001:0004d2a0       ??4BuildStats@Gu@physx@@QEAAAEAU012@$$QEAU012@@Z 000000018004e2a0 f i GuAABBTreeBuild.obj
 0001:0004d2b0       ??4BuildStats@Gu@physx@@QEAAAEAU012@AEBU012@@Z 000000018004e2b0 f i GuAABBTreeBuild.obj
 0001:0004d2c0       ??4NodeAllocator@Gu@physx@@QEAAAEAV012@AEBV012@@Z 000000018004e2c0 f i GuAABBTreeBuild.obj
 0001:0004d370       ??_EAABBTreeBuildNode@Gu@physx@@QEAAPEAXI@Z 000000018004e370 f i GuAABBTreeBuild.obj
 0001:0004d3f0       ??_FAABBTreeBuildParams@Gu@physx@@QEAAXXZ 000000018004e3f0 f i GuAABBTreeBuild.obj
 0001:0004d410       ?allocate@?$Array@USlab@NodeAllocator@Gu@physx@@V?$ReflectionAllocator@USlab@NodeAllocator@Gu@physx@@@shdfnd@4@@shdfnd@physx@@IEAAPEAUSlab@NodeAllocator@Gu@3@I@Z 000000018004e410 f i GuAABBTreeBuild.obj
 0001:0004d4b0       ?getAABB@AABBTreeBuildNode@Gu@physx@@QEBAAEBVPxBounds3@3@XZ 000000018004e4b0 f i GuAABBTreeBuild.obj
 0001:0004d4c0       ?getCount@BuildStats@Gu@physx@@QEBAIXZ 000000018004e4c0 f i GuAABBTreeBuild.obj
 0001:0004d4d0       ?getNbPrimitives@AABBTreeBuildNode@Gu@physx@@QEBAIXZ 000000018004e4d0 f i GuAABBTreeBuild.obj
 0001:0004d4e0       ?getNbRuntimePrimitives@AABBTreeBuildNode@Gu@physx@@QEBAIXZ 000000018004e4e0 f i GuAABBTreeBuild.obj
 0001:0004d4f0       ?getNeg@AABBTreeBuildNode@Gu@physx@@QEBAPEBV123@XZ 000000018004e4f0 f i GuAABBTreeBuild.obj
 0001:0004d510       ?getPos@AABBTreeBuildNode@Gu@physx@@QEBAPEBV123@XZ 000000018004e510 f i GuAABBTreeBuild.obj
 0001:0004d520       ?getPrimitives@AABBTreeBuildNode@Gu@physx@@QEAAPEAIPEAI@Z 000000018004e520 f i GuAABBTreeBuild.obj
 0001:0004d530       ?getPrimitives@AABBTreeBuildNode@Gu@physx@@QEBAPEBIPEBI@Z 000000018004e530 f i GuAABBTreeBuild.obj
 0001:0004d540       ?growAndPushBack@?$Array@USlab@NodeAllocator@Gu@physx@@V?$ReflectionAllocator@USlab@NodeAllocator@Gu@physx@@@shdfnd@4@@shdfnd@physx@@IEAAAEAUSlab@NodeAllocator@Gu@3@AEBU4563@@Z 000000018004e540 f i GuAABBTreeBuild.obj
 0001:0004d600       ?increaseCount@BuildStats@Gu@physx@@QEAAXI@Z 000000018004e600 f i GuAABBTreeBuild.obj
 0001:0004d610       ?isLeaf@AABBTreeBuildNode@Gu@physx@@QEBA_NXZ 000000018004e610 f i GuAABBTreeBuild.obj
 0001:0004d620       ?recreate@?$Array@USlab@NodeAllocator@Gu@physx@@V?$ReflectionAllocator@USlab@NodeAllocator@Gu@physx@@@shdfnd@4@@shdfnd@physx@@IEAAXI@Z 000000018004e620 f i GuAABBTreeBuild.obj
 0001:0004d6d0       ?reset@AABBTreeBuildParams@Gu@physx@@QEAAXXZ 000000018004e6d0 f i GuAABBTreeBuild.obj
 0001:0004d730       ?reset@BuildStats@Gu@physx@@QEAAXXZ 000000018004e730 f i GuAABBTreeBuild.obj
 0001:0004d740       ?resize@?$Array@USlab@NodeAllocator@Gu@physx@@V?$ReflectionAllocator@USlab@NodeAllocator@Gu@physx@@@shdfnd@4@@shdfnd@physx@@QEAAXIAEBUSlab@NodeAllocator@Gu@3@@Z 000000018004e740 f i GuAABBTreeBuild.obj
 0001:0004d7c0       ?setCount@BuildStats@Gu@physx@@QEAAXI@Z 000000018004e7c0 f i GuAABBTreeBuild.obj
 0001:0004d7d0       ?setNbRunTimePrimitives@AABBTreeBuildNode@Gu@physx@@QEAAXI@Z 000000018004e7d0 f i GuAABBTreeBuild.obj
 0001:0004d940       ??0BVHStructure@Gu@physx@@QEAA@PEAVGuMeshFactory@2@@Z 000000018004e940 f   GuBVHStructure.obj
 0001:0004d9b0       ??0BVHStructure@Gu@physx@@QEAA@PEAVGuMeshFactory@2@AEAUBVHStructureData@12@@Z 000000018004e9b0 f   GuBVHStructure.obj
 0001:0004da40       ??1BVHStructure@Gu@physx@@UEAA@XZ 000000018004ea40 f   GuBVHStructure.obj
 0001:0004da60       ?load@BVHStructure@Gu@physx@@QEAA_NAEAVPxInputStream@3@@Z 000000018004ea60 f   GuBVHStructure.obj
 0001:0004dc30       ?release@BVHStructure@Gu@physx@@UEAAXXZ 000000018004ec30 f   GuBVHStructure.obj
 0001:0004dc70       ?raycast@BVHStructure@Gu@physx@@UEBAIAEBVPxVec3@3@0MIPEIAI@Z 000000018004ec70 f   GuBVHStructure.obj
 0001:0004dd40       ?sweep@BVHStructure@Gu@physx@@UEBAIAEBVPxBounds3@3@AEBVPxVec3@3@MIPEIAI@Z 000000018004ed40 f   GuBVHStructure.obj
 0001:0004deb0       ?overlap@BVHStructure@Gu@physx@@UEBAIAEBVPxBounds3@3@IPEIAI@Z 000000018004eeb0 f   GuBVHStructure.obj
 0001:0004e000       ?onRefCountZero@BVHStructure@Gu@physx@@UEAAXXZ 000000018004f000 f   GuBVHStructure.obj
 0001:0004e130       ?createVolumes@BVHStructure@Gu@physx@@AEBAXXZ 000000018004f130 f   GuBVHStructure.obj
 0001:0004e1c0       ??1PxBVHStructure@physx@@MEAA@XZ 000000018004f1c0 f i GuBVHStructure.obj
 0001:0004e1d0       ??1RefCountable@Cm@physx@@UEAA@XZ 000000018004f1d0 f i GuBVHStructure.obj
 0001:0004e1e0       ??R?$AABBTreeOverlap@UAABBAABBTest@Gu@physx@@UBVHTree@23@UBVHNode@23@IUBVHCallback@23@@Gu@physx@@QEAA_NPEBIPEBVPxBounds3@2@AEBUBVHTree@12@AEBUAABBAABBTest@12@AEAUBVHCallback@12@@Z 000000018004f1e0 f i GuBVHStructure.obj
 0001:0004e460       ??R?$AABBTreeRaycast@$00UBVHTree@Gu@physx@@UBVHNode@23@IUBVHCallback@23@@Gu@physx@@QEAA_NPEBIPEBVPxBounds3@2@AEBUBVHTree@12@AEBVPxVec3@2@3AEAM3AEAUBVHCallback@12@@Z 000000018004f460 f i GuBVHStructure.obj
 0001:0004eaf0       ??R?$AABBTreeRaycast@$0A@UBVHTree@Gu@physx@@UBVHNode@23@IUBVHCallback@23@@Gu@physx@@QEAA_NPEBIPEBVPxBounds3@2@AEBUBVHTree@12@AEBVPxVec3@2@3AEAM3AEAUBVHCallback@12@@Z 000000018004faf0 f i GuBVHStructure.obj
 0001:0004f138       ??_EBVHStructure@Gu@physx@@WBA@EAAPEAXI@Z 0000000180050138 f i GuBVHStructure.obj
 0001:0004f150       ??_EBVHStructure@Gu@physx@@UEAAPEAXI@Z 0000000180050150 f i GuBVHStructure.obj
 0001:0004f150       ??_GBVHStructure@Gu@physx@@UEAAPEAXI@Z 0000000180050150 f i GuBVHStructure.obj
 0001:0004f1b0       ??_EPxBVHStructure@physx@@MEAAPEAXI@Z 00000001800501b0 f i GuBVHStructure.obj
 0001:0004f1b0       ??_GPxBVHStructure@physx@@MEAAPEAXI@Z 00000001800501b0 f i GuBVHStructure.obj
 0001:0004f1e0       ??_ERefCountable@Cm@physx@@UEAAPEAXI@Z 00000001800501e0 f i GuBVHStructure.obj
 0001:0004f1e0       ??_GRefCountable@Cm@physx@@UEAAPEAXI@Z 00000001800501e0 f i GuBVHStructure.obj
 0001:0004f210       ?allocate@?$Array@PEBUBVHNode@Gu@physx@@V?$InlineAllocator@$0IAA@V?$ReflectionAllocator@PEBUBVHNode@Gu@physx@@@shdfnd@physx@@@shdfnd@3@@shdfnd@physx@@IEAAPEAPEBUBVHNode@Gu@3@I@Z 0000000180050210 f i GuBVHStructure.obj
 0001:0004f2d0       ?getBounds@BVHStructure@Gu@physx@@UEBAPEBVPxBounds3@3@XZ 00000001800502d0 f i GuBVHStructure.obj
 0001:0004f2e0       ?getConcreteTypeName@PxBVHStructure@physx@@UEBAPEBDXZ 00000001800502e0 f i GuBVHStructure.obj
 0001:0004f2f0       ?getNbBounds@BVHStructure@Gu@physx@@UEBAIXZ 00000001800502f0 f i GuBVHStructure.obj
 0001:0004f300       ?isKindOf@PxBVHStructure@physx@@MEBA_NPEBD@Z 0000000180050300 f i GuBVHStructure.obj
 0001:0004f350       ?onRefCountZero@RefCountable@Cm@physx@@UEAAXXZ 0000000180050350 f i GuBVHStructure.obj
 0001:0004f370       ?recreate@?$Array@PEBUBVHNode@Gu@physx@@V?$InlineAllocator@$0IAA@V?$ReflectionAllocator@PEBUBVHNode@Gu@physx@@@shdfnd@physx@@@shdfnd@3@@shdfnd@physx@@IEAAXI@Z 0000000180050370 f i GuBVHStructure.obj
 0001:0004f420       ?resizeUninitialized@?$Array@PEBUBVHNode@Gu@physx@@V?$InlineAllocator@$0IAA@V?$ReflectionAllocator@PEBUBVHNode@Gu@physx@@@shdfnd@physx@@@shdfnd@3@@shdfnd@physx@@QEAAXI@Z 0000000180050420 f i GuBVHStructure.obj
 0001:0004f470       ?SweepEstimateAnyShapeHeightfield@Gu@physx@@YAMAEBUCCDShape@12@0AEBVPxTransform@2@111MM@Z 0000000180050470 f   GuCCDSweepConvexMesh.obj
 0001:0004fce0       ?SweepEstimateAnyShapeMesh@Gu@physx@@YAMAEBUCCDShape@12@0AEBVPxTransform@2@111MM@Z 0000000180050ce0 f   GuCCDSweepConvexMesh.obj
 0001:0004ffa0       ?SweepAnyShapeHeightfield@Gu@physx@@YAMAEBUCCDShape@12@0AEBVPxTransform@2@111MAEAVPxVec3@2@2MAEAIM@Z 0000000180050fa0 f   GuCCDSweepConvexMesh.obj
 0001:000510c0       ?SweepAnyShapeMesh@Gu@physx@@YAMAEBUCCDShape@12@0AEBVPxTransform@2@111MAEAVPxVec3@2@2MAEAIM@Z 00000001800520c0 f   GuCCDSweepConvexMesh.obj
 0001:000533c0       ?growAndPushBack@?$Array@IV?$InlineAllocator@$0BAA@V?$ReflectionAllocator@I@shdfnd@physx@@@shdfnd@physx@@@shdfnd@physx@@IEAAAEAIAEBI@Z 00000001800543c0 f i GuCCDSweepConvexMesh.obj
 0001:00053af0       ?recreate@?$Array@IV?$InlineAllocator@$0BAA@V?$ReflectionAllocator@I@shdfnd@physx@@@shdfnd@physx@@@shdfnd@physx@@IEAAXI@Z 0000000180054af0 f i GuCCDSweepConvexMesh.obj
 0001:00053bd0       ?resize@?$Array@IV?$InlineAllocator@$0BAA@V?$ReflectionAllocator@I@shdfnd@physx@@@shdfnd@physx@@@shdfnd@physx@@QEAAXIAEBI@Z 0000000180054bd0 f i GuCCDSweepConvexMesh.obj
 0001:00053ca0       ?resize@?$Array@IV?$ReflectionAllocator@I@shdfnd@physx@@@shdfnd@physx@@QEAAXIAEBI@Z 0000000180054ca0 f i GuCCDSweepConvexMesh.obj
 0001:00053d60       ?transformBoxOrthonormal@physx@@YA?AVBox@Gu@1@AEBV231@AEBVPxTransform@1@@Z 0000000180054d60 f i GuCCDSweepConvexMesh.obj
 0001:000541f0       ?SweepShapeShape@Gu@physx@@YAMAEBUCCDShape@12@0AEBVPxTransform@2@111MAEAVPxVec3@2@2MAEAIM@Z 00000001800551f0 f   GuCCDSweepPrimitives.obj
 0001:00054220       ?UnimplementedSweep@Gu@physx@@YAMAEBUCCDShape@12@0AEBVPxTransform@2@111MAEAVPxVec3@2@2MAEAIM@Z 0000000180055220 f   GuCCDSweepPrimitives.obj
 0001:00054230       ?UnimplementedTriangleSweep@Gu@physx@@YAMAEBVGeometryUnion@12@0AEBVPxTransform@2@111MAEAVPxVec3@2@2AEBVFastVertex2ShapeScaling@Cm@2@AEAVTriangleV@12@M@Z 0000000180055230 f   GuCCDSweepPrimitives.obj
 0001:00054240       ?SweepShapeTriangle@Gu@physx@@YAMAEBVGeometryUnion@12@0AEBVPxTransform@2@111MAEAVPxVec3@2@2AEBVFastVertex2ShapeScaling@Cm@2@AEAVTriangleV@12@M@Z 0000000180055240 f   GuCCDSweepPrimitives.obj
 0001:00054260       ??$SweepGeomGeom@VCapsuleV@Gu@physx@@V123@@Gu@physx@@YAMAEBUCCDShape@01@0AEBVPxTransform@1@111MAEAVPxVec3@1@2MAEAIM@Z 0000000180055260 f i GuCCDSweepPrimitives.obj
 0001:000543b0       ??$SweepGeomGeom@VCapsuleV@Gu@physx@@VBoxV@23@@Gu@physx@@YAMAEBUCCDShape@01@0AEBVPxTransform@1@111MAEAVPxVec3@1@2MAEAIM@Z 00000001800553b0 f i GuCCDSweepPrimitives.obj
 0001:00054520       ??$SweepGeomGeom@VCapsuleV@Gu@physx@@VConvexHullV@23@@Gu@physx@@YAMAEBUCCDShape@01@0AEBVPxTransform@1@111MAEAVPxVec3@1@2MAEAIM@Z 0000000180055520 f i GuCCDSweepPrimitives.obj
 0001:00054aa0       ??$SweepGeomGeom@VBoxV@Gu@physx@@V123@@Gu@physx@@YAMAEBUCCDShape@01@0AEBVPxTransform@1@111MAEAVPxVec3@1@2MAEAIM@Z 0000000180055aa0 f i GuCCDSweepPrimitives.obj
 0001:00054c30       ??$SweepGeomGeom@VBoxV@Gu@physx@@VConvexHullV@23@@Gu@physx@@YAMAEBUCCDShape@01@0AEBVPxTransform@1@111MAEAVPxVec3@1@2MAEAIM@Z 0000000180055c30 f i GuCCDSweepPrimitives.obj
 0001:000551c0       ??$SweepGeomGeom@VConvexHullV@Gu@physx@@V123@@Gu@physx@@YAMAEBUCCDShape@01@0AEBVPxTransform@1@111MAEAVPxVec3@1@2MAEAIM@Z 00000001800561c0 f i GuCCDSweepPrimitives.obj
 0001:00055ac0       ??$SweepGeomTriangles@VCapsuleV@Gu@physx@@@Gu@physx@@YAMAEBVGeometryUnion@01@0AEBVPxTransform@1@111MAEAVPxVec3@1@2AEBVFastVertex2ShapeScaling@Cm@1@AEAVTriangleV@01@M@Z 0000000180056ac0 f i GuCCDSweepPrimitives.obj
 0001:00055b90       ??$SweepGeomTriangles@VBoxV@Gu@physx@@@Gu@physx@@YAMAEBVGeometryUnion@01@0AEBVPxTransform@1@111MAEAVPxVec3@1@2AEBVFastVertex2ShapeScaling@Cm@1@AEAVTriangleV@01@M@Z 0000000180056b90 f i GuCCDSweepPrimitives.obj
 0001:00055c90       ??$SweepGeomTriangles@VConvexHullV@Gu@physx@@@Gu@physx@@YAMAEBVGeometryUnion@01@0AEBVPxTransform@1@111MAEAVPxVec3@1@2AEBVFastVertex2ShapeScaling@Cm@1@AEAVTriangleV@01@M@Z 0000000180056c90 f i GuCCDSweepPrimitives.obj
 0001:000561b0       ?supportPoint@?$RelativeConvex@VCapsuleV@Gu@physx@@@Gu@physx@@UEBA?AT__m128@@H@Z 00000001800571b0 f i GuCCDSweepPrimitives.obj
 0001:00056210       ?support@?$RelativeConvex@VCapsuleV@Gu@physx@@@Gu@physx@@UEBA?AT__m128@@AEBT4@@Z 0000000180057210 f i GuCCDSweepPrimitives.obj
 0001:000562c0       ?support@?$RelativeConvex@VCapsuleV@Gu@physx@@@Gu@physx@@UEBA?AT__m128@@AEBT4@AEAH@Z 00000001800572c0 f i GuCCDSweepPrimitives.obj
 0001:00056380       ?getCenter@?$RelativeConvex@VCapsuleV@Gu@physx@@@Gu@physx@@UEBA?AT__m128@@XZ 0000000180057380 f i GuCCDSweepPrimitives.obj
 0001:000563c0       ?getSweepMargin@?$RelativeConvex@VCapsuleV@Gu@physx@@@Gu@physx@@UEBA?AT__m128@@XZ 00000001800573c0 f i GuCCDSweepPrimitives.obj
 0001:000563d0       ??_E?$RelativeConvex@VCapsuleV@Gu@physx@@@Gu@physx@@UEAAPEAXI@Z 00000001800573d0 f i GuCCDSweepPrimitives.obj
 0001:000563d0       ??_G?$RelativeConvex@VCapsuleV@Gu@physx@@@Gu@physx@@UEAAPEAXI@Z 00000001800573d0 f i GuCCDSweepPrimitives.obj
 0001:00056400       ?supportPoint@?$RelativeConvex@VTriangleV@Gu@physx@@@Gu@physx@@UEBA?AT__m128@@H@Z 0000000180057400 f i GuCCDSweepPrimitives.obj
 0001:00056450       ?support@?$RelativeConvex@VTriangleV@Gu@physx@@@Gu@physx@@UEBA?AT__m128@@AEBT4@@Z 0000000180057450 f i GuCCDSweepPrimitives.obj
 0001:00056550       ?support@?$RelativeConvex@VTriangleV@Gu@physx@@@Gu@physx@@UEBA?AT__m128@@AEBT4@AEAH@Z 0000000180057550 f i GuCCDSweepPrimitives.obj
 0001:00056690       ?getCenter@?$RelativeConvex@VTriangleV@Gu@physx@@@Gu@physx@@UEBA?AT__m128@@XZ 0000000180057690 f i GuCCDSweepPrimitives.obj
 0001:000566d0       ?getSweepMargin@?$RelativeConvex@VTriangleV@Gu@physx@@@Gu@physx@@UEBA?AT__m128@@XZ 00000001800576d0 f i GuCCDSweepPrimitives.obj
 0001:000566e0       ??_G?$RelativeConvex@VTriangleV@Gu@physx@@@Gu@physx@@UEAAPEAXI@Z 00000001800576e0 f i GuCCDSweepPrimitives.obj
 0001:000566e0       ??_E?$RelativeConvex@VTriangleV@Gu@physx@@@Gu@physx@@UEAAPEAXI@Z 00000001800576e0 f i GuCCDSweepPrimitives.obj
 0001:0005a4f0       ??$gjkPenetration@U?$RelativeConvex@VCapsuleV@Gu@physx@@@Gu@physx@@U?$LocalConvex@VBoxV@Gu@physx@@@23@@Gu@physx@@YA?AW4GjkStatus@01@AEBU?$RelativeConvex@VCapsuleV@Gu@physx@@@01@AEBU?$LocalConvex@VBoxV@Gu@physx@@@01@AEBT__m128@@2_NPEIAE4AEAEAEAUGjkOutput@01@@Z 000000018005b4f0 f i GuCCDSweepPrimitives.obj
 0001:0005baa0       ??$gjkPenetration@U?$RelativeConvex@VCapsuleV@Gu@physx@@@Gu@physx@@U?$LocalConvex@VCapsuleV@Gu@physx@@@23@@Gu@physx@@YA?AW4GjkStatus@01@AEBU?$RelativeConvex@VCapsuleV@Gu@physx@@@01@AEBU?$LocalConvex@VCapsuleV@Gu@physx@@@01@AEBT__m128@@2_NPEIAE4AEAEAEAUGjkOutput@01@@Z 000000018005caa0 f i GuCCDSweepPrimitives.obj
 0001:0005d050       ??$gjkPenetration@U?$RelativeConvex@VCapsuleV@Gu@physx@@@Gu@physx@@U?$LocalConvex@VConvexHullV@Gu@physx@@@23@@Gu@physx@@YA?AW4GjkStatus@01@AEBU?$RelativeConvex@VCapsuleV@Gu@physx@@@01@AEBU?$LocalConvex@VConvexHullV@Gu@physx@@@01@AEBT__m128@@2_NPEIAE4AEAEAEAUGjkOutput@01@@Z 000000018005e050 f i GuCCDSweepPrimitives.obj
 0001:0005e6b0       ??$gjkPenetration@U?$RelativeConvex@VTriangleV@Gu@physx@@@Gu@physx@@U?$LocalConvex@VBoxV@Gu@physx@@@23@@Gu@physx@@YA?AW4GjkStatus@01@AEBU?$RelativeConvex@VTriangleV@Gu@physx@@@01@AEBU?$LocalConvex@VBoxV@Gu@physx@@@01@AEBT__m128@@2_NPEIAE4AEAEAEAUGjkOutput@01@@Z 000000018005f6b0 f i GuCCDSweepPrimitives.obj
 0001:0005fc90       ??$gjkPenetration@U?$RelativeConvex@VTriangleV@Gu@physx@@@Gu@physx@@U?$LocalConvex@VCapsuleV@Gu@physx@@@23@@Gu@physx@@YA?AW4GjkStatus@01@AEBU?$RelativeConvex@VTriangleV@Gu@physx@@@01@AEBU?$LocalConvex@VCapsuleV@Gu@physx@@@01@AEBT__m128@@2_NPEIAE4AEAEAEAUGjkOutput@01@@Z 0000000180060c90 f i GuCCDSweepPrimitives.obj
 0001:00061290       ??$gjkPenetration@U?$RelativeConvex@VTriangleV@Gu@physx@@@Gu@physx@@U?$LocalConvex@VConvexHullV@Gu@physx@@@23@@Gu@physx@@YA?AW4GjkStatus@01@AEBU?$RelativeConvex@VTriangleV@Gu@physx@@@01@AEBU?$LocalConvex@VConvexHullV@Gu@physx@@@01@AEBT__m128@@2_NPEIAE4AEAEAEAUGjkOutput@01@@Z 0000000180062290 f i GuCCDSweepPrimitives.obj
 0001:00062910       ??$gjkRaycast@U?$RelativeConvex@VCapsuleV@Gu@physx@@@Gu@physx@@U?$LocalConvex@VBoxV@Gu@physx@@@23@@Gu@physx@@YA_NAEBU?$RelativeConvex@VCapsuleV@Gu@physx@@@01@AEBU?$LocalConvex@VBoxV@Gu@physx@@@01@AEBT__m128@@222AEAT4@33M@Z 0000000180063910 f i GuCCDSweepPrimitives.obj
 0001:00063570       ??$gjkRaycast@U?$RelativeConvex@VCapsuleV@Gu@physx@@@Gu@physx@@U?$LocalConvex@VCapsuleV@Gu@physx@@@23@@Gu@physx@@YA_NAEBU?$RelativeConvex@VCapsuleV@Gu@physx@@@01@AEBU?$LocalConvex@VCapsuleV@Gu@physx@@@01@AEBT__m128@@222AEAT4@33M@Z 0000000180064570 f i GuCCDSweepPrimitives.obj
 0001:00064250       ??$gjkRaycast@U?$RelativeConvex@VCapsuleV@Gu@physx@@@Gu@physx@@U?$LocalConvex@VConvexHullV@Gu@physx@@@23@@Gu@physx@@YA_NAEBU?$RelativeConvex@VCapsuleV@Gu@physx@@@01@AEBU?$LocalConvex@VConvexHullV@Gu@physx@@@01@AEBT__m128@@222AEAT4@33M@Z 0000000180065250 f i GuCCDSweepPrimitives.obj
 0001:000650b0       ??$gjkRaycast@U?$RelativeConvex@VTriangleV@Gu@physx@@@Gu@physx@@U?$LocalConvex@VBoxV@Gu@physx@@@23@@Gu@physx@@YA_NAEBU?$RelativeConvex@VTriangleV@Gu@physx@@@01@AEBU?$LocalConvex@VBoxV@Gu@physx@@@01@AEBT__m128@@222AEAT4@33M@Z 00000001800660b0 f i GuCCDSweepPrimitives.obj
 0001:00065dd0       ??$gjkRaycast@U?$RelativeConvex@VTriangleV@Gu@physx@@@Gu@physx@@U?$LocalConvex@VCapsuleV@Gu@physx@@@23@@Gu@physx@@YA_NAEBU?$RelativeConvex@VTriangleV@Gu@physx@@@01@AEBU?$LocalConvex@VCapsuleV@Gu@physx@@@01@AEBT__m128@@222AEAT4@33M@Z 0000000180066dd0 f i GuCCDSweepPrimitives.obj
 0001:00066b40       ??$gjkRaycast@U?$RelativeConvex@VTriangleV@Gu@physx@@@Gu@physx@@U?$LocalConvex@VConvexHullV@Gu@physx@@@23@@Gu@physx@@YA_NAEBU?$RelativeConvex@VTriangleV@Gu@physx@@@01@AEBU?$LocalConvex@VConvexHullV@Gu@physx@@@01@AEBT__m128@@222AEAT4@33M@Z 0000000180067b40 f i GuCCDSweepPrimitives.obj
 0001:00067a30       ??$gjkRaycastPenetration@U?$RelativeConvex@VCapsuleV@Gu@physx@@@Gu@physx@@U?$LocalConvex@VBoxV@Gu@physx@@@23@@Gu@physx@@YA_NAEBU?$RelativeConvex@VCapsuleV@Gu@physx@@@01@AEBU?$LocalConvex@VBoxV@Gu@physx@@@01@AEBT__m128@@222AEAT4@33M_N@Z 0000000180068a30 f i GuCCDSweepPrimitives.obj
 0001:00067cb0       ??$gjkRaycastPenetration@U?$RelativeConvex@VCapsuleV@Gu@physx@@@Gu@physx@@U?$LocalConvex@VCapsuleV@Gu@physx@@@23@@Gu@physx@@YA_NAEBU?$RelativeConvex@VCapsuleV@Gu@physx@@@01@AEBU?$LocalConvex@VCapsuleV@Gu@physx@@@01@AEBT__m128@@222AEAT4@33M_N@Z 0000000180068cb0 f i GuCCDSweepPrimitives.obj
 0001:00067f30       ??$gjkRaycastPenetration@U?$RelativeConvex@VCapsuleV@Gu@physx@@@Gu@physx@@U?$LocalConvex@VConvexHullV@Gu@physx@@@23@@Gu@physx@@YA_NAEBU?$RelativeConvex@VCapsuleV@Gu@physx@@@01@AEBU?$LocalConvex@VConvexHullV@Gu@physx@@@01@AEBT__m128@@222AEAT4@33M_N@Z 0000000180068f30 f i GuCCDSweepPrimitives.obj
 0001:000681b0       ??$gjkRaycastPenetration@U?$RelativeConvex@VTriangleV@Gu@physx@@@Gu@physx@@U?$LocalConvex@VBoxV@Gu@physx@@@23@@Gu@physx@@YA_NAEBU?$RelativeConvex@VTriangleV@Gu@physx@@@01@AEBU?$LocalConvex@VBoxV@Gu@physx@@@01@AEBT__m128@@222AEAT4@33M_N@Z 00000001800691b0 f i GuCCDSweepPrimitives.obj
 0001:00068430       ??$gjkRaycastPenetration@U?$RelativeConvex@VTriangleV@Gu@physx@@@Gu@physx@@U?$LocalConvex@VCapsuleV@Gu@physx@@@23@@Gu@physx@@YA_NAEBU?$RelativeConvex@VTriangleV@Gu@physx@@@01@AEBU?$LocalConvex@VCapsuleV@Gu@physx@@@01@AEBT__m128@@222AEAT4@33M_N@Z 0000000180069430 f i GuCCDSweepPrimitives.obj
 0001:000686b0       ??$gjkRaycastPenetration@U?$RelativeConvex@VTriangleV@Gu@physx@@@Gu@physx@@U?$LocalConvex@VConvexHullV@Gu@physx@@@23@@Gu@physx@@YA_NAEBU?$RelativeConvex@VTriangleV@Gu@physx@@@01@AEBU?$LocalConvex@VConvexHullV@Gu@physx@@@01@AEBT__m128@@222AEAT4@33M_N@Z 00000001800696b0 f i GuCCDSweepPrimitives.obj
 0001:00068930       ?barycentricCoordinates@Gu@physx@@YAXAEBT__m128@@00AEAT3@@Z 0000000180069930 f   GuBarycentricCoordinates.obj
 0001:000689a0       ?barycentricCoordinates@Gu@physx@@YAXAEBT__m128@@000AEAT3@1@Z 00000001800699a0 f   GuBarycentricCoordinates.obj
 0001:00068af0       ?barycentricCoordinates@Gu@physx@@YAXAEBT__m128@@00AEAT3@1@Z 0000000180069af0 f   GuBarycentricCoordinates.obj
 0001:00068be0       ?addAxis@SeparatingAxes@Gu@physx@@QEAA_NAEBVPxVec3@3@@Z 0000000180069be0 f   GuSeparatingAxes.obj
 0001:00068ca0       ?contactBoxBox@Gu@physx@@YA_NAEBVGeometryUnion@12@0AEBVPxTransform@2@1AEBUNarrowPhaseParams@12@AEAUCache@12@AEAVContactBuffer@12@PEAVRenderOutput@Cm@2@@Z 0000000180069ca0 f   GuContactBoxBox.obj
 0001:00068f90       ??0VertexInfo@@QEAA@XZ     0000000180069f90 f i GuContactBoxBox.obj
 0001:0006b970       ?contactCapsuleBox@Gu@physx@@YA_NAEBVGeometryUnion@12@0AEBVPxTransform@2@1AEBUNarrowPhaseParams@12@AEAUCache@12@AEAVContactBuffer@12@PEAVRenderOutput@Cm@2@@Z 000000018006c970 f   GuContactCapsuleBox.obj
 0001:0006d720       ?contactCapsuleCapsule@Gu@physx@@YA_NAEBVGeometryUnion@12@0AEBVPxTransform@2@1AEBUNarrowPhaseParams@12@AEAUCache@12@AEAVContactBuffer@12@PEAVRenderOutput@Cm@2@@Z 000000018006e720 f   GuContactCapsuleCapsule.obj
 0001:0006e0e0       ??0Segment@Gu@physx@@QEAA@XZ 000000018006f0e0 f i GuContactCapsuleCapsule.obj
 0001:0006e0f0       ??1Segment@Gu@physx@@QEAA@XZ 000000018006f0f0 f i GuContactCapsuleCapsule.obj
 0001:0006e100       ?contactCapsuleConvex@Gu@physx@@YA_NAEBVGeometryUnion@12@0AEBVPxTransform@2@1AEBUNarrowPhaseParams@12@AEAUCache@12@AEAVContactBuffer@12@PEAVRenderOutput@Cm@2@@Z 000000018006f100 f   GuContactCapsuleConvex.obj
 0001:0006ef20       ??0ConvexEdge@Gu@physx@@QEAA@XZ 000000018006ff20 f i GuContactCapsuleConvex.obj
 0001:00070e90       ?contactCapsuleMesh@Gu@physx@@YA_NAEBVGeometryUnion@12@0AEBVPxTransform@2@1AEBUNarrowPhaseParams@12@AEAUCache@12@AEAVContactBuffer@12@PEAVRenderOutput@Cm@2@@Z 0000000180071e90 f   GuContactCapsuleMesh.obj
 0001:000713d0       ?contactCapsuleHeightfield@Gu@physx@@YA_NAEBVGeometryUnion@12@0AEBVPxTransform@2@1AEBUNarrowPhaseParams@12@AEAUCache@12@AEAVContactBuffer@12@PEAVRenderOutput@Cm@2@@Z 00000001800723d0 f   GuContactCapsuleMesh.obj
 0001:00073c30       ?transformFast@PxBounds3@physx@@SA?AV12@AEBVPxTransform@2@AEBV12@@Z 0000000180074c30 f i GuContactCapsuleMesh.obj
 0001:00074010       ?transformQueryBounds@FastVertex2ShapeScaling@Cm@physx@@QEBAXAEAVPxVec3@3@0AEAVPxMat33@3@@Z 0000000180075010 f i GuContactCapsuleMesh.obj
 0001:00074250       ?contactBoxConvex@Gu@physx@@YA_NAEBVGeometryUnion@12@0AEBVPxTransform@2@1AEBUNarrowPhaseParams@12@AEAUCache@12@AEAVContactBuffer@12@PEAVRenderOutput@Cm@2@@Z 0000000180075250 f   GuContactConvexConvex.obj
 0001:000743f0       ?contactConvexConvex@Gu@physx@@YA_NAEBVGeometryUnion@12@0AEBVPxTransform@2@1AEBUNarrowPhaseParams@12@AEAUCache@12@AEAVContactBuffer@12@PEAVRenderOutput@Cm@2@@Z 00000001800753f0 f   GuContactConvexConvex.obj
 0001:000788b0       ?transformPlaneToShapeSpace@FastVertex2ShapeScaling@Cm@physx@@QEBAXAEBVPxVec3@3@MAEAV43@AEAM@Z 00000001800798b0 f i GuContactConvexConvex.obj
 0001:000789a0       ?contactBoxMesh@Gu@physx@@YA_NAEBVGeometryUnion@12@0AEBVPxTransform@2@1AEBUNarrowPhaseParams@12@AEAUCache@12@AEAVContactBuffer@12@PEAVRenderOutput@Cm@2@@Z 00000001800799a0 f   GuContactConvexMesh.obj
 0001:00078b60       ?contactConvexMesh@Gu@physx@@YA_NAEBVGeometryUnion@12@0AEBVPxTransform@2@1AEBUNarrowPhaseParams@12@AEAUCache@12@AEAVContactBuffer@12@PEAVRenderOutput@Cm@2@@Z 0000000180079b60 f   GuContactConvexMesh.obj
 0001:00078d10       ?contactBoxHeightfield@Gu@physx@@YA_NAEBVGeometryUnion@12@0AEBVPxTransform@2@1AEBUNarrowPhaseParams@12@AEAUCache@12@AEAVContactBuffer@12@PEAVRenderOutput@Cm@2@@Z 0000000180079d10 f   GuContactConvexMesh.obj
 0001:00078e70       ?contactConvexHeightfield@Gu@physx@@YA_NAEBVGeometryUnion@12@0AEBVPxTransform@2@1AEBUNarrowPhaseParams@12@AEAUCache@12@AEAVContactBuffer@12@PEAVRenderOutput@Cm@2@@Z 0000000180079e70 f   GuContactConvexMesh.obj
 0001:00078fa0       ??0?$CacheMap@UCachedEdge@Gu@physx@@$0IA@@Gu@physx@@QEAA@XZ 0000000180079fa0 f i GuContactConvexMesh.obj
 0001:00079060       ??0?$CacheMap@UCachedVertex@Gu@physx@@$0IA@@Gu@physx@@QEAA@XZ 000000018007a060 f i GuContactConvexMesh.obj
 0001:00079120       ??0CachedEdge@Gu@physx@@QEAA@XZ 000000018007a120 f i GuContactConvexMesh.obj
 0001:00079130       ??0CachedVertex@Gu@physx@@QEAA@XZ 000000018007a130 f i GuContactConvexMesh.obj
 0001:00079650       ??_GConvexMeshContactGenerationCallback@@UEAAPEAXI@Z 000000018007a650 f i GuContactConvexMesh.obj
 0001:00079650       ??_EConvexMeshContactGenerationCallback@@UEAAPEAXI@Z 000000018007a650 f i GuContactConvexMesh.obj
 0001:000796b0       ?addData@?$CacheMap@UCachedEdge@Gu@physx@@$0IA@@Gu@physx@@QEAA_NAEBUCachedEdge@23@@Z 000000018007a6b0 f i GuContactConvexMesh.obj
 0001:00079790       ?addData@?$CacheMap@UCachedVertex@Gu@physx@@$0IA@@Gu@physx@@QEAA_NAEBUCachedVertex@23@@Z 000000018007a790 f i GuContactConvexMesh.obj
 0001:0007d080       ?processHit@ConvexMeshContactGenerationCallback@@UEAA_NAEBUPxRaycastHit@physx@@AEBVPxVec3@3@11AEAMPEBI@Z 000000018007e080 f i GuContactConvexMesh.obj
 0001:0007d950       ?recreate@?$Array@IV?$InlineAllocator@$0BBAA@V?$ReflectionAllocator@I@shdfnd@physx@@@shdfnd@physx@@@shdfnd@physx@@IEAAXI@Z 000000018007e950 f i GuContactConvexMesh.obj
 0001:0007e980       ?contactPlaneBox@Gu@physx@@YA_NAEBVGeometryUnion@12@0AEBVPxTransform@2@1AEBUNarrowPhaseParams@12@AEAUCache@12@AEAVContactBuffer@12@PEAVRenderOutput@Cm@2@@Z 000000018007f980 f   GuContactPlaneBox.obj
 0001:0007f570       ?contactPlaneCapsule@Gu@physx@@YA_NAEBVGeometryUnion@12@0AEBVPxTransform@2@1AEBUNarrowPhaseParams@12@AEAUCache@12@AEAVContactBuffer@12@PEAVRenderOutput@Cm@2@@Z 0000000180080570 f   GuContactPlaneCapsule.obj
 0001:0007fb80       ?contactPlaneConvex@Gu@physx@@YA_NAEBVGeometryUnion@12@0AEBVPxTransform@2@1AEBUNarrowPhaseParams@12@AEAUCache@12@AEAVContactBuffer@12@PEAVRenderOutput@Cm@2@@Z 0000000180080b80 f   GuContactPlaneConvex.obj
 0001:000804b0       ?findRotationMatrixFromZ@Gu@physx@@YA?AVPxMat33@2@AEBVPxVec3@2@@Z 00000001800814b0 f   GuContactPolygonPolygon.obj
 0001:000806f0       ?contactPolygonPolygonExt@Gu@physx@@YA_NIPEBVPxVec3@2@PEBEAEBVMatrix34@Cm@2@AEBVPxPlane@2@AEBVPxMat33@2@I01234AEBV32@22IIAEAVContactBuffer@12@_N5M@Z 00000001800816f0 f   GuContactPolygonPolygon.obj
 0001:00083b00       ?contactSphereBox@Gu@physx@@YA_NAEBVGeometryUnion@12@0AEBVPxTransform@2@1AEBUNarrowPhaseParams@12@AEAUCache@12@AEAVContactBuffer@12@PEAVRenderOutput@Cm@2@@Z 0000000180084b00 f   GuContactSphereBox.obj
 0001:000840e0       ?contactSphereCapsule@Gu@physx@@YA_NAEBVGeometryUnion@12@0AEBVPxTransform@2@1AEBUNarrowPhaseParams@12@AEAUCache@12@AEAVContactBuffer@12@PEAVRenderOutput@Cm@2@@Z 00000001800850e0 f   GuContactSphereCapsule.obj
 0001:00084480       ?contactSphereMesh@Gu@physx@@YA_NAEBVGeometryUnion@12@0AEBVPxTransform@2@1AEBUNarrowPhaseParams@12@AEAUCache@12@AEAVContactBuffer@12@PEAVRenderOutput@Cm@2@@Z 0000000180085480 f   GuContactSphereMesh.obj
 0001:000855d0       ?contactSphereHeightfield@Gu@physx@@YA_NAEBVGeometryUnion@12@0AEBVPxTransform@2@1AEBUNarrowPhaseParams@12@AEAUCache@12@AEAVContactBuffer@12@PEAVRenderOutput@Cm@2@@Z 00000001800865d0 f   GuContactSphereMesh.obj
 0001:00086380       ??0TriangleData@@QEAA@XZ   0000000180087380 f i GuContactSphereMesh.obj
 0001:00087b70       ?contactSpherePlane@Gu@physx@@YA_NAEBVGeometryUnion@12@0AEBVPxTransform@2@1AEBUNarrowPhaseParams@12@AEAUCache@12@AEAVContactBuffer@12@PEAVRenderOutput@Cm@2@@Z 0000000180088b70 f   GuContactSpherePlane.obj
 0001:00087d70       ?contactSphereSphere@Gu@physx@@YA_NAEBVGeometryUnion@12@0AEBVPxTransform@2@1AEBUNarrowPhaseParams@12@AEAUCache@12@AEAVContactBuffer@12@PEAVRenderOutput@Cm@2@@Z 0000000180088d70 f   GuContactSphereSphere.obj
 0001:00087ee0       ?selectNormal@Gu@physx@@YA_NEMM@Z 0000000180088ee0 f   GuFeatureCode.obj
 0001:00087f60       ??0BigConvexData@physx@@QEAA@XZ 0000000180088f60 f   GuBigConvexData.obj
 0001:00087f90       ??1BigConvexData@physx@@QEAA@XZ 0000000180088f90 f   GuBigConvexData.obj
 0001:00088020       ?Load@BigConvexData@physx@@QEAA_NAEAVPxInputStream@2@@Z 0000000180089020 f   GuBigConvexData.obj
 0001:00088140       ?ComputeOffset@BigConvexData@physx@@QEBAIAEBVPxVec3@2@@Z 0000000180089140 f   GuBigConvexData.obj
 0001:00088240       ?ComputeNearestOffset@BigConvexData@physx@@QEBAIAEBVPxVec3@2@@Z 0000000180089240 f   GuBigConvexData.obj
 0001:00088350       ?exportExtraData@BigConvexData@physx@@QEAAXAEAVPxSerializationContext@2@@Z 0000000180089350 f   GuBigConvexData.obj
 0001:000883d0       ?importExtraData@BigConvexData@physx@@QEAAXAEAVPxDeserializationContext@2@@Z 00000001800893d0 f   GuBigConvexData.obj
 0001:00088450       ?CreateOffsets@BigConvexData@physx@@IEAAXXZ 0000000180089450 f   GuBigConvexData.obj
 0001:000884a0       ?VLoad@BigConvexData@physx@@IEAA_NAEAVPxInputStream@2@@Z 00000001800894a0 f   GuBigConvexData.obj
 0001:00088640       ?getScaledConvex@Gu@physx@@YAXAEAPEAVPxVec3@2@AEAPEAEPEAV32@PEAE_NPEBV32@PEBEIAEBVFastVertex2ShapeScaling@Cm@2@@Z 0000000180089640 f   GuConvexHelper.obj
 0001:00088780       ?getConvexData@Gu@physx@@YA_NAEBVGeometryUnion@12@AEAVFastVertex2ShapeScaling@Cm@2@AEAVPxBounds3@2@AEAUPolygonalData@12@@Z 0000000180089780 f   GuConvexHelper.obj
 0001:00088a00       ?findUniqueConvexEdges@Gu@physx@@YAIIPEIAUConvexEdge@12@IPEIBUHullPolygonData@12@PEIBE@Z 0000000180089a00 f   GuConvexHelper.obj
 0001:00088b40       ?exportExtraData@ConvexMesh@Gu@physx@@UEAAXAEAVPxSerializationContext@3@@Z 0000000180089b40 f   GuConvexMesh.obj
 0001:00088c10       ?importExtraData@ConvexMesh@Gu@physx@@QEAAXAEAVPxDeserializationContext@3@@Z 0000000180089c10 f   GuConvexMesh.obj
 0001:00088cd0       ?onRefCountZero@ConvexMesh@Gu@physx@@UEAAXXZ 0000000180089cd0 f   GuConvexMesh.obj
 0001:00088dc0       ?createObject@ConvexMesh@Gu@physx@@SAPEAV123@AEAPEAEAEAVPxDeserializationContext@3@@Z 0000000180089dc0 f   GuConvexMesh.obj
 0001:00088e30       ??0ConvexMesh@Gu@physx@@QEAA@XZ 0000000180089e30 f   GuConvexMesh.obj
 0001:00088ef0       ??0ConvexMesh@Gu@physx@@QEAA@AEAVGuMeshFactory@2@AEAUConvexHullInitData@12@@Z 0000000180089ef0 f   GuConvexMesh.obj
 0001:00089030       ?load@ConvexMesh@Gu@physx@@QEAA_NAEAVPxInputStream@3@@Z 000000018008a030 f   GuConvexMesh.obj
 0001:000892e0       ?release@ConvexMesh@Gu@physx@@UEAAXXZ 000000018008a2e0 f   GuConvexMesh.obj
 0001:00089320       ?getPolygonData@ConvexMesh@Gu@physx@@UEBA_NIAEAUPxHullPolygon@3@@Z 000000018008a320 f   GuConvexMesh.obj
 0001:00089370       ?isGpuCompatible@ConvexMesh@Gu@physx@@UEBA_NXZ 000000018008a370 f   GuConvexMesh.obj
 0001:000893a0       ?getReferenceCount@ConvexMesh@Gu@physx@@UEBAIXZ 000000018008a3a0 f   GuConvexMesh.obj
 0001:000893b0       ?acquireReference@ConvexMesh@Gu@physx@@UEAAXXZ 000000018008a3b0 f   GuConvexMesh.obj
 0001:000893d0       ?getMassInformation@ConvexMesh@Gu@physx@@UEBAXAEAMAEAVPxMat33@3@AEAVPxVec3@3@@Z 000000018008a3d0 f   GuConvexMesh.obj
 0001:00089450       ?getLocalBounds@ConvexMesh@Gu@physx@@UEBA?AVPxBounds3@3@XZ 000000018008a450 f   GuConvexMesh.obj
 0001:000894e0       ??1ConvexMesh@Gu@physx@@UEAA@XZ 000000018008a4e0 f   GuConvexMesh.obj
 0001:00089580       ??_EConvexMesh@Gu@physx@@UEAAPEAXI@Z 000000018008a580 f i GuConvexMesh.obj
 0001:00089690       ??_EConvexMesh@Gu@physx@@WBA@EAAPEAXI@Z 000000018008a690 f i GuConvexMesh.obj
 0001:000896a0       ??_EPxConvexMesh@physx@@MEAAPEAXI@Z 000000018008a6a0 f i GuConvexMesh.obj
 0001:00089bf0       ?requiresObjects@ConvexMesh@Gu@physx@@UEAAXAEAVPxProcessPxBaseCallback@3@@Z 000000018008abf0 f i GuConvexMesh.obj
 0001:00089c00       ?computeHullOBB@Gu@physx@@YAXAEAVBox@12@AEBVPxBounds3@2@MAEBVMatrix34@Cm@2@2AEBVFastVertex2ShapeScaling@62@_N@Z 000000018008ac00 f   GuConvexUtilsInternal.obj
 0001:0008a0c0       ?computeVertexSpaceOBB@Gu@physx@@YAXAEAVBox@12@AEBV312@AEBVPxTransform@2@AEBVPxMeshScale@2@@Z 000000018008b0c0 f   GuConvexUtilsInternal.obj
 0001:0008a480       ?computeOBBAroundConvex@Gu@physx@@YAXAEAVBox@12@AEBVPxConvexMeshGeometry@2@PEBVPxConvexMesh@2@AEBVPxTransform@2@@Z 000000018008b480 f   GuConvexUtilsInternal.obj
 0001:0008ad90       ??Dphysx@@YA?AVMatrix34@Cm@0@AEBVPxMeshScale@0@AEBV120@@Z 000000018008bd90 f i GuConvexUtilsInternal.obj
 0001:0008b360       ?transform@physx@@YA?AVBox@Gu@1@AEBVMatrix34@Cm@1@AEBV231@@Z 000000018008c360 f i GuConvexUtilsInternal.obj
 0001:0008b5b0       ?localSearch@physx@@YAXAEAIAEBVPxVec3@1@PEBV21@PEBUBigConvexRawData@Gu@1@@Z 000000018008c5b0 f   GuHillClimbing.obj
 0001:0008b6e0       ??0PolygonalBox@Gu@physx@@QEAA@AEBVPxVec3@2@@Z 000000018008c6e0 f   GuShapeConvex.obj
 0001:0008b8b0       ?getPolygonalData@PolygonalBox@Gu@physx@@QEBAXPEIAUPolygonalData@23@@Z 000000018008c8b0 f   GuShapeConvex.obj
 0001:0008b920       ?getPolygonalData_Convex@Gu@physx@@YAXPEIAUPolygonalData@12@PEIBUConvexHullData@12@AEBVFastVertex2ShapeScaling@Cm@2@@Z 000000018008c920 f   GuShapeConvex.obj
 0001:0008cdb0       ??0HullPolygonData@Gu@physx@@QEAA@XZ 000000018008ddb0 f i GuShapeConvex.obj
 0001:0008cdc0       ?distancePointBoxSquared@Gu@physx@@YAMAEBVPxVec3@2@00AEBVPxMat33@2@PEAV32@@Z 000000018008ddc0 f   GuDistancePointBox.obj
 0001:0008cf10       ?closestPtPointTriangle@Gu@physx@@YA?AVPxVec3@2@AEBV32@000AEAM1@Z 000000018008df10 f   GuDistancePointTriangle.obj
 0001:0008d430       ?distancePointTriangleSquared@Gu@physx@@YA?AT__m128@@AEBT3@000AEAT3@11@Z 000000018008e430 f   GuDistancePointTriangle.obj
 0001:0008d830       ?distanceSegmentBoxSquared@Gu@physx@@YAMAEBVPxVec3@2@000AEBVPxMat33@2@PEAMPEAV32@@Z 000000018008e830 f   GuDistanceSegmentBox.obj
 0001:0008e9f0       ?distanceSegmentSegmentSquared@Gu@physx@@YAMAEBVPxVec3@2@0M00MPEAM1@Z 000000018008f9f0 f   GuDistanceSegmentSegment.obj
 0001:0008f140       ?distanceSegmentSegmentSquared@Gu@physx@@YAMAEBVPxVec3@2@000PEAM1@Z 0000000180090140 f   GuDistanceSegmentSegment.obj
 0001:0008f3e0       ?distanceSegmentSegmentSquared@Gu@physx@@YA?AT__m128@@AEBT3@000AEAT3@1@Z 00000001800903e0 f   GuDistanceSegmentSegment.obj
 0001:0008f5b0       ?distanceSegmentSegmentSquared4@Gu@physx@@YA?AT__m128@@AEBT3@000000000AEAT3@1@Z 00000001800905b0 f   GuDistanceSegmentSegment.obj
 0001:0008f8d0       ?distanceSegmentTriangleSquared@Gu@physx@@YAMAEBVPxVec3@2@0000PEAM11@Z 00000001800908d0 f   GuDistanceSegmentTriangle.obj
 0001:00090f60       ?distanceSegmentTriangleSquared@Gu@physx@@YA?AT__m128@@AEBT3@0000AEAT3@1@Z 0000000180091f60 f   GuDistanceSegmentTriangle.obj
 0001:000916a0       ?epaPenetration@Gu@physx@@YA?AW4GjkStatus@12@AEBUGjkConvex@12@0PEIBE1E_NT__m128@@AEAUGjkOutput@12@@Z 00000001800926a0 f   GuEPA.obj
 0001:00091810       ?isValid2@Facet@Gu@physx@@QEAA?AT__m128@@IIIPEIBT4@0AEBT4@@Z 0000000180092810 f   GuEPA.obj
 0001:00091900       ?silhouette@Facet@Gu@physx@@QEAAXAEBT__m128@@PEIBT4@1AEAVEdgeBuffer@23@AEAV?$InlineDeferredIDPool@$0EA@@Cm@3@@Z 0000000180092900 f   GuEPA.obj
 0001:00091ac0       ?PenetrationDepth@EPA@Gu@physx@@QEAA?AW4GjkStatus@23@AEBUGjkConvex@23@0PEIBT__m128@@1E_NT6@AEAUGjkOutput@23@@Z 0000000180092ac0 f   GuEPA.obj
 0001:00092420       ?expandPoint@EPA@Gu@physx@@QEAA_NAEBUGjkConvex@23@0AEAHAEBT__m128@@@Z 0000000180093420 f   GuEPA.obj
 0001:00092540       ?expandSegment@EPA@Gu@physx@@QEAA_NAEBUGjkConvex@23@0AEAHAEBT__m128@@@Z 0000000180093540 f   GuEPA.obj
 0001:000926f0       ?expandTriangle@EPA@Gu@physx@@QEAA_NAEAHAEBT__m128@@@Z 00000001800936f0 f   GuEPA.obj
 0001:000927a0       ?addFacet@EPA@Gu@physx@@QEAAPEAVFacet@23@IIIAEBT__m128@@@Z 00000001800937a0 f   GuEPA.obj
 0001:00092970       ??0Edge@Gu@physx@@QEAA@XZ  0000000180093970 f i GuEPA.obj
 0001:00092980       ??0Facet@Gu@physx@@QEAA@XZ 0000000180093980 f i GuEPA.obj
 0001:00092c10       ?closestPtPointTetrahedron@Gu@physx@@YA?AT__m128@@PEIAT3@00AEAI@Z 0000000180093c10 f   GuGJKSimplex.obj
 0001:00093390       ?closestPtPointTetrahedron@Gu@physx@@YA?AT__m128@@PEIAT3@00PEIAH1AEAI@Z 0000000180094390 f   GuGJKSimplex.obj
 0001:00094e40       ?testGjk@Gu@physx@@YA?AW4GjkStatus@12@AEAUGjkConvex@12@0AEBT__m128@@1AEAT5@222@Z 0000000180095e40 f   GuGJKTest.obj
 0001:00094e50       ?testGjkPenetration@Gu@physx@@YA?AW4GjkStatus@12@AEAUGjkConvex@12@0AEBT__m128@@1PEAE2AEAEAEAUGjkOutput@12@@Z 0000000180095e50 f   GuGJKTest.obj
 0001:00094ea0       ?testEpaPenetration@Gu@physx@@YA?AW4GjkStatus@12@AEAUGjkConvex@12@0PEBE1EAEAUGjkOutput@12@@Z 0000000180095ea0 f   GuGJKTest.obj
 0001:00094ef0       ?testGjkRaycast@Gu@physx@@YA_NAEAUGjkConvex@12@0AEBT__m128@@111AEAT4@22M@Z 0000000180095ef0 f   GuGJKTest.obj
 0001:00094f00       ??$gjk@UGjkConvex@Gu@physx@@U123@@Gu@physx@@YA?AW4GjkStatus@01@AEBUGjkConvex@01@0AEBT__m128@@1AEAT4@222@Z 0000000180095f00 f i GuGJKTest.obj
 0001:00095ab0       ??$gjkPenetration@UGjkConvex@Gu@physx@@U123@@Gu@physx@@YA?AW4GjkStatus@01@AEBUGjkConvex@01@0AEBT__m128@@1_NPEIAE3AEAEAEAUGjkOutput@01@@Z 0000000180096ab0 f i GuGJKTest.obj
 0001:00096f20       ??$gjkRaycast@UGjkConvex@Gu@physx@@U123@@Gu@physx@@YA_NAEBUGjkConvex@01@0AEBT__m128@@111AEAT3@22M@Z 0000000180097f20 f i GuGJKTest.obj
 0001:00097ac0       ?exportExtraData@HeightField@Gu@physx@@UEAAXAEAVPxSerializationContext@3@@Z 0000000180098ac0 f   GuHeightField.obj
 0001:00097b20       ?importExtraData@HeightField@Gu@physx@@QEAAXAEAVPxDeserializationContext@3@@Z 0000000180098b20 f   GuHeightField.obj
 0001:00097b50       ?createObject@HeightField@Gu@physx@@SAPEAV123@AEAPEAEAEAVPxDeserializationContext@3@@Z 0000000180098b50 f   GuHeightField.obj
 0001:00097bc0       ??0HeightField@Gu@physx@@QEAA@PEAVGuMeshFactory@2@@Z 0000000180098bc0 f   GuHeightField.obj
 0001:00097c40       ??0HeightField@Gu@physx@@QEAA@AEAVGuMeshFactory@2@AEAUHeightFieldData@12@@Z 0000000180098c40 f   GuHeightField.obj
 0001:00097d20       ?release@HeightField@Gu@physx@@UEAAXXZ 0000000180098d20 f   GuHeightField.obj
 0001:00097d60       ?saveCells@HeightField@Gu@physx@@UEBAIPEAXI@Z 0000000180098d60 f   GuHeightField.obj
 0001:00097da0       ?modifySamples@HeightField@Gu@physx@@UEAA_NHHAEBVPxHeightFieldDesc@3@_N@Z 0000000180098da0 f   GuHeightField.obj
 0001:00098110       ?acquireReference@HeightField@Gu@physx@@UEAAXXZ 0000000180099110 f   GuHeightField.obj
 0001:00098130       ?getReferenceCount@HeightField@Gu@physx@@UEBAIXZ 0000000180099130 f   GuHeightField.obj
 0001:00098140       ?onRefCountZero@HeightField@Gu@physx@@UEAAXXZ 0000000180099140 f   GuHeightField.obj
 0001:000981e0       ?loadFromDesc@HeightField@Gu@physx@@QEAA_NAEBVPxHeightFieldDesc@3@@Z 00000001800991e0 f   GuHeightField.obj
 0001:00098410       ?load@HeightField@Gu@physx@@QEAA_NAEAVPxInputStream@3@@Z 0000000180099410 f   GuHeightField.obj
 0001:00098790       ?computeCellCoordinates@HeightField@Gu@physx@@QEBAIMMAEAM0@Z 0000000180099790 f   GuHeightField.obj
 0001:000988a0       ?isSolidVertex@HeightField@Gu@physx@@QEBA_NIIIGAEA_N@Z 00000001800998a0 f   GuHeightField.obj
 0001:00098a30       ?isCollisionVertexPreca@HeightField@Gu@physx@@QEBA_NIIIG@Z 0000000180099a30 f   GuHeightField.obj
 0001:00098ad0       ?parseTrianglesForCollisionVertices@HeightField@Gu@physx@@QEAAXG@Z 0000000180099ad0 f   GuHeightField.obj
 0001:00098fc0       ?releaseMemory@HeightField@Gu@physx@@QEAAXXZ 0000000180099fc0 f   GuHeightField.obj
 0001:00099010       ??1HeightField@Gu@physx@@UEAA@XZ 000000018009a010 f   GuHeightField.obj
 0001:00099090       ?getVertexEdgeIndices@physx@@YAIAEBVHeightField@Gu@1@IIIQEAUEdgeData@1@@Z 000000018009a090 f   GuHeightField.obj
 0001:00099280       ?getEdgeTriangleIndices@physx@@YAIAEBVHeightField@Gu@1@AEBUEdgeData@1@PEIAI@Z 000000018009a280 f   GuHeightField.obj
 0001:000993b0       ??0?$BitMapBase@VNonTrackingAllocator@shdfnd@physx@@@Cm@physx@@QEAA@XZ 000000018009a3b0 f i GuHeightField.obj
 0001:000993c0       ??1?$BitMapBase@VNonTrackingAllocator@shdfnd@physx@@@Cm@physx@@QEAA@XZ 000000018009a3c0 f i GuHeightField.obj
 0001:00099420       ??_EHeightField@Gu@physx@@UEAAPEAXI@Z 000000018009a420 f i GuHeightField.obj
 0001:0009959c       ??_EHeightField@Gu@physx@@WBA@EAAPEAXI@Z 000000018009a59c f i GuHeightField.obj
 0001:000995b0       ??_EPxHeightField@physx@@MEAAPEAXI@Z 000000018009a5b0 f i GuHeightField.obj
 0001:00099640       ?isConvexVertex@HeightField@Gu@physx@@QEBA_NIII@Z 000000018009a640 f i GuHeightField.obj
 0001:00099710       ?requiresObjects@HeightField@Gu@physx@@UEAAXAEAVPxProcessPxBaseCallback@3@@Z 000000018009a710 f i GuHeightField.obj
 0001:00099720       ?resizeAndClear@?$BitMapBase@VNonTrackingAllocator@shdfnd@physx@@@Cm@physx@@QEAAXI@Z 000000018009a720 f i GuHeightField.obj
 0001:000997e0       ?computeLocalBounds@HeightFieldUtil@Gu@physx@@QEBAXAEAVPxBounds3@3@@Z 000000018009a7e0 f   GuHeightFieldUtil.obj
 0001:000998b0       ?getFaceIndexAtShapePoint@HeightFieldUtil@Gu@physx@@QEBAIMM@Z 000000018009a8b0 f   GuHeightFieldUtil.obj
 0001:000999d0       ?getVertexNormal@HeightFieldUtil@Gu@physx@@QEBA?AVPxVec3@3@III@Z 000000018009a9d0 f   GuHeightFieldUtil.obj
 0001:00099d20       ?getVertexFaceIndex@HeightFieldUtil@Gu@physx@@QEBAIIII@Z 000000018009ad20 f   GuHeightFieldUtil.obj
 0001:00099f70       ?getEdge@HeightFieldUtil@Gu@physx@@QEBAXIIIIAEAVPxVec3@3@0@Z 000000018009af70 f   GuHeightFieldUtil.obj
 0001:0009a1b0       ?getEdgeFaceIndex@HeightFieldUtil@Gu@physx@@QEBAII@Z 000000018009b1b0 f   GuHeightFieldUtil.obj
 0001:0009a3a0       ?getEdgeFaceIndex@HeightFieldUtil@Gu@physx@@QEBAIIIII@Z 000000018009b3a0 f   GuHeightFieldUtil.obj
 0001:0009a550       ?getEdgeFaceIndex@HeightFieldUtil@Gu@physx@@QEBAIIIPEIBI@Z 000000018009b550 f   GuHeightFieldUtil.obj
 0001:0009a5f0       ?findClosestPointsOnCell@HeightFieldUtil@Gu@physx@@QEBAIIIVPxVec3@3@PEIAV43@PEIAI_N33@Z 000000018009b5f0 f   GuHeightFieldUtil.obj
 0001:0009ad80       ?findProjectionOnTriangle@HeightFieldUtil@Gu@physx@@QEBA_NIIIAEBVPxVec3@3@AEAV43@@Z 000000018009bd80 f   GuHeightFieldUtil.obj
 0001:0009b030       ?findClosestPointOnEdge@HeightFieldUtil@Gu@physx@@QEBAMIIIIAEBVPxVec3@3@AEAV43@@Z 000000018009c030 f   GuHeightFieldUtil.obj
 0001:0009b320       ?getTriangle@HeightFieldUtil@Gu@physx@@QEBAIAEBVPxTransform@3@AEAVPxTriangle@3@PEAI2I_N3@Z 000000018009c320 f   GuHeightFieldUtil.obj
 0001:0009be00       ?overlapAABBTriangles@HeightFieldUtil@Gu@physx@@QEBA_NAEBVPxTransform@3@AEBVPxBounds3@3@IPEAV?$EntityReport@I@23@@Z 000000018009ce00 f   GuHeightFieldUtil.obj
 0001:0009c430       ?getTriangleAdjacencyIndices@HeightField@Gu@physx@@QEBAXIIIIAEAI00@Z 000000018009d430 f i GuHeightFieldUtil.obj
 0001:0009c610       ?getTriangleNormalInternal@HeightField@Gu@physx@@QEBA?AVPxVec3@3@I@Z 000000018009d610 f i GuHeightFieldUtil.obj
 0001:0009c760       ?getTriangleVertexIndices@HeightField@Gu@physx@@QEBAXIAEAI00@Z 000000018009d760 f i GuHeightFieldUtil.obj
 0001:0009c820       ?checkOverlapAABB_heightFieldGeom@Gu@physx@@YA_NAEBVPxGeometry@2@AEBVPxTransform@2@AEBVPxBounds3@2@@Z 000000018009d820 f   GuOverlapTestsHF.obj
 0001:0009cca0       ?GeomOverlapCallback_SphereHeightfield@@YA_NAEBVPxGeometry@physx@@AEBVPxTransform@2@01PEAUTriggerCache@Gu@2@@Z 000000018009dca0 f   GuOverlapTestsHF.obj
 0001:0009ce80       ?GeomOverlapCallback_CapsuleHeightfield@@YA_NAEBVPxGeometry@physx@@AEBVPxTransform@2@01PEAUTriggerCache@Gu@2@@Z 000000018009de80 f   GuOverlapTestsHF.obj
 0001:0009d0c0       ?GeomOverlapCallback_BoxHeightfield@@YA_NAEBVPxGeometry@physx@@AEBVPxTransform@2@01PEAUTriggerCache@Gu@2@@Z 000000018009e0c0 f   GuOverlapTestsHF.obj
 0001:0009d3e0       ?GeomOverlapCallback_ConvexHeightfield@@YA_NAEBVPxGeometry@physx@@AEBVPxTransform@2@01PEAUTriggerCache@Gu@2@@Z 000000018009e3e0 f   GuOverlapTestsHF.obj
 0001:0009d450       ??$traceSegment@UTriggerTraceSegmentCallback@Gu@physx@@$0A@$0A@@HeightFieldTraceUtil@Gu@physx@@QEBAXAEBVPxVec3@2@0MPEAUTriggerTraceSegmentCallback@12@AEBVPxBounds3@2@_NPEBV32@@Z 000000018009e450 f i GuOverlapTestsHF.obj
 0001:000a1280       ?sweepCapsule_HeightFieldGeom@@YA_NAEBVPxGeometry@physx@@AEBVPxTransform@2@AEBVPxCapsuleGeometry@2@1AEBVCapsule@Gu@2@AEBVPxVec3@2@MAEAUPxSweepHit@2@V?$PxFlags@W4Enum@PxHitFlag@physx@@G@2@M@Z 00000001800a2280 f   GuSweepsHF.obj
 0001:000a1c10       ?sweepConvex_HeightFieldGeom@@YA_NAEBVPxGeometry@physx@@AEBVPxTransform@2@AEBVPxConvexMeshGeometry@2@1AEBVPxVec3@2@MAEAUPxSweepHit@2@V?$PxFlags@W4Enum@PxHitFlag@physx@@G@2@M@Z 00000001800a2c10 f   GuSweepsHF.obj
 0001:000a2660       ?sweepBox_HeightFieldGeom@@YA_NAEBVPxGeometry@physx@@AEBVPxTransform@2@AEBVPxBoxGeometry@2@1AEBVBox@Gu@2@AEBVPxVec3@2@MAEAUPxSweepHit@2@V?$PxFlags@W4Enum@PxHitFlag@physx@@G@2@M@Z 00000001800a3660 f   GuSweepsHF.obj
 0001:000a34d0       ??$gjkPenetration@U?$LocalConvex@VTriangleV@Gu@physx@@@Gu@physx@@U?$LocalConvex@VConvexHullV@Gu@physx@@@23@@Gu@physx@@YA?AW4GjkStatus@01@AEBU?$LocalConvex@VTriangleV@Gu@physx@@@01@AEBU?$LocalConvex@VConvexHullV@Gu@physx@@@01@AEBT__m128@@2_NPEIAE4AEAEAEAUGjkOutput@01@@Z 00000001800a44d0 f i GuSweepsHF.obj
 0001:000a4ab0       ??$gjkRaycast@U?$LocalConvex@VTriangleV@Gu@physx@@@Gu@physx@@U?$LocalConvex@VConvexHullV@Gu@physx@@@23@@Gu@physx@@YA_NAEBU?$LocalConvex@VTriangleV@Gu@physx@@@01@AEBU?$LocalConvex@VConvexHullV@Gu@physx@@@01@AEBT__m128@@222AEAT4@33M@Z 00000001800a5ab0 f i GuSweepsHF.obj
 0001:000a5890       ??$gjkRaycastPenetration@U?$LocalConvex@VTriangleV@Gu@physx@@@Gu@physx@@U?$LocalConvex@VConvexHullV@Gu@physx@@@23@@Gu@physx@@YA_NAEBU?$LocalConvex@VTriangleV@Gu@physx@@@01@AEBU?$LocalConvex@VConvexHullV@Gu@physx@@@01@AEBT__m128@@222AEAT4@33M_N@Z 00000001800a6890 f i GuSweepsHF.obj
 0001:000a5ac0       ??$traceSegment@VBoxTraceSegmentReport@@$0A@$00@HeightFieldTraceUtil@Gu@physx@@QEBAXAEBVPxVec3@2@0MPEAVBoxTraceSegmentReport@@AEBVPxBounds3@2@_NPEBV32@@Z 00000001800a6ac0 f i GuSweepsHF.obj
 0001:000a64e0       ??$traceSegment@VCapsuleTraceSegmentReport@@$0A@$00@HeightFieldTraceUtil@Gu@physx@@QEBAXAEBVPxVec3@2@0MPEAVCapsuleTraceSegmentReport@@AEBVPxBounds3@2@_NPEBV32@@Z 00000001800a74e0 f i GuSweepsHF.obj
 0001:000a6f00       ??$traceSegment@VConvexTraceSegmentReport@@$0A@$00@HeightFieldTraceUtil@Gu@physx@@QEBAXAEBVPxVec3@2@0MPEAVConvexTraceSegmentReport@@AEBVPxBounds3@2@_NPEBV32@@Z 00000001800a7f00 f i GuSweepsHF.obj
 0001:000a7920       ??0ConvexTraceSegmentReport@@QEAA@AEBVHeightFieldUtil@Gu@physx@@AEBUConvexHullData@23@AEBVPxMeshScale@3@AEBVPxTransform@3@3AEBVPxVec3@3@MV?$PxFlags@W4Enum@PxHitFlag@physx@@G@3@M@Z 00000001800a8920 f i GuSweepsHF.obj
 0001:000a8320       ??_GBoxTraceSegmentReport@@UEAAPEAXI@Z 00000001800a9320 f i GuSweepsHF.obj
 0001:000a8320       ??_EBoxTraceSegmentReport@@UEAAPEAXI@Z 00000001800a9320 f i GuSweepsHF.obj
 0001:000a8350       ??_GCapsuleTraceSegmentReport@@UEAAPEAXI@Z 00000001800a9350 f i GuSweepsHF.obj
 0001:000a8350       ??_ECapsuleTraceSegmentReport@@UEAAPEAXI@Z 00000001800a9350 f i GuSweepsHF.obj
 0001:000a8380       ??_EConvexTraceSegmentReport@@UEAAPEAXI@Z 00000001800a9380 f i GuSweepsHF.obj
 0001:000a8380       ??_GConvexTraceSegmentReport@@UEAAPEAXI@Z 00000001800a9380 f i GuSweepsHF.obj
 0001:000a83b0       ??_EHeightFieldTraceSegmentReport@@UEAAPEAXI@Z 00000001800a93b0 f i GuSweepsHF.obj
 0001:000a83b0       ??_GHeightFieldTraceSegmentReport@@UEAAPEAXI@Z 00000001800a93b0 f i GuSweepsHF.obj
 0001:000a83e0       ?finalizeHit@ConvexTraceSegmentReport@@QEAA_NAEAUPxSweepHit@physx@@AEBVPxHeightFieldGeometry@3@AEBVPxTransform@3@AEBVPxConvexMeshGeometry@3@2AEBVPxVec3@3@M@Z 00000001800a93e0 f i GuSweepsHF.obj
 0001:000a8630       ?onEvent@BoxTraceSegmentReport@@UEAA_NIPEAI@Z 00000001800a9630 f i GuSweepsHF.obj
 0001:000a8aa0       ?onEvent@CapsuleTraceSegmentReport@@UEAA_NIPEAI@Z 00000001800a9aa0 f i GuSweepsHF.obj
 0001:000a8cd0       ?onEvent@ConvexTraceSegmentReport@@UEAA_NIPEAI@Z 00000001800a9cd0 f i GuSweepsHF.obj
 0001:000a9290       ?prepare@?$OverlapTraceSegment@VBoxTraceSegmentReport@@@HeightFieldTraceUtil@Gu@physx@@QEAAXAEBVPxVec3@4@00AEAM1@Z 00000001800aa290 f i GuSweepsHF.obj
 0001:000a9530       ?prepare@?$OverlapTraceSegment@VCapsuleTraceSegmentReport@@@HeightFieldTraceUtil@Gu@physx@@QEAAXAEBVPxVec3@4@00AEAM1@Z 00000001800aa530 f i GuSweepsHF.obj
 0001:000a97d0       ?prepare@?$OverlapTraceSegment@VConvexTraceSegmentReport@@@HeightFieldTraceUtil@Gu@physx@@QEAAXAEBVPxVec3@4@00AEAM1@Z 00000001800aa7d0 f i GuSweepsHF.obj
 0001:000a9a70       ?testVertexIndex@?$OverlapTraceSegment@VBoxTraceSegmentReport@@@HeightFieldTraceUtil@Gu@physx@@QEAA_NI@Z 00000001800aaa70 f i GuSweepsHF.obj
 0001:000a9bc0       ?testVertexIndex@?$OverlapTraceSegment@VCapsuleTraceSegmentReport@@@HeightFieldTraceUtil@Gu@physx@@QEAA_NI@Z 00000001800aabc0 f i GuSweepsHF.obj
 0001:000a9d10       ?testVertexIndex@?$OverlapTraceSegment@VConvexTraceSegmentReport@@@HeightFieldTraceUtil@Gu@physx@@QEAA_NI@Z 00000001800aad10 f i GuSweepsHF.obj
 0001:000a9e60       ?intersectOBBOBB@Gu@physx@@YA_NAEBVPxVec3@2@0AEBVPxMat33@2@001_N@Z 00000001800aae60 f   GuIntersectionBoxBox.obj
 0001:000aa4c0       ?intersectCapsuleTriangle@Gu@physx@@YA_NAEBVPxVec3@2@000AEBVCapsule@12@AEBUCapsuleTriangleOverlapData@12@@Z 00000001800ab4c0 f   GuIntersectionCapsuleTriangle.obj
 0001:000ab050       ?intersectEdgeEdge@Gu@physx@@YA_NAEBVPxVec3@2@0000AEAMAEAV32@@Z 00000001800ac050 f   GuIntersectionEdgeEdge.obj
 0001:000ab380       ?rayAABBIntersect@Gu@physx@@YA_NAEBVPxVec3@2@000AEAV32@@Z 00000001800ac380 f   GuIntersectionRayBox.obj
 0001:000ab590       ?rayAABBIntersect2@Gu@physx@@YAIAEBVPxVec3@2@000AEAV32@AEAM@Z 00000001800ac590 f   GuIntersectionRayBox.obj
 0001:000ab7b0       ?intersectRayAABB@Gu@physx@@YAHAEBVPxVec3@2@000AEAM1@Z 00000001800ac7b0 f   GuIntersectionRayBox.obj
 0001:000ab8e0       ?intersectRayAABB@Gu@physx@@YAHAEBVPxVec3@2@0000AEAM1@Z 00000001800ac8e0 f   GuIntersectionRayBox.obj
 0001:000abae0       ?intersectRayAABB2@Gu@physx@@YA_NAEBVPxVec3@2@000MAEAM1@Z 00000001800acae0 f   GuIntersectionRayBox.obj
 0001:000abc90       ?intersectRayAABB2@Gu@physx@@YA_NAEBT__m128@@0000AEAT3@1@Z 00000001800acc90 f   GuIntersectionRayBox.obj
 0001:000abd50       ?intersectRayCapsuleInternal@Gu@physx@@YAIAEBVPxVec3@2@000MQEAM@Z 00000001800acd50 f   GuIntersectionRayCapsule.obj
 0001:000ac5e0       ?intersectRaySphereBasic@Gu@physx@@YA_NAEBVPxVec3@2@0M0MAEAMPEAV32@@Z 00000001800ad5e0 f   GuIntersectionRaySphere.obj
 0001:000ac740       ?intersectRaySphere@Gu@physx@@YA_NAEBVPxVec3@2@0M0MAEAMPEAV32@@Z 00000001800ad740 f   GuIntersectionRaySphere.obj
 0001:000ac830       ?intersectSphereBox@Gu@physx@@YA_NAEBVSphere@12@AEBVBox@12@@Z 00000001800ad830 f   GuIntersectionSphereBox.obj
 0001:000aca60       ?intersectTriangleBox_ReferenceCode@Gu@physx@@YAHAEBVPxVec3@2@0000@Z 00000001800ada60 f   GuIntersectionTriangleBox.obj
 0001:000ad2d0       ?intersectTriangleBox_Unsafe@Gu@physx@@YAHAEBVPxVec3@2@0000@Z 00000001800ae2d0 f   GuIntersectionTriangleBox.obj
 0001:000ad6b0       ?intersectTriangleBox@Gu@physx@@YAHAEBVBoxPadded@12@AEBVPxVec3@2@11@Z 00000001800ae6b0 f   GuIntersectionTriangleBox.obj
 0001:000adc90       ?intersectTriangleBoxBV4@@YAHAEBVPxVec3@physx@@00AEBVPxMat33@2@00@Z 00000001800aec90 f   GuIntersectionTriangleBox.obj
 0001:000ae0d0       ??0SourceMeshBase@Gu@physx@@QEAA@XZ 00000001800af0d0 f   GuBV4.obj
 0001:000ae0f0       ??1SourceMeshBase@Gu@physx@@QEAA@XZ 00000001800af0f0 f   GuBV4.obj
 0001:000ae150       ??0SourceMesh@Gu@physx@@QEAA@XZ 00000001800af150 f   GuBV4.obj
 0001:000ae180       ??1SourceMesh@Gu@physx@@QEAA@XZ 00000001800af180 f   GuBV4.obj
 0001:000ae1e0       ?reset@SourceMesh@Gu@physx@@QEAAXXZ 00000001800af1e0 f   GuBV4.obj
 0001:000ae200       ??4SourceMesh@Gu@physx@@QEAAXAEAV012@@Z 00000001800af200 f   GuBV4.obj
 0001:000ae250       ?remapTopology@SourceMesh@Gu@physx@@QEAAXPEBI@Z 00000001800af250 f   GuBV4.obj
 0001:000ae520       ?isValid@SourceMesh@Gu@physx@@QEBA_NXZ 00000001800af520 f   GuBV4.obj
 0001:000ae550       ??0BV4Tree@Gu@physx@@QEAA@W4PxEMPTY@2@@Z 00000001800af550 f   GuBV4.obj
 0001:000ae560       ?exportExtraData@BV4Tree@Gu@physx@@QEAAXAEAVPxSerializationContext@3@@Z 00000001800af560 f   GuBV4.obj
 0001:000ae5b0       ?importExtraData@BV4Tree@Gu@physx@@QEAAXAEAVPxDeserializationContext@3@@Z 00000001800af5b0 f   GuBV4.obj
 0001:000ae5e0       ??0BV4Tree@Gu@physx@@QEAA@XZ 00000001800af5e0 f   GuBV4.obj
 0001:000ae620       ??0BV4Tree@Gu@physx@@QEAA@PEAVSourceMesh@12@AEBVPxBounds3@2@@Z 00000001800af620 f   GuBV4.obj
 0001:000ae6f0       ??1BV4Tree@Gu@physx@@QEAA@XZ 00000001800af6f0 f   GuBV4.obj
 0001:000ae750       ?load@BV4Tree@Gu@physx@@QEAA_NAEAVPxInputStream@3@_N@Z 00000001800af750 f   GuBV4.obj
 0001:000ae970       ?reset@BV4Tree@Gu@physx@@QEAAXXZ 00000001800af970 f   GuBV4.obj
 0001:000ae9a0       ??4BV4Tree@Gu@physx@@QEAAXAEAV012@@Z 00000001800af9a0 f   GuBV4.obj
 0001:000aea30       ?init@BV4Tree@Gu@physx@@QEAA_NPEAVSourceMesh@23@AEBVPxBounds3@3@@Z 00000001800afa30 f   GuBV4.obj
 0001:000aead0       ?release@BV4Tree@Gu@physx@@QEAAXXZ 00000001800afad0 f   GuBV4.obj
 0001:000aeb30       ?refit@BV4Tree@Gu@physx@@QEAAXM@Z 00000001800afb30 f   GuBV4.obj
 0001:000aeb40       ??0IndTri16@Gu@physx@@QEAA@XZ 00000001800afb40 f i GuBV4.obj
 0001:000aeb50       ??0IndTri32@Gu@physx@@QEAA@XZ 00000001800afb50 f i GuBV4.obj
 0001:000aeb60       ??1IndTri16@Gu@physx@@QEAA@XZ 00000001800afb60 f i GuBV4.obj
 0001:000aeb70       ??1IndTri32@Gu@physx@@QEAA@XZ 00000001800afb70 f i GuBV4.obj
 0001:000aeb80       ??_EIndTri16@Gu@physx@@QEAAPEAXI@Z 00000001800afb80 f i GuBV4.obj
 0001:000aec00       ??_EIndTri32@Gu@physx@@QEAAPEAXI@Z 00000001800afc00 f i GuBV4.obj
 0001:000aec80       ??0AABBTree@Gu@physx@@QEAA@XZ 00000001800afc80 f   GuBV4Build.obj
 0001:000aeca0       ??1AABBTree@Gu@physx@@QEAA@XZ 00000001800afca0 f   GuBV4Build.obj
 0001:000aecb0       ?buildFromMesh@AABBTree@Gu@physx@@QEAA_NAEAVSourceMesh@23@I@Z 00000001800afcb0 f   GuBV4Build.obj
 0001:000af0d0       ?release@AABBTree@Gu@physx@@QEAAXXZ 00000001800b00d0 f   GuBV4Build.obj
 0001:000af180       ?walk@AABBTree@Gu@physx@@QEBAIP6A_NPEBVAABBTreeNode@23@IPEAX@Z1@Z 00000001800b0180 f   GuBV4Build.obj
 0001:000af240       ?BuildBV4Ex@Gu@physx@@YA_NAEAVBV4Tree@12@AEAVSourceMesh@12@MI@Z 00000001800b0240 f   GuBV4Build.obj
 0001:000af5b0       ??0BVData@@QEAA@XZ         00000001800b05b0 f   GuBV4Build.obj
 0001:000af5f0       ??1BV4BuildParams@@QEAA@XZ 00000001800b05f0 f   GuBV4Build.obj
 0001:000af600       ?allocateNode@BV4BuildParams@@QEAAPEAUBV4Node@@XZ 00000001800b0600 f   GuBV4Build.obj
 0001:000af720       ?releaseNodes@BV4BuildParams@@QEAAXXZ 00000001800b0720 f   GuBV4Build.obj
 0001:000af7e0       ??0AABBTreeNode@Gu@physx@@QEAA@XZ 00000001800b07e0 f i GuBV4Build.obj
 0001:000af800       ??0BV4Node@@QEAA@XZ        00000001800b0800 f i GuBV4Build.obj
 0001:000af8b0       ??1AABBTreeNode@Gu@physx@@QEAA@XZ 00000001800b08b0 f i GuBV4Build.obj
 0001:000af8c0       ??1BV4Node@@QEAA@XZ        00000001800b08c0 f i GuBV4Build.obj
 0001:000af8d0       ??1BVData@@QEAA@XZ         00000001800b08d0 f i GuBV4Build.obj
 0001:000af8e0       ??_EAABBTreeNode@Gu@physx@@QEAAPEAXI@Z 00000001800b08e0 f i GuBV4Build.obj
 0001:000b1500       ?Sweep_AABB_BV4@@YAHAEBVBox@Gu@physx@@AEBVPxVec3@3@MAEBVBV4Tree@23@PEIAVSweepHit@23@I@Z 00000001800b2500 f   GuBV4_AABBSweep.obj
 0001:000b1a50       ?Sweep_AABB_BV4_CB@@YAXAEBVBox@Gu@physx@@AEBVPxVec3@3@MAEBVBV4Tree@23@PEIBVPxMat44@3@P6A_NPEAXAEBVSweepHit@23@@Z4I_N@Z 00000001800b2a50 f   GuBV4_AABBSweep.obj
 0001:000b1bf0       ?GenericSweep_AABB_CB@@YAXAEBVBox@Gu@physx@@AEBVPxVec3@3@MAEBVBV4Tree@23@P6A_NPEAX111IAEAM@Z3I@Z 00000001800b2bf0 f   GuBV4_AABBSweep.obj
 0001:000b8aa0       ?transform@PxMat44@physx@@QEBA?BVPxVec4@2@AEBV32@@Z 00000001800b9aa0 f i GuBV4_AABBSweep.obj
 0001:000b9790       ?BV4_OverlapBoxAny@@YAHAEBVBox@Gu@physx@@AEBVBV4Tree@23@PEIBVPxMat44@3@@Z 00000001800ba790 f   GuBV4_BoxOverlap.obj
 0001:000b9f50       ?BV4_OverlapBoxAll@@YAIAEBVBox@Gu@physx@@AEBVBV4Tree@23@PEIBVPxMat44@3@PEAIIAEA_N@Z 00000001800baf50 f   GuBV4_BoxOverlap.obj
 0001:000ba760       ?BV4_OverlapBoxCB@@YAXAEBVBox@Gu@physx@@AEBVBV4Tree@23@P6A_NPEAXAEBVPxVec3@3@33IPEBI@Z2@Z 00000001800bb760 f   GuBV4_BoxOverlap.obj
 0001:000bac20       ?BV4_OverlapCapsuleAny@@YAHAEBVCapsule@Gu@physx@@AEBVBV4Tree@23@PEIBVPxMat44@3@@Z 00000001800bbc20 f   GuBV4_BoxOverlap.obj
 0001:000bb2b0       ?BV4_OverlapCapsuleAll@@YAIAEBVCapsule@Gu@physx@@AEBVBV4Tree@23@PEIBVPxMat44@3@PEAIIAEA_N@Z 00000001800bc2b0 f   GuBV4_BoxOverlap.obj
 0001:000bb9b0       ?BV4_OverlapCapsuleCB@@YAXAEBVCapsule@Gu@physx@@AEBVBV4Tree@23@PEIBVPxMat44@3@P6A_NPEAXAEBVPxVec3@3@44IPEBI@Z3@Z 00000001800bc9b0 f   GuBV4_BoxOverlap.obj
 0001:000c0280       ?BV4_CapsuleSweepSingle@@YAHAEBVCapsule@Gu@physx@@AEBVPxVec3@3@MAEBVBV4Tree@23@PEIAVSweepHit@23@I@Z 00000001800c1280 f   GuBV4_CapsuleSweep.obj
 0001:000c0870       ?BV4_CapsuleSweepCB@@YAXAEBVCapsule@Gu@physx@@AEBVPxVec3@3@MAEBVBV4Tree@23@PEIBVPxMat44@3@P6A_NPEAXAEBVSweepHit@23@@Z4I_N@Z 00000001800c1870 f   GuBV4_CapsuleSweep.obj
 0001:000c7730       ?transform@PxMat44@physx@@QEBA?BVPxVec3@2@AEBV32@@Z 00000001800c8730 f i GuBV4_CapsuleSweep.obj
 0001:000c8550       ?BV4_CapsuleSweepSingleAA@@YAHAEBVCapsule@Gu@physx@@AEBVPxVec3@3@MAEBVBV4Tree@23@PEIAVSweepHit@23@I@Z 00000001800c9550 f   GuBV4_CapsuleSweepAA.obj
 0001:000cb590       ?Sweep_OBB_BV4@@YAHAEBVBox@Gu@physx@@AEBVPxVec3@3@MAEBVBV4Tree@23@PEIAVSweepHit@23@I@Z 00000001800cc590 f   GuBV4_OBBSweep.obj
 0001:000cbae0       ?Sweep_OBB_BV4_CB@@YAXAEBVBox@Gu@physx@@AEBVPxVec3@3@MAEBVBV4Tree@23@PEIBVPxMat44@3@P6A_NPEAXAEBVSweepHit@23@@Z4I_N@Z 00000001800ccae0 f   GuBV4_OBBSweep.obj
 0001:000cbc50       ?GenericSweep_OBB_CB@@YAXAEBVBox@Gu@physx@@AEBVPxVec3@3@MAEBVBV4Tree@23@P6A_NPEAX111IAEAM@Z3I@Z 00000001800ccc50 f   GuBV4_OBBSweep.obj
 0001:000cbd40       ?BV4_BoxSweepSingle@@YAHAEBVBox@Gu@physx@@AEBVPxVec3@3@MAEBVBV4Tree@23@PEIBVPxMat44@3@PEIAVSweepHit@23@I@Z 00000001800ccd40 f   GuBV4_OBBSweep.obj
 0001:000cc470       ?BV4_BoxSweepCB@@YAXAEBVBox@Gu@physx@@AEBVPxVec3@3@MAEBVBV4Tree@23@PEIBVPxMat44@3@P6A_NPEAXAEBVSweepHit@23@@Z4I_N@Z 00000001800cd470 f   GuBV4_OBBSweep.obj
 0001:000cccd0       ?BV4_GenericSweepCB@@YAXAEBVBox@Gu@physx@@AEBVPxVec3@3@MAEBVBV4Tree@23@P6A_NPEAX111IAEAM@Z3_N@Z 00000001800cdcd0 f   GuBV4_OBBSweep.obj
 0001:000d41e0       ??DPxMat33@physx@@QEBA?BVPxVec3@1@AEBV21@@Z 00000001800d51e0 f i GuBV4_OBBSweep.obj
 0001:000d5a80       ?BV4_RaycastSingle@@YAHAEBVPxVec3@physx@@0AEBVBV4Tree@Gu@2@PEIBVPxMat44@2@PEIAUPxRaycastHit@2@MMIV?$PxFlags@W4Enum@PxHitFlag@physx@@G@2@@Z 00000001800d6a80 f   GuBV4_Raycast.obj
 0001:000d5fe0       ?BV4_RaycastCB@@YAXAEBVPxVec3@physx@@0AEBVBV4Tree@Gu@2@PEIBVPxMat44@2@MMIP6A?AW4HitCode@42@PEAX000IMMM@Z3@Z 00000001800d6fe0 f   GuBV4_Raycast.obj
 0001:000d6400       ?BV4_RaycastAll@@YAIAEBVPxVec3@physx@@0AEBVBV4Tree@Gu@2@PEIBVPxMat44@2@PEIAUPxRaycastHit@2@IMMIV?$PxFlags@W4Enum@PxHitFlag@physx@@G@2@@Z 00000001800d7400 f   GuBV4_Raycast.obj
 0001:000d78d0       ??$doBruteForceTests@VLeafFunction_RaycastAny@?A0xa4e169ff@@VLeafFunction_RaycastClosest@2@URayParams@@@Gu@physx@@YAXIPEIAURayParams@@@Z 00000001800d88d0 f i GuBV4_Raycast.obj
 0001:000d8d60       ?BV4_OverlapSphereAny@@YAHAEBVSphere@Gu@physx@@AEBVBV4Tree@23@PEIBVPxMat44@3@@Z 00000001800d9d60 f   GuBV4_SphereOverlap.obj
 0001:000d9010       ?BV4_OverlapSphereAll@@YAIAEBVSphere@Gu@physx@@AEBVBV4Tree@23@PEIBVPxMat44@3@PEAIIAEA_N@Z 00000001800da010 f   GuBV4_SphereOverlap.obj
 0001:000d9320       ?BV4_OverlapSphereCB@@YAXAEBVSphere@Gu@physx@@AEBVBV4Tree@23@PEIBVPxMat44@3@P6A_NPEAXAEBVPxVec3@3@44IPEBI@Z3@Z 00000001800da320 f   GuBV4_SphereOverlap.obj
 0001:000dc2c0       ?BV4_SphereSweepSingle@@YAHAEBVSphere@Gu@physx@@AEBVPxVec3@3@MAEBVBV4Tree@23@PEIBVPxMat44@3@PEIAVSweepHit@23@I@Z 00000001800dd2c0 f   GuBV4_SphereSweep.obj
 0001:000dc9b0       ?BV4_SphereSweepCB@@YAXAEBVSphere@Gu@physx@@AEBVPxVec3@3@MAEBVBV4Tree@23@PEIBVPxMat44@3@P6A_NPEAXAEBVSweepHit@23@@Z4I_N@Z 00000001800dd9b0 f   GuBV4_SphereSweep.obj
 0001:000dcda0       ?BV4_GenericSweepCB_Old@@YAXAEBVPxVec3@physx@@00MAEBVBV4Tree@Gu@2@PEIBVPxMat44@2@P6A_NPEAX000IAEAM@Z3@Z 00000001800ddda0 f   GuBV4_SphereSweep.obj
 0001:000e1a70       ?raycast_triangleMesh_BV4@Gu@physx@@YAIPEBVTriangleMesh@12@AEBVPxTriangleMeshGeometry@2@AEBVPxTransform@2@AEBVPxVec3@2@3MV?$PxFlags@W4Enum@PxHitFlag@physx@@G@2@IPEIAUPxRaycastHit@2@@Z 00000001800e2a70 f   GuMidphaseBV4.obj
 0001:000e28b0       ?intersectSphereVsMesh_BV4@Gu@physx@@YA_NAEBVSphere@12@AEBVTriangleMesh@12@AEBVPxTransform@2@AEBVPxMeshScale@2@PEAULimitedResults@12@@Z 00000001800e38b0 f   GuMidphaseBV4.obj
 0001:000e2ff0       ?intersectBoxVsMesh_BV4@Gu@physx@@YA_NAEBVBox@12@AEBVTriangleMesh@12@AEBVPxTransform@2@AEBVPxMeshScale@2@PEAULimitedResults@12@@Z 00000001800e3ff0 f   GuMidphaseBV4.obj
 0001:000e3b10       ?intersectCapsuleVsMesh_BV4@Gu@physx@@YA_NAEBVCapsule@12@AEBVTriangleMesh@12@AEBVPxTransform@2@AEBVPxMeshScale@2@PEAULimitedResults@12@@Z 00000001800e4b10 f   GuMidphaseBV4.obj
 0001:000e4350       ?intersectOBB_BV4@Gu@physx@@YAXPEBVTriangleMesh@12@AEBVBox@12@AEAU?$MeshHitCallback@UPxRaycastHit@physx@@@12@_N3@Z 00000001800e5350 f   GuMidphaseBV4.obj
 0001:000e4380       ?sweepCapsule_MeshGeom_BV4@Gu@physx@@YA_NPEBVTriangleMesh@12@AEBVPxTriangleMeshGeometry@2@AEBVPxTransform@2@AEBVCapsule@12@AEBVPxVec3@2@MAEAUPxSweepHit@2@V?$PxFlags@W4Enum@PxHitFlag@physx@@G@2@M@Z 00000001800e5380 f   GuMidphaseBV4.obj
 0001:000e4ea0       ?sweepBox_MeshGeom_BV4@Gu@physx@@YA_NPEBVTriangleMesh@12@AEBVPxTriangleMeshGeometry@2@AEBVPxTransform@2@AEBVBox@12@AEBVPxVec3@2@MAEAUPxSweepHit@2@V?$PxFlags@W4Enum@PxHitFlag@physx@@G@2@M@Z 00000001800e5ea0 f   GuMidphaseBV4.obj
 0001:000e65f0       ?sweepConvex_MeshGeom_BV4@Gu@physx@@YAXPEBVTriangleMesh@12@AEBVBox@12@AEBVPxVec3@2@MAEAUSweepConvexMeshHitCallback@12@_N@Z 00000001800e75f0 f   GuMidphaseBV4.obj
 0001:000e7760       ??1SweepBoxMeshHitCallback@Gu@physx@@UEAA@XZ 00000001800e8760 f i GuMidphaseBV4.obj
 0001:000e7f80       ?computeSweepData@physx@@YAMAEBVPxTriangleMeshGeometry@1@AEAVPxVec3@1@11M@Z 00000001800e8f80 f i GuMidphaseBV4.obj
 0001:000e8310       ?transform@PxMeshScale@physx@@QEBA?AVPxVec3@2@AEBV32@@Z 00000001800e9310 f i GuMidphaseBV4.obj
 0001:000e8550       ?getTriangle@PxMeshQuery@physx@@SAXAEBVPxTriangleMeshGeometry@2@AEBVPxTransform@2@IAEAVPxTriangle@2@PEAI3@Z 00000001800e9550 f   GuMeshQuery.obj
 0001:000e8910       ?getTriangle@PxMeshQuery@physx@@SAXAEBVPxHeightFieldGeometry@2@AEBVPxTransform@2@IAEAVPxTriangle@2@PEAI3@Z 00000001800e9910 f   GuMeshQuery.obj
 0001:000e8990       ?findOverlapTriangleMesh@PxMeshQuery@physx@@SAIAEBVPxGeometry@2@AEBVPxTransform@2@AEBVPxTriangleMeshGeometry@2@1PEAIIIAEA_N@Z 00000001800e9990 f   GuMeshQuery.obj
 0001:000e8ca0       ?findOverlapHeightField@PxMeshQuery@physx@@SAIAEBVPxGeometry@2@AEBVPxTransform@2@AEBVPxHeightFieldGeometry@2@1PEAIIIAEA_N@Z 00000001800e9ca0 f   GuMeshQuery.obj
 0001:000e93a0       ?sweep@PxMeshQuery@physx@@SA_NAEBVPxVec3@2@MAEBVPxGeometry@2@AEBVPxTransform@2@IPEBVPxTriangle@2@AEAUPxSweepHit@2@V?$PxFlags@W4Enum@PxHitFlag@physx@@G@2@PEBIM_N@Z 00000001800ea3a0 f   GuMeshQuery.obj
 0001:000e97d0       ?raycast_triangleMesh_RTREE@Gu@physx@@YAIPEBVTriangleMesh@12@AEBVPxTriangleMeshGeometry@2@AEBVPxTransform@2@AEBVPxVec3@2@3MV?$PxFlags@W4Enum@PxHitFlag@physx@@G@2@IPEIAUPxRaycastHit@2@@Z 00000001800ea7d0 f   GuMidphaseRTree.obj
 0001:000e9f70       ?intersectSphereVsMesh_RTREE@Gu@physx@@YA_NAEBVSphere@12@AEBVTriangleMesh@12@AEBVPxTransform@2@AEBVPxMeshScale@2@PEAULimitedResults@12@@Z 00000001800eaf70 f   GuMidphaseRTree.obj
 0001:000e9fa0       ?intersectBoxVsMesh_RTREE@Gu@physx@@YA_NAEBVBox@12@AEBVTriangleMesh@12@AEBVPxTransform@2@AEBVPxMeshScale@2@PEAULimitedResults@12@@Z 00000001800eafa0 f   GuMidphaseRTree.obj
 0001:000ea020       ?intersectCapsuleVsMesh_RTREE@Gu@physx@@YA_NAEBVCapsule@12@AEBVTriangleMesh@12@AEBVPxTransform@2@AEBVPxMeshScale@2@PEAULimitedResults@12@@Z 00000001800eb020 f   GuMidphaseRTree.obj
 0001:000ea0a0       ?intersectOBB_RTREE@Gu@physx@@YAXPEBVTriangleMesh@12@AEBVBox@12@AEAU?$MeshHitCallback@UPxRaycastHit@physx@@@12@_N3@Z 00000001800eb0a0 f   GuMidphaseRTree.obj
 0001:000ea0d0       ?sweepCapsule_MeshGeom_RTREE@Gu@physx@@YA_NPEBVTriangleMesh@12@AEBVPxTriangleMeshGeometry@2@AEBVPxTransform@2@AEBVCapsule@12@AEBVPxVec3@2@MAEAUPxSweepHit@2@V?$PxFlags@W4Enum@PxHitFlag@physx@@G@2@M@Z 00000001800eb0d0 f   GuMidphaseRTree.obj
 0001:000ea8d0       ?sweepBox_MeshGeom_RTREE@Gu@physx@@YA_NPEBVTriangleMesh@12@AEBVPxTriangleMeshGeometry@2@AEBVPxTransform@2@AEBVBox@12@AEBVPxVec3@2@MAEAUPxSweepHit@2@V?$PxFlags@W4Enum@PxHitFlag@physx@@G@2@M@Z 00000001800eb8d0 f   GuMidphaseRTree.obj
 0001:000ebe30       ?sweepConvex_MeshGeom_RTREE@Gu@physx@@YAXPEBVTriangleMesh@12@AEBVBox@12@AEBVPxVec3@2@MAEAUSweepConvexMeshHitCallback@12@_N@Z 00000001800ece30 f   GuMidphaseRTree.obj
 0001:000ebe90       ?collideOBB@MeshRayCollider@@SAXAEBVBox@Gu@physx@@_NPEBVRTreeTriangleMesh@34@AEAU?$MeshHitCallback@UPxRaycastHit@physx@@@34@1@Z 00000001800ece90 f   GuMidphaseRTree.obj
 0001:000ec160       ??$collide@$00$00@MeshRayCollider@@SAXAEBVPxVec3@physx@@0M_NPEBVRTreeTriangleMesh@Gu@2@AEAU?$MeshHitCallback@UPxRaycastHit@physx@@@42@PEBV12@@Z 00000001800ed160 f i GuMidphaseRTree.obj
 0001:000ec4e0       ??$collide@$00$0A@@MeshRayCollider@@SAXAEBVPxVec3@physx@@0M_NPEBVRTreeTriangleMesh@Gu@2@AEAU?$MeshHitCallback@UPxRaycastHit@physx@@@42@PEBV12@@Z 00000001800ed4e0 f i GuMidphaseRTree.obj
 0001:000ec720       ??$collide@$0A@$00@MeshRayCollider@@SAXAEBVPxVec3@physx@@0M_NPEBVRTreeTriangleMesh@Gu@2@AEAU?$MeshHitCallback@UPxRaycastHit@physx@@@42@PEBV12@@Z 00000001800ed720 f i GuMidphaseRTree.obj
 0001:000ecac0       ??$collide@$0A@$0A@@MeshRayCollider@@SAXAEBVPxVec3@physx@@0M_NPEBVRTreeTriangleMesh@Gu@2@AEAU?$MeshHitCallback@UPxRaycastHit@physx@@@42@PEBV12@@Z 00000001800edac0 f i GuMidphaseRTree.obj
 0001:000eee70       ??0?$RayRTreeCallback@$00$0A@@@QEAA@MAEAU?$MeshHitCallback@UPxRaycastHit@physx@@@Gu@physx@@HPEBXPEBVPxVec3@3@AEBV43@3M_N2@Z 00000001800efe70 f i GuMidphaseRTree.obj
 0001:000ef000       ??1?$RayRTreeCallback@$00$00@@UEAA@XZ 00000001800f0000 f i GuMidphaseRTree.obj
 0001:000ef090       ??1?$RayRTreeCallback@$00$0A@@@UEAA@XZ 00000001800f0090 f i GuMidphaseRTree.obj
 0001:000ef120       ??1?$RayRTreeCallback@$0A@$00@@UEAA@XZ 00000001800f0120 f i GuMidphaseRTree.obj
 0001:000ef1b0       ??1?$RayRTreeCallback@$0A@$0A@@@UEAA@XZ 00000001800f01b0 f i GuMidphaseRTree.obj
 0001:000ef240       ??1Callback@RTree@Gu@physx@@UEAA@XZ 00000001800f0240 f i GuMidphaseRTree.obj
 0001:000ef250       ??1CallbackRaycast@RTree@Gu@physx@@UEAA@XZ 00000001800f0250 f i GuMidphaseRTree.obj
 0001:000ef26c       ??_E?$RayRTreeCallback@$00$00@@W7EAAPEAXI@Z 00000001800f026c f i GuMidphaseRTree.obj
 0001:000ef278       ??_E?$RayRTreeCallback@$00$0A@@@W7EAAPEAXI@Z 00000001800f0278 f i GuMidphaseRTree.obj
 0001:000ef284       ??_E?$RayRTreeCallback@$0A@$00@@W7EAAPEAXI@Z 00000001800f0284 f i GuMidphaseRTree.obj
 0001:000ef290       ??_E?$RayRTreeCallback@$0A@$0A@@@W7EAAPEAXI@Z 00000001800f0290 f i GuMidphaseRTree.obj
 0001:000ef3c0       ??_G?$RayRTreeCallback@$00$00@@UEAAPEAXI@Z 00000001800f03c0 f i GuMidphaseRTree.obj
 0001:000ef3c0       ??_E?$RayRTreeCallback@$00$00@@UEAAPEAXI@Z 00000001800f03c0 f i GuMidphaseRTree.obj
 0001:000ef400       ??_G?$RayRTreeCallback@$00$0A@@@UEAAPEAXI@Z 00000001800f0400 f i GuMidphaseRTree.obj
 0001:000ef400       ??_E?$RayRTreeCallback@$00$0A@@@UEAAPEAXI@Z 00000001800f0400 f i GuMidphaseRTree.obj
 0001:000ef440       ??_G?$RayRTreeCallback@$0A@$00@@UEAAPEAXI@Z 00000001800f0440 f i GuMidphaseRTree.obj
 0001:000ef440       ??_E?$RayRTreeCallback@$0A@$00@@UEAAPEAXI@Z 00000001800f0440 f i GuMidphaseRTree.obj
 0001:000ef480       ??_G?$RayRTreeCallback@$0A@$0A@@@UEAAPEAXI@Z 00000001800f0480 f i GuMidphaseRTree.obj
 0001:000ef480       ??_E?$RayRTreeCallback@$0A@$0A@@@UEAAPEAXI@Z 00000001800f0480 f i GuMidphaseRTree.obj
 0001:000ef4c0       ??_ECallback@RTree@Gu@physx@@UEAAPEAXI@Z 00000001800f04c0 f i GuMidphaseRTree.obj
 0001:000ef4c0       ??_GCallback@RTree@Gu@physx@@UEAAPEAXI@Z 00000001800f04c0 f i GuMidphaseRTree.obj
 0001:000ef4f0       ??_GCallbackRaycast@RTree@Gu@physx@@UEAAPEAXI@Z 00000001800f04f0 f i GuMidphaseRTree.obj
 0001:000ef4f0       ??_ECallbackRaycast@RTree@Gu@physx@@UEAAPEAXI@Z 00000001800f04f0 f i GuMidphaseRTree.obj
 0001:000ef550       ??_ERayMeshColliderCallback@@UEAAPEAXI@Z 00000001800f0550 f i GuMidphaseRTree.obj
 0001:000ef550       ??_GRayMeshColliderCallback@@UEAAPEAXI@Z 00000001800f0550 f i GuMidphaseRTree.obj
 0001:000f0580       ?processHit@RayMeshColliderCallback@@UEAA_NAEBUPxRaycastHit@physx@@AEBVPxVec3@3@11AEAMPEBI@Z 00000001800f1580 f i GuMidphaseRTree.obj
 0001:000f0d10       ?processResults@?$RayRTreeCallback@$00$00@@UEAA_NIPEAI@Z 00000001800f1d10 f i GuMidphaseRTree.obj
 0001:000f10c0       ?processResults@?$RayRTreeCallback@$00$00@@UEAA_NIPEAIAEAM@Z 00000001800f20c0 f i GuMidphaseRTree.obj
 0001:000f1450       ?processResults@?$RayRTreeCallback@$00$0A@@@UEAA_NIPEAI@Z 00000001800f2450 f i GuMidphaseRTree.obj
 0001:000f16e0       ?processResults@?$RayRTreeCallback@$00$0A@@@UEAA_NIPEAIAEAM@Z 00000001800f26e0 f i GuMidphaseRTree.obj
 0001:000f1980       ?processResults@?$RayRTreeCallback@$0A@$00@@UEAA_NIPEAI@Z 00000001800f2980 f i GuMidphaseRTree.obj
 0001:000f1fe0       ?processResults@?$RayRTreeCallback@$0A@$00@@UEAA_NIPEAIAEAM@Z 00000001800f2fe0 f i GuMidphaseRTree.obj
 0001:000f2650       ?processResults@?$RayRTreeCallback@$0A@$0A@@@UEAA_NIPEAI@Z 00000001800f3650 f i GuMidphaseRTree.obj
 0001:000f28e0       ?processResults@?$RayRTreeCallback@$0A@$0A@@@UEAA_NIPEAIAEAM@Z 00000001800f38e0 f i GuMidphaseRTree.obj
 0001:000f2b80       ?profile@Callback@RTree@Gu@physx@@UEAAXXZ 00000001800f3b80 f i GuMidphaseRTree.obj
 0001:000f2b90       ?checkOverlapAABB_triangleGeom@Gu@physx@@YA_NAEBVPxGeometry@2@AEBVPxTransform@2@AEBVPxBounds3@2@@Z 00000001800f3b90 f   GuOverlapTestsMesh.obj
 0001:000f2ca0       ?GeomOverlapCallback_SphereMesh@@YA_NAEBVPxGeometry@physx@@AEBVPxTransform@2@01PEAUTriggerCache@Gu@2@@Z 00000001800f3ca0 f   GuOverlapTestsMesh.obj
 0001:000f2d10       ?GeomOverlapCallback_CapsuleMesh@@YA_NAEBVPxGeometry@physx@@AEBVPxTransform@2@01PEAUTriggerCache@Gu@2@@Z 00000001800f3d10 f   GuOverlapTestsMesh.obj
 0001:000f2e30       ?GeomOverlapCallback_BoxMesh@@YA_NAEBVPxGeometry@physx@@AEBVPxTransform@2@01PEAUTriggerCache@Gu@2@@Z 00000001800f3e30 f   GuOverlapTestsMesh.obj
 0001:000f2f30       ?GeomOverlapCallback_ConvexMesh@@YA_NAEBVPxGeometry@physx@@AEBVPxTransform@2@01PEAUTriggerCache@Gu@2@@Z 00000001800f3f30 f   GuOverlapTestsMesh.obj
 0001:000f3520       ??$gjk@U?$RelativeConvex@VTriangleV@Gu@physx@@@Gu@physx@@U?$LocalConvex@VConvexHullV@Gu@physx@@@23@@Gu@physx@@YA?AW4GjkStatus@01@AEBU?$RelativeConvex@VTriangleV@Gu@physx@@@01@AEBU?$LocalConvex@VConvexHullV@Gu@physx@@@01@AEBT__m128@@2AEAT5@333@Z 00000001800f4520 f i GuOverlapTestsMesh.obj
 0001:000f4210       ??0ConvexVsMeshOverlapCallback@@QEAA@AEBVConvexMesh@Gu@physx@@AEBVPxMeshScale@3@AEBVFastVertex2ShapeScaling@Cm@3@AEBVPxTransform@3@3_NAEBVBox@23@@Z 00000001800f5210 f i GuOverlapTestsMesh.obj
 0001:000f4a80       ??1ConvexVsMeshOverlapCallback@@UEAA@XZ 00000001800f5a80 f i GuOverlapTestsMesh.obj
 0001:000f4a90       ??_GConvexVsMeshOverlapCallback@@UEAAPEAXI@Z 00000001800f5a90 f i GuOverlapTestsMesh.obj
 0001:000f4a90       ??_EConvexVsMeshOverlapCallback@@UEAAPEAXI@Z 00000001800f5a90 f i GuOverlapTestsMesh.obj
 0001:000f4ac0       ?processHit@ConvexVsMeshOverlapCallback@@UEAA_NAEBUPxRaycastHit@physx@@AEBVPxVec3@3@11AEAMPEBI@Z 00000001800f5ac0 f i GuOverlapTestsMesh.obj
 0001:000f4e40       ??0RTree@Gu@physx@@QEAA@W4PxEMPTY@2@@Z 00000001800f5e40 f   GuRTree.obj
 0001:000f4e50       ?exportExtraData@RTree@Gu@physx@@QEAAXAEAVPxSerializationContext@3@@Z 00000001800f5e50 f   GuRTree.obj
 0001:000f4ea0       ?importExtraData@RTree@Gu@physx@@QEAAXAEAVPxDeserializationContext@3@@Z 00000001800f5ea0 f   GuRTree.obj
 0001:000f4ed0       ?load@RTree@Gu@physx@@QEAA_NAEAVPxInputStream@3@I_N@Z 00000001800f5ed0 f   GuRTree.obj
 0001:000f51d0       ?refitAllStaticTree@RTree@Gu@physx@@QEAAXAEAUCallbackRefit@123@PEAVPxBounds3@3@@Z 00000001800f61d0 f   GuRTree.obj
 0001:000f5730       ?validate@RTree@Gu@physx@@QEAAXPEAUCallbackRefit@123@@Z 00000001800f6730 f   GuRTree.obj
 0001:000f5890       ?computeBottomLevelCount@RTree@Gu@physx@@QEBAII@Z 00000001800f6890 f   GuRTree.obj
 0001:000f5980       ?validateRecursive@RTree@Gu@physx@@IEAAXIURTreeNodeQ@23@PEAURTreePage@23@PEAUCallbackRefit@123@@Z 00000001800f6980 f   GuRTree.obj
 0001:000f5ab0       ?traverseAABB@RTree@Gu@physx@@QEBAXAEBVPxVec3@3@0IPEAIPEAUCallback@123@@Z 00000001800f6ab0 f   GuRTreeQueries.obj
 0001:000f5c70       ?traverseOBB@RTree@Gu@physx@@QEBAXAEBVBox@23@IPEAIPEAUCallback@123@@Z 00000001800f6c70 f   GuRTreeQueries.obj
 0001:000f6550       ??$traverseRay@$00@RTree@Gu@physx@@QEBAXAEBVPxVec3@2@0IPEAIPEAUCallbackRaycast@012@PEBV32@M@Z 00000001800f7550 f i GuRTreeQueries.obj
 0001:000f68f0       ??$traverseRay@$0A@@RTree@Gu@physx@@QEBAXAEBVPxVec3@2@0IPEAIPEAUCallbackRaycast@012@PEBV32@M@Z 00000001800f78f0 f i GuRTreeQueries.obj
 0001:000f6c40       ??0SweepShapeMeshHitCallback@Gu@physx@@QEAA@W4Enum@CallbackMode@12@AEBV?$PxFlags@W4Enum@PxHitFlag@physx@@G@2@_NM@Z 00000001800f7c40 f   GuSweepsMesh.obj
 0001:000f6c80       ??0SweepCapsuleMeshHitCallback@Gu@physx@@QEAA@AEAUPxSweepHit@2@AEBVMatrix34@Cm@2@M_NAEBVCapsule@12@AEBVPxVec3@2@AEBV?$PxFlags@W4Enum@PxHitFlag@physx@@G@2@2M@Z 00000001800f7c80 f   GuSweepsMesh.obj
 0001:000f6d50       ?processHit@SweepCapsuleMeshHitCallback@Gu@physx@@UEAA_NAEBUPxRaycastHit@3@AEBVPxVec3@3@11AEAMPEBI@Z 00000001800f7d50 f   GuSweepsMesh.obj
 0001:000f7290       ?finalizeHit@SweepCapsuleMeshHitCallback@Gu@physx@@QEBA_NAEAUPxSweepHit@3@AEBVCapsule@23@AEBVPxTriangleMeshGeometry@3@AEBVPxTransform@3@_N@Z 00000001800f8290 f   GuSweepsMesh.obj
 0001:000f7430       ??0SweepBoxMeshHitCallback@Gu@physx@@QEAA@W4Enum@CallbackMode@12@AEBVMatrix34Padded@12@M_NAEBVBox@12@AEBVPxVec3@2@44AEBV?$PxFlags@W4Enum@PxHitFlag@physx@@G@2@M2M@Z 00000001800f8430 f   GuSweepsMesh.obj
 0001:000f7540       ?processHit@SweepBoxMeshHitCallback@Gu@physx@@UEAA_NAEBUPxRaycastHit@3@AEBVPxVec3@3@11AEAMPEBI@Z 00000001800f8540 f   GuSweepsMesh.obj
 0001:000f7d50       ?finalizeHit@SweepBoxMeshHitCallback@Gu@physx@@QEBA_NAEAUPxSweepHit@3@AEBVPxTriangleMeshGeometry@3@AEBVPxTransform@3@2AEBVPxVec3@3@_N4@Z 00000001800f8d50 f   GuSweepsMesh.obj
 0001:000f8420       ??0SweepConvexMeshHitCallback@Gu@physx@@QEAA@AEBUConvexHullData@12@AEBVPxMeshScale@2@AEBVFastVertex2ShapeScaling@Cm@2@AEBVPxTransform@2@3AEBVPxVec3@2@MV?$PxFlags@W4Enum@PxHitFlag@physx@@G@2@_NM6M@Z 00000001800f9420 f   GuSweepsMesh.obj
 0001:000f8e10       ?processHit@SweepConvexMeshHitCallback@Gu@physx@@UEAA_NAEBUPxRaycastHit@3@AEBVPxVec3@3@11AEAMPEBI@Z 00000001800f9e10 f   GuSweepsMesh.obj
 0001:000f9570       ?finalizeHit@SweepConvexMeshHitCallback@Gu@physx@@QEAA_NAEAUPxSweepHit@3@AEBVPxTriangleMeshGeometry@3@AEBVPxTransform@3@AEBVPxConvexMeshGeometry@3@2AEBVPxVec3@3@M_N555@Z 00000001800fa570 f   GuSweepsMesh.obj
 0001:000f9a60       ?sweepCapsule_MeshGeom@@YA_NAEBVPxGeometry@physx@@AEBVPxTransform@2@AEBVPxCapsuleGeometry@2@1AEBVCapsule@Gu@2@AEBVPxVec3@2@MAEAUPxSweepHit@2@V?$PxFlags@W4Enum@PxHitFlag@physx@@G@2@M@Z 00000001800faa60 f   GuSweepsMesh.obj
 0001:000f9b00       ?sweepBox_MeshGeom@@YA_NAEBVPxGeometry@physx@@AEBVPxTransform@2@AEBVPxBoxGeometry@2@1AEBVBox@Gu@2@AEBVPxVec3@2@MAEAUPxSweepHit@2@V?$PxFlags@W4Enum@PxHitFlag@physx@@G@2@M@Z 00000001800fab00 f   GuSweepsMesh.obj
 0001:000f9ba0       ?sweepConvex_MeshGeom@@YA_NAEBVPxGeometry@physx@@AEBVPxTransform@2@AEBVPxConvexMeshGeometry@2@1AEBVPxVec3@2@MAEAUPxSweepHit@2@V?$PxFlags@W4Enum@PxHitFlag@physx@@G@2@M@Z 00000001800faba0 f   GuSweepsMesh.obj
 0001:000fa500       ??1SweepConvexMeshHitCallback@Gu@physx@@UEAA@XZ 00000001800fb500 f i GuSweepsMesh.obj
 0001:000fa510       ??_ESweepBoxMeshHitCallback@Gu@physx@@UEAAPEAXI@Z 00000001800fb510 f i GuSweepsMesh.obj
 0001:000fa510       ??_GSweepBoxMeshHitCallback@Gu@physx@@UEAAPEAXI@Z 00000001800fb510 f i GuSweepsMesh.obj
 0001:000fa540       ??_GSweepCapsuleMeshHitCallback@Gu@physx@@UEAAPEAXI@Z 00000001800fb540 f i GuSweepsMesh.obj
 0001:000fa540       ??_ESweepCapsuleMeshHitCallback@Gu@physx@@UEAAPEAXI@Z 00000001800fb540 f i GuSweepsMesh.obj
 0001:000fa570       ??_GSweepConvexMeshHitCallback@Gu@physx@@UEAAPEAXI@Z 00000001800fb570 f i GuSweepsMesh.obj
 0001:000fa570       ??_ESweepConvexMeshHitCallback@Gu@physx@@UEAAPEAXI@Z 00000001800fb570 f i GuSweepsMesh.obj
 0001:000fa5a0       ??_ESweepShapeMeshHitCallback@Gu@physx@@UEAAPEAXI@Z 00000001800fb5a0 f i GuSweepsMesh.obj
 0001:000fa5a0       ??_GSweepShapeMeshHitCallback@Gu@physx@@UEAAPEAXI@Z 00000001800fb5a0 f i GuSweepsMesh.obj
 0001:000fa8b0       ?exportExtraData@TriangleMesh@Gu@physx@@UEAAXAEAVPxSerializationContext@3@@Z 00000001800fb8b0 f   GuTriangleMesh.obj
 0001:000fa9f0       ?importExtraData@TriangleMesh@Gu@physx@@QEAAXAEAVPxDeserializationContext@3@@Z 00000001800fb9f0 f   GuTriangleMesh.obj
 0001:000fab00       ?release@TriangleMesh@Gu@physx@@UEAAXXZ 00000001800fbb00 f   GuTriangleMesh.obj
 0001:000fab40       ?onRefCountZero@TriangleMesh@Gu@physx@@UEAAXXZ 00000001800fbb40 f   GuTriangleMesh.obj
 0001:000fabf0       ??0TriangleMesh@Gu@physx@@QEAA@AEAVGuMeshFactory@2@AEAVTriangleMeshData@12@@Z 00000001800fbbf0 f   GuTriangleMesh.obj
 0001:000fad90       ??1TriangleMesh@Gu@physx@@UEAA@XZ 00000001800fbd90 f   GuTriangleMesh.obj
 0001:000faf50       ?getVerticesForModification@TriangleMesh@Gu@physx@@UEAAPEAVPxVec3@3@XZ 00000001800fbf50 f   GuTriangleMesh.obj
 0001:000faf90       ?refitBVH@TriangleMesh@Gu@physx@@UEAA?AVPxBounds3@3@XZ 00000001800fbf90 f   GuTriangleMesh.obj
 0001:000fb060       ??1PxTriangleMesh@physx@@MEAA@XZ 00000001800fc060 f i GuTriangleMesh.obj
 0001:000fb06c       ??_ETriangleMesh@Gu@physx@@WBA@EAAPEAXI@Z 00000001800fc06c f i GuTriangleMesh.obj
 0001:000fb080       ??_GPxTriangleMesh@physx@@MEAAPEAXI@Z 00000001800fc080 f i GuTriangleMesh.obj
 0001:000fb080       ??_EPxTriangleMesh@physx@@MEAAPEAXI@Z 00000001800fc080 f i GuTriangleMesh.obj
 0001:000fb0b0       ??_GTriangleMesh@Gu@physx@@UEAAPEAXI@Z 00000001800fc0b0 f i GuTriangleMesh.obj
 0001:000fb0b0       ??_ETriangleMesh@Gu@physx@@UEAAPEAXI@Z 00000001800fc0b0 f i GuTriangleMesh.obj
 0001:000fb120       ?acquireReference@TriangleMesh@Gu@physx@@UEAAXXZ 00000001800fc120 f i GuTriangleMesh.obj
 0001:000fb130       ?getLocalBounds@TriangleMesh@Gu@physx@@UEBA?AVPxBounds3@3@XZ 00000001800fc130 f i GuTriangleMesh.obj
 0001:000fb1c0       ?getNbTriangles@TriangleMesh@Gu@physx@@UEBAIXZ 00000001800fc1c0 f i GuTriangleMesh.obj
 0001:000fb1d0       ?getNbVertices@TriangleMesh@Gu@physx@@UEBAIXZ 00000001800fc1d0 f i GuTriangleMesh.obj
 0001:000fb1e0       ?getReferenceCount@TriangleMesh@Gu@physx@@UEBAIXZ 00000001800fc1e0 f i GuTriangleMesh.obj
 0001:000fb1f0       ?getTriangleMaterialIndex@TriangleMesh@Gu@physx@@UEBAGI@Z 00000001800fc1f0 f i GuTriangleMesh.obj
 0001:000fb210       ?getTriangleMeshFlags@TriangleMesh@Gu@physx@@UEBA?AV?$PxFlags@W4Enum@PxTriangleMeshFlag@physx@@E@3@XZ 00000001800fc210 f i GuTriangleMesh.obj
 0001:000fb220       ?getTriangles@TriangleMesh@Gu@physx@@UEBAPEBXXZ 00000001800fc220 f i GuTriangleMesh.obj
 0001:000fb230       ?getTrianglesRemap@TriangleMesh@Gu@physx@@UEBAPEBIXZ 00000001800fc230 f i GuTriangleMesh.obj
 0001:000fb240       ?getVertices@TriangleMesh@Gu@physx@@UEBAPEBVPxVec3@3@XZ 00000001800fc240 f i GuTriangleMesh.obj
 0001:000fb250       ?isKindOf@PxTriangleMesh@physx@@MEBA_NPEBD@Z 00000001800fc250 f i GuTriangleMesh.obj
 0001:000fb2a0       ?requiresObjects@TriangleMesh@Gu@physx@@UEAAXAEAVPxProcessPxBaseCallback@3@@Z 00000001800fc2a0 f i GuTriangleMesh.obj
 0001:000fb2b0       ?exportExtraData@BV4TriangleMesh@Gu@physx@@UEAAXAEAVPxSerializationContext@3@@Z 00000001800fc2b0 f   GuTriangleMeshBV4.obj
 0001:000fb2f0       ?importExtraData@BV4TriangleMesh@Gu@physx@@QEAAXAEAVPxDeserializationContext@3@@Z 00000001800fc2f0 f   GuTriangleMeshBV4.obj
 0001:000fb370       ?createObject@BV4TriangleMesh@Gu@physx@@SAPEAVTriangleMesh@23@AEAPEAEAEAVPxDeserializationContext@3@@Z 00000001800fc370 f   GuTriangleMeshBV4.obj
 0001:000fb460       ??0BV4TriangleMesh@Gu@physx@@QEAA@AEAVGuMeshFactory@2@AEAVTriangleMeshData@12@@Z 00000001800fc460 f   GuTriangleMeshBV4.obj
 0001:000fb500       ??1BV4TriangleMesh@Gu@physx@@UEAA@XZ 00000001800fc500 f i GuTriangleMeshBV4.obj
 0001:000fb544       ??_EBV4TriangleMesh@Gu@physx@@WBA@EAAPEAXI@Z 00000001800fc544 f i GuTriangleMeshBV4.obj
 0001:000fb550       ??_GBV4TriangleMesh@Gu@physx@@UEAAPEAXI@Z 00000001800fc550 f i GuTriangleMeshBV4.obj
 0001:000fb550       ??_EBV4TriangleMesh@Gu@physx@@UEAAPEAXI@Z 00000001800fc550 f i GuTriangleMeshBV4.obj
 0001:000fb5e0       ?getConcreteTypeName@BV4TriangleMesh@Gu@physx@@UEBAPEBDXZ 00000001800fc5e0 f i GuTriangleMeshBV4.obj
 0001:000fb5f0       ?getMidphaseID@BV4TriangleMesh@Gu@physx@@UEBA?AW4Enum@PxMeshMidPhase@3@XZ 00000001800fc5f0 f i GuTriangleMeshBV4.obj
 0001:000fb600       ?exportExtraData@RTreeTriangleMesh@Gu@physx@@UEAAXAEAVPxSerializationContext@3@@Z 00000001800fc600 f   GuTriangleMeshRTree.obj
 0001:000fb640       ?importExtraData@RTreeTriangleMesh@Gu@physx@@QEAAXAEAVPxDeserializationContext@3@@Z 00000001800fc640 f   GuTriangleMeshRTree.obj
 0001:000fb680       ?createObject@RTreeTriangleMesh@Gu@physx@@SAPEAVTriangleMesh@23@AEAPEAEAEAVPxDeserializationContext@3@@Z 00000001800fc680 f   GuTriangleMeshRTree.obj
 0001:000fb720       ??0RTreeTriangleMesh@Gu@physx@@QEAA@AEAVGuMeshFactory@2@AEAVTriangleMeshData@12@@Z 00000001800fc720 f   GuTriangleMeshRTree.obj
 0001:000fb8a0       ?getVerticesForModification@RTreeTriangleMesh@Gu@physx@@UEAAPEAVPxVec3@3@XZ 00000001800fc8a0 f   GuTriangleMeshRTree.obj
 0001:000fb8b0       ?refitBVH@RTreeTriangleMesh@Gu@physx@@UEAA?AVPxBounds3@3@XZ 00000001800fc8b0 f   GuTriangleMeshRTree.obj
 0001:000fbad0       ??1CallbackRefit@RTree@Gu@physx@@UEAA@XZ 00000001800fcad0 f i GuTriangleMeshRTree.obj
 0001:000fbae0       ??1RTreeTriangleMesh@Gu@physx@@UEAA@XZ 00000001800fcae0 f i GuTriangleMeshRTree.obj
 0001:000fbb50       ??_ERTreeTriangleMesh@Gu@physx@@WBA@EAAPEAXI@Z 00000001800fcb50 f i GuTriangleMeshRTree.obj
 0001:000fbb60       ??_E?$RefitCallback@G@physx@@UEAAPEAXI@Z 00000001800fcb60 f i GuTriangleMeshRTree.obj
 0001:000fbb60       ??_G?$RefitCallback@G@physx@@UEAAPEAXI@Z 00000001800fcb60 f i GuTriangleMeshRTree.obj
 0001:000fbb90       ??_G?$RefitCallback@I@physx@@UEAAPEAXI@Z 00000001800fcb90 f i GuTriangleMeshRTree.obj
 0001:000fbb90       ??_E?$RefitCallback@I@physx@@UEAAPEAXI@Z 00000001800fcb90 f i GuTriangleMeshRTree.obj
 0001:000fbbc0       ??_ECallbackRefit@RTree@Gu@physx@@UEAAPEAXI@Z 00000001800fcbc0 f i GuTriangleMeshRTree.obj
 0001:000fbbc0       ??_GCallbackRefit@RTree@Gu@physx@@UEAAPEAXI@Z 00000001800fcbc0 f i GuTriangleMeshRTree.obj
 0001:000fbbf0       ??_ERTreeTriangleMesh@Gu@physx@@UEAAPEAXI@Z 00000001800fcbf0 f i GuTriangleMeshRTree.obj
 0001:000fbbf0       ??_GRTreeTriangleMesh@Gu@physx@@UEAAPEAXI@Z 00000001800fcbf0 f i GuTriangleMeshRTree.obj
 0001:000fbcb0       ?getConcreteTypeName@RTreeTriangleMesh@Gu@physx@@UEBAPEBDXZ 00000001800fccb0 f i GuTriangleMeshRTree.obj
 0001:000fbcc0       ?getMidphaseID@RTreeTriangleMesh@Gu@physx@@UEBA?AW4Enum@PxMeshMidPhase@3@XZ 00000001800fccc0 f i GuTriangleMeshRTree.obj
 0001:000fbcd0       ?recomputeBounds@?$RefitCallback@G@physx@@UEAAXIAEAT__m128@@0@Z 00000001800fccd0 f i GuTriangleMeshRTree.obj
 0001:000fbe00       ?recomputeBounds@?$RefitCallback@I@physx@@UEAAXIAEAT__m128@@0@Z 00000001800fce00 f i GuTriangleMeshRTree.obj
 0001:000fbf30       ??0BV32Tree@Gu@physx@@QEAA@W4PxEMPTY@2@@Z 00000001800fcf30 f   GuBV32.obj
 0001:000fbf50       ?exportExtraData@BV32Tree@Gu@physx@@QEAAXAEAVPxSerializationContext@3@@Z 00000001800fcf50 f   GuBV32.obj
 0001:000fbfa0       ?importExtraData@BV32Tree@Gu@physx@@QEAAXAEAVPxDeserializationContext@3@@Z 00000001800fcfa0 f   GuBV32.obj
 0001:000fbfd0       ??0BV32Tree@Gu@physx@@QEAA@XZ 00000001800fcfd0 f   GuBV32.obj
 0001:000fc000       ??0BV32Tree@Gu@physx@@QEAA@PEAVSourceMesh@12@AEBVPxBounds3@2@@Z 00000001800fd000 f   GuBV32.obj
 0001:000fc0c0       ??1BV32Tree@Gu@physx@@QEAA@XZ 00000001800fd0c0 f   GuBV32.obj
 0001:000fc0d0       ?load@BV32Tree@Gu@physx@@QEAA_NAEAVPxInputStream@3@_N@Z 00000001800fd0d0 f   GuBV32.obj
 0001:000fc2f0       ?calculateLeafNode@BV32Tree@Gu@physx@@QEAAXAEAUBV32Data@23@@Z 00000001800fd2f0 f   GuBV32.obj
 0001:000fc530       ?createSOAformatNode@BV32Tree@Gu@physx@@QEAAXAEAUBV32DataPacked@23@AEBUBV32Data@23@IAEAI2@Z 00000001800fd530 f   GuBV32.obj
 0001:000fc980       ?reset@BV32Tree@Gu@physx@@QEAAXXZ 00000001800fd980 f   GuBV32.obj
 0001:000fc9a0       ??4BV32Tree@Gu@physx@@QEAAXAEAV012@@Z 00000001800fd9a0 f   GuBV32.obj
 0001:000fca00       ?init@BV32Tree@Gu@physx@@QEAA_NPEAVSourceMesh@23@AEBVPxBounds3@3@@Z 00000001800fda00 f   GuBV32.obj
 0001:000fcaa0       ?release@BV32Tree@Gu@physx@@QEAAXXZ 00000001800fdaa0 f   GuBV32.obj
 0001:000fcb30       ?BuildBV32Ex@Gu@physx@@YA_NAEAVBV32Tree@12@AEAVSourceMesh@12@MI@Z 00000001800fdb30 f   GuBV32Build.obj
 0001:000fccf0       ??0BV32Data@Gu@physx@@QEAA@XZ 00000001800fdcf0 f i GuBV32Build.obj
 0001:000fcd20       ??0BV32Node@@QEAA@XZ       00000001800fdd20 f i GuBV32Build.obj
 0001:000fdda0       ?pcmContactBoxBox@Gu@physx@@YA_NAEBVGeometryUnion@12@0AEBVPxTransform@2@1AEBUNarrowPhaseParams@12@AEAUCache@12@AEAVContactBuffer@12@PEAVRenderOutput@Cm@2@@Z 00000001800feda0 f   GuPCMContactBoxBox.obj
 0001:001015f0       ?pcmContactBoxConvex@Gu@physx@@YA_NAEBVGeometryUnion@12@0AEBVPxTransform@2@1AEBUNarrowPhaseParams@12@AEAUCache@12@AEAVContactBuffer@12@PEAVRenderOutput@Cm@2@@Z 00000001801025f0 f   GuPCMContactBoxConvex.obj
 0001:00102490       ??$gjkPenetration@U?$RelativeConvex@VBoxV@Gu@physx@@@Gu@physx@@U?$LocalConvex@VConvexHullNoScaleV@Gu@physx@@@23@@Gu@physx@@YA?AW4GjkStatus@01@AEBU?$RelativeConvex@VBoxV@Gu@physx@@@01@AEBU?$LocalConvex@VConvexHullNoScaleV@Gu@physx@@@01@AEBT__m128@@2_NPEIAE4AEAEAEAUGjkOutput@01@@Z 0000000180103490 f i GuPCMContactBoxConvex.obj
 0001:00103a50       ??_E?$LocalConvex@VConvexHullNoScaleV@Gu@physx@@@Gu@physx@@UEAAPEAXI@Z 0000000180104a50 f i GuPCMContactBoxConvex.obj
 0001:00103a50       ??_G?$LocalConvex@VConvexHullNoScaleV@Gu@physx@@@Gu@physx@@UEAAPEAXI@Z 0000000180104a50 f i GuPCMContactBoxConvex.obj
 0001:00104160       ?getCenter@?$LocalConvex@VConvexHullNoScaleV@Gu@physx@@@Gu@physx@@UEBA?AT__m128@@XZ 0000000180105160 f i GuPCMContactBoxConvex.obj
 0001:00104170       ?getSweepMargin@?$LocalConvex@VConvexHullNoScaleV@Gu@physx@@@Gu@physx@@UEBA?AT__m128@@XZ 0000000180105170 f i GuPCMContactBoxConvex.obj
 0001:00104190       ?support@?$LocalConvex@VConvexHullNoScaleV@Gu@physx@@@Gu@physx@@UEBA?AT__m128@@AEBT4@@Z 0000000180105190 f i GuPCMContactBoxConvex.obj
 0001:001041e0       ?support@?$LocalConvex@VConvexHullNoScaleV@Gu@physx@@@Gu@physx@@UEBA?AT__m128@@AEBT4@AEAH@Z 00000001801051e0 f i GuPCMContactBoxConvex.obj
 0001:00104240       ?supportPoint@?$LocalConvex@VConvexHullNoScaleV@Gu@physx@@@Gu@physx@@UEBA?AT__m128@@H@Z 0000000180105240 f i GuPCMContactBoxConvex.obj
 0001:00104270       ?pcmContactCapsuleBox@Gu@physx@@YA_NAEBVGeometryUnion@12@0AEBVPxTransform@2@1AEBUNarrowPhaseParams@12@AEAUCache@12@AEAVContactBuffer@12@PEAVRenderOutput@Cm@2@@Z 0000000180105270 f   GuPCMContactCapsuleBox.obj
 0001:00105200       ?pcmContactCapsuleCapsule@Gu@physx@@YA_NAEBVGeometryUnion@12@0AEBVPxTransform@2@1AEBUNarrowPhaseParams@12@AEAUCache@12@AEAVContactBuffer@12@PEAVRenderOutput@Cm@2@@Z 0000000180106200 f   GuPCMContactCapsuleCapsule.obj
 0001:00105a80       ?pcmContactCapsuleConvex@Gu@physx@@YA_NAEBVGeometryUnion@12@0AEBVPxTransform@2@1AEBUNarrowPhaseParams@12@AEAUCache@12@AEAVContactBuffer@12@PEAVRenderOutput@Cm@2@@Z 0000000180106a80 f   GuPCMContactCapsuleConvex.obj
 0001:00106cb0       ??$gjkPenetration@U?$LocalConvex@VCapsuleV@Gu@physx@@@Gu@physx@@U?$LocalConvex@VConvexHullNoScaleV@Gu@physx@@@23@@Gu@physx@@YA?AW4GjkStatus@01@AEBU?$LocalConvex@VCapsuleV@Gu@physx@@@01@AEBU?$LocalConvex@VConvexHullNoScaleV@Gu@physx@@@01@AEBT__m128@@2_NPEIAE4AEAEAEAUGjkOutput@01@@Z 0000000180107cb0 f i GuPCMContactCapsuleConvex.obj
 0001:00108450       ?pcmContactCapsuleHeightField@Gu@physx@@YA_NAEBVGeometryUnion@12@0AEBVPxTransform@2@1AEBUNarrowPhaseParams@12@AEAUCache@12@AEAVContactBuffer@12@PEAVRenderOutput@Cm@2@@Z 0000000180109450 f   GuPCMContactCapsuleHeightField.obj
 0001:00109170       ??0PCMContactPatch@Gu@physx@@QEAA@XZ 000000018010a170 f i GuPCMContactCapsuleHeightField.obj
 0001:00109190       ??0PCMMeshContactGeneration@Gu@physx@@QEAA@AEBT__m128@@0AEBVPsTransformV@aos@shdfnd@2@1AEAVMultiplePersistentContactManifold@12@AEAVContactBuffer@12@PEAV?$InlineArray@I$0EEA@V?$ReflectionAllocator@I@shdfnd@physx@@@62@PEAVRenderOutput@Cm@2@@Z 000000018010a190 f i GuPCMContactCapsuleHeightField.obj
 0001:00109ad0       ??_G?$PCMHeightfieldContactGenerationCallback@UPCMCapsuleVsHeightfieldContactGenerationCallback@physx@@@Gu@physx@@UEAAPEAXI@Z 000000018010aad0 f i GuPCMContactCapsuleHeightField.obj
 0001:00109ad0       ??_E?$PCMHeightfieldContactGenerationCallback@UPCMCapsuleVsHeightfieldContactGenerationCallback@physx@@@Gu@physx@@UEAAPEAXI@Z 000000018010aad0 f i GuPCMContactCapsuleHeightField.obj
 0001:00109b00       ??_EPCMCapsuleVsHeightfieldContactGenerationCallback@physx@@UEAAPEAXI@Z 000000018010ab00 f i GuPCMContactCapsuleHeightField.obj
 0001:00109b00       ??_GPCMCapsuleVsHeightfieldContactGenerationCallback@physx@@UEAAPEAXI@Z 000000018010ab00 f i GuPCMContactCapsuleHeightField.obj
 0001:00109b30       ?onEvent@?$PCMHeightfieldContactGenerationCallback@UPCMCapsuleVsHeightfieldContactGenerationCallback@physx@@@Gu@physx@@UEAA_NIPEAI@Z 000000018010ab30 f i GuPCMContactCapsuleHeightField.obj
 0001:0010a0f0       ?pcmContactCapsuleMesh@Gu@physx@@YA_NAEBVGeometryUnion@12@0AEBVPxTransform@2@1AEBUNarrowPhaseParams@12@AEAUCache@12@AEAVContactBuffer@12@PEAVRenderOutput@Cm@2@@Z 000000018010b0f0 f   GuPCMContactCapsuleMesh.obj
 0001:0010b000       ??$processTriangleCache@$0BA@@PCMCapsuleVsMeshContactGenerationCallback@physx@@QEAAXAEAU?$TriangleCache@$0BA@@Gu@1@@Z 000000018010c000 f i GuPCMContactCapsuleMesh.obj
 0001:0010b090       ??_G?$PCMMeshContactGenerationCallback@UPCMCapsuleVsMeshContactGenerationCallback@physx@@@Gu@physx@@UEAAPEAXI@Z 000000018010c090 f i GuPCMContactCapsuleMesh.obj
 0001:0010b090       ??_E?$PCMMeshContactGenerationCallback@UPCMCapsuleVsMeshContactGenerationCallback@physx@@@Gu@physx@@UEAAPEAXI@Z 000000018010c090 f i GuPCMContactCapsuleMesh.obj
 0001:0010b0c0       ??_EPCMCapsuleVsMeshContactGenerationCallback@physx@@UEAAPEAXI@Z 000000018010c0c0 f i GuPCMContactCapsuleMesh.obj
 0001:0010b0c0       ??_GPCMCapsuleVsMeshContactGenerationCallback@physx@@UEAAPEAXI@Z 000000018010c0c0 f i GuPCMContactCapsuleMesh.obj
 0001:0010b0f0       ?processHit@?$PCMMeshContactGenerationCallback@UPCMCapsuleVsMeshContactGenerationCallback@physx@@@Gu@physx@@UEAA_NAEBUPxRaycastHit@3@AEBVPxVec3@3@11AEAMPEBI@Z 000000018010c0f0 f i GuPCMContactCapsuleMesh.obj
 0001:0010b4b0       ?generateLastContacts@PCMConvexVsMeshContactGeneration@Gu@physx@@QEAAXXZ 000000018010c4b0 f   GuPCMContactConvexCommon.obj
 0001:0010b9f0       ?addContactsToPatch@PCMConvexVsMeshContactGeneration@Gu@physx@@QEAAXAEBT__m128@@I@Z 000000018010c9f0 f   GuPCMContactConvexCommon.obj
 0001:0010c330       ?processTriangle@PCMConvexVsMeshContactGeneration@Gu@physx@@QEAA_NPEBVPxVec3@3@IEPEBI@Z 000000018010d330 f   GuPCMContactConvexCommon.obj
 0001:0010c8c0       ?processTriangle@PCMConvexVsMeshContactGeneration@Gu@physx@@SA_NAEBUPolygonalData@23@PEAVSupportLocal@23@PEBVPxVec3@3@IEAEBT__m128@@_NAEBVPsTransformV@aos@shdfnd@3@AEBVPsMatTransformV@9shdfnd@3@PEAVMeshPersistentContact@23@AEAI@Z 000000018010d8c0 f   GuPCMContactConvexCommon.obj
 0001:0010cb70       ?processTriangle@PCMSphereVsMeshContactGeneration@Gu@physx@@QEAA_NPEBVPxVec3@3@IEPEBI@Z 000000018010db70 f   GuPCMContactConvexCommon.obj
 0001:0010cf90       ?generateLastContacts@PCMSphereVsMeshContactGeneration@Gu@physx@@QEAAXXZ 000000018010df90 f   GuPCMContactConvexCommon.obj
 0001:0010d400       ?addToPatch@PCMSphereVsMeshContactGeneration@Gu@physx@@QEAAXAEBT__m128@@0T4@I@Z 000000018010e400 f   GuPCMContactConvexCommon.obj
 0001:0010daa0       ?generateEEContacts@PCMCapsuleVsMeshContactGeneration@Gu@physx@@QEAAXAEBT__m128@@000I000PEAVMeshPersistentContact@23@AEAI@Z 000000018010eaa0 f   GuPCMContactConvexCommon.obj
 0001:0010dbd0       ?generateEE@PCMCapsuleVsMeshContactGeneration@Gu@physx@@QEAAXAEBT__m128@@000I00PEAVMeshPersistentContact@23@AEAI@Z 000000018010ebd0 f   GuPCMContactConvexCommon.obj
 0001:0010de60       ?generateContacts@PCMCapsuleVsMeshContactGeneration@Gu@physx@@SA_NAEBT__m128@@0000I000PEAVMeshPersistentContact@23@AEAI@Z 000000018010ee60 f   GuPCMContactConvexCommon.obj
 0001:0010e2f0       ?generateEEContactsMTD@PCMCapsuleVsMeshContactGeneration@Gu@physx@@SAXAEBT__m128@@000I000PEAVMeshPersistentContact@23@AEAI@Z 000000018010f2f0 f   GuPCMContactConvexCommon.obj
 0001:0010e410       ?generateEEMTD@PCMCapsuleVsMeshContactGeneration@Gu@physx@@SAXAEBT__m128@@000I00PEAVMeshPersistentContact@23@AEAI@Z 000000018010f410 f   GuPCMContactConvexCommon.obj
 0001:0010e670       ?processTriangle@PCMCapsuleVsMeshContactGeneration@Gu@physx@@QEAA_NPEBVPxVec3@3@IEPEBI@Z 000000018010f670 f   GuPCMContactConvexCommon.obj
 0001:0010f210       ?processTriangle@PCMCapsuleVsMeshContactGeneration@Gu@physx@@SA_NAEBVTriangleV@23@IAEBVCapsuleV@23@AEBT__m128@@EPEAVMeshPersistentContact@23@AEAI@Z 0000000180110210 f   GuPCMContactConvexCommon.obj
 0001:0010f550       ?pcmDistanceSegmentTriangleSquared@Gu@physx@@YA?AT__m128@@AEBT3@0000AEAT3@11@Z 0000000180110550 f   GuPCMContactConvexCommon.obj
 0001:0010fe90       ??$sort@USortedTriangle@Gu@physx@@U?$Less@USortedTriangle@Gu@physx@@@shdfnd@3@@shdfnd@physx@@YAXPEAUSortedTriangle@Gu@1@IAEBU?$Less@USortedTriangle@Gu@physx@@@01@@Z 0000000180110e90 f i GuPCMContactConvexCommon.obj
 0001:0010feb0       ??$sort@USortedTriangle@Gu@physx@@U?$Less@USortedTriangle@Gu@physx@@@shdfnd@3@V?$ReflectionAllocator@USortedTriangle@Gu@physx@@@53@@shdfnd@physx@@YAXPEAUSortedTriangle@Gu@1@IAEBU?$Less@USortedTriangle@Gu@physx@@@01@AEBV?$ReflectionAllocator@USortedTriangle@Gu@physx@@@01@I@Z 0000000180110eb0 f i GuPCMContactConvexCommon.obj
 0001:00110340       ??_G?$SupportLocalImpl@VTriangleV@Gu@physx@@@Gu@physx@@UEAAPEAXI@Z 0000000180111340 f i GuPCMContactConvexCommon.obj
 0001:00110340       ??_E?$SupportLocalImpl@VTriangleV@Gu@physx@@@Gu@physx@@UEAAPEAXI@Z 0000000180111340 f i GuPCMContactConvexCommon.obj
 0001:00110370       ?allocate@?$ReflectionAllocator@USortedTriangle@Gu@physx@@@shdfnd@physx@@QEAAPEAX_KPEBDH@Z 0000000180111370 f i GuPCMContactConvexCommon.obj
 0001:00110410       ?doSupport@?$SupportLocalImpl@VTriangleV@Gu@physx@@@Gu@physx@@UEBA?AT__m128@@AEBT4@@Z 0000000180111410 f i GuPCMContactConvexCommon.obj
 0001:001104a0       ?doSupport@?$SupportLocalImpl@VTriangleV@Gu@physx@@@Gu@physx@@UEBAXAEBT__m128@@AEAT4@1@Z 00000001801114a0 f i GuPCMContactConvexCommon.obj
 0001:00110520       ?growAndPushBack@?$Array@USortedTriangle@Gu@physx@@V?$InlineAllocator@$0IAA@V?$ReflectionAllocator@USortedTriangle@Gu@physx@@@shdfnd@physx@@@shdfnd@3@@shdfnd@physx@@IEAAAEAUSortedTriangle@Gu@3@AEBU453@@Z 0000000180111520 f i GuPCMContactConvexCommon.obj
 0001:00110ba0       ?populateVerts@?$SupportLocalImpl@VTriangleV@Gu@physx@@@Gu@physx@@UEBAXPEBEIPEBVPxVec3@3@PEAT__m128@@@Z 0000000180111ba0 f i GuPCMContactConvexCommon.obj
 0001:00110be0       ?pcmContactConvexConvex@Gu@physx@@YA_NAEBVGeometryUnion@12@0AEBVPxTransform@2@1AEBUNarrowPhaseParams@12@AEAUCache@12@AEAVContactBuffer@12@PEAVRenderOutput@Cm@2@@Z 0000000180111be0 f   GuPCMContactConvexConvex.obj
 0001:00111d40       ??$gjkPenetration@U?$RelativeConvex@VConvexHullNoScaleV@Gu@physx@@@Gu@physx@@U?$LocalConvex@VConvexHullNoScaleV@Gu@physx@@@23@@Gu@physx@@YA?AW4GjkStatus@01@AEBU?$RelativeConvex@VConvexHullNoScaleV@Gu@physx@@@01@AEBU?$LocalConvex@VConvexHullNoScaleV@Gu@physx@@@01@AEBT__m128@@2_NPEIAE4AEAEAEAUGjkOutput@01@@Z 0000000180112d40 f i GuPCMContactConvexConvex.obj
 0001:001132f0       ??$gjkPenetration@U?$RelativeConvex@VConvexHullNoScaleV@Gu@physx@@@Gu@physx@@U?$LocalConvex@VConvexHullV@Gu@physx@@@23@@Gu@physx@@YA?AW4GjkStatus@01@AEBU?$RelativeConvex@VConvexHullNoScaleV@Gu@physx@@@01@AEBU?$LocalConvex@VConvexHullV@Gu@physx@@@01@AEBT__m128@@2_NPEIAE4AEAEAEAUGjkOutput@01@@Z 00000001801142f0 f i GuPCMContactConvexConvex.obj
 0001:00114930       ??$gjkPenetration@U?$RelativeConvex@VConvexHullV@Gu@physx@@@Gu@physx@@U?$LocalConvex@VConvexHullNoScaleV@Gu@physx@@@23@@Gu@physx@@YA?AW4GjkStatus@01@AEBU?$RelativeConvex@VConvexHullV@Gu@physx@@@01@AEBU?$LocalConvex@VConvexHullNoScaleV@Gu@physx@@@01@AEBT__m128@@2_NPEIAE4AEAEAEAUGjkOutput@01@@Z 0000000180115930 f i GuPCMContactConvexConvex.obj
 0001:00115f60       ??_G?$RelativeConvex@VConvexHullNoScaleV@Gu@physx@@@Gu@physx@@UEAAPEAXI@Z 0000000180116f60 f i GuPCMContactConvexConvex.obj
 0001:00115f60       ??_E?$RelativeConvex@VConvexHullNoScaleV@Gu@physx@@@Gu@physx@@UEAAPEAXI@Z 0000000180116f60 f i GuPCMContactConvexConvex.obj
 0001:00116990       ?getCenter@?$RelativeConvex@VConvexHullNoScaleV@Gu@physx@@@Gu@physx@@UEBA?AT__m128@@XZ 0000000180117990 f i GuPCMContactConvexConvex.obj
 0001:001169d0       ?getSweepMargin@?$RelativeConvex@VConvexHullNoScaleV@Gu@physx@@@Gu@physx@@UEBA?AT__m128@@XZ 00000001801179d0 f i GuPCMContactConvexConvex.obj
 0001:001169f0       ?support@?$RelativeConvex@VConvexHullNoScaleV@Gu@physx@@@Gu@physx@@UEBA?AT__m128@@AEBT4@@Z 00000001801179f0 f i GuPCMContactConvexConvex.obj
 0001:00116aa0       ?support@?$RelativeConvex@VConvexHullNoScaleV@Gu@physx@@@Gu@physx@@UEBA?AT__m128@@AEBT4@AEAH@Z 0000000180117aa0 f i GuPCMContactConvexConvex.obj
 0001:00116b60       ?supportPoint@?$RelativeConvex@VConvexHullNoScaleV@Gu@physx@@@Gu@physx@@UEBA?AT__m128@@H@Z 0000000180117b60 f i GuPCMContactConvexConvex.obj
 0001:00116bc0       ?pcmContactBoxHeightField@Gu@physx@@YA_NAEBVGeometryUnion@12@0AEBVPxTransform@2@1AEBUNarrowPhaseParams@12@AEAUCache@12@AEAVContactBuffer@12@PEAVRenderOutput@Cm@2@@Z 0000000180117bc0 f   GuPCMContactConvexHeightField.obj
 0001:00116e60       ?pcmContactConvexHeightField@Gu@physx@@YA_NAEBVGeometryUnion@12@0AEBVPxTransform@2@1AEBUNarrowPhaseParams@12@AEAUCache@12@AEAVContactBuffer@12@PEAVRenderOutput@Cm@2@@Z 0000000180117e60 f   GuPCMContactConvexHeightField.obj
 0001:00117550       ?PCMContactConvexHeightfield@Gu@physx@@YA_NAEBUPolygonalData@12@PEAVSupportLocal@12@AEBT__m128@@AEBVPxBounds3@2@AEBVPxHeightFieldGeometry@2@AEBVPxTransform@2@5MAEAVContactBuffer@12@AEBVFastVertex2ShapeScaling@Cm@2@_NAEAVMultiplePersistentContactManifold@12@PEAVRenderOutput@Cm@2@@Z 0000000180118550 f   GuPCMContactConvexHeightField.obj
 0001:00118000       ??_E?$PCMHeightfieldContactGenerationCallback@UPCMConvexVsHeightfieldContactGenerationCallback@physx@@@Gu@physx@@UEAAPEAXI@Z 0000000180119000 f i GuPCMContactConvexHeightField.obj
 0001:00118000       ??_G?$PCMHeightfieldContactGenerationCallback@UPCMConvexVsHeightfieldContactGenerationCallback@physx@@@Gu@physx@@UEAAPEAXI@Z 0000000180119000 f i GuPCMContactConvexHeightField.obj
 0001:00118030       ??_GPCMConvexVsHeightfieldContactGenerationCallback@physx@@UEAAPEAXI@Z 0000000180119030 f i GuPCMContactConvexHeightField.obj
 0001:00118030       ??_EPCMConvexVsHeightfieldContactGenerationCallback@physx@@UEAAPEAXI@Z 0000000180119030 f i GuPCMContactConvexHeightField.obj
 0001:00118060       ?onEvent@?$PCMHeightfieldContactGenerationCallback@UPCMConvexVsHeightfieldContactGenerationCallback@physx@@@Gu@physx@@UEAA_NIPEAI@Z 0000000180119060 f i GuPCMContactConvexHeightField.obj
 0001:00118620       ?pcmContactBoxMesh@Gu@physx@@YA_NAEBVGeometryUnion@12@0AEBVPxTransform@2@1AEBUNarrowPhaseParams@12@AEAUCache@12@AEAVContactBuffer@12@PEAVRenderOutput@Cm@2@@Z 0000000180119620 f   GuPCMContactConvexMesh.obj
 0001:00118960       ?pcmContactConvexMesh@Gu@physx@@YA_NAEBVGeometryUnion@12@0AEBVPxTransform@2@1AEBUNarrowPhaseParams@12@AEAUCache@12@AEAVContactBuffer@12@PEAVRenderOutput@Cm@2@@Z 0000000180119960 f   GuPCMContactConvexMesh.obj
 0001:00119130       ?PCMContactConvexMesh@Gu@physx@@YA_NAEBUPolygonalData@12@PEAVSupportLocal@12@AEBT__m128@@AEBVPxBounds3@2@AEBUPxTriangleMeshGeometryLL@2@AEBVPxTransform@2@5MAEAVContactBuffer@12@AEBVFastVertex2ShapeScaling@Cm@2@7_N8AEAVMultiplePersistentContactManifold@12@PEAVRenderOutput@Cm@2@@Z 000000018011a130 f   GuPCMContactConvexMesh.obj
 0001:00119ce0       ??$processTriangleCache@$0BA@@PCMConvexVsMeshContactGenerationCallback@physx@@QEAAXAEAU?$TriangleCache@$0BA@@Gu@1@@Z 000000018011ace0 f i GuPCMContactConvexMesh.obj
 0001:00119d70       ??_G?$PCMMeshContactGenerationCallback@UPCMConvexVsMeshContactGenerationCallback@physx@@@Gu@physx@@UEAAPEAXI@Z 000000018011ad70 f i GuPCMContactConvexMesh.obj
 0001:00119d70       ??_E?$PCMMeshContactGenerationCallback@UPCMConvexVsMeshContactGenerationCallback@physx@@@Gu@physx@@UEAAPEAXI@Z 000000018011ad70 f i GuPCMContactConvexMesh.obj
 0001:00119da0       ??_GPCMConvexVsMeshContactGenerationCallback@physx@@UEAAPEAXI@Z 000000018011ada0 f i GuPCMContactConvexMesh.obj
 0001:00119da0       ??_EPCMConvexVsMeshContactGenerationCallback@physx@@UEAAPEAXI@Z 000000018011ada0 f i GuPCMContactConvexMesh.obj
 0001:00119dd0       ?processHit@?$PCMMeshContactGenerationCallback@UPCMConvexVsMeshContactGenerationCallback@physx@@@Gu@physx@@UEAA_NAEBUPxRaycastHit@3@AEBVPxVec3@3@11AEAMPEBI@Z 000000018011add0 f i GuPCMContactConvexMesh.obj
 0001:0011a200       ?generateFullContactManifold@Gu@physx@@YA_NAEAUPolygonalData@12@0PEAVSupportLocal@12@1PEAVPersistentContact@12@AEAIAEBT__m128@@444MM_NPEAVRenderOutput@Cm@2@M@Z 000000018011b200 f   GuPCMContactGenBoxConvex.obj
 0001:0011ba50       ?addGJKEPAContacts@Gu@physx@@YA_NPEBUGjkConvex@12@0AEBVPsMatTransformV@aos@shdfnd@2@W4GjkStatus@12@PEAVPersistentContact@12@T__m128@@4AEAUGjkOutput@12@AEAVPersistentContactManifold@12@@Z 000000018011ca50 f   GuPCMContactGenBoxConvex.obj
 0001:0011bc60       ?computeMTD@Gu@physx@@YA_NAEAUPolygonalData@12@0PEAVSupportLocal@12@1AEAT__m128@@2@Z 000000018011cc60 f   GuPCMContactGenBoxConvex.obj
 0001:0011c2c0       ?buildPartialHull@Gu@physx@@YAXAEBUPolygonalData@12@PEAVSupportLocal@12@AEAVSeparatingAxes@12@AEBT__m128@@3@Z 000000018011d2c0 f   GuPCMContactGenBoxConvex.obj
 0001:0011c580       ?generatedContacts@Gu@physx@@YAXAEAUPolygonalData@12@0AEBUHullPolygonData@12@1PEAVSupportLocal@12@2AEBVPsMatTransformV@aos@shdfnd@2@PEAVPersistentContact@12@AEAIAEBT__m128@@PEAVRenderOutput@Cm@2@@Z 000000018011d580 f   GuPCMContactGenBoxConvex.obj
 0001:0011dc80       ?generateFullContactManifold@Gu@physx@@YA_NAEBVCapsuleV@12@AEAUPolygonalData@12@PEAVSupportLocal@12@AEBVPsMatTransformV@aos@shdfnd@2@PEAVPersistentContact@12@AEAIAEBT__m128@@AEAT__m128@@6M_NM@Z 000000018011ec80 f   GuPCMContactGenSphereCapsule.obj
 0001:0011e5a0       ?generateCapsuleBoxFullContactManifold@Gu@physx@@YA_NAEBVCapsuleV@12@AEAUPolygonalData@12@PEAVSupportLocal@12@AEBVPsMatTransformV@aos@shdfnd@2@PEAVPersistentContact@12@AEAIAEBT__m128@@AEAT__m128@@6M_NMPEAVRenderOutput@Cm@2@@Z 000000018011f5a0 f   GuPCMContactGenSphereCapsule.obj
 0001:0011ee30       ?computeMTD@Gu@physx@@YA_NAEBVCapsuleV@12@AEAUPolygonalData@12@PEAVSupportLocal@12@AEAT__m128@@3@Z 000000018011fe30 f   GuPCMContactGenSphereCapsule.obj
 0001:0011ef20       ?generateSphereFullContactManifold@Gu@physx@@YA_NAEBVCapsuleV@12@AEAUPolygonalData@12@PEAVSupportLocal@12@PEAVPersistentContact@12@AEAIAEBT__m128@@AEAT7@_N@Z 000000018011ff20 f   GuPCMContactGenSphereCapsule.obj
 0001:0011f3a0       ?generatedCapsuleBoxFaceContacts@Gu@physx@@YAXAEBVCapsuleV@12@AEAUPolygonalData@12@AEBUHullPolygonData@12@PEAVSupportLocal@12@AEBVPsMatTransformV@aos@shdfnd@2@PEAVPersistentContact@12@AEAIAEBT__m128@@7@Z 00000001801203a0 f   GuPCMContactGenSphereCapsule.obj
 0001:0011fb50       ?generatedContactsEEContacts@Gu@physx@@YAXAEBVCapsuleV@12@AEAUPolygonalData@12@AEBUHullPolygonData@12@PEAVSupportLocal@12@AEBVPsMatTransformV@aos@shdfnd@2@PEAVPersistentContact@12@AEAIAEBT__m128@@7@Z 0000000180120b50 f   GuPCMContactGenSphereCapsule.obj
 0001:00120810       ?pcmContactPlaneBox@Gu@physx@@YA_NAEBVGeometryUnion@12@0AEBVPxTransform@2@1AEBUNarrowPhaseParams@12@AEAUCache@12@AEAVContactBuffer@12@PEAVRenderOutput@Cm@2@@Z 0000000180121810 f   GuPCMContactPlaneBox.obj
 0001:00121420       ?pcmContactPlaneCapsule@Gu@physx@@YA_NAEBVGeometryUnion@12@0AEBVPxTransform@2@1AEBUNarrowPhaseParams@12@AEAUCache@12@AEAVContactBuffer@12@PEAVRenderOutput@Cm@2@@Z 0000000180122420 f   GuPCMContactPlaneCapsule.obj
 0001:00121be0       ?pcmContactPlaneConvex@Gu@physx@@YA_NAEBVGeometryUnion@12@0AEBVPxTransform@2@1AEBUNarrowPhaseParams@12@AEAUCache@12@AEAVContactBuffer@12@PEAVRenderOutput@Cm@2@@Z 0000000180122be0 f   GuPCMContactPlaneConvex.obj
 0001:00122570       ?pcmContactSphereBox@Gu@physx@@YA_NAEBVGeometryUnion@12@0AEBVPxTransform@2@1AEBUNarrowPhaseParams@12@AEAUCache@12@AEAVContactBuffer@12@PEAVRenderOutput@Cm@2@@Z 0000000180123570 f   GuPCMContactSphereBox.obj
 0001:001229c0       ?pcmContactSphereCapsule@Gu@physx@@YA_NAEBVGeometryUnion@12@0AEBVPxTransform@2@1AEBUNarrowPhaseParams@12@AEAUCache@12@AEAVContactBuffer@12@PEAVRenderOutput@Cm@2@@Z 00000001801239c0 f   GuPCMContactSphereCapsule.obj
 0001:00122c00       ?pcmContactSphereConvex@Gu@physx@@YA_NAEBVGeometryUnion@12@0AEBVPxTransform@2@1AEBUNarrowPhaseParams@12@AEAUCache@12@AEAVContactBuffer@12@PEAVRenderOutput@Cm@2@@Z 0000000180123c00 f   GuPCMContactSphereConvex.obj
 0001:00123b50       ?pcmContactSphereHeightField@Gu@physx@@YA_NAEBVGeometryUnion@12@0AEBVPxTransform@2@1AEBUNarrowPhaseParams@12@AEAUCache@12@AEAVContactBuffer@12@PEAVRenderOutput@Cm@2@@Z 0000000180124b50 f   GuPCMContactSphereHeightField.obj
 0001:001245f0       ??1?$Array@USortedTriangle@Gu@physx@@V?$InlineAllocator@$0IAA@V?$ReflectionAllocator@USortedTriangle@Gu@physx@@@shdfnd@physx@@@shdfnd@3@@shdfnd@physx@@QEAA@XZ 00000001801255f0 f i GuPCMContactSphereHeightField.obj
 0001:00124660       ??_E?$PCMHeightfieldContactGenerationCallback@UPCMSphereVsHeightfieldContactGenerationCallback@physx@@@Gu@physx@@UEAAPEAXI@Z 0000000180125660 f i GuPCMContactSphereHeightField.obj
 0001:00124660       ??_G?$PCMHeightfieldContactGenerationCallback@UPCMSphereVsHeightfieldContactGenerationCallback@physx@@@Gu@physx@@UEAAPEAXI@Z 0000000180125660 f i GuPCMContactSphereHeightField.obj
 0001:00124690       ??_EPCMSphereVsHeightfieldContactGenerationCallback@physx@@UEAAPEAXI@Z 0000000180125690 f i GuPCMContactSphereHeightField.obj
 0001:00124690       ??_GPCMSphereVsHeightfieldContactGenerationCallback@physx@@UEAAPEAXI@Z 0000000180125690 f i GuPCMContactSphereHeightField.obj
 0001:001246e0       ?onEvent@?$PCMHeightfieldContactGenerationCallback@UPCMSphereVsHeightfieldContactGenerationCallback@physx@@@Gu@physx@@UEAA_NIPEAI@Z 00000001801256e0 f i GuPCMContactSphereHeightField.obj
 0001:00124ca0       ?pcmContactSphereMesh@Gu@physx@@YA_NAEBVGeometryUnion@12@0AEBVPxTransform@2@1AEBUNarrowPhaseParams@12@AEAUCache@12@AEAVContactBuffer@12@PEAVRenderOutput@Cm@2@@Z 0000000180125ca0 f   GuPCMContactSphereMesh.obj
 0001:00125890       ??$processTriangleCache@$0BA@@PCMSphereVsMeshContactGenerationCallback@physx@@QEAAXAEAU?$TriangleCache@$0BA@@Gu@1@@Z 0000000180126890 f i GuPCMContactSphereMesh.obj
 0001:00125920       ??_E?$PCMMeshContactGenerationCallback@UPCMSphereVsMeshContactGenerationCallback@physx@@@Gu@physx@@UEAAPEAXI@Z 0000000180126920 f i GuPCMContactSphereMesh.obj
 0001:00125920       ??_G?$PCMMeshContactGenerationCallback@UPCMSphereVsMeshContactGenerationCallback@physx@@@Gu@physx@@UEAAPEAXI@Z 0000000180126920 f i GuPCMContactSphereMesh.obj
 0001:00125950       ??_EPCMSphereVsMeshContactGenerationCallback@physx@@UEAAPEAXI@Z 0000000180126950 f i GuPCMContactSphereMesh.obj
 0001:00125950       ??_GPCMSphereVsMeshContactGenerationCallback@physx@@UEAAPEAXI@Z 0000000180126950 f i GuPCMContactSphereMesh.obj
 0001:001259a0       ?processHit@?$PCMMeshContactGenerationCallback@UPCMSphereVsMeshContactGenerationCallback@physx@@@Gu@physx@@UEAA_NAEBUPxRaycastHit@3@AEBVPxVec3@3@11AEAMPEBI@Z 00000001801269a0 f i GuPCMContactSphereMesh.obj
 0001:00125d60       ?pcmContactSpherePlane@Gu@physx@@YA_NAEBVGeometryUnion@12@0AEBVPxTransform@2@1AEBUNarrowPhaseParams@12@AEAUCache@12@AEAVContactBuffer@12@PEAVRenderOutput@Cm@2@@Z 0000000180126d60 f   GuPCMContactSpherePlane.obj
 0001:00125ef0       ?pcmContactSphereSphere@Gu@physx@@YA_NAEBVGeometryUnion@12@0AEBVPxTransform@2@1AEBUNarrowPhaseParams@12@AEAUCache@12@AEAVContactBuffer@12@PEAVRenderOutput@Cm@2@@Z 0000000180126ef0 f   GuPCMContactSphereSphere.obj
 0001:00125fe0       ??0PCMPolygonalBox@Gu@physx@@QEAA@AEBVPxVec3@2@@Z 0000000180126fe0 f   GuPCMShapeConvex.obj
 0001:001261b0       ?getPolygonalData@PCMPolygonalBox@Gu@physx@@QEBAXPEIAUPolygonalData@23@@Z 00000001801271b0 f   GuPCMShapeConvex.obj
 0001:00126200       ?getPCMConvexData@Gu@physx@@YAXAEBVConvexHullV@12@_NAEAUPolygonalData@12@@Z 0000000180127200 f   GuPCMShapeConvex.obj
 0001:00126360       ?getPCMConvexData@Gu@physx@@YA_NAEBVGeometryUnion@12@AEAVFastVertex2ShapeScaling@Cm@2@AEAVPxBounds3@2@AEAUPolygonalData@12@@Z 0000000180127360 f   GuPCMShapeConvex.obj
 0001:00126720       ?generateTriangleFullContactManifold@PCMConvexVsMeshContactGeneration@Gu@physx@@QEAA_NAEAVTriangleV@23@IPEBIEAEBUPolygonalData@23@PEAV?$SupportLocalImpl@VTriangleV@Gu@physx@@@23@PEAVSupportLocal@23@PEAVMeshPersistentContact@23@AEAIAEBT__m128@@AEAT9@@Z 0000000180127720 f   GuPCMTriangleContactGen.obj
 0001:00127040       ?generatePolyDataContactManifold@PCMConvexVsMeshContactGeneration@Gu@physx@@QEAA_NAEAVTriangleV@23@IIEPEAVMeshPersistentContact@23@AEAIAEBT__m128@@AEAT6@@Z 0000000180128040 f   GuPCMTriangleContactGen.obj
 0001:00127170       ?generateTriangleFullContactManifold@PCMConvexVsMeshContactGeneration@Gu@physx@@SA_NAEAVTriangleV@23@IEAEBUPolygonalData@23@PEAV?$SupportLocalImpl@VTriangleV@Gu@physx@@@23@PEAVSupportLocal@23@PEAVMeshPersistentContact@23@AEAIAEBT__m128@@AEAT9@PEAVRenderOutput@Cm@3@@Z 0000000180128170 f   GuPCMTriangleContactGen.obj
 0001:001298a0       ?findRotationMatrixFromZAxis@Gu@physx@@YA?AUMat33V@aos@shdfnd@2@AEBT__m128@@@Z 000000018012a8a0 f   GuPersistentContactManifold.obj
 0001:00129b70       ?replaceManifoldPoint@PersistentContactManifold@Gu@physx@@QEAA_NAEBT__m128@@000@Z 000000018012ab70 f   GuPersistentContactManifold.obj
 0001:00129c40       ?addManifoldPoint@PersistentContactManifold@Gu@physx@@QEAAIAEBT__m128@@000@Z 000000018012ac40 f   GuPersistentContactManifold.obj
 0001:00129d00       ?addManifoldPoint2@PersistentContactManifold@Gu@physx@@QEAAIAEBT__m128@@000@Z 000000018012ad00 f   GuPersistentContactManifold.obj
 0001:00129e30       ?addBatchManifoldContactsCluster@PersistentContactManifold@Gu@physx@@QEAAXPEBVPersistentContact@23@I@Z 000000018012ae30 f   GuPersistentContactManifold.obj
 0001:00129eb0       ?addBatchManifoldContacts2@PersistentContactManifold@Gu@physx@@QEAAXPEBVPersistentContact@23@I@Z 000000018012aeb0 f   GuPersistentContactManifold.obj
 0001:00129f30       ?addBatchManifoldContacts@PersistentContactManifold@Gu@physx@@QEAAXPEBVPersistentContact@23@IM@Z 000000018012af30 f   GuPersistentContactManifold.obj
 0001:00129fb0       ?reduceBatchContactsCluster@PersistentContactManifold@Gu@physx@@QEAAXPEBVPersistentContact@23@I@Z 000000018012afb0 f   GuPersistentContactManifold.obj
 0001:0012a450       ?reduceBatchContacts2@PersistentContactManifold@Gu@physx@@QEAAXPEBVPersistentContact@23@I@Z 000000018012b450 f   GuPersistentContactManifold.obj
 0001:0012a650       ?reduceBatchContacts@PersistentContactManifold@Gu@physx@@QEAAXPEBVPersistentContact@23@IM@Z 000000018012b650 f   GuPersistentContactManifold.obj
 0001:0012ab20       ?reduceContactsForPCM@PersistentContactManifold@Gu@physx@@QEAAIAEBT__m128@@00@Z 000000018012bb20 f   GuPersistentContactManifold.obj
 0001:0012b0c0       ?reduceContactSegment@PersistentContactManifold@Gu@physx@@QEAAIAEBT__m128@@00@Z 000000018012c0c0 f   GuPersistentContactManifold.obj
 0001:0012b160       ?addManifoldContactsToContactBuffer@PersistentContactManifold@Gu@physx@@QEAAXAEAVContactBuffer@23@AEBT__m128@@AEBVPsMatTransformV@aos@shdfnd@3@@Z 000000018012c160 f   GuPersistentContactManifold.obj
 0001:0012b210       ?addManifoldContactsToContactBuffer@PersistentContactManifold@Gu@physx@@QEAAXAEAVContactBuffer@23@AEBT__m128@@AEBVPsTransformV@aos@shdfnd@3@1@Z 000000018012c210 f   GuPersistentContactManifold.obj
 0001:0012b370       ?addManifoldContactsToContactBuffer@PersistentContactManifold@Gu@physx@@QEAAXAEAVContactBuffer@23@AEBT__m128@@1AEBVPsTransformV@aos@shdfnd@3@11@Z 000000018012c370 f   GuPersistentContactManifold.obj
 0001:0012b510       ?recordWarmStart@PersistentContactManifold@Gu@physx@@QEAAXPEAE0AEAE@Z 000000018012c510 f   GuPersistentContactManifold.obj
 0001:0012b560       ?setWarmStart@PersistentContactManifold@Gu@physx@@QEAAXPEBE0E@Z 000000018012c560 f   GuPersistentContactManifold.obj
 0001:0012b5b0       ?drawManifold@PersistentContactManifold@Gu@physx@@QEAAXAEAVRenderOutput@Cm@3@AEBVPsTransformV@aos@shdfnd@3@1@Z 000000018012c5b0 f   GuPersistentContactManifold.obj
 0001:0012b630       ?drawManifold@PersistentContactManifold@Gu@physx@@QEAAXAEAVRenderOutput@Cm@3@AEBVPsTransformV@aos@shdfnd@3@1AEBT__m128@@@Z 000000018012c630 f   GuPersistentContactManifold.obj
 0001:0012b6d0       ?drawManifold@PersistentContactManifold@Gu@physx@@QEAAXAEBVPersistentContact@23@AEAVRenderOutput@Cm@3@AEBVPsTransformV@aos@shdfnd@3@2@Z 000000018012c6d0 f   GuPersistentContactManifold.obj
 0001:0012b700       ?drawPoint@PersistentContactManifold@Gu@physx@@SAXAEAVRenderOutput@Cm@3@AEBT__m128@@MI@Z 000000018012c700 f   GuPersistentContactManifold.obj
 0001:0012b8e0       ?drawLine@PersistentContactManifold@Gu@physx@@SAXAEAVRenderOutput@Cm@3@AEBT__m128@@1I@Z 000000018012c8e0 f   GuPersistentContactManifold.obj
 0001:0012b9a0       ?drawTriangle@PersistentContactManifold@Gu@physx@@SAXAEAVRenderOutput@Cm@3@AEBT__m128@@11I@Z 000000018012c9a0 f   GuPersistentContactManifold.obj
 0001:0012ba90       ?drawPolygon@PersistentContactManifold@Gu@physx@@SAXAEAVRenderOutput@Cm@3@AEBVPsTransformV@aos@shdfnd@3@PEAT__m128@@II@Z 000000018012ca90 f   GuPersistentContactManifold.obj
 0001:0012bd10       ?drawPolygon@PersistentContactManifold@Gu@physx@@SAXAEAVRenderOutput@Cm@3@AEBVPsMatTransformV@aos@shdfnd@3@PEAT__m128@@II@Z 000000018012cd10 f   GuPersistentContactManifold.obj
 0001:0012bed0       ?reduceBatchContactsConvex@SinglePersistentContactManifold@Gu@physx@@QEAA?AT__m128@@PEBVMeshPersistentContact@23@IAEAUPCMContactPatch@23@@Z 000000018012ced0 f   GuPersistentContactManifold.obj
 0001:0012c4d0       ?reduceBatchContactsSphere@SinglePersistentContactManifold@Gu@physx@@QEAA?AT__m128@@PEBVMeshPersistentContact@23@IAEAUPCMContactPatch@23@@Z 000000018012d4d0 f   GuPersistentContactManifold.obj
 0001:0012c590       ?reduceBatchContactsCapsule@SinglePersistentContactManifold@Gu@physx@@QEAA?AT__m128@@PEBVMeshPersistentContact@23@IAEAUPCMContactPatch@23@@Z 000000018012d590 f   GuPersistentContactManifold.obj
 0001:0012c820       ?addBatchManifoldContactsConvex@SinglePersistentContactManifold@Gu@physx@@QEAA?AT__m128@@PEBVMeshPersistentContact@23@IAEAUPCMContactPatch@23@AEBT4@@Z 000000018012d820 f   GuPersistentContactManifold.obj
 0001:0012c8f0       ?addBatchManifoldContactsSphere@SinglePersistentContactManifold@Gu@physx@@QEAA?AT__m128@@PEBVMeshPersistentContact@23@IAEAUPCMContactPatch@23@AEBT4@@Z 000000018012d8f0 f   GuPersistentContactManifold.obj
 0001:0012c9c0       ?addBatchManifoldContactsCapsule@SinglePersistentContactManifold@Gu@physx@@QEAA?AT__m128@@PEBVMeshPersistentContact@23@IAEAUPCMContactPatch@23@AEBT4@@Z 000000018012d9c0 f   GuPersistentContactManifold.obj
 0001:0012ca90       ?reduceContacts@SinglePersistentContactManifold@Gu@physx@@SAIPEAVMeshPersistentContact@23@I@Z 000000018012da90 f   GuPersistentContactManifold.obj
 0001:0012cfa0       ?refreshContactPoints@SinglePersistentContactManifold@Gu@physx@@QEAA?AT__m128@@AEBVPsMatTransformV@aos@shdfnd@3@AEBT4@1@Z 000000018012dfa0 f   GuPersistentContactManifold.obj
 0001:0012d0f0       ?drawManifold@SinglePersistentContactManifold@Gu@physx@@QEAAXAEAVRenderOutput@Cm@3@AEBVPsTransformV@aos@shdfnd@3@1@Z 000000018012e0f0 f   GuPersistentContactManifold.obj
 0001:0012d180       ?addManifoldContactPoints@MultiplePersistentContactManifold@Gu@physx@@QEAAXPEAVMeshPersistentContact@23@IPEAPEAUPCMContactPatch@23@IAEBT__m128@@2E@Z 000000018012e180 f   GuPersistentContactManifold.obj
 0001:0012d5a0       ?addManifoldContactsToContactBuffer@MultiplePersistentContactManifold@Gu@physx@@QEAA_NAEAVContactBuffer@23@AEBVPsTransformV@aos@shdfnd@3@@Z 000000018012e5a0 f   GuPersistentContactManifold.obj
 0001:0012d810       ?addManifoldContactsToContactBuffer@MultiplePersistentContactManifold@Gu@physx@@QEAA_NAEAVContactBuffer@23@AEBVPsTransformV@aos@shdfnd@3@1AEBT__m128@@@Z 000000018012e810 f   GuPersistentContactManifold.obj
 0001:0012dad0       ?drawManifold@MultiplePersistentContactManifold@Gu@physx@@QEAAXAEAVRenderOutput@Cm@3@AEBVPsTransformV@aos@shdfnd@3@1@Z 000000018012ead0 f   GuPersistentContactManifold.obj
 0001:0012db90       ?fromBuffer@MultiplePersistentContactManifold@Gu@physx@@QEAAXPEIAE@Z 000000018012eb90 f   GuPersistentContactManifold.obj
 0001:0012dce0       ?drawLine@MultiplePersistentContactManifold@Gu@physx@@SAXAEAVRenderOutput@Cm@3@AEBT__m128@@1I@Z 000000018012ece0 f   GuPersistentContactManifold.obj
 0001:0012dda0       ?drawLine@MultiplePersistentContactManifold@Gu@physx@@SAXAEAVRenderOutput@Cm@3@VPxVec3@3@1I@Z 000000018012eda0 f   GuPersistentContactManifold.obj
 0001:0012de60       ?drawPoint@MultiplePersistentContactManifold@Gu@physx@@SAXAEAVRenderOutput@Cm@3@AEBT__m128@@MI@Z 000000018012ee60 f   GuPersistentContactManifold.obj
 0001:0012e040       ?drawPolygon@MultiplePersistentContactManifold@Gu@physx@@SAXAEAVRenderOutput@Cm@3@AEBVPsTransformV@aos@shdfnd@3@PEAT__m128@@II@Z 000000018012f040 f   GuPersistentContactManifold.obj
 0001:0012e2c0       ?addManifoldPoint@Gu@physx@@YAXPEAVPersistentContact@12@AEAVPersistentContactManifold@12@AEAUGjkOutput@12@AEBVPsMatTransformV@aos@shdfnd@2@T__m128@@@Z 000000018012f2c0 f   GuPersistentContactManifold.obj
 0001:0012f770       ?sweepBoxBox@Gu@physx@@YA_NAEBVBox@12@0AEBVPxVec3@2@MV?$PxFlags@W4Enum@PxHitFlag@physx@@G@2@AEAUPxSweepHit@2@@Z 0000000180130770 f   GuSweepBoxBox.obj
 0001:00130d60       ?sweepBoxSphere@Gu@physx@@YA_NAEBVBox@12@MAEBVPxVec3@2@1MAEAMAEAV42@V?$PxFlags@W4Enum@PxHitFlag@physx@@G@2@@Z 0000000180131d60 f   GuSweepBoxSphere.obj
 0001:00131820       ?sweepBoxTriangle@Gu@physx@@YA_NAEBVPxTriangle@2@AEBVPxBounds3@2@AEBVPxVec3@2@2AEAV52@3AEAM_N@Z 0000000180132820 f   GuSweepBoxTriangle_FeatureBased.obj
 0001:001330c0       ?triBoxSweepTestBoxSpace@Gu@physx@@YAHAEBVPxTriangle@2@AEBVPxVec3@2@11MAEAM_N@Z 00000001801340c0 f   GuSweepBoxTriangle_SAT.obj
 0001:00133a00       ?sweepCapsuleBox@Gu@physx@@YA_NAEBVCapsule@12@AEBVPxTransform@2@AEBVPxVec3@2@2MAEAV52@AEAM3V?$PxFlags@W4Enum@PxHitFlag@physx@@G@2@@Z 0000000180134a00 f   GuSweepCapsuleBox.obj
 0001:00133d70       ??0PxTriangle@physx@@QEAA@XZ 0000000180134d70 f i GuSweepCapsuleBox.obj
 0001:00133d80       ??1PxTriangle@physx@@QEAA@XZ 0000000180134d80 f i GuSweepCapsuleBox.obj
 0001:00134d60       ?sweepCapsuleCapsule@Gu@physx@@YA_NAEBVCapsule@12@0AEBVPxVec3@2@MAEAMAEAV42@3IAEAG@Z 0000000180135d60 f   GuSweepCapsuleCapsule.obj
 0001:00135b30       ??0Capsule@Gu@physx@@QEAA@XZ 0000000180136b30 f i GuSweepCapsuleCapsule.obj
 0001:00135b40       ??1Capsule@Gu@physx@@QEAA@XZ 0000000180136b40 f i GuSweepCapsuleCapsule.obj
 0001:00135b50       ?distancePointSegmentSquared@Gu@physx@@YAMAEBVSegment@12@AEBVPxVec3@2@PEAM@Z 0000000180136b50 f i GuSweepCapsuleCapsule.obj
 0001:00135ed0       ?sweepCapsuleTriangles_Precise@Gu@physx@@YA_NIPEIBVPxTriangle@2@AEBVCapsule@12@AEBVPxVec3@2@MPEIBIAEAUPxSweepHit@2@AEAV52@V?$PxFlags@W4Enum@PxHitFlag@physx@@G@2@_NPEBVBoxPadded@12@@Z 0000000180136ed0 f   GuSweepCapsuleTriangle.obj
 0001:00137f60       ?sweepSphereCapsule@Gu@physx@@YA_NAEBVSphere@12@AEBVCapsule@12@AEBVPxVec3@2@MAEAMAEAV52@4V?$PxFlags@W4Enum@PxHitFlag@physx@@G@2@@Z 0000000180138f60 f   GuSweepSphereCapsule.obj
 0001:00138600       ?sweepSphereSphere@Gu@physx@@YA_NAEBVPxVec3@2@M0M0AEAMAEAV32@@Z 0000000180139600 f   GuSweepSphereSphere.obj
 0001:00138890       ?sweepSphereVSTri@Gu@physx@@YA_NPEIBVPxVec3@2@AEBV32@1M1AEAMAEA_N_N@Z 0000000180139890 f   GuSweepSphereTriangle.obj
 0001:00139780       ?sweepSphereVSQuad@Gu@physx@@YA_NPEIBVPxVec3@2@AEBV32@1M1AEAM@Z 000000018013a780 f   GuSweepSphereTriangle.obj
 0001:0013ac10       ?sweepSphereTriangles@Gu@physx@@YA_NIPEIBVPxTriangle@2@AEBVPxVec3@2@M1MPEIBIAEAUPxSweepHit@2@AEAV42@_N555@Z 000000018013bc10 f   GuSweepSphereTriangle.obj
 0001:0013b4c0       ?computeSphereTriImpactData@Gu@physx@@YAXAEAVPxVec3@2@0AEBV32@1MAEBVPxTriangle@2@@Z 000000018013c4c0 f   GuSweepTriangleUtils.obj
 0001:0013b760       ?computeBoxTriImpactData@Gu@physx@@YAXAEAVPxVec3@2@0AEBV32@1AEBVPxTriangle@2@M@Z 000000018013c760 f   GuSweepTriangleUtils.obj
 0001:0013b9f0       ?computeEdgeEdgeNormal@Gu@physx@@YAXAEAVPxVec3@2@AEBV32@1111M@Z 000000018013c9f0 f   GuSweepTriangleUtils.obj
 0001:0013bcb0       ??$gjk@U?$LocalConvex@VTriangleV@Gu@physx@@@Gu@physx@@U?$LocalConvex@VBoxV@Gu@physx@@@23@@Gu@physx@@YA?AW4GjkStatus@01@AEBU?$LocalConvex@VTriangleV@Gu@physx@@@01@AEBU?$LocalConvex@VBoxV@Gu@physx@@@01@AEBT__m128@@2AEAT5@333@Z 000000018013ccb0 f i GuSweepTriangleUtils.obj
 0001:0013cb3c       __imp_load_PxGetFoundation 000000018013db3c f   PhysXFoundation_64:PhysXFoundation_64.dll
 0001:0013cb48       PxGetFoundation            000000018013db48 f   PhysXFoundation_64:PhysXFoundation_64.dll
 0001:0013cb4e       __tailMerge_physxfoundation_64_dll 000000018013db4e     PhysXFoundation_64:PhysXFoundation_64.dll
 0001:0013cbc7       __imp_load_?getAllocator@shdfnd@physx@@YAAEAVPxAllocatorCallback@2@XZ 000000018013dbc7 f   PhysXFoundation_64:PhysXFoundation_64.dll
 0001:0013cbd3       ?getAllocator@shdfnd@physx@@YAAEAVPxAllocatorCallback@2@XZ 000000018013dbd3 f   PhysXFoundation_64:PhysXFoundation_64.dll
 0001:0013cbd9       __imp_load_?getInstance@Foundation@shdfnd@physx@@SAAEAV123@XZ 000000018013dbd9 f   PhysXFoundation_64:PhysXFoundation_64.dll
 0001:0013cbe5       ?getInstance@Foundation@shdfnd@physx@@SAAEAV123@XZ 000000018013dbe5 f   PhysXFoundation_64:PhysXFoundation_64.dll
 0001:0013cbeb       __imp_load_?error@Foundation@shdfnd@physx@@QEAAXW4Enum@PxErrorCode@3@PEBDH1ZZ 000000018013dbeb f   PhysXFoundation_64:PhysXFoundation_64.dll
 0001:0013cbf7       ?error@Foundation@shdfnd@physx@@QEAAXW4Enum@PxErrorCode@3@PEBDH1ZZ 000000018013dbf7 f   PhysXFoundation_64:PhysXFoundation_64.dll
 0001:0013cbfd       __imp_load_?PxShortestRotation@physx@@YA?AVPxQuat@1@AEBVPxVec3@1@0@Z 000000018013dbfd f   PhysXFoundation_64:PhysXFoundation_64.dll
 0001:0013cc09       ?PxShortestRotation@physx@@YA?AVPxQuat@1@AEBVPxVec3@1@0@Z 000000018013dc09 f   PhysXFoundation_64:PhysXFoundation_64.dll
 0001:0013cc0f       __imp_load_?vsnprintf@shdfnd@physx@@YAHPEAD_KPEBD0@Z 000000018013dc0f f   PhysXFoundation_64:PhysXFoundation_64.dll
 0001:0013cc1b       ?vsnprintf@shdfnd@physx@@YAHPEAD_KPEBD0@Z 000000018013dc1b f   PhysXFoundation_64:PhysXFoundation_64.dll
 0001:0013cc21       __imp_load_??0MutexImpl@shdfnd@physx@@QEAA@XZ 000000018013dc21 f   PhysXFoundation_64:PhysXFoundation_64.dll
 0001:0013cc2d       ??0MutexImpl@shdfnd@physx@@QEAA@XZ 000000018013dc2d f   PhysXFoundation_64:PhysXFoundation_64.dll
 0001:0013cc33       __imp_load_??1MutexImpl@shdfnd@physx@@QEAA@XZ 000000018013dc33 f   PhysXFoundation_64:PhysXFoundation_64.dll
 0001:0013cc3f       ??1MutexImpl@shdfnd@physx@@QEAA@XZ 000000018013dc3f f   PhysXFoundation_64:PhysXFoundation_64.dll
 0001:0013cc45       __imp_load_?lock@MutexImpl@shdfnd@physx@@QEAAXXZ 000000018013dc45 f   PhysXFoundation_64:PhysXFoundation_64.dll
 0001:0013cc51       ?lock@MutexImpl@shdfnd@physx@@QEAAXXZ 000000018013dc51 f   PhysXFoundation_64:PhysXFoundation_64.dll
 0001:0013cc57       __imp_load_?unlock@MutexImpl@shdfnd@physx@@QEAAXXZ 000000018013dc57 f   PhysXFoundation_64:PhysXFoundation_64.dll
 0001:0013cc63       ?unlock@MutexImpl@shdfnd@physx@@QEAAXXZ 000000018013dc63 f   PhysXFoundation_64:PhysXFoundation_64.dll
 0001:0013cc69       __imp_load_?getSize@MutexImpl@shdfnd@physx@@SAIXZ 000000018013dc69 f   PhysXFoundation_64:PhysXFoundation_64.dll
 0001:0013cc75       ?getSize@MutexImpl@shdfnd@physx@@SAIXZ 000000018013dc75 f   PhysXFoundation_64:PhysXFoundation_64.dll
 0001:0013cc7b       __imp_load_?atomicDecrement@shdfnd@physx@@YAHPECH@Z 000000018013dc7b f   PhysXFoundation_64:PhysXFoundation_64.dll
 0001:0013cc87       ?atomicDecrement@shdfnd@physx@@YAHPECH@Z 000000018013dc87 f   PhysXFoundation_64:PhysXFoundation_64.dll
 0001:0013cc8d       __imp_load_?optimizeBoundingBox@shdfnd@physx@@YA?AVPxVec3@2@AEAVPxMat33@2@@Z 000000018013dc8d f   PhysXFoundation_64:PhysXFoundation_64.dll
 0001:0013cc99       ?optimizeBoundingBox@shdfnd@physx@@YA?AVPxVec3@2@AEAVPxMat33@2@@Z 000000018013dc99 f   PhysXFoundation_64:PhysXFoundation_64.dll
 0001:0013cc9f       __imp_load_?allocate@TempAllocator@shdfnd@physx@@QEAAPEAX_KPEBDH@Z 000000018013dc9f f   PhysXFoundation_64:PhysXFoundation_64.dll
 0001:0013ccab       ?allocate@TempAllocator@shdfnd@physx@@QEAAPEAX_KPEBDH@Z 000000018013dcab f   PhysXFoundation_64:PhysXFoundation_64.dll
 0001:0013ccb1       __imp_load_?deallocate@TempAllocator@shdfnd@physx@@QEAAXPEAX@Z 000000018013dcb1 f   PhysXFoundation_64:PhysXFoundation_64.dll
 0001:0013ccbd       ?deallocate@TempAllocator@shdfnd@physx@@QEAAXPEAX@Z 000000018013dcbd f   PhysXFoundation_64:PhysXFoundation_64.dll
 0001:0013ccc3       __imp_load_?atomicIncrement@shdfnd@physx@@YAHPECH@Z 000000018013dcc3 f   PhysXFoundation_64:PhysXFoundation_64.dll
 0001:0013cccf       ?atomicIncrement@shdfnd@physx@@YAHPECH@Z 000000018013dccf f   PhysXFoundation_64:PhysXFoundation_64.dll
 0001:0013ccd5       __imp_load_PxGetProfilerCallback 000000018013dcd5 f   PhysXFoundation_64:PhysXFoundation_64.dll
 0001:0013cce1       PxGetProfilerCallback      000000018013dce1 f   PhysXFoundation_64:PhysXFoundation_64.dll
 0001:0013cce7       FreeLibrary                000000018013dce7 f   kernel32:KERNEL32.dll
 0001:0013cced       GetProcAddress             000000018013dced f   kernel32:KERNEL32.dll
 0001:0013ccf3       LoadLibraryA               000000018013dcf3 f   kernel32:KERNEL32.dll
 0001:0013ccfc       ??$PFromRva@PEAP6A_JXZ@@YAPEAP6A_JXZK@Z 000000018013dcfc f i Delayimp:delayhlp.obj
 0001:0013cd0c       ??$PFromRva@PEAPEAUHINSTANCE__@@@@YAPEAPEAUHINSTANCE__@@K@Z 000000018013dd0c f i Delayimp:delayhlp.obj
 0001:0013cd1c       ??$PFromRva@PEAU_IMAGE_IMPORT_BY_NAME@@@@YAPEAU_IMAGE_IMPORT_BY_NAME@@K@Z 000000018013dd1c f i Delayimp:delayhlp.obj
 0001:0013cd2c       ??$PFromRva@PEAU_IMAGE_THUNK_DATA64@@@@YAPEAU_IMAGE_THUNK_DATA64@@K@Z 000000018013dd2c f i Delayimp:delayhlp.obj
 0001:0013cd3c       ??$PFromRva@PEBD@@YAPEBDK@Z 000000018013dd3c f i Delayimp:delayhlp.obj
 0001:0013cd4c       ??$PFromRva@PEBUImgDelayDescr@@@@YAPEBUImgDelayDescr@@K@Z 000000018013dd4c f i Delayimp:delayhlp.obj
 0001:0013cd5c       ??$PFromRva@PEBU_IMAGE_THUNK_DATA64@@@@YAPEBU_IMAGE_THUNK_DATA64@@K@Z 000000018013dd5c f i Delayimp:delayhlp.obj
 0001:0013cd6c       ?CountOfImports@@YAIPEBU_IMAGE_THUNK_DATA64@@@Z 000000018013dd6c f i Delayimp:delayhlp.obj
 0001:0013cd80       ?DloadAcquireSectionWriteAccess@@YAXXZ 000000018013dd80 f i Delayimp:delayhlp.obj
 0001:0013ce2c       ?DloadGetSRWLockFunctionPointers@@YAEXZ 000000018013de2c f i Delayimp:delayhlp.obj
 0001:0013cec8       ?DloadLock@@YAXXZ          000000018013dec8 f i Delayimp:delayhlp.obj
 0001:0013cf10       ?DloadMakePermanentImageCommit@@YAXPEAX_K@Z 000000018013df10 f i Delayimp:delayhlp.obj
 0001:0013cfa8       ?DloadObtainSection@@YAPEAXPEAK0@Z 000000018013dfa8 f i Delayimp:delayhlp.obj
 0001:0013d044       ?DloadProtectSection@@YAXKPEAK@Z 000000018013e044 f i Delayimp:delayhlp.obj
 0001:0013d0d4       ?DloadReleaseSectionWriteAccess@@YAXXZ 000000018013e0d4 f i Delayimp:delayhlp.obj
 0001:0013d168       ?DloadUnlock@@YAXXZ        000000018013e168 f i Delayimp:delayhlp.obj
 0001:0013d1a8       ?IndexFromPImgThunkData@@YAIPEBU_IMAGE_THUNK_DATA64@@0@Z 000000018013e1a8 f i Delayimp:delayhlp.obj
 0001:0013d2f0       HRESULT_FROM_WIN32         000000018013e2f0 f i Delayimp:delayhlp.obj
 0001:0013d300       ReadAcquire64              000000018013e300 f i Delayimp:delayhlp.obj
 0001:0013d304       ReadPointerAcquire         000000018013e304 f i Delayimp:delayhlp.obj
 0001:0013d308       WritePointerRelease        000000018013e308 f i Delayimp:delayhlp.obj
 0001:0013d30c       WriteRelease64             000000018013e30c f i Delayimp:delayhlp.obj
 0001:0013d310       __FUnloadDelayLoadedDLL2   000000018013e310 f   Delayimp:delayhlp.obj
 0001:0013d3cc       __HrLoadAllImportsForDll   000000018013e3cc f   Delayimp:delayhlp.obj
 0001:0013d440       __delayLoadHelper2         000000018013e440 f   Delayimp:delayhlp.obj
 0001:0013d718       ??3@YAXPEAX_K@Z            000000018013e718 f   LIBCMT:delete_scalar_size.obj
 0001:0013d720       ??1type_info@@UEAA@XZ      000000018013e720 f   LIBCMT:std_type_info_static.obj
 0001:0013d72c       ??_Etype_info@@UEAAPEAXI@Z 000000018013e72c f i LIBCMT:std_type_info_static.obj
 0001:0013d72c       ??_Gtype_info@@UEAAPEAXI@Z 000000018013e72c f i LIBCMT:std_type_info_static.obj
 0001:0013d758       ?__scrt_initialize_type_info@@YAXXZ 000000018013e758 f   LIBCMT:tncleanup.obj
 0001:0013d768       ?__scrt_uninitialize_type_info@@YAXXZ 000000018013e768 f   LIBCMT:tncleanup.obj
 0001:0013d774       ??_V@YAXPEAX_K@Z           000000018013e774 f   LIBCMT:delete_array_size.obj
 0001:0013d790       __chkstk                   000000018013e790 f   LIBCMT:chkstk.obj
 0001:0013d790       _alloca_probe              000000018013e790 f   LIBCMT:chkstk.obj
 0001:0013d7f0       __vdecl_sinf4              000000018013e7f0 f   LIBCMT:svml_ssinf4_dispatch.obj
 0001:0013d810       __libm_sse2_sincosf_       000000018013e810 f   LIBCMT:svml_ssinf4_dispatch.obj
 0001:0013d853       __libm_sse2_sincosf4_      000000018013e853 f   LIBCMT:svml_ssinf4_dispatch.obj
 0001:0013d860       ??3@YAXPEAX@Z              000000018013e860 f   LIBCMT:delete_scalar.obj
 0001:0013d868       ??_V@YAXPEAX@Z             000000018013e868 f   LIBCMT:delete_array.obj
 0001:0013dbac       _CRT_INIT                  000000018013ebac f   LIBCMT:dll_dllmain.obj
 0001:0013dbb4       _DllMainCRTStartup         000000018013ebb4 f   LIBCMT:dll_dllmain.obj
 0001:0013dbf4       _guard_check_icall_nop     000000018013ebf4 f i LIBCMT:guard_support.obj
 0001:0013dbf8       ReadNoFence64              000000018013ebf8 f i LIBCMT:guard_support.obj
 0001:0013dbfc       ReadPointerNoFence         000000018013ebfc f i LIBCMT:guard_support.obj
 0001:0013dc00       _guard_icall_checks_enforced 000000018013ec00 f i LIBCMT:guard_support.obj
 0001:0013dc18       _guard_rf_checks_enforced  000000018013ec18 f i LIBCMT:guard_support.obj
 0001:0013dc1c       __isa_available_init       000000018013ec1c f   LIBCMT:cpu_disp.obj
 0001:0013ddc0       __sse2_sinf4@@16           000000018013edc0 f   LIBCMT:svml_ssinf4_sse2.obj
 0001:0013e700       __sse4_sinf4@@16           000000018013f700 f   LIBCMT:svml_ssinf4_sse4.obj
 0001:0013eee0       __security_init_cookie     000000018013fee0 f   LIBCMT:gs_support.obj
 0001:0013ef8c       DllMain                    000000018013ff8c f   LIBCMT:dll_dllmain_stub.obj
 0001:0013ef94       __local_stdio_printf_options 000000018013ff94 f i LIBCMT:default_local_stdio_options.obj
 0001:0013ef9c       __local_stdio_scanf_options 000000018013ff9c f i LIBCMT:default_local_stdio_options.obj
 0001:0013efa4       __scrt_initialize_default_local_stdio_options 000000018013ffa4 f   LIBCMT:default_local_stdio_options.obj
 0001:0013efc0       ?configure_argv@__scrt_narrow_argv_policy@@SAHXZ 000000018013ffc0 f i LIBCMT:utility.obj
 0001:0013f020       ?initialize_environment@__scrt_narrow_environment_policy@@SAHXZ 0000000180140020 f i LIBCMT:utility.obj
 0001:0013f058       NtCurrentTeb               0000000180140058 f i LIBCMT:utility.obj
 0001:0013f064       __scrt_acquire_startup_lock 0000000180140064 f   LIBCMT:utility.obj
 0001:0013f0a0       __scrt_dllmain_after_initialize_c 00000001801400a0 f   LIBCMT:utility.obj
 0001:0013f0d4       __scrt_dllmain_before_initialize_c 00000001801400d4 f   LIBCMT:utility.obj
 0001:0013f0ec       __scrt_dllmain_crt_thread_attach 00000001801400ec f   LIBCMT:utility.obj
 0001:0013f114       __scrt_dllmain_crt_thread_detach 0000000180140114 f   LIBCMT:utility.obj
 0001:0013f12c       __scrt_dllmain_exception_filter 000000018014012c f   LIBCMT:utility.obj
 0001:0013f18c       __scrt_dllmain_uninitialize_c 000000018014018c f   LIBCMT:utility.obj
 0001:0013f1bc       __scrt_dllmain_uninitialize_critical 00000001801401bc f   LIBCMT:utility.obj
 0001:0013f1d0       __scrt_initialize_crt      00000001801401d0 f   LIBCMT:utility.obj
 0001:0013f21c       __scrt_initialize_onexit_tables 000000018014021c f   LIBCMT:utility.obj
 0001:0013f2a8       __scrt_is_nonwritable_in_current_image 00000001801402a8 f   LIBCMT:utility.obj
 0001:0013f340       __scrt_release_startup_lock 0000000180140340 f   LIBCMT:utility.obj
 0001:0013f364       __scrt_uninitialize_crt    0000000180140364 f   LIBCMT:utility.obj
 0001:0013f390       _onexit                    0000000180140390 f   LIBCMT:utility.obj
 0001:0013f3cc       at_quick_exit              00000001801403cc f   LIBCMT:utility.obj
 0001:0013f3ec       atexit                     00000001801403ec f   LIBCMT:utility.obj
 0001:0013f404       __scrt_get_dyn_tls_init_callback 0000000180140404 f   LIBCMT:dyn_tls_init.obj
 0001:0013f40c       __crt_debugger_hook        000000018014040c f   LIBCMT:utility_desktop.obj
 0001:0013f414       __scrt_fastfail            0000000180140414 f   LIBCMT:utility_desktop.obj
 0001:0013f560       __scrt_get_show_window_mode 0000000180140560 f   LIBCMT:utility_desktop.obj
 0001:0013f59c       __scrt_initialize_mta      000000018014059c f   LIBCMT:utility_desktop.obj
 0001:0013f5a4       __scrt_initialize_winrt    00000001801405a4 f   LIBCMT:utility_desktop.obj
 0001:0013f5a8       __scrt_is_managed_app      00000001801405a8 f   LIBCMT:utility_desktop.obj
 0001:0013f5fc       __scrt_set_unhandled_exception_filter 00000001801405fc f   LIBCMT:utility_desktop.obj
 0001:0013f60c       __scrt_stub_for_initialize_mta 000000018014060c f   LIBCMT:utility_desktop.obj
 0001:0013f60c       __scrt_exe_initialize_mta  000000018014060c f   LIBCMT:utility_desktop.obj
 0001:0013f610       __scrt_unhandled_exception_filter 0000000180140610 f   LIBCMT:utility_desktop.obj
 0001:0013f66c       _RTC_Initialize            000000018014066c f   LIBCMT:initsect.obj
 0001:0013f6a8       _RTC_Terminate             00000001801406a8 f   LIBCMT:initsect.obj
 0001:0013f6f0       __common_ssin_cout_rare    00000001801406f0 f   LIBCMT:svml_s_sin_cout.obj
 0001:0013f760       _get_startup_argv_mode     0000000180140760 f   LIBCMT:argv_mode.obj
 0001:0013f768       __scrt_is_ucrt_dll_in_use  0000000180140768 f   LIBCMT:ucrt_detection.obj
 0001:0013f774       ??$__crt_interlocked_exchange_pointer@$$A6AXXZP6AXXZ@@YAP6AXXZPEDS6AXXZQ6AXXZ@Z 0000000180140774 f i libvcruntime:purevirt.obj
 0001:0013f77c       ??$__crt_interlocked_read_pointer@$$A6AXXZ@@YAP6AXXZPEDS6AXXZ@Z 000000018014077c f i libvcruntime:purevirt.obj
 0001:0013f780       ?__crt_interlocked_read_64@@YA_JPED_J@Z 0000000180140780 f i libvcruntime:purevirt.obj
 0001:0013f784       _get_purecall_handler      0000000180140784 f   libvcruntime:purevirt.obj
 0001:0013f78c       _purecall                  000000018014078c f   libvcruntime:purevirt.obj
 0001:0013f7a8       _set_purecall_handler      00000001801407a8 f   libvcruntime:purevirt.obj
 0001:0013f7c4       ??$?RD@__crt_internal_free_policy@@QEBAXQEBD@Z 00000001801407c4 f i libvcruntime:std_type_info.obj
 0001:0013f7cc       ??$?RX@__crt_internal_free_policy@@QEBAXQEBX@Z 00000001801407cc f i libvcruntime:std_type_info.obj
 0001:0013f7d4       ??$__crt_interlocked_compare_exchange_pointer@$$CBDPEAD$$T@@YAPEBDPEDSEBDQEAD$$T@Z 00000001801407d4 f i libvcruntime:std_type_info.obj
 0001:0013f7e0       ??$__crt_interlocked_read_pointer@$$CBD@@YAPEBDPEDSEBD@Z 00000001801407e0 f i libvcruntime:std_type_info.obj
 0001:0013f7e4       ??0?$__crt_unique_heap_ptr@DU__crt_internal_free_policy@@@@QEAA@QEAD@Z 00000001801407e4 f i libvcruntime:std_type_info.obj
 0001:0013f7ec       ??0?$__crt_unique_heap_ptr@XU__crt_internal_free_policy@@@@QEAA@QEAX@Z 00000001801407ec f i libvcruntime:std_type_info.obj
 0001:0013f7f4       ??1?$__crt_unique_heap_ptr@DU__crt_internal_free_policy@@@@QEAA@XZ 00000001801407f4 f i libvcruntime:std_type_info.obj
 0001:0013f810       ??1?$__crt_unique_heap_ptr@XU__crt_internal_free_policy@@@@QEAA@XZ 0000000180140810 f i libvcruntime:std_type_info.obj
 0001:0013f82c       ??B?$__crt_unique_heap_ptr@DU__crt_internal_free_policy@@@@QEBA_NXZ 000000018014082c f i libvcruntime:std_type_info.obj
 0001:0013f834       ??B?$__crt_unique_heap_ptr@XU__crt_internal_free_policy@@@@QEBA_NXZ 0000000180140834 f i libvcruntime:std_type_info.obj
 0001:0013f85c       ?detach@?$__crt_unique_heap_ptr@XU__crt_internal_free_policy@@@@QEAAPEAXXZ 000000018014085c f i libvcruntime:std_type_info.obj
 0001:0013f864       ?get@?$__crt_unique_heap_ptr@DU__crt_internal_free_policy@@@@QEBAPEADXZ 0000000180140864 f i libvcruntime:std_type_info.obj
 0001:0013f868       ?get@?$__crt_unique_heap_ptr@XU__crt_internal_free_policy@@@@QEBAPEAXXZ 0000000180140868 f i libvcruntime:std_type_info.obj
 0001:0013f86c       ?is_valid@?$__crt_unique_heap_ptr@DU__crt_internal_free_policy@@@@QEBA_NXZ 000000018014086c f i libvcruntime:std_type_info.obj
 0001:0013f874       ?is_valid@?$__crt_unique_heap_ptr@XU__crt_internal_free_policy@@@@QEBA_NXZ 0000000180140874 f i libvcruntime:std_type_info.obj
 0001:0013f87c       ?release@?$__crt_unique_heap_ptr@DU__crt_internal_free_policy@@@@QEAAXXZ 000000018014087c f i libvcruntime:std_type_info.obj
 0001:0013f898       ?release@?$__crt_unique_heap_ptr@XU__crt_internal_free_policy@@@@QEAAXXZ 0000000180140898 f i libvcruntime:std_type_info.obj
 0001:0013f8b4       __std_type_info_compare    00000001801408b4 f   libvcruntime:std_type_info.obj
 0001:0013f8dc       __std_type_info_destroy_list 00000001801408dc f   libvcruntime:std_type_info.obj
 0001:0013f908       __std_type_info_hash       0000000180140908 f   libvcruntime:std_type_info.obj
 0001:0013f940       __std_type_info_name       0000000180140940 f   libvcruntime:std_type_info.obj
 0001:0013fa70       memcpy_repmovs             0000000180140a70 f   libvcruntime:memcpy.obj
 0001:0013fa90       memcpy                     0000000180140a90 f   libvcruntime:memcpy.obj
 0001:0013fa90       memmove                    0000000180140a90 f   libvcruntime:memcpy.obj
 0001:0013fe80       memset_repmovs             0000000180140e80 f   libvcruntime:memset.obj
 0001:0013fea0       memset                     0000000180140ea0 f   libvcruntime:memset.obj
 0001:00140030       strstr                     0000000180141030 f   libvcruntime:strstr.obj
 0001:0014022c       __C_specific_handler       000000018014122c f   libvcruntime:riscchandler.obj
 0001:00140438       __vcrt_initialize          0000000180141438 f   libvcruntime:initialization.obj
 0001:00140460       __vcrt_thread_attach       0000000180141460 f   libvcruntime:initialization.obj
 0001:00140474       __vcrt_thread_detach       0000000180141474 f   libvcruntime:initialization.obj
 0001:00140488       __vcrt_uninitialize        0000000180141488 f   libvcruntime:initialization.obj
 0001:001404a4       __vcrt_uninitialize_critical 00000001801414a4 f   libvcruntime:initialization.obj
 0001:001404b8       __DestructExceptionObject  00000001801414b8 f   libvcruntime:ehhelpers.obj
 0001:00140528       ?_CallMemberFunction0@@YAXQEAX0@Z 0000000180141528 f i libvcruntime:ehhelpers.obj
 0001:00140584       ?raw_name@type_info@@QEBAPEBDXZ 0000000180141584 f i libvcruntime:ehhelpers.obj
 0001:0014058c       _IsExceptionObjectToBeDestroyed 000000018014158c f   libvcruntime:ehhelpers.obj
 0001:001405bc       _SetWinRTOutOfMemoryExceptionCallback 00000001801415bc f   libvcruntime:ehhelpers.obj
 0001:001405c4       __AdjustPointer            00000001801415c4 f   libvcruntime:ehhelpers.obj
 0001:001405e8       __FrameUnwindFilter        00000001801415e8 f   libvcruntime:ehhelpers.obj
 0001:00140650       __GetPlatformExceptionInfo 0000000180141650 f   libvcruntime:ehhelpers.obj
 0001:001406ac       __current_exception        00000001801416ac f   libvcruntime:ehhelpers.obj
 0001:001406c0       __current_exception_context 00000001801416c0 f   libvcruntime:ehhelpers.obj
 0001:001406d4       __processing_throw         00000001801416d4 f   libvcruntime:ehhelpers.obj
 0001:001406e8       __std_terminate            00000001801416e8 f   libvcruntime:ehhelpers.obj
 0001:001406f4       _is_exception_typeof       00000001801416f4 f   libvcruntime:ehhelpers.obj
 0001:0014079c       ??$?0$00@DName@@QEAA@PEBDU?$StringLifeSelector@$00@@@Z 000000018014179c f i libvcruntime:undname.obj
 0001:001407dc       ??$?0$00@pcharNode@@QEAA@PEBDHU?$StringLifeSelector@$00@@@Z 00000001801417dc f i libvcruntime:undname.obj
 0001:001407f4       ??$?0$01@DName@@QEAA@PEBDU?$StringLifeSelector@$01@@@Z 00000001801417f4 f i libvcruntime:undname.obj
 0001:00140834       ??$?0$01@pcharNode@@QEAA@PEBDHU?$StringLifeSelector@$01@@@Z 0000000180141834 f i libvcruntime:undname.obj
 0001:001408a8       ??$?0$0A@@DName@@QEAA@PEBDU?$StringLifeSelector@$0A@@@@Z 00000001801418a8 f i libvcruntime:undname.obj
 0001:001408e8       ??$?0$0A@@pcharNode@@QEAA@PEBDHU?$StringLifeSelector@$0A@@@@Z 00000001801418e8 f i libvcruntime:undname.obj
 0001:0014095c       ??$?0_K$0A@@?$optional@_K@std@@QEAA@$$QEA_K@Z 000000018014195c f i libvcruntime:undname.obj
 0001:0014096c       ??$?0_K@?$_Optional_construct_base@_K@std@@QEAA@Uin_place_t@1@$$QEA_K@Z 000000018014196c f i libvcruntime:undname.obj
 0001:0014097c       ??$?0_K@?$_Optional_destruct_base@_K$00@std@@QEAA@Uin_place_t@1@$$QEA_K@Z 000000018014197c f i libvcruntime:undname.obj
 0001:0014098c       ??$append@VDNameNode@@@DName@@AEAAXPEBVDNameNode@@@Z 000000018014198c f i libvcruntime:undname.obj
 0001:001409f0       ??$append@VDNameStatusNode@@@DName@@AEAAXPEBVDNameStatusNode@@@Z 00000001801419f0 f i libvcruntime:undname.obj
 0001:00140a54       ??$append@VcharNode@@@DName@@AEAAXPEBVcharNode@@@Z 0000000180141a54 f i libvcruntime:undname.obj
 0001:00140ab8       ??$append@VpDNameNode@@@DName@@AEAAXPEBVpDNameNode@@@Z 0000000180141ab8 f i libvcruntime:undname.obj
 0001:00140b1c       ??$append@VpcharNode@@@DName@@AEAAXPEBVpcharNode@@@Z 0000000180141b1c f i libvcruntime:undname.obj
 0001:00140b80       ??$doPchar@$00@DName@@AEAAXPEBDH@Z 0000000180141b80 f i libvcruntime:undname.obj
 0001:00140c24       ??$doPchar@$01@DName@@AEAAXPEBDH@Z 0000000180141c24 f i libvcruntime:undname.obj
 0001:00140cbc       ??$doPchar@$0A@@DName@@AEAAXPEBDH@Z 0000000180141cbc f i libvcruntime:undname.obj
 0001:00140d54       ??$forward@_K@std@@YA$$QEA_KAEA_K@Z 0000000180141d54 f i libvcruntime:undname.obj
 0001:00140d58       ??$size@D$04@std@@YA_KAEAY04$$CBD@Z 0000000180141d58 f i libvcruntime:undname.obj
 0001:00140d60       ??$size@D$0EB@@std@@YA_KAEAY0EB@$$CBD@Z 0000000180141d60 f i libvcruntime:undname.obj
 0001:00140d68       ??0?$_Optional_construct_base@_K@std@@QEAA@XZ 0000000180141d68 f i libvcruntime:undname.obj
 0001:00140d74       ??0?$_Optional_destruct_base@_K$00@std@@QEAA@XZ 0000000180141d74 f i libvcruntime:undname.obj
 0001:00140d80       ??0?$optional@_K@std@@QEAA@XZ 0000000180141d80 f i libvcruntime:undname.obj
 0001:00140d8c       ??0Block@_HeapManager@@QEAA@XZ 0000000180141d8c f i libvcruntime:undname.obj
 0001:00140d94       ??0DName@@QEAA@AEAPEBDD@Z  0000000180141d94 f   libvcruntime:undname.obj
 0001:00140e44       ??0DName@@QEAA@AEBUStringLiteral@@@Z 0000000180141e44 f   libvcruntime:undname.obj
 0001:00140e70       ??0DName@@QEAA@AEBV0@@Z    0000000180141e70 f i libvcruntime:undname.obj
 0001:00140e80       ??0DName@@QEAA@D@Z         0000000180141e80 f   libvcruntime:undname.obj
 0001:00140ea0       ??0DName@@QEAA@PEAV0@@Z    0000000180141ea0 f   libvcruntime:undname.obj
 0001:00140f24       ??0DName@@QEAA@W4DNameStatus@@@Z 0000000180141f24 f   libvcruntime:undname.obj
 0001:00140f54       ??0DName@@QEAA@XZ          0000000180141f54 f i libvcruntime:undname.obj
 0001:00140f60       ??0DName@@QEAA@_J@Z        0000000180141f60 f   libvcruntime:undname.obj
 0001:00141008       ??0DName@@QEAA@_K@Z        0000000180142008 f   libvcruntime:undname.obj
 0001:00141090       ??0DNameNode@@IEAA@XZ      0000000180142090 f i libvcruntime:undname.obj
 0001:001410a0       ??0Replicator@@QEAA@XZ     00000001801420a0 f i libvcruntime:undname.obj
 0001:001410b4       ??0UnDecorator@@QEAA@PEBDP6APEADJ@ZK@Z 00000001801420b4 f i libvcruntime:undname.obj
 0001:00141104       ??0charNode@@QEAA@D@Z      0000000180142104 f i libvcruntime:undname.obj
 0001:00141118       ??0pDNameNode@@QEAA@PEAVDName@@@Z 0000000180142118 f   libvcruntime:undname.obj
 0001:00141140       ??0pairNode@@QEAA@PEBVDNameNode@@0@Z 0000000180142140 f i libvcruntime:undname.obj
 0001:00141164       ??2@YAPEAX_KAEAV_HeapManager@@H@Z 0000000180142164 f   libvcruntime:undname.obj
 0001:00141190       ??4DName@@QEAAAEAV0@AEBUStringLiteral@@@Z 0000000180142190 f   libvcruntime:undname.obj
 0001:001411b8       ??4DName@@QEAAAEAV0@AEBV0@@Z 00000001801421b8 f   libvcruntime:undname.obj
 0001:001411c8       ??4DName@@QEAAAEAV0@D@Z    00000001801421c8 f i libvcruntime:undname.obj
 0001:001411e8       ??4DName@@QEAAAEAV0@PEAV0@@Z 00000001801421e8 f   libvcruntime:undname.obj
 0001:00141260       ??4DName@@QEAAAEAV0@W4DNameStatus@@@Z 0000000180142260 f   libvcruntime:undname.obj
 0001:00141280       ??AReplicator@@QEBA?AVDName@@H@Z 0000000180142280 f   libvcruntime:undname.obj
 0001:001412c0       ??B?$optional@_K@std@@QEBA_NXZ 00000001801422c0 f i libvcruntime:undname.obj
 0001:001412c4       ??D?$optional@_K@std@@QEGAAAEA_KXZ 00000001801422c4 f i libvcruntime:undname.obj
 0001:001412c8       ??H@YA?AVDName@@AEBUStringLiteral@@AEBV0@@Z 00000001801422c8 f i libvcruntime:undname.obj
 0001:00141300       ??H@YA?AVDName@@DAEBV0@@Z  0000000180142300 f i libvcruntime:undname.obj
 0001:00141344       ??H@YA?AVDName@@W4DNameStatus@@AEBV0@@Z 0000000180142344 f i libvcruntime:undname.obj
 0001:00141390       ??HDName@@QEBA?AV0@AEBUStringLiteral@@@Z 0000000180142390 f   libvcruntime:undname.obj
 0001:001413bc       ??HDName@@QEBA?AV0@AEBV0@@Z 00000001801423bc f   libvcruntime:undname.obj
 0001:001413e8       ??HDName@@QEBA?AV0@D@Z     00000001801423e8 f   libvcruntime:undname.obj
 0001:00141414       ??HDName@@QEBA?AV0@PEAV0@@Z 0000000180142414 f   libvcruntime:undname.obj
 0001:00141440       ??HDName@@QEBA?AV0@W4DNameStatus@@@Z 0000000180142440 f   libvcruntime:undname.obj
 0001:0014146c       ??HStringLiteral@@QEBA?AU0@H@Z 000000018014246c f i libvcruntime:undname.obj
 0001:00141484       ??YDName@@QEAAAEAV0@AEBUStringLiteral@@@Z 0000000180142484 f   libvcruntime:undname.obj
 0001:00141504       ??YDName@@QEAAAEAV0@AEBV0@@Z 0000000180142504 f   libvcruntime:undname.obj
 0001:001415b8       ??YDName@@QEAAAEAV0@D@Z    00000001801425b8 f   libvcruntime:undname.obj
 0001:00141624       ??YDName@@QEAAAEAV0@PEAV0@@Z 0000000180142624 f   libvcruntime:undname.obj
 0001:001416b8       ??YDName@@QEAAAEAV0@W4DNameStatus@@@Z 00000001801426b8 f   libvcruntime:undname.obj
 0001:00141724       ??YReplicator@@QEAAAEAV0@AEBVDName@@@Z 0000000180142724 f   libvcruntime:undname.obj
 0001:0014177c       ??_5DName@@QEAAAEAV0@AEBV0@@Z 000000018014277c f   libvcruntime:undname.obj
 0001:00141790       ??__K_l@@YA?AUStringLiteral@@PEBD_K@Z 0000000180142790 f i libvcruntime:undname.obj
 0001:0014179c       ?Constructor@_HeapManager@@QEAAXP6APEAX_K@ZP6AXPEAX@Z@Z 000000018014279c f i libvcruntime:undname.obj
 0001:001417b4       ?Destructor@_HeapManager@@QEAAXXZ 00000001801427b4 f i libvcruntime:undname.obj
 0001:00141808       ?UScore@UnDecorator@@SA?AUStringLiteral@@W4Tokens@@@Z 0000000180142808 f   libvcruntime:undname.obj
 0001:00141854       ?composeDeclaration@UnDecorator@@CA?AVDName@@AEBV2@@Z 0000000180142854 f i libvcruntime:undname.obj
 0001:001426fc       ?doAccessSpecifiers@UnDecorator@@SAHXZ 00000001801436fc f i libvcruntime:undname.obj
 0001:0014270c       ?doAllocationLanguage@UnDecorator@@SAHXZ 000000018014370c f i libvcruntime:undname.obj
 0001:0014271c       ?doAllocationModel@UnDecorator@@SAHXZ 000000018014371c f i libvcruntime:undname.obj
 0001:0014272c       ?doEcsu@UnDecorator@@SAHXZ 000000018014372c f i libvcruntime:undname.obj
 0001:0014273c       ?doEllipsis@UnDecorator@@SAHXZ 000000018014373c f i libvcruntime:undname.obj
 0001:0014274c       ?doFunctionReturns@UnDecorator@@SAHXZ 000000018014374c f i libvcruntime:undname.obj
 0001:0014275c       ?doMSKeywords@UnDecorator@@SAHXZ 000000018014375c f i libvcruntime:undname.obj
 0001:0014276c       ?doMemberTypes@UnDecorator@@SAHXZ 000000018014376c f i libvcruntime:undname.obj
 0001:0014277c       ?doNameOnly@UnDecorator@@SAHXZ 000000018014377c f i libvcruntime:undname.obj
 0001:00142788       ?doNoIdentCharCheck@UnDecorator@@SAHXZ 0000000180143788 f i libvcruntime:undname.obj
 0001:00142794       ?doPchar@DName@@AEAAXD@Z   0000000180143794 f   libvcruntime:undname.obj
 0001:001427e4       ?doPtr64@UnDecorator@@SAHXZ 00000001801437e4 f i libvcruntime:undname.obj
 0001:001427f4       ?doRestrictionSpec@UnDecorator@@SAHXZ 00000001801437f4 f i libvcruntime:undname.obj
 0001:00142804       ?doThisTypes@UnDecorator@@SAHXZ 0000000180143804 f i libvcruntime:undname.obj
 0001:00142818       ?doThrowTypes@UnDecorator@@SAHXZ 0000000180143818 f i libvcruntime:undname.obj
 0001:00142828       ?doTypeOnly@UnDecorator@@SAHXZ 0000000180143828 f i libvcruntime:undname.obj
 0001:00142834       ?doUnderScore@UnDecorator@@SAHXZ 0000000180143834 f i libvcruntime:undname.obj
 0001:00142840       ?getArgumentList@UnDecorator@@CA?AVDName@@XZ 0000000180143840 f   libvcruntime:undname.obj
 0001:001429d4       ?getArgumentTypes@UnDecorator@@CA?AVDName@@XZ 00000001801439d4 f   libvcruntime:undname.obj
 0001:00142b30       ?getArrayObject@UnDecorator@@CA?AVDName@@XZ 0000000180143b30 f   libvcruntime:undname.obj
 0001:00142bf8       ?getArrayType@UnDecorator@@CA?AVDName@@AEBV2@@Z 0000000180143bf8 f i libvcruntime:undname.obj
 0001:00142e40       ?getBasedType@UnDecorator@@CA?AVDName@@XZ 0000000180143e40 f   libvcruntime:undname.obj
 0001:00142f38       ?getBasicDataType@UnDecorator@@CA?AVDName@@AEBV2@@Z 0000000180143f38 f   libvcruntime:undname.obj
 0001:0014347c       ?getCHPEName@UnDecorator@@QEAAPEADPEADH@Z 000000018014447c f i libvcruntime:undname.obj
 0001:0014359c       ?getCallIndex@UnDecorator@@CA?AVDName@@XZ 000000018014459c f i libvcruntime:undname.obj
 0001:001435b8       ?getCallingConvention@UnDecorator@@CA?AVDName@@XZ 00000001801445b8 f   libvcruntime:undname.obj
 0001:001436f8       ?getDataIndirectType@UnDecorator@@CA?AVDName@@AEBV2@W4IndirectionKind@@0H@Z 00000001801446f8 f   libvcruntime:undname.obj
 0001:00143f90       ?getDataIndirectType@UnDecorator@@CA?AVDName@@XZ 0000000180144f90 f i libvcruntime:undname.obj
 0001:00143fcc       ?getDataType@UnDecorator@@CA?AVDName@@PEAV2@@Z 0000000180144fcc f   libvcruntime:undname.obj
 0001:001440e0       ?getDecoratedName@UnDecorator@@CA?AVDName@@XZ 00000001801450e0 f   libvcruntime:undname.obj
 0001:001443c4       ?getDimension@UnDecorator@@CA?AVDName@@_N@Z 00000001801453c4 f   libvcruntime:undname.obj
 0001:00144510       ?getDispatchTarget@UnDecorator@@CA?AVDName@@XZ 0000000180145510 f   libvcruntime:undname.obj
 0001:0014455c       ?getDisplacement@UnDecorator@@CA?AVDName@@XZ 000000018014555c f i libvcruntime:undname.obj
 0001:00144578       ?getECSUDataType@UnDecorator@@CA?AVDName@@XZ 0000000180145578 f   libvcruntime:undname.obj
 0001:00144758       ?getECSUName@UnDecorator@@CA?AVDName@@XZ 0000000180145758 f i libvcruntime:undname.obj
 0001:00144770       ?getEnumType@UnDecorator@@CA?AVDName@@XZ 0000000180145770 f i libvcruntime:undname.obj
 0001:00144898       ?getExtendedDataIndirectType@UnDecorator@@CA?AVDName@@AEAW4IndirectionKind@@AEA_NH@Z 0000000180145898 f   libvcruntime:undname.obj
 0001:00144aa0       ?getExternalDataType@UnDecorator@@CA?AVDName@@AEBV2@@Z 0000000180145aa0 f i libvcruntime:undname.obj
 0001:00144b60       ?getFloatingPoint@UnDecorator@@CA?AVDName@@H@Z 0000000180145b60 f   libvcruntime:undname.obj
 0001:00144c80       ?getFunctionIndirectType@UnDecorator@@CA?AVDName@@AEBV2@@Z 0000000180145c80 f   libvcruntime:undname.obj
 0001:001451b8       ?getGuardNumber@UnDecorator@@CA?AVDName@@XZ 00000001801461b8 f i libvcruntime:undname.obj
 0001:001451d4       ?getLastChar@DName@@QEBADXZ 00000001801461d4 f i libvcruntime:undname.obj
 0001:001451f0       ?getLastChar@DNameStatusNode@@UEBADXZ 00000001801461f0 f i libvcruntime:undname.obj
 0001:001451fc       ?getLastChar@charNode@@UEBADXZ 00000001801461fc f i libvcruntime:undname.obj
 0001:00145200       ?getLastChar@pDNameNode@@UEBADXZ 0000000180146200 f i libvcruntime:undname.obj
 0001:0014522c       ?getLastChar@pairNode@@UEBADXZ 000000018014622c f i libvcruntime:undname.obj
 0001:00145264       ?getLastChar@pcharNode@@UEBADXZ 0000000180146264 f i libvcruntime:undname.obj
 0001:00145278       ?getLexicalFrame@UnDecorator@@CA?AVDName@@XZ 0000000180146278 f i libvcruntime:undname.obj
 0001:001452dc       ?getMemoryWithBuffer@_HeapManager@@QEAAPEAX_K@Z 00000001801462dc f   libvcruntime:undname.obj
 0001:0014536c       ?getMemoryWithoutBuffer@_HeapManager@@QEAAPEAX_K@Z 000000018014636c f   libvcruntime:undname.obj
 0001:00145380       ?getNoexcept@UnDecorator@@CA?AVDName@@XZ 0000000180146380 f   libvcruntime:undname.obj
 0001:001453e4       ?getNumberOfDimensions@UnDecorator@@CAHXZ 00000001801463e4 f   libvcruntime:undname.obj
 0001:00145458       ?getOperatorName@UnDecorator@@CA?AVDName@@_NPEA_N@Z 0000000180146458 f i libvcruntime:undname.obj
 0001:00145ca0       ?getPointerType@UnDecorator@@CA?AVDName@@AEBV2@0@Z 0000000180146ca0 f i libvcruntime:undname.obj
 0001:00145cc0       ?getPointerTypeArray@UnDecorator@@CA?AVDName@@AEBV2@0@Z 0000000180146cc0 f i libvcruntime:undname.obj
 0001:00145cdc       ?getPrimaryDataType@UnDecorator@@CA?AVDName@@AEBV2@@Z 0000000180146cdc f   libvcruntime:undname.obj
 0001:00145f6c       ?getPtrRefDataType@UnDecorator@@CA?AVDName@@AEBV2@H@Z 0000000180146f6c f   libvcruntime:undname.obj
 0001:00146138       ?getPtrRefType@UnDecorator@@CA?AVDName@@AEBV2@0W4IndirectionKind@@@Z 0000000180147138 f   libvcruntime:undname.obj
 0001:00146310       ?getReferenceType@UnDecorator@@CA?AVDName@@AEBV2@0W4IndirectionKind@@@Z 0000000180147310 f i libvcruntime:undname.obj
 0001:00146328       ?getRestrictionSpec@UnDecorator@@CA?AVDName@@XZ 0000000180147328 f   libvcruntime:undname.obj
 0001:001464f4       ?getReturnType@UnDecorator@@CA?AVDName@@PEAV2@@Z 00000001801474f4 f   libvcruntime:undname.obj
 0001:00146528       ?getScope@UnDecorator@@CA?AVDName@@XZ 0000000180147528 f   libvcruntime:undname.obj
 0001:001469dc       ?getScopedName@UnDecorator@@CA?AVDName@@XZ 00000001801479dc f   libvcruntime:undname.obj
 0001:00146b18       ?getSignedDimension@UnDecorator@@CA?AVDName@@XZ 0000000180147b18 f   libvcruntime:undname.obj
 0001:00146ba0       ?getStorageConvention@UnDecorator@@CA?AVDName@@XZ 0000000180147ba0 f i libvcruntime:undname.obj
 0001:00146bdc       ?getString@DName@@QEBAPEADPEAD0@Z 0000000180147bdc f i libvcruntime:undname.obj
 0001:00146bf8       ?getString@DName@@QEBAPEADPEADH@Z 0000000180147bf8 f i libvcruntime:undname.obj
 0001:00146c8c       ?getString@DNameStatusNode@@UEBAPEADPEAD0@Z 0000000180147c8c f i libvcruntime:undname.obj
 0001:00146cd4       ?getString@charNode@@UEBAPEADPEAD0@Z 0000000180147cd4 f i libvcruntime:undname.obj
 0001:00146ce8       ?getString@pDNameNode@@UEBAPEADPEAD0@Z 0000000180147ce8 f i libvcruntime:undname.obj
 0001:00146d18       ?getString@pairNode@@UEBAPEADPEAD0@Z 0000000180147d18 f i libvcruntime:undname.obj
 0001:00146d64       ?getString@pcharNode@@UEBAPEADPEAD0@Z 0000000180147d64 f i libvcruntime:undname.obj
 0001:00146d9c       ?getStringEncoding@UnDecorator@@CA?AVDName@@W4PrefixKind@@H@Z 0000000180147d9c f   libvcruntime:undname.obj
 0001:00146e80       ?getStringHelper@@YAPEADPEADPEBD1H@Z 0000000180147e80 f i libvcruntime:undname.obj
 0001:00146eb0       ?getStringObject@UnDecorator@@CA?AVDName@@XZ 0000000180147eb0 f   libvcruntime:undname.obj
 0001:00146f18       ?getSymbolName@UnDecorator@@CA?AVDName@@XZ 0000000180147f18 f i libvcruntime:undname.obj
 0001:00146f64       ?getTemplateArgumentList@UnDecorator@@CA?AVDName@@XZ 0000000180147f64 f   libvcruntime:undname.obj
 0001:001471b8       ?getTemplateName@UnDecorator@@CA?AVDName@@_N@Z 00000001801481b8 f   libvcruntime:undname.obj
 0001:0014744c       ?getTemplateNonTypeArgument@UnDecorator@@CA?AVDName@@XZ 000000018014844c f   libvcruntime:undname.obj
 0001:001478bc       ?getTemplateTypeArgument@UnDecorator@@CA?AVDName@@XZ 00000001801488bc f   libvcruntime:undname.obj
 0001:00147a24       ?getThisType@UnDecorator@@CA?AVDName@@XZ 0000000180148a24 f i libvcruntime:undname.obj
 0001:00147a64       ?getThrowTypes@UnDecorator@@CA?AVDName@@XZ 0000000180148a64 f   libvcruntime:undname.obj
 0001:00147a88       ?getTypeEncoding@UnDecorator@@CAHXZ 0000000180148a88 f i libvcruntime:undname.obj
 0001:00147dfc       ?getUndecoratedName@UnDecorator@@QEAAPEADPEADH@Z 0000000180148dfc f i libvcruntime:undname.obj
 0001:00147f50       ?getVCallThunkType@UnDecorator@@CA?AVDName@@XZ 0000000180148f50 f i libvcruntime:undname.obj
 0001:00147fc8       ?getValue@UnDecorator@@CA?AV?$optional@_K@std@@XZ 0000000180148fc8 f   libvcruntime:undname.obj
 0001:0014803c       ?getValueObject@UnDecorator@@CA?AVDName@@XZ 000000018014903c f   libvcruntime:undname.obj
 0001:00148170       ?getVbTableType@UnDecorator@@CA?AVDName@@AEBV2@@Z 0000000180149170 f i libvcruntime:undname.obj
 0001:00148188       ?getVdispMapType@UnDecorator@@CA?AVDName@@AEBV2@@Z 0000000180149188 f i libvcruntime:undname.obj
 0001:00148204       ?getVfTableType@UnDecorator@@CA?AVDName@@AEBV2@@Z 0000000180149204 f i libvcruntime:undname.obj
 0001:0014840c       ?getZName@UnDecorator@@CA?AVDName@@_N0@Z 000000018014940c f   libvcruntime:undname.obj
 0001:001486f4       ?haveTemplateParameters@UnDecorator@@SAHXZ 00000001801496f4 f i libvcruntime:undname.obj
 0001:00148700       ?isArray@DName@@QEBAHXZ    0000000180149700 f i libvcruntime:undname.obj
 0001:0014870c       ?isComArray@DName@@QEBAHXZ 000000018014970c f i libvcruntime:undname.obj
 0001:00148718       ?isEmpty@DName@@QEBAHXZ    0000000180149718 f i libvcruntime:undname.obj
 0001:00148724       ?isFull@Replicator@@QEBAHXZ 0000000180149724 f i libvcruntime:undname.obj
 0001:00148730       ?isNoTE@DName@@QEBAHXZ     0000000180149730 f i libvcruntime:undname.obj
 0001:0014873c       ?isPinPtr@DName@@QEBAHXZ   000000018014973c f i libvcruntime:undname.obj
 0001:00148748       ?isPtrRef@DName@@QEBAHXZ   0000000180149748 f i libvcruntime:undname.obj
 0001:00148754       ?isUDC@DName@@QEBAHXZ      0000000180149754 f i libvcruntime:undname.obj
 0001:0014876c       ?isUDTThunk@DName@@QEBAHXZ 000000018014976c f i libvcruntime:undname.obj
 0001:00148784       ?isVCallThunk@DName@@QEBAHXZ 0000000180149784 f i libvcruntime:undname.obj
 0001:00148790       ?isValid@DName@@QEBAHXZ    0000000180149790 f i libvcruntime:undname.obj
 0001:0014879c       ?length@DName@@QEBAHXZ     000000018014979c f i libvcruntime:undname.obj
 0001:001487b4       ?length@DNameStatusNode@@UEBAHXZ 00000001801497b4 f i libvcruntime:undname.obj
 0001:001487b8       ?length@charNode@@UEBAHXZ  00000001801497b8 f i libvcruntime:undname.obj
 0001:001487c0       ?length@pDNameNode@@UEBAHXZ 00000001801497c0 f i libvcruntime:undname.obj
 0001:001487e8       ?length@pairNode@@UEBAHXZ  00000001801497e8 f i libvcruntime:undname.obj
 0001:00148830       ?length@pcharNode@@UEBAHXZ 0000000180149830 f i libvcruntime:undname.obj
 0001:00148834       ?make@DNameStatusNode@@SAPEBV1@W4DNameStatus@@@Z 0000000180149834 f i libvcruntime:undname.obj
 0001:00148854       ?parseDecoratedName@UnDecorator@@CA?AVDName@@XZ 0000000180149854 f   libvcruntime:undname.obj
 0001:00148968       ?raw_length@DNameStatusNode@@UEBAHXZ 0000000180149968 f i libvcruntime:undname.obj
 0001:0014896c       ?raw_length@charNode@@UEBAHXZ 000000018014996c f i libvcruntime:undname.obj
 0001:00148974       ?raw_length@pDNameNode@@UEBAHXZ 0000000180149974 f i libvcruntime:undname.obj
 0001:00148978       ?raw_length@pairNode@@UEBAHXZ 0000000180149978 f i libvcruntime:undname.obj
 0001:0014897c       ?raw_length@pcharNode@@UEBAHXZ 000000018014997c f i libvcruntime:undname.obj
 0001:00148980       ?setIsArray@DName@@QEAAXXZ 0000000180149980 f i libvcruntime:undname.obj
 0001:00148988       ?setIsComArray@DName@@QEAAXXZ 0000000180149988 f i libvcruntime:undname.obj
 0001:00148990       ?setIsNoTE@DName@@QEAAXXZ  0000000180149990 f i libvcruntime:undname.obj
 0001:00148998       ?setIsPinPtr@DName@@QEAAXXZ 0000000180149998 f i libvcruntime:undname.obj
 0001:001489a0       ?setIsUDC@DName@@QEAAXXZ   00000001801499a0 f i libvcruntime:undname.obj
 0001:001489ac       ?setIsVCallThunk@DName@@QEAAXXZ 00000001801499ac f i libvcruntime:undname.obj
 0001:001489b4       ?setPtrRef@DName@@QEAAAEAV1@XZ 00000001801499b4 f i libvcruntime:undname.obj
 0001:001489c0       ?status@DName@@QEBA?AW4DNameStatus@@XZ 00000001801499c0 f i libvcruntime:undname.obj
 0001:00148a24       __unDName                  0000000180149a24 f   libvcruntime:undname.obj
 0001:00148a4c       __unDNameEx                0000000180149a4c f   libvcruntime:undname.obj
 0001:00148b80       _vsprintf_s_l              0000000180149b80 f i libvcruntime:undname.obj
 0001:00148be4       sprintf_s                  0000000180149be4 f i libvcruntime:undname.obj
 0001:00148c38       unDNameGenerateCHPE        0000000180149c38 f   libvcruntime:undname.obj
 0001:00148d50       _NLG_Notify                0000000180149d50 f   libvcruntime:notify.obj
 0001:00148d70       __NLG_Dispatch2            0000000180149d70 f   libvcruntime:notify.obj
 0001:00148d80       __NLG_Return2              0000000180149d80 f   libvcruntime:notify.obj
 0001:00148d8c       __except_validate_context_record 0000000180149d8c f   libvcruntime:jbcxrval.obj
 0001:00148dc4       __except_validate_jump_buffer 0000000180149dc4 f   libvcruntime:jbcxrval.obj
 0001:00148e04       __except_validate_jump_buffer_common 0000000180149e04 f i libvcruntime:jbcxrval.obj
 0001:00148e60       ??$?RU__vcrt_ptd@@@__crt_internal_free_policy@@QEBAXQEBU__vcrt_ptd@@@Z 0000000180149e60 f i libvcruntime:per_thread_data.obj
 0001:00148e68       ??0?$__crt_unique_heap_ptr@U__vcrt_ptd@@U__crt_internal_free_policy@@@@QEAA@QEAU__vcrt_ptd@@@Z 0000000180149e68 f i libvcruntime:per_thread_data.obj
 0001:00148e8c       ??1?$__crt_unique_heap_ptr@U__vcrt_ptd@@U__crt_internal_free_policy@@@@QEAA@XZ 0000000180149e8c f i libvcruntime:per_thread_data.obj
 0001:00148eb4       ??B?$__crt_unique_heap_ptr@U__vcrt_ptd@@U__crt_internal_free_policy@@@@QEBA_NXZ 0000000180149eb4 f i libvcruntime:per_thread_data.obj
 0001:00148ebc       ?detach@?$__crt_unique_heap_ptr@U__vcrt_ptd@@U__crt_internal_free_policy@@@@QEAAPEAU__vcrt_ptd@@XZ 0000000180149ebc f i libvcruntime:per_thread_data.obj
 0001:00148ec4       ?get@?$__crt_unique_heap_ptr@U__vcrt_ptd@@U__crt_internal_free_policy@@@@QEBAPEAU__vcrt_ptd@@XZ 0000000180149ec4 f i libvcruntime:per_thread_data.obj
 0001:00148ec8       ?is_valid@?$__crt_unique_heap_ptr@U__vcrt_ptd@@U__crt_internal_free_policy@@@@QEBA_NXZ 0000000180149ec8 f i libvcruntime:per_thread_data.obj
 0001:00148ed0       ?release@?$__crt_unique_heap_ptr@U__vcrt_ptd@@U__crt_internal_free_policy@@@@QEAAXXZ 0000000180149ed0 f i libvcruntime:per_thread_data.obj
 0001:00148f18       __vcrt_freefls             0000000180149f18 f   libvcruntime:per_thread_data.obj
 0001:00148f38       __vcrt_freeptd             0000000180149f38 f   libvcruntime:per_thread_data.obj
 0001:00148f88       __vcrt_getptd              0000000180149f88 f   libvcruntime:per_thread_data.obj
 0001:00148fa4       __vcrt_getptd_noexit       0000000180149fa4 f   libvcruntime:per_thread_data.obj
 0001:00149064       __vcrt_getptd_noinit       000000018014a064 f   libvcruntime:per_thread_data.obj
 0001:001490b4       __vcrt_initialize_ptd      000000018014a0b4 f   libvcruntime:per_thread_data.obj
 0001:001490fc       __vcrt_uninitialize_ptd    000000018014a0fc f   libvcruntime:per_thread_data.obj
 0001:00149120       __vcrt_initialize_locks    000000018014a120 f   libvcruntime:locks.obj
 0001:00149154       __vcrt_lock                000000018014a154 f   libvcruntime:locks.obj
 0001:00149170       __vcrt_uninitialize_locks  000000018014a170 f   libvcruntime:locks.obj
 0001:001491a8       __vcrt_unlock              000000018014a1a8 f   libvcruntime:locks.obj
 0001:001491c4       ??$?0AEAViterator@TryBlockMap4@FH4@@AEAV012@$0A@@?$pair@Viterator@TryBlockMap4@FH4@@V123@@std@@QEAA@AEAViterator@TryBlockMap4@FH4@@0@Z 000000018014a1c4 f i libvcruntime:risctrnsctrl.obj
 0001:001491d8       ??$?0AEAViterator@TryBlockMap@__FrameHandler3@@AEAV012@$0A@@?$pair@Viterator@TryBlockMap@__FrameHandler3@@V123@@std@@QEAA@AEAViterator@TryBlockMap@__FrameHandler3@@0@Z 000000018014a1d8 f i libvcruntime:risctrnsctrl.obj
 0001:00149328       ??$_CallSETranslator@V__FrameHandler3@@@@YAHPEAUEHExceptionRecord@@PEA_KPEAU_CONTEXT@@PEAU_xDISPATCHER_CONTEXT@@PEBU_s_FuncInfo@@K1H@Z 000000018014a328 f i libvcruntime:risctrnsctrl.obj
 0001:0014937c       ??$_CallSETranslator@V__FrameHandler4@@@@YAHPEAUEHExceptionRecord@@PEA_KPEAU_CONTEXT@@PEAU_xDISPATCHER_CONTEXT@@PEAUFuncInfo4@FH4@@K1H@Z 000000018014a37c f i libvcruntime:risctrnsctrl.obj
 0001:001493d0       ??$forward@AEAViterator@TryBlockMap4@FH4@@@std@@YAAEAViterator@TryBlockMap4@FH4@@AEAV123@@Z 000000018014a3d0 f i libvcruntime:risctrnsctrl.obj
 0001:001493d4       ??$forward@AEAViterator@TryBlockMap@__FrameHandler3@@@std@@YAAEAViterator@TryBlockMap@__FrameHandler3@@AEAV123@@Z 000000018014a3d4 f i libvcruntime:risctrnsctrl.obj
 0001:001493d8       ??0FuncInfo4@FH4@@QEAA@XZ  000000018014a3d8 f i libvcruntime:risctrnsctrl.obj
 0001:001493ec       ??0FuncInfoHeader@FH4@@QEAA@XZ 000000018014a3ec f i libvcruntime:risctrnsctrl.obj
 0001:001493f4       ??0iterator@TryBlockMap4@FH4@@QEAA@AEAV12@I@Z 000000018014a3f4 f i libvcruntime:risctrnsctrl.obj
 0001:00149400       ??0iterator@TryBlockMap@__FrameHandler3@@QEAA@AEAV12@I@Z 000000018014a400 f i libvcruntime:risctrnsctrl.obj
 0001:0014940c       ??4iterator@TryBlockMap4@FH4@@QEAAAEAV012@AEBV012@@Z 000000018014a40c f i libvcruntime:risctrnsctrl.obj
 0001:00149418       ??9iterator@TryBlockMap4@FH4@@QEBA_NAEBV012@@Z 000000018014a418 f i libvcruntime:risctrnsctrl.obj
 0001:00149424       ??Diterator@TryBlockMap4@FH4@@QEAA?AUTryBlockMapEntry4@2@XZ 000000018014a424 f i libvcruntime:risctrnsctrl.obj
 0001:00149434       ??Eiterator@TryBlockMap4@FH4@@QEAAAEAV012@XZ 000000018014a434 f i libvcruntime:risctrnsctrl.obj
 0001:001494d0       ?CatchTryBlock@__FrameHandler3@@SAPEBU_s_TryBlockMapEntry@@PEBU_s_FuncInfo@@H@Z 000000018014a4d0 f   libvcruntime:risctrnsctrl.obj
 0001:00149524       ?DecompFuncInfo@FH4@@YA_JPEAEAEAUFuncInfo4@1@_KH@Z 000000018014a524 f i libvcruntime:risctrnsctrl.obj
 0001:00149538       ?DecompFuncInfo@FH4@@YA_JPEAEAEAUFuncInfo4@1@_KH_N@Z 000000018014a538 f i libvcruntime:risctrnsctrl.obj
 0001:0014965c       ?DecompTryBlock@TryBlockMap4@FH4@@AEAAXXZ 000000018014a65c f i libvcruntime:risctrnsctrl.obj
 0001:001496f0       ?ExecutionInCatch@__FrameHandler3@@SA_NPEAU_xDISPATCHER_CONTEXT@@PEBU_s_FuncInfo@@@Z 000000018014a6f0 f   libvcruntime:risctrnsctrl.obj
 0001:0014971c       ?ExecutionInCatch@__FrameHandler4@@SA_NPEAU_xDISPATCHER_CONTEXT@@PEAUFuncInfo4@FH4@@@Z 000000018014a71c f   libvcruntime:risctrnsctrl.obj
 0001:00149724       ?FrameUnwindToEmptyState@__FrameHandler3@@SAXPEA_KPEAU_xDISPATCHER_CONTEXT@@PEBU_s_FuncInfo@@@Z 000000018014a724 f   libvcruntime:risctrnsctrl.obj
 0001:00149788       ?FrameUnwindToEmptyState@__FrameHandler4@@SAXPEA_KPEAU_xDISPATCHER_CONTEXT@@PEAUFuncInfo4@FH4@@@Z 000000018014a788 f   libvcruntime:risctrnsctrl.obj
 0001:001497bc       ?GetEstablisherFrame@__FrameHandler3@@SAPEA_KPEA_KPEAU_xDISPATCHER_CONTEXT@@PEBU_s_FuncInfo@@0@Z 000000018014a7bc f   libvcruntime:risctrnsctrl.obj
 0001:00149888       ?GetEstablisherFrame@__FrameHandler4@@SAPEA_KPEA_KPEAU_xDISPATCHER_CONTEXT@@PEAUFuncInfo4@FH4@@0@Z 000000018014a888 f   libvcruntime:risctrnsctrl.obj
 0001:001498ac       ?GetRangeOfTrysToCheck@__FrameHandler3@@SA?AU?$pair@Viterator@TryBlockMap@__FrameHandler3@@V123@@std@@AEAVTryBlockMap@1@HPEAU_xDISPATCHER_CONTEXT@@PEBU_s_FuncInfo@@H@Z 000000018014a8ac f   libvcruntime:risctrnsctrl.obj
 0001:001499ec       ?GetRangeOfTrysToCheck@__FrameHandler4@@SA?AU?$pair@Viterator@TryBlockMap4@FH4@@V123@@std@@AEAVTryBlockMap4@FH4@@HPEAU_xDISPATCHER_CONTEXT@@PEAUFuncInfo4@5@H@Z 000000018014a9ec f   libvcruntime:risctrnsctrl.obj
 0001:00149b48       ?ReadInt@FH4@@YAHPEAPEAE@Z 000000018014ab48 f i libvcruntime:risctrnsctrl.obj
 0001:00149b58       ?ReadUnsigned@FH4@@YAIPEAPEAE@Z 000000018014ab58 f i libvcruntime:risctrnsctrl.obj
 0001:00149b88       ?UnwindNestedFrames@__FrameHandler3@@SAXPEA_KPEAUEHExceptionRecord@@PEAU_CONTEXT@@0PEAXPEBU_s_FuncInfo@@HHPEBU_s_HandlerType@@PEAU_xDISPATCHER_CONTEXT@@E@Z 000000018014ab88 f   libvcruntime:risctrnsctrl.obj
 0001:00149c8c       ?UnwindNestedFrames@__FrameHandler4@@SAXPEA_KPEAUEHExceptionRecord@@PEAU_CONTEXT@@0PEAXPEAUFuncInfo4@FH4@@HHPEAUHandlerType4@5@PEAU_xDISPATCHER_CONTEXT@@E@Z 000000018014ac8c f   libvcruntime:risctrnsctrl.obj
 0001:00149dac       ?begin@TryBlockMap4@FH4@@QEAA?AViterator@12@XZ 000000018014adac f i libvcruntime:risctrnsctrl.obj
 0001:00149db8       ?end@TryBlockMap4@FH4@@QEAA?AViterator@12@XZ 000000018014adb8 f i libvcruntime:risctrnsctrl.obj
 0001:00149dc4       ?imageRelToByteBuffer@FH4@@YAPEAE_KH@Z 000000018014adc4 f i libvcruntime:risctrnsctrl.obj
 0001:00149dcc       ?incrementToSentinel@iterator@TryBlockMap4@FH4@@QEAAXXZ 000000018014adcc f i libvcruntime:risctrnsctrl.obj
 0001:00149dd0       ?setBuffer@TryBlockMap4@FH4@@QEAAXViterator@12@@Z 000000018014add0 f i libvcruntime:risctrnsctrl.obj
 0001:00149f94       _CreateFrameInfo           000000018014af94 f   libvcruntime:risctrnsctrl.obj
 0001:00149fd0       _FindAndUnlinkFrame        000000018014afd0 f   libvcruntime:risctrnsctrl.obj
 0001:0014a024       _GetImageBase              000000018014b024 f   libvcruntime:risctrnsctrl.obj
 0001:0014a038       _GetThrowImageBase         000000018014b038 f   libvcruntime:risctrnsctrl.obj
 0001:0014a04c       _SetImageBase              000000018014b04c f   libvcruntime:risctrnsctrl.obj
 0001:0014a064       _SetThrowImageBase         000000018014b064 f   libvcruntime:risctrnsctrl.obj
 0001:0014a07c       __CxxFrameHandler          000000018014b07c f   libvcruntime:risctrnsctrl.obj
 0001:0014a084       __CxxFrameHandler2         000000018014b084 f   libvcruntime:risctrnsctrl.obj
 0001:0014a08c       __CxxFrameHandler3         000000018014b08c f   libvcruntime:risctrnsctrl.obj
 0001:0014a114       __CxxFrameHandler4         000000018014b114 f   libvcruntime:risctrnsctrl.obj
 0001:0014a1d4       ??$__crt_interlocked_exchange_pointer@UHINSTANCE__@@PEAU1@@@YAPEAUHINSTANCE__@@PEDSEAU0@QEAU0@@Z 000000018014b1d4 f i libvcruntime:winapi_downlevel.obj
 0001:0014a1dc       ??$__crt_interlocked_exchange_pointer@UHINSTANCE__@@PEAX@@YAPEAUHINSTANCE__@@PEDSEAU0@QEAX@Z 000000018014b1dc f i libvcruntime:winapi_downlevel.obj
 0001:0014a1e4       ??$__crt_interlocked_exchange_pointer@XPEAX@@YAPEAXPEDSEAXQEAX@Z 000000018014b1e4 f i libvcruntime:winapi_downlevel.obj
 0001:0014a1ec       ??$__crt_interlocked_read_pointer@UHINSTANCE__@@@@YAPEAUHINSTANCE__@@PEDSEAU0@@Z 000000018014b1ec f i libvcruntime:winapi_downlevel.obj
 0001:0014a1f0       ??$__crt_interlocked_read_pointer@X@@YAPEAXPEDSEAX@Z 000000018014b1f0 f i libvcruntime:winapi_downlevel.obj
 0001:0014a724       __vcrt_FlsAlloc            000000018014b724 f   libvcruntime:winapi_downlevel.obj
 0001:0014a76c       __vcrt_FlsFree             000000018014b76c f   libvcruntime:winapi_downlevel.obj
 0001:0014a7b4       __vcrt_FlsGetValue         000000018014b7b4 f   libvcruntime:winapi_downlevel.obj
 0001:0014a7fc       __vcrt_FlsSetValue         000000018014b7fc f   libvcruntime:winapi_downlevel.obj
 0001:0014a850       __vcrt_InitializeCriticalSectionEx 000000018014b850 f   libvcruntime:winapi_downlevel.obj
 0001:0014a8b4       ?GetCurrentState@__FrameHandler3@@SAHPEA_KPEAU_xDISPATCHER_CONTEXT@@PEBU_s_FuncInfo@@@Z 000000018014b8b4 f   libvcruntime:ehstate.obj
 0001:0014a8dc       ?GetUnwindTryBlock@__FrameHandler3@@SAHPEA_KPEAU_xDISPATCHER_CONTEXT@@PEBU_s_FuncInfo@@@Z 000000018014b8dc f   libvcruntime:ehstate.obj
 0001:0014a908       ?SetState@__FrameHandler3@@SAXPEA_KPEBU_s_FuncInfo@@H@Z 000000018014b908 f   libvcruntime:ehstate.obj
 0001:0014a914       ?SetUnwindTryBlock@__FrameHandler3@@SAXPEA_KPEAU_xDISPATCHER_CONTEXT@@PEBU_s_FuncInfo@@H@Z 000000018014b914 f   libvcruntime:ehstate.obj
 0001:0014a950       ?StateFromControlPc@__FrameHandler3@@SAHPEBU_s_FuncInfo@@PEAU_xDISPATCHER_CONTEXT@@@Z 000000018014b950 f   libvcruntime:ehstate.obj
 0001:0014a958       ?StateFromControlPc@__FrameHandler4@@SAHPEAUFuncInfo4@FH4@@PEAU_xDISPATCHER_CONTEXT@@@Z 000000018014b958 f   libvcruntime:ehstate.obj
 0001:0014a960       ?StateFromIp@__FrameHandler3@@SAHPEBU_s_FuncInfo@@PEAU_xDISPATCHER_CONTEXT@@_K@Z 000000018014b960 f   libvcruntime:ehstate.obj
 0001:0014a9c8       ?StateFromIp@__FrameHandler4@@SAHPEAUFuncInfo4@FH4@@PEAU_xDISPATCHER_CONTEXT@@_K@Z 000000018014b9c8 f   libvcruntime:ehstate.obj
 0001:0014aab0       ?__FuncRelToRealOffset@@YA_KPEAU_xDISPATCHER_CONTEXT@@I@Z 000000018014bab0 f i libvcruntime:ehstate.obj
 0001:0014aac0       ?__RVAtoRealOffset@@YA_KPEAU_xDISPATCHER_CONTEXT@@H@Z 000000018014bac0 f i libvcruntime:ehstate.obj
 0001:0014c104       ??$TypeMatchHelper@V__FrameHandler3@@@@YAHPEBU_s_HandlerType@@PEBU_s_CatchableType@@PEBU_s_ThrowInfo@@@Z 000000018014d104 f i libvcruntime:frame.obj
 0001:0014c244       ??$TypeMatchHelper@V__FrameHandler4@@@@YAHPEAUHandlerType4@FH4@@PEBU_s_CatchableType@@PEBU_s_ThrowInfo@@@Z 000000018014d244 f i libvcruntime:frame.obj
 0001:0014c388       ??$__InternalCxxFrameHandler@V__FrameHandler3@@@@YA?AW4_EXCEPTION_DISPOSITION@@PEAUEHExceptionRecord@@PEA_KPEAU_CONTEXT@@PEAU_xDISPATCHER_CONTEXT@@PEBU_s_FuncInfo@@H1E@Z 000000018014d388 f i libvcruntime:frame.obj
 0001:0014c5c0       ??$__InternalCxxFrameHandler@V__FrameHandler4@@@@YA?AW4_EXCEPTION_DISPOSITION@@PEAUEHExceptionRecord@@PEA_KPEAU_CONTEXT@@PEAU_xDISPATCHER_CONTEXT@@PEAUFuncInfo4@FH4@@H1E@Z 000000018014d5c0 f i libvcruntime:frame.obj
 0001:0014c854       ??0HandlerMap4@FH4@@QEAA@PEBUTryBlockMapEntry4@1@_KH@Z 000000018014d854 f i libvcruntime:frame.obj
 0001:0014c8d0       ??0HandlerMap@__FrameHandler3@@QEAA@PEBU_s_TryBlockMapEntry@@_KI@Z 000000018014d8d0 f i libvcruntime:frame.obj
 0001:0014c8e4       ??0HandlerType4@FH4@@QEAA@XZ 000000018014d8e4 f i libvcruntime:frame.obj
 0001:0014c8fc       ??0TryBlockMap4@FH4@@QEAA@PEBUFuncInfo4@1@_K@Z 000000018014d8fc f i libvcruntime:frame.obj
 0001:0014c9d4       ??0TryBlockMap@__FrameHandler3@@QEAA@PEBU_s_FuncInfo@@_K@Z 000000018014d9d4 f i libvcruntime:frame.obj
 0001:0014c9e0       ??0UWMap4@FH4@@QEAA@PEBUFuncInfo4@1@_K@Z 000000018014d9e0 f i libvcruntime:frame.obj
 0001:0014ca24       ??0bad_exception@std@@QEAA@AEBV01@@Z 000000018014da24 f i libvcruntime:frame.obj
 0001:0014ca60       ??0bad_exception@std@@QEAA@XZ 000000018014da60 f i libvcruntime:frame.obj
 0001:0014ca80       ??0exception@std@@QEAA@AEBV01@@Z 000000018014da80 f i libvcruntime:frame.obj
 0001:0014cab4       ??0exception@std@@QEAA@QEBDH@Z 000000018014dab4 f i libvcruntime:frame.obj
 0001:0014cacc       ??0iterator@HandlerMap4@FH4@@QEAA@AEAV12@I@Z 000000018014dacc f i libvcruntime:frame.obj
 0001:0014cad8       ??0iterator@HandlerMap@__FrameHandler3@@QEAA@AEAV12@I@Z 000000018014dad8 f i libvcruntime:frame.obj
 0001:0014cae4       ??0iterator@UWMap4@FH4@@QEAA@AEAV12@PEAE@Z 000000018014dae4 f i libvcruntime:frame.obj
 0001:0014caf0       ??1bad_exception@std@@UEAA@XZ 000000018014daf0 f i libvcruntime:frame.obj
 0001:0014cb04       ??1exception@std@@UEAA@XZ  000000018014db04 f i libvcruntime:frame.obj
 0001:0014cb18       ??4iterator@UWMap4@FH4@@QEAAAEAV012@AEBV012@@Z 000000018014db18 f i libvcruntime:frame.obj
 0001:0014cb38       ??8iterator@HandlerMap4@FH4@@QEBA_NAEBV012@@Z 000000018014db38 f i libvcruntime:frame.obj
 0001:0014cb44       ??8iterator@HandlerMap@__FrameHandler3@@QEBA_NAEBV012@@Z 000000018014db44 f i libvcruntime:frame.obj
 0001:0014cb50       ??8type_info@@QEBA_NAEBV0@@Z 000000018014db50 f i libvcruntime:frame.obj
 0001:0014cb6c       ??9iterator@HandlerMap4@FH4@@QEBA_NAEBV012@@Z 000000018014db6c f i libvcruntime:frame.obj
 0001:0014cb78       ??9iterator@HandlerMap@__FrameHandler3@@QEBA_NAEBV012@@Z 000000018014db78 f i libvcruntime:frame.obj
 0001:0014cb84       ??Diterator@HandlerMap4@FH4@@QEAA?AUHandlerType4@2@XZ 000000018014db84 f i libvcruntime:frame.obj
 0001:0014cba4       ??Diterator@HandlerMap@__FrameHandler3@@QEAA?BU_s_HandlerType@@XZ 000000018014dba4 f i libvcruntime:frame.obj
 0001:0014cbc8       ??Diterator@TryBlockMap@__FrameHandler3@@QEAA?BU_s_TryBlockMapEntry@@XZ 000000018014dbc8 f i libvcruntime:frame.obj
 0001:0014cbf8       ??Diterator@UWMap4@FH4@@QEAA?AUUnwindMapEntry4@2@XZ 000000018014dbf8 f i libvcruntime:frame.obj
 0001:0014cc4c       ??Eiterator@HandlerMap4@FH4@@QEAAAEAV012@XZ 000000018014dc4c f i libvcruntime:frame.obj
 0001:0014cc6c       ??Eiterator@HandlerMap@__FrameHandler3@@QEAAAEAV012@XZ 000000018014dc6c f i libvcruntime:frame.obj
 0001:0014cc74       ??Eiterator@TryBlockMap@__FrameHandler3@@QEAAAEAV012@XZ 000000018014dc74 f i libvcruntime:frame.obj
 0001:0014cc7c       ??Eiterator@UWMap4@FH4@@QEAAAEAV012@XZ 000000018014dc7c f i libvcruntime:frame.obj
 0001:0014cc9c       ??Giterator@UWMap4@FH4@@QEBA_JAEBV012@@Z 000000018014dc9c f i libvcruntime:frame.obj
 0001:0014cca8       ??Miterator@TryBlockMap4@FH4@@QEBA_NAEBV012@@Z 000000018014dca8 f i libvcruntime:frame.obj
 0001:0014ccb4       ??Miterator@TryBlockMap@__FrameHandler3@@QEBA_NAEBV012@@Z 000000018014dcb4 f i libvcruntime:frame.obj
 0001:0014ccc0       ??Oiterator@UWMap4@FH4@@QEBA_NAEBV012@@Z 000000018014dcc0 f i libvcruntime:frame.obj
 0001:0014cccc       ??Piterator@UWMap4@FH4@@QEBA_NAEBV012@@Z 000000018014dccc f i libvcruntime:frame.obj
 0001:0014ccd8       ??_Ebad_exception@std@@UEAAPEAXI@Z 000000018014dcd8 f i libvcruntime:frame.obj
 0001:0014ccd8       ??_Gbad_exception@std@@UEAAPEAXI@Z 000000018014dcd8 f i libvcruntime:frame.obj
 0001:0014cd1c       ??_Gexception@std@@UEAAPEAXI@Z 000000018014dd1c f i libvcruntime:frame.obj
 0001:0014cd1c       ??_Eexception@std@@UEAAPEAXI@Z 000000018014dd1c f i libvcruntime:frame.obj
 0001:0014cd60       ?BuildCatchObject@__FrameHandler3@@SAXPEAUEHExceptionRecord@@PEAXPEBU_s_HandlerType@@PEBU_s_CatchableType@@@Z 000000018014dd60 f   libvcruntime:frame.obj
 0001:0014cd68       ?BuildCatchObject@__FrameHandler4@@SAXPEAUEHExceptionRecord@@PEAXPEAUHandlerType4@FH4@@PEBU_s_CatchableType@@@Z 000000018014dd68 f   libvcruntime:frame.obj
 0001:0014cd70       ?BuildCatchObjectHelper@__FrameHandler3@@SAHPEAUEHExceptionRecord@@PEAXPEBU_s_HandlerType@@PEBU_s_CatchableType@@@Z 000000018014dd70 f   libvcruntime:frame.obj
 0001:0014cd78       ?BuildCatchObjectHelper@__FrameHandler4@@SAHPEAUEHExceptionRecord@@PEAXPEAUHandlerType4@FH4@@PEBU_s_CatchableType@@@Z 000000018014dd78 f   libvcruntime:frame.obj
 0001:0014cd80       ?CxxCallCatchBlock@__FrameHandler3@@SAPEAXPEAU_EXCEPTION_RECORD@@@Z 000000018014dd80 f   libvcruntime:frame.obj
 0001:0014cf6c       ?CxxCallCatchBlock@__FrameHandler4@@SAPEAXPEAU_EXCEPTION_RECORD@@@Z 000000018014df6c f   libvcruntime:frame.obj
 0001:0014d1bc       ?DecompHandler@HandlerMap4@FH4@@AEAAXXZ 000000018014e1bc f i libvcruntime:frame.obj
 0001:0014d3fc       ?FrameUnwindToState@__FrameHandler3@@SAXPEA_KPEAU_xDISPATCHER_CONTEXT@@PEBU_s_FuncInfo@@H@Z 000000018014e3fc f   libvcruntime:frame.obj
 0001:0014d588       ?FrameUnwindToState@__FrameHandler4@@SAXPEA_KPEAU_xDISPATCHER_CONTEXT@@PEAUFuncInfo4@FH4@@H@Z 000000018014e588 f   libvcruntime:frame.obj
 0001:0014d870       ?GetHandlerSearchState@__FrameHandler3@@SAHPEA_KPEAU_xDISPATCHER_CONTEXT@@PEBU_s_FuncInfo@@@Z 000000018014e870 f i libvcruntime:frame.obj
 0001:0014d908       ?GetHandlerSearchState@__FrameHandler4@@SAHPEA_KPEAU_xDISPATCHER_CONTEXT@@PEAUFuncInfo4@FH4@@@Z 000000018014e908 f i libvcruntime:frame.obj
 0001:0014d96c       ?GetMaxState@__FrameHandler3@@SAHPEAU_xDISPATCHER_CONTEXT@@PEBU_s_FuncInfo@@@Z 000000018014e96c f i libvcruntime:frame.obj
 0001:0014d970       ?GetMaxState@__FrameHandler4@@SAHPEAU_xDISPATCHER_CONTEXT@@PEAUFuncInfo4@FH4@@@Z 000000018014e970 f i libvcruntime:frame.obj
 0001:0014db1c       ?ReadEntry@UWMap4@FH4@@AEAAXPEAPEAE@Z 000000018014eb1c f i libvcruntime:frame.obj
 0001:0014dbbc       ?TypeMatch@__FrameHandler3@@SAHPEBU_s_HandlerType@@PEBU_s_CatchableType@@PEBU_s_ThrowInfo@@@Z 000000018014ebbc f   libvcruntime:frame.obj
 0001:0014dbc4       ?TypeMatch@__FrameHandler4@@SAHPEAUHandlerType4@FH4@@PEBU_s_CatchableType@@PEBU_s_ThrowInfo@@@Z 000000018014ebc4 f   libvcruntime:frame.obj
 0001:0014dbcc       ?WalkBack@UWMap4@FH4@@AEAAXPEAPEAE@Z 000000018014ebcc f i libvcruntime:frame.obj
 0001:0014dc04       ?WalkBack@iterator@UWMap4@FH4@@QEAAXXZ 000000018014ec04 f i libvcruntime:frame.obj
 0001:0014dc44       ?WalkForward@UWMap4@FH4@@AEAAXPEAPEAE@Z 000000018014ec44 f i libvcruntime:frame.obj
 0001:0014dc4c       ?_CallMemberFunction1@@YAXQEAX00@Z 000000018014ec4c f i libvcruntime:frame.obj
 0001:0014dc58       ?_CallMemberFunction2@@YAXQEAX00H@Z 000000018014ec58 f i libvcruntime:frame.obj
 0001:0014dc7c       ?begin@HandlerMap4@FH4@@QEAA?AViterator@12@XZ 000000018014ec7c f i libvcruntime:frame.obj
 0001:0014dc88       ?begin@HandlerMap@__FrameHandler3@@QEAA?AViterator@12@XZ 000000018014ec88 f i libvcruntime:frame.obj
 0001:0014dc94       ?begin@UWMap4@FH4@@QEAA?AViterator@12@XZ 000000018014ec94 f i libvcruntime:frame.obj
 0001:0014dca4       ?end@HandlerMap4@FH4@@QEAA?AViterator@12@XZ 000000018014eca4 f i libvcruntime:frame.obj
 0001:0014dcb0       ?end@HandlerMap@__FrameHandler3@@QEAA?AViterator@12@XZ 000000018014ecb0 f i libvcruntime:frame.obj
 0001:0014dcbc       ?getESTypes@__FrameHandler3@@SAPEBU_s_ESTypeList@@PEBU_s_FuncInfo@@@Z 000000018014ecbc f i libvcruntime:frame.obj
 0001:0014dce4       ?getESTypes@__FrameHandler4@@SAPEBU_s_ESTypeList@@PEAUFuncInfo4@FH4@@@Z 000000018014ece4 f i libvcruntime:frame.obj
 0001:0014dce8       ?getLastEntry@HandlerMap4@FH4@@QEAAPEAUHandlerType4@2@XZ 000000018014ece8 f i libvcruntime:frame.obj
 0001:0014dd38       ?getLastEntry@HandlerMap@__FrameHandler3@@QEAAPEBU_s_HandlerType@@XZ 000000018014ed38 f i libvcruntime:frame.obj
 0001:0014dd4c       ?getMagicNum@__FrameHandler3@@SAIPEBU_s_FuncInfo@@@Z 000000018014ed4c f i libvcruntime:frame.obj
 0001:0014dd54       ?getMagicNum@__FrameHandler4@@SAIPEAUFuncInfo4@FH4@@@Z 000000018014ed54 f i libvcruntime:frame.obj
 0001:0014dd5c       ?getNumTryBlocks@TryBlockMap4@FH4@@QEAAIXZ 000000018014ed5c f i libvcruntime:frame.obj
 0001:0014dd60       ?getNumTryBlocks@TryBlockMap@__FrameHandler3@@QEAAIXZ 000000018014ed60 f i libvcruntime:frame.obj
 0001:0014dd68       ?getStartStop@UWMap4@FH4@@QEAAXHHAEAViterator@12@0@Z 000000018014ed68 f i libvcruntime:frame.obj
 0001:0014de38       ?getStateFromIterators@UWMap4@FH4@@SAHAEBViterator@12@H0H0@Z 000000018014ee38 f i libvcruntime:frame.obj
 0001:0014df00       ?isEHs@__FrameHandler3@@SA_NPEBU_s_FuncInfo@@@Z 000000018014ef00 f i libvcruntime:frame.obj
 0001:0014df08       ?isEHs@__FrameHandler4@@SA_NPEAUFuncInfo4@FH4@@@Z 000000018014ef08 f i libvcruntime:frame.obj
 0001:0014df10       ?isNoExcept@__FrameHandler3@@SA_NPEBU_s_FuncInfo@@@Z 000000018014ef10 f i libvcruntime:frame.obj
 0001:0014df1c       ?isNoExcept@__FrameHandler4@@SA_NPEAUFuncInfo4@FH4@@@Z 000000018014ef1c f i libvcruntime:frame.obj
 0001:0014df24       ?reset@HandlerType4@FH4@@QEAAXXZ 000000018014ef24 f i libvcruntime:frame.obj
 0001:0014df38       ?resetBuffer@HandlerMap4@FH4@@QEAAXXZ 000000018014ef38 f i libvcruntime:frame.obj
 0001:0014df48       ?setBuffer@HandlerMap4@FH4@@QEAAXI@Z 000000018014ef48 f i libvcruntime:frame.obj
 0001:0014df84       ?what@exception@std@@UEBAPEBDXZ 000000018014ef84 f i libvcruntime:frame.obj
 0001:0014df98       __BuildCatchObject         000000018014ef98 f   libvcruntime:frame.obj
 0001:0014dfa0       __BuildCatchObjectHelper   000000018014efa0 f   libvcruntime:frame.obj
 0001:0014dfa8       __TypeMatch                000000018014efa8 f   libvcruntime:frame.obj
 0001:0014dfb0       __vcrt_EncodePointer       000000018014efb0 f i libvcruntime:frame.obj
 0001:0014dfd0       _CallSettingFrame          000000018014efd0 f   libvcruntime:handlers.obj
 0001:0014e020       _CallSettingFrame_LookupContinuationIndex 000000018014f020 f   libvcruntime:handlers.obj
 0001:0014e050       _CallSettingFrame_NotifyContinuationAddr 000000018014f050 f   libvcruntime:handlers.obj
 0001:0014e080       _CallSettingFrameEncoded   000000018014f080 f   libvcruntime:handlers.obj
 0001:0014e0c8       ??$?RD@__crt_public_free_policy@@QEBAXQEBD@Z 000000018014f0c8 f i libvcruntime:std_exception.obj
 0001:0014e0d0       ??0?$__crt_unique_heap_ptr@DU__crt_public_free_policy@@@@QEAA@QEAD@Z 000000018014f0d0 f i libvcruntime:std_exception.obj
 0001:0014e0d8       ??1?$__crt_unique_heap_ptr@DU__crt_public_free_policy@@@@QEAA@XZ 000000018014f0d8 f i libvcruntime:std_exception.obj
 0001:0014e0f4       ??B?$__crt_unique_heap_ptr@DU__crt_public_free_policy@@@@QEBA_NXZ 000000018014f0f4 f i libvcruntime:std_exception.obj
 0001:0014e0fc       ?detach@?$__crt_unique_heap_ptr@DU__crt_public_free_policy@@@@QEAAPEADXZ 000000018014f0fc f i libvcruntime:std_exception.obj
 0001:0014e104       ?get@?$__crt_unique_heap_ptr@DU__crt_public_free_policy@@@@QEBAPEADXZ 000000018014f104 f i libvcruntime:std_exception.obj
 0001:0014e108       ?is_valid@?$__crt_unique_heap_ptr@DU__crt_public_free_policy@@@@QEBA_NXZ 000000018014f108 f i libvcruntime:std_exception.obj
 0001:0014e110       ?release@?$__crt_unique_heap_ptr@DU__crt_public_free_policy@@@@QEAAXXZ 000000018014f110 f i libvcruntime:std_exception.obj
 0001:0014e12c       __std_exception_copy       000000018014f12c f   libvcruntime:std_exception.obj
 0001:0014e1bc       __std_exception_destroy    000000018014f1bc f   libvcruntime:std_exception.obj
 0001:0014e1e4       _CxxThrowException         000000018014f1e4 f   libvcruntime:throw.obj
 0001:0014e290       cosf                       000000018014f290 f   libucrt:cosf.obj
 0001:0014e790       sinf                       000000018014f790 f   libucrt:sinf.obj
 0001:0014ee90       tanf                       000000018014fe90 f   libucrt:tanf.obj
 0001:0014f520       strcmp                     0000000180150520 f   libucrt:strcmp.obj
 0001:0014f588       _fpclass                   0000000180150588 f   libucrt:ieeemisc.obj
 0001:0014f610       _fpclassf                  0000000180150610 f   libucrt:ieeemisc.obj
 0001:0014f67c       _isnan                     000000018015067c f   libucrt:ieeemisc.obj
 0001:0014f6a8       _isnanf                    00000001801506a8 f   libucrt:ieeemisc.obj
 0001:0014f6c4       _nextafter                 00000001801506c4 f   libucrt:ieeemisc.obj
 0001:0014f6cc       _nextafterf                00000001801506cc f   libucrt:ieeemisc.obj
 0001:0014f6d4       _scalb                     00000001801506d4 f   libucrt:ieeemisc.obj
 0001:0014f880       _scalbf                    0000000180150880 f   libucrt:ieeemisc.obj
 0001:0014fa20       acosf                      0000000180150a20 f   libucrt:acosf.obj
 0001:0014fcf4       free                       0000000180150cf4 f   libucrt:free.obj
 0001:0014fd08       _initterm                  0000000180150d08 f   libucrt:initterm.obj
 0001:0014fd6c       _initterm_e                0000000180150d6c f   libucrt:initterm.obj
 0001:0014fdcc       _seh_filter_dll            0000000180150dcc f   libucrt:exception_filter.obj
 0001:0014fde0       _seh_filter_exe            0000000180150de0 f   libucrt:exception_filter.obj
 0001:0014ff64       ??$?B$$A6AXPEAXK0@Z@__crt_fast_encoded_nullptr_t@@QEBAP6AXPEAXK0@ZXZ 0000000180150f64 f i libucrt:exit.obj
 0001:0014ffcc       ??$__crt_fast_decode_pointer@P6AXPEAXK0@Z@@YAP6AXPEAXK0@ZQ6AX0K0@Z@Z 0000000180150fcc f i libucrt:exit.obj
 0001:0014ffe4       ??$__crt_fast_encode_pointer@P6AXPEAXK0@Z@@YAP6AXPEAXK0@ZQ6AX0K0@Z@Z 0000000180150fe4 f i libucrt:exit.obj
 0001:00150004       ??$__crt_get_proc_address@P6AXI@Z@@YAP6AXI@ZQEAUHINSTANCE__@@QEBD@Z 0000000180151004 f i libucrt:exit.obj
 0001:0015000c       ??$__crt_interlocked_read@J@@YAJPEDJ@Z 000000018015100c f i libucrt:exit.obj
 0001:00150030       ??0?$__crt_unique_handle_t@U__crt_hmodule_traits@@@@QEAA@QEAUHINSTANCE__@@@Z 0000000180151030 f i libucrt:exit.obj
 0001:00150038       ??1?$__crt_unique_handle_t@U__crt_hmodule_traits@@@@QEAA@XZ 0000000180151038 f i libucrt:exit.obj
 0001:00150130       ?__acrt_select_exit_lock@@YA?AW4__acrt_lock_id@@XZ 0000000180151130 f i libucrt:exit.obj
 0001:00150138       ?__crt_fast_encode_pointer@@YA?AU__crt_fast_encoded_nullptr_t@@$$T@Z 0000000180151138 f i libucrt:exit.obj
 0001:00150140       ?__crt_interlocked_read_32@@YAHPEDH@Z 0000000180151140 f i libucrt:exit.obj
 0001:00150144       ?__crt_rotate_pointer_value@@YA_K_KH@Z 0000000180151144 f i libucrt:exit.obj
 0001:0015015c       ?close@?$__crt_unique_handle_t@U__crt_hmodule_traits@@@@QEAAXXZ 000000018015115c f i libucrt:exit.obj
 0001:00150180       ?close@__crt_hmodule_traits@@SA_NPEAUHINSTANCE__@@@Z 0000000180151180 f i libucrt:exit.obj
 0001:0015029c       ?get@?$__crt_unique_handle_t@U__crt_hmodule_traits@@@@QEBAPEAUHINSTANCE__@@XZ 000000018015129c f i libucrt:exit.obj
 0001:001502a0       ?get_address_of@?$__crt_unique_handle_t@U__crt_hmodule_traits@@@@QEAAPEAPEAUHINSTANCE__@@XZ 00000001801512a0 f i libucrt:exit.obj
 0001:001502a4       ?get_invalid_value@__crt_hmodule_traits@@SAPEAUHINSTANCE__@@XZ 00000001801512a4 f i libucrt:exit.obj
 0001:00150388       _Exit                      0000000180151388 f   libucrt:exit.obj
 0001:00150394       __acrt_initialize_thread_local_exit_callback 0000000180151394 f   libucrt:exit.obj
 0001:0015039c       _c_exit                    000000018015139c f   libucrt:exit.obj
 0001:001503ac       _cexit                     00000001801513ac f   libucrt:exit.obj
 0001:001503bc       _exit                      00000001801513bc f   libucrt:exit.obj
 0001:001503c8       _is_c_termination_complete 00000001801513c8 f   libucrt:exit.obj
 0001:001503d0       _register_thread_local_exe_atexit_callback 00000001801513d0 f   libucrt:exit.obj
 0001:0015040c       exit                       000000018015140c f   libucrt:exit.obj
 0001:00150418       quick_exit                 0000000180151418 f   libucrt:exit.obj
 0001:00150424       ??$?RE@__crt_internal_free_policy@@QEBAXQEBE@Z 0000000180151424 f i libucrt:argv_parsing.obj
 0001:0015042c       ??$?RPEAD@__crt_internal_free_policy@@QEBAXQEBQEAD@Z 000000018015142c f i libucrt:argv_parsing.obj
 0001:00150434       ??$?RPEA_W@__crt_internal_free_policy@@QEBAXQEBQEA_W@Z 0000000180151434 f i libucrt:argv_parsing.obj
 0001:00150728       ??$get_module_file_name@$$TAEAY0BAF@DH@?$__crt_char_traits@D@@SAK$$QEA$$TAEAY0BAF@D$$QEAH@Z 0000000180151728 f i libucrt:argv_parsing.obj
 0001:00150734       ??$get_module_file_name@$$TAEAY0BAF@_WH@?$__crt_char_traits@_W@@SAK$$QEA$$TAEAY0BAF@_W$$QEAH@Z 0000000180151734 f i libucrt:argv_parsing.obj
 0001:00150aa4       ??$set_program_name@PEAD@?$__crt_char_traits@D@@SAX$$QEAPEAD@Z 0000000180151aa4 f i libucrt:argv_parsing.obj
 0001:00150ab0       ??$set_program_name@PEA_W@?$__crt_char_traits@_W@@SAX$$QEAPEA_W@Z 0000000180151ab0 f i libucrt:argv_parsing.obj
 0001:00150acc       ??0?$__crt_unique_heap_ptr@EU__crt_internal_free_policy@@@@QEAA@QEAE@Z 0000000180151acc f i libucrt:argv_parsing.obj
 0001:00150ad4       ??0?$__crt_unique_heap_ptr@PEADU__crt_internal_free_policy@@@@QEAA@QEAPEAD@Z 0000000180151ad4 f i libucrt:argv_parsing.obj
 0001:00150adc       ??0?$__crt_unique_heap_ptr@PEA_WU__crt_internal_free_policy@@@@QEAA@QEAPEA_W@Z 0000000180151adc f i libucrt:argv_parsing.obj
 0001:00150ae4       ??1?$__crt_unique_heap_ptr@EU__crt_internal_free_policy@@@@QEAA@XZ 0000000180151ae4 f i libucrt:argv_parsing.obj
 0001:00150b00       ??1?$__crt_unique_heap_ptr@PEADU__crt_internal_free_policy@@@@QEAA@XZ 0000000180151b00 f i libucrt:argv_parsing.obj
 0001:00150b1c       ??1?$__crt_unique_heap_ptr@PEA_WU__crt_internal_free_policy@@@@QEAA@XZ 0000000180151b1c f i libucrt:argv_parsing.obj
 0001:00150b38       ??B?$__crt_unique_heap_ptr@EU__crt_internal_free_policy@@@@QEBA_NXZ 0000000180151b38 f i libucrt:argv_parsing.obj
 0001:00150b78       ?detach@?$__crt_unique_heap_ptr@EU__crt_internal_free_policy@@@@QEAAPEAEXZ 0000000180151b78 f i libucrt:argv_parsing.obj
 0001:00150b80       ?detach@?$__crt_unique_heap_ptr@PEADU__crt_internal_free_policy@@@@QEAAPEAPEADXZ 0000000180151b80 f i libucrt:argv_parsing.obj
 0001:00150b88       ?detach@?$__crt_unique_heap_ptr@PEA_WU__crt_internal_free_policy@@@@QEAAPEAPEA_WXZ 0000000180151b88 f i libucrt:argv_parsing.obj
 0001:00150bac       ?get@?$__crt_unique_heap_ptr@EU__crt_internal_free_policy@@@@QEBAPEAEXZ 0000000180151bac f i libucrt:argv_parsing.obj
 0001:00150bb0       ?get@?$__crt_unique_heap_ptr@PEADU__crt_internal_free_policy@@@@QEBAPEAPEADXZ 0000000180151bb0 f i libucrt:argv_parsing.obj
 0001:00150bb4       ?get@?$__crt_unique_heap_ptr@PEA_WU__crt_internal_free_policy@@@@QEBAPEAPEA_WXZ 0000000180151bb4 f i libucrt:argv_parsing.obj
 0001:00150bb8       ?get_address_of@?$__crt_unique_heap_ptr@PEADU__crt_internal_free_policy@@@@QEAAPEAPEAPEADXZ 0000000180151bb8 f i libucrt:argv_parsing.obj
 0001:00150bbc       ?get_address_of@?$__crt_unique_heap_ptr@PEA_WU__crt_internal_free_policy@@@@QEAAPEAPEAPEA_WXZ 0000000180151bbc f i libucrt:argv_parsing.obj
 0001:00150be0       ?is_valid@?$__crt_unique_heap_ptr@EU__crt_internal_free_policy@@@@QEBA_NXZ 0000000180151be0 f i libucrt:argv_parsing.obj
 0001:00150be8       ?release@?$__crt_unique_heap_ptr@EU__crt_internal_free_policy@@@@QEAAXXZ 0000000180151be8 f i libucrt:argv_parsing.obj
 0001:00150c04       ?release@?$__crt_unique_heap_ptr@PEADU__crt_internal_free_policy@@@@QEAAXXZ 0000000180151c04 f i libucrt:argv_parsing.obj
 0001:00150c20       ?release@?$__crt_unique_heap_ptr@PEA_WU__crt_internal_free_policy@@@@QEAAXXZ 0000000180151c20 f i libucrt:argv_parsing.obj
 0001:00150c58       __acrt_allocate_buffer_for_argv 0000000180151c58 f   libucrt:argv_parsing.obj
 0001:00150cb8       _configure_narrow_argv     0000000180151cb8 f   libucrt:argv_parsing.obj
 0001:00150e40       _configure_wide_argv       0000000180151e40 f   libucrt:argv_parsing.obj
 0001:00150fc4       _set_pgmptr                0000000180151fc4 f i libucrt:argv_parsing.obj
 0001:00150fcc       _set_wpgmptr               0000000180151fcc f i libucrt:argv_parsing.obj
 0001:00150fd4       ??$?R_W@__crt_internal_free_policy@@QEBAXQEB_W@Z 0000000180151fd4 f i libucrt:environment_initialization.obj
 0001:001514dc       ??$get_environment_from_os@$$V@?$__crt_char_traits@D@@SAPEADXZ 00000001801524dc f i libucrt:environment_initialization.obj
 0001:001514e4       ??$get_environment_from_os@$$V@?$__crt_char_traits@_W@@SAPEA_WXZ 00000001801524e4 f i libucrt:environment_initialization.obj
 0001:00151674       ??$set_variable_in_environment_nolock@PEADH@?$__crt_char_traits@D@@SAH$$QEAPEAD$$QEAH@Z 0000000180152674 f i libucrt:environment_initialization.obj
 0001:00151680       ??$set_variable_in_environment_nolock@PEA_WH@?$__crt_char_traits@_W@@SAH$$QEAPEA_W$$QEAH@Z 0000000180152680 f i libucrt:environment_initialization.obj
 0001:0015168c       ??$tcscpy_s@PEADAEB_KAEAPEAD@?$__crt_char_traits@D@@SAH$$QEAPEADAEB_KAEAPEAD@Z 000000018015268c f i libucrt:environment_initialization.obj
 0001:0015169c       ??$tcscpy_s@PEA_WAEB_KAEAPEA_W@?$__crt_char_traits@_W@@SAH$$QEAPEA_WAEB_KAEAPEA_W@Z 000000018015269c f i libucrt:environment_initialization.obj
 0001:001516ac       ??$tcslen@AEAPEAD@?$__crt_char_traits@D@@SA_KAEAPEAD@Z 00000001801526ac f i libucrt:environment_initialization.obj
 0001:001516c0       ??$tcslen@AEAPEA_W@?$__crt_char_traits@_W@@SA_KAEAPEA_W@Z 00000001801526c0 f i libucrt:environment_initialization.obj
 0001:001516d4       ??$uninitialize@A6AXAEAPEAPEAD@Z@?$dual_state_global@PEAPEAD@__crt_state_management@@QEAAXA6AXAEAPEAPEAD@Z@Z 00000001801526d4 f i libucrt:environment_initialization.obj
 0001:00151718       ??$uninitialize@A6AXAEAPEAPEA_W@Z@?$dual_state_global@PEAPEA_W@__crt_state_management@@QEAAXA6AXAEAPEAPEA_W@Z@Z 0000000180152718 f i libucrt:environment_initialization.obj
 0001:00151794       ??0?$__crt_unique_heap_ptr@_WU__crt_internal_free_policy@@@@QEAA@QEA_W@Z 0000000180152794 f i libucrt:environment_initialization.obj
 0001:0015179c       ??1?$__crt_unique_heap_ptr@_WU__crt_internal_free_policy@@@@QEAA@XZ 000000018015279c f i libucrt:environment_initialization.obj
 0001:001517b8       ??B?$__crt_unique_heap_ptr@PEADU__crt_internal_free_policy@@@@QEBA_NXZ 00000001801527b8 f i libucrt:environment_initialization.obj
 0001:001517c0       ??B?$__crt_unique_heap_ptr@PEA_WU__crt_internal_free_policy@@@@QEBA_NXZ 00000001801527c0 f i libucrt:environment_initialization.obj
 0001:001517c8       ??B?$__crt_unique_heap_ptr@_WU__crt_internal_free_policy@@@@QEBA_NXZ 00000001801527c8 f i libucrt:environment_initialization.obj
 0001:001517d0       ?__crt_compute_required_transform_buffer_count@@YA_KIQEBD@Z 00000001801527d0 f i libucrt:environment_initialization.obj
 0001:001517f4       ?__crt_compute_required_transform_buffer_count@@YA_KIQEB_W@Z 00000001801527f4 f i libucrt:environment_initialization.obj
 0001:00151824       ?__crt_transform_string@@YA_KIQEBDQEA_W_K@Z 0000000180152824 f i libucrt:environment_initialization.obj
 0001:00151848       ?__crt_transform_string@@YA_KIQEB_WQEAD_K@Z 0000000180152848 f i libucrt:environment_initialization.obj
 0001:00151878       ?detach@?$__crt_unique_heap_ptr@DU__crt_internal_free_policy@@@@QEAAPEADXZ 0000000180152878 f i libucrt:environment_initialization.obj
 0001:00151880       ?detach@?$__crt_unique_heap_ptr@_WU__crt_internal_free_policy@@@@QEAAPEA_WXZ 0000000180152880 f i libucrt:environment_initialization.obj
 0001:00151888       ?get@?$__crt_unique_heap_ptr@_WU__crt_internal_free_policy@@@@QEBAPEA_WXZ 0000000180152888 f i libucrt:environment_initialization.obj
 0001:0015188c       ?get_current_state_index@__crt_state_management@@YA_KXZ 000000018015288c f i libucrt:environment_initialization.obj
 0001:001518c0       ?initialize@?$dual_state_global@PEAPEAD@__crt_state_management@@QEAAXQEAPEAD@Z 00000001801528c0 f i libucrt:environment_initialization.obj
 0001:001518e8       ?initialize@?$dual_state_global@PEAPEA_W@__crt_state_management@@QEAAXQEAPEA_W@Z 00000001801528e8 f i libucrt:environment_initialization.obj
 0001:00151910       ?is_valid@?$__crt_unique_heap_ptr@PEADU__crt_internal_free_policy@@@@QEBA_NXZ 0000000180152910 f i libucrt:environment_initialization.obj
 0001:00151918       ?is_valid@?$__crt_unique_heap_ptr@PEA_WU__crt_internal_free_policy@@@@QEBA_NXZ 0000000180152918 f i libucrt:environment_initialization.obj
 0001:00151920       ?is_valid@?$__crt_unique_heap_ptr@_WU__crt_internal_free_policy@@@@QEBA_NXZ 0000000180152920 f i libucrt:environment_initialization.obj
 0001:00151934       ?release@?$__crt_unique_heap_ptr@_WU__crt_internal_free_policy@@@@QEAAXXZ 0000000180152934 f i libucrt:environment_initialization.obj
 0001:00151950       ?value@?$dual_state_global@PEAPEAD@__crt_state_management@@QEAAAEAPEAPEADXZ 0000000180152950 f i libucrt:environment_initialization.obj
 0001:00151954       ?value@?$dual_state_global@PEAPEA_W@__crt_state_management@@QEAAAEAPEAPEA_WXZ 0000000180152954 f i libucrt:environment_initialization.obj
 0001:00151958       __dcrt_get_or_create_narrow_environment_nolock 0000000180152958 f   libucrt:environment_initialization.obj
 0001:00151994       __dcrt_get_or_create_wide_environment_nolock 0000000180152994 f   libucrt:environment_initialization.obj
 0001:001519d0       __dcrt_uninitialize_environments_nolock 00000001801529d0 f   libucrt:environment_initialization.obj
 0001:00151a08       __p__environ               0000000180152a08 f   libucrt:environment_initialization.obj
 0001:00151a10       __p__wenviron              0000000180152a10 f   libucrt:environment_initialization.obj
 0001:00151a18       _get_initial_narrow_environment 0000000180152a18 f   libucrt:environment_initialization.obj
 0001:00151a68       _get_initial_wide_environment 0000000180152a68 f   libucrt:environment_initialization.obj
 0001:00151ab8       _initialize_narrow_environment 0000000180152ab8 f   libucrt:environment_initialization.obj
 0001:00151ac0       _initialize_wide_environment 0000000180152ac0 f   libucrt:environment_initialization.obj
 0001:00151ac8       _invoke_watson_if_error    0000000180152ac8 f i libucrt:environment_initialization.obj
 0001:00151afc       ??$?B$$A6AXXZ@__crt_fast_encoded_nullptr_t@@QEBAP6AXXZXZ 0000000180152afc f i libucrt:onexit.obj
 0001:00151b04       ??$?BP6AXXZ@__crt_fast_encoded_nullptr_t@@QEBAPEAP6AXXZXZ 0000000180152b04 f i libucrt:onexit.obj
 0001:00151b0c       ??$?RP6AXXZ@__crt_internal_free_policy@@QEBAXQEBQ6AXXZ@Z 0000000180152b0c f i libucrt:onexit.obj
 0001:00151bdc       ??$__crt_fast_decode_pointer@P6AXXZ@@YAP6AXXZQ6AXXZ@Z 0000000180152bdc f i libucrt:onexit.obj
 0001:00151bf4       ??$__crt_fast_decode_pointer@PEAP6AXXZ@@YAPEAP6AXXZQEAP6AXXZ@Z 0000000180152bf4 f i libucrt:onexit.obj
 0001:00151c0c       ??$__crt_fast_encode_pointer@P6AHXZ@@YAP6AHXZQ6AHXZ@Z 0000000180152c0c f i libucrt:onexit.obj
 0001:00151c2c       ??$__crt_fast_encode_pointer@P6AXXZ@@YAP6AXXZQ6AXXZ@Z 0000000180152c2c f i libucrt:onexit.obj
 0001:00151c4c       ??$__crt_fast_encode_pointer@PEAP6AXXZ@@YAPEAP6AXXZQEAP6AXXZ@Z 0000000180152c4c f i libucrt:onexit.obj
 0001:00151ca0       ??0?$__crt_unique_heap_ptr@P6AXXZU__crt_internal_free_policy@@@@QEAA@QEAP6AXXZ@Z 0000000180152ca0 f i libucrt:onexit.obj
 0001:00151ca8       ??1?$__crt_unique_heap_ptr@P6AXXZU__crt_internal_free_policy@@@@QEAA@XZ 0000000180152ca8 f i libucrt:onexit.obj
 0001:00151cc4       ??1scoped_global_state_reset@__crt_state_management@@QEAA@XZ 0000000180152cc4 f i libucrt:onexit.obj
 0001:00151fb0       ?detach@?$__crt_unique_heap_ptr@P6AXXZU__crt_internal_free_policy@@@@QEAAPEAP6AXXZXZ 0000000180152fb0 f i libucrt:onexit.obj
 0001:00151fb8       ?release@?$__crt_unique_heap_ptr@P6AXXZU__crt_internal_free_policy@@@@QEAAXXZ 0000000180152fb8 f i libucrt:onexit.obj
 0001:00151fd4       _crt_at_quick_exit         0000000180152fd4 f   libucrt:onexit.obj
 0001:00151fe4       _crt_atexit                0000000180152fe4 f   libucrt:onexit.obj
 0001:00151ff4       _execute_onexit_table      0000000180152ff4 f   libucrt:onexit.obj
 0001:00152030       _initialize_onexit_table   0000000180153030 f   libucrt:onexit.obj
 0001:00152058       _register_onexit_function  0000000180153058 f   libucrt:onexit.obj
 0001:001521e0       ??$?BX@__crt_fast_encoded_nullptr_t@@QEBAPEAXXZ 00000001801531e0 f i libucrt:initialization.obj
 0001:001521e8       ??$__crt_fast_encode_pointer@PEAX@@YAPEAXQEAX@Z 00000001801531e8 f i libucrt:initialization.obj
 0001:001522b8       ?__acrt_stdio_is_initialized@@YA_NXZ 00000001801532b8 f i libucrt:initialization.obj
 0001:001522c4       ?initialize@?$dual_state_global@PEAU__crt_locale_data@@@__crt_state_management@@QEAAXQEAU__crt_locale_data@@@Z 00000001801532c4 f i libucrt:initialization.obj
 0001:001522ec       __acrt_initialize          00000001801532ec f   libucrt:initialization.obj
 0001:00152300       __acrt_thread_attach       0000000180153300 f   libucrt:initialization.obj
 0001:00152314       __acrt_thread_detach       0000000180153314 f   libucrt:initialization.obj
 0001:00152324       __acrt_uninitialize        0000000180153324 f   libucrt:initialization.obj
 0001:0015235c       __acrt_uninitialize_critical 000000018015335c f   libucrt:initialization.obj
 0001:00152380       _get_terminate             0000000180153380 f   libucrt:terminate.obj
 0001:001523a4       set_terminate              00000001801533a4 f   libucrt:terminate.obj
 0001:001523d0       terminate                  00000001801533d0 f   libucrt:terminate.obj
 0001:001523f0       _set_abort_behavior        00000001801533f0 f   libucrt:abort.obj
 0001:0015240c       abort                      000000018015340c f   libucrt:abort.obj
 0001:00152464       malloc                     0000000180153464 f   libucrt:malloc.obj
 0001:001524d0       strcpy_s                   00000001801534d0 f   libucrt:strcpy_s.obj
 0001:00152530       ??$?0AEBV?$stream_output_adapter@D@__crt_stdio_output@@AEB_KAEBQEBDAEBQEAU__crt_locale_pointers@@AEBQEAD@?$format_validation_base@DV?$stream_output_adapter@D@__crt_stdio_output@@@__crt_stdio_output@@IEAA@AEBV?$stream_output_adapter@D@1@AEB_KAEBQEBDAEBQEAU__crt_locale_pointers@@AEBQEAD@Z 0000000180153530 f i libucrt:output.obj
 0001:001525b4       ??$?0AEBV?$stream_output_adapter@D@__crt_stdio_output@@AEB_KAEBQEBDAEBQEAU__crt_locale_pointers@@AEBQEAD@?$positional_parameter_base@DV?$stream_output_adapter@D@__crt_stdio_output@@@__crt_stdio_output@@IEAA@AEBV?$stream_output_adapter@D@1@AEB_KAEBQEBDAEBQEAU__crt_locale_pointers@@AEBQEAD@Z 00000001801535b4 f i libucrt:output.obj
 0001:00152654       ??$?0AEBV?$stream_output_adapter@D@__crt_stdio_output@@AEB_KAEBQEBDAEBQEAU__crt_locale_pointers@@AEBQEAD@?$standard_base@DV?$stream_output_adapter@D@__crt_stdio_output@@@__crt_stdio_output@@IEAA@AEBV?$stream_output_adapter@D@1@AEB_KAEBQEBDAEBQEAU__crt_locale_pointers@@AEBQEAD@Z 0000000180153654 f i libucrt:output.obj
 0001:001526d8       ??$?0AEBV?$stream_output_adapter@_W@__crt_stdio_output@@AEB_KAEBQEB_WAEBQEAU__crt_locale_pointers@@AEBQEAD@?$format_validation_base@_WV?$stream_output_adapter@_W@__crt_stdio_output@@@__crt_stdio_output@@IEAA@AEBV?$stream_output_adapter@_W@1@AEB_KAEBQEB_WAEBQEAU__crt_locale_pointers@@AEBQEAD@Z 00000001801536d8 f i libucrt:output.obj
 0001:00152760       ??$?0AEBV?$stream_output_adapter@_W@__crt_stdio_output@@AEB_KAEBQEB_WAEBQEAU__crt_locale_pointers@@AEBQEAD@?$positional_parameter_base@_WV?$stream_output_adapter@_W@__crt_stdio_output@@@__crt_stdio_output@@IEAA@AEBV?$stream_output_adapter@_W@1@AEB_KAEBQEB_WAEBQEAU__crt_locale_pointers@@AEBQEAD@Z 0000000180153760 f i libucrt:output.obj
 0001:00152804       ??$?0AEBV?$stream_output_adapter@_W@__crt_stdio_output@@AEB_KAEBQEB_WAEBQEAU__crt_locale_pointers@@AEBQEAD@?$standard_base@_WV?$stream_output_adapter@_W@__crt_stdio_output@@@__crt_stdio_output@@IEAA@AEBV?$stream_output_adapter@_W@1@AEB_KAEBQEB_WAEBQEAU__crt_locale_pointers@@AEBQEAD@Z 0000000180153804 f i libucrt:output.obj
 0001:0015288c       ??$?0AEBV?$string_output_adapter@D@__crt_stdio_output@@AEB_KAEBQEBDAEBQEAU__crt_locale_pointers@@AEBQEAD@?$format_validation_base@DV?$string_output_adapter@D@__crt_stdio_output@@@__crt_stdio_output@@IEAA@AEBV?$string_output_adapter@D@1@AEB_KAEBQEBDAEBQEAU__crt_locale_pointers@@AEBQEAD@Z 000000018015388c f i libucrt:output.obj
 0001:00152910       ??$?0AEBV?$string_output_adapter@D@__crt_stdio_output@@AEB_KAEBQEBDAEBQEAU__crt_locale_pointers@@AEBQEAD@?$positional_parameter_base@DV?$string_output_adapter@D@__crt_stdio_output@@@__crt_stdio_output@@IEAA@AEBV?$string_output_adapter@D@1@AEB_KAEBQEBDAEBQEAU__crt_locale_pointers@@AEBQEAD@Z 0000000180153910 f i libucrt:output.obj
 0001:001529b0       ??$?0AEBV?$string_output_adapter@D@__crt_stdio_output@@AEB_KAEBQEBDAEBQEAU__crt_locale_pointers@@AEBQEAD@?$standard_base@DV?$string_output_adapter@D@__crt_stdio_output@@@__crt_stdio_output@@IEAA@AEBV?$string_output_adapter@D@1@AEB_KAEBQEBDAEBQEAU__crt_locale_pointers@@AEBQEAD@Z 00000001801539b0 f i libucrt:output.obj
 0001:00152a34       ??$?0AEBV?$string_output_adapter@_W@__crt_stdio_output@@AEB_KAEBQEB_WAEBQEAU__crt_locale_pointers@@AEBQEAD@?$format_validation_base@_WV?$string_output_adapter@_W@__crt_stdio_output@@@__crt_stdio_output@@IEAA@AEBV?$string_output_adapter@_W@1@AEB_KAEBQEB_WAEBQEAU__crt_locale_pointers@@AEBQEAD@Z 0000000180153a34 f i libucrt:output.obj
 0001:00152abc       ??$?0AEBV?$string_output_adapter@_W@__crt_stdio_output@@AEB_KAEBQEB_WAEBQEAU__crt_locale_pointers@@AEBQEAD@?$positional_parameter_base@_WV?$string_output_adapter@_W@__crt_stdio_output@@@__crt_stdio_output@@IEAA@AEBV?$string_output_adapter@_W@1@AEB_KAEBQEB_WAEBQEAU__crt_locale_pointers@@AEBQEAD@Z 0000000180153abc f i libucrt:output.obj
 0001:00152b60       ??$?0AEBV?$string_output_adapter@_W@__crt_stdio_output@@AEB_KAEBQEB_WAEBQEAU__crt_locale_pointers@@AEBQEAD@?$standard_base@_WV?$string_output_adapter@_W@__crt_stdio_output@@@__crt_stdio_output@@IEAA@AEBV?$string_output_adapter@_W@1@AEB_KAEBQEB_WAEBQEAU__crt_locale_pointers@@AEBQEAD@Z 0000000180153b60 f i libucrt:output.obj
 0001:00153fe4       ??$count@D@formatting_buffer@__crt_stdio_output@@QEBA_KXZ 0000000180154fe4 f i libucrt:output.obj
 0001:00154000       ??$count@_W@formatting_buffer@__crt_stdio_output@@QEBA_KXZ 0000000180155000 f i libucrt:output.obj
 0001:0015401c       ??$data@D@formatting_buffer@__crt_stdio_output@@QEAAPEADXZ 000000018015501c f i libucrt:output.obj
 0001:0015402c       ??$data@_W@formatting_buffer@__crt_stdio_output@@QEAAPEA_WXZ 000000018015502c f i libucrt:output.obj
 0001:0015403c       ??$ensure_buffer_is_big_enough@D@formatting_buffer@__crt_stdio_output@@QEAA_N_K@Z 000000018015503c f i libucrt:output.obj
 0001:001540e4       ??$ensure_buffer_is_big_enough@_W@formatting_buffer@__crt_stdio_output@@QEAA_N_K@Z 00000001801550e4 f i libucrt:output.obj
 0001:00154190       ??$extract_argument_from_va_list@C_J@?$positional_parameter_base@DV?$stream_output_adapter@D@__crt_stdio_output@@@__crt_stdio_output@@IEAA_NAEA_J@Z 0000000180155190 f i libucrt:output.obj
 0001:0015424c       ??$extract_argument_from_va_list@C_J@?$positional_parameter_base@DV?$string_output_adapter@D@__crt_stdio_output@@@__crt_stdio_output@@IEAA_NAEA_J@Z 000000018015524c f i libucrt:output.obj
 0001:00154308       ??$extract_argument_from_va_list@C_J@?$positional_parameter_base@_WV?$stream_output_adapter@_W@__crt_stdio_output@@@__crt_stdio_output@@IEAA_NAEA_J@Z 0000000180155308 f i libucrt:output.obj
 0001:001543c8       ??$extract_argument_from_va_list@C_J@?$positional_parameter_base@_WV?$string_output_adapter@_W@__crt_stdio_output@@@__crt_stdio_output@@IEAA_NAEA_J@Z 00000001801553c8 f i libucrt:output.obj
 0001:00154488       ??$extract_argument_from_va_list@C_J@?$standard_base@DV?$stream_output_adapter@D@__crt_stdio_output@@@__crt_stdio_output@@IEAA_NAEA_J@Z 0000000180155488 f i libucrt:output.obj
 0001:0015449c       ??$extract_argument_from_va_list@C_J@?$standard_base@DV?$string_output_adapter@D@__crt_stdio_output@@@__crt_stdio_output@@IEAA_NAEA_J@Z 000000018015549c f i libucrt:output.obj
 0001:001544b0       ??$extract_argument_from_va_list@C_J@?$standard_base@_WV?$stream_output_adapter@_W@__crt_stdio_output@@@__crt_stdio_output@@IEAA_NAEA_J@Z 00000001801554b0 f i libucrt:output.obj
 0001:001544c4       ??$extract_argument_from_va_list@C_J@?$standard_base@_WV?$string_output_adapter@_W@__crt_stdio_output@@@__crt_stdio_output@@IEAA_NAEA_J@Z 00000001801554c4 f i libucrt:output.obj
 0001:001544d8       ??$extract_argument_from_va_list@E_J@?$positional_parameter_base@DV?$stream_output_adapter@D@__crt_stdio_output@@@__crt_stdio_output@@IEAA_NAEA_J@Z 00000001801554d8 f i libucrt:output.obj
 0001:00154594       ??$extract_argument_from_va_list@E_J@?$positional_parameter_base@DV?$string_output_adapter@D@__crt_stdio_output@@@__crt_stdio_output@@IEAA_NAEA_J@Z 0000000180155594 f i libucrt:output.obj
 0001:00154650       ??$extract_argument_from_va_list@E_J@?$positional_parameter_base@_WV?$stream_output_adapter@_W@__crt_stdio_output@@@__crt_stdio_output@@IEAA_NAEA_J@Z 0000000180155650 f i libucrt:output.obj
 0001:00154710       ??$extract_argument_from_va_list@E_J@?$positional_parameter_base@_WV?$string_output_adapter@_W@__crt_stdio_output@@@__crt_stdio_output@@IEAA_NAEA_J@Z 0000000180155710 f i libucrt:output.obj
 0001:001547d0       ??$extract_argument_from_va_list@E_J@?$standard_base@DV?$stream_output_adapter@D@__crt_stdio_output@@@__crt_stdio_output@@IEAA_NAEA_J@Z 00000001801557d0 f i libucrt:output.obj
 0001:001547e4       ??$extract_argument_from_va_list@E_J@?$standard_base@DV?$string_output_adapter@D@__crt_stdio_output@@@__crt_stdio_output@@IEAA_NAEA_J@Z 00000001801557e4 f i libucrt:output.obj
 0001:001547f8       ??$extract_argument_from_va_list@E_J@?$standard_base@_WV?$stream_output_adapter@_W@__crt_stdio_output@@@__crt_stdio_output@@IEAA_NAEA_J@Z 00000001801557f8 f i libucrt:output.obj
 0001:0015480c       ??$extract_argument_from_va_list@E_J@?$standard_base@_WV?$string_output_adapter@_W@__crt_stdio_output@@@__crt_stdio_output@@IEAA_NAEA_J@Z 000000018015580c f i libucrt:output.obj
 0001:00154820       ??$extract_argument_from_va_list@F_J@?$positional_parameter_base@DV?$stream_output_adapter@D@__crt_stdio_output@@@__crt_stdio_output@@IEAA_NAEA_J@Z 0000000180155820 f i libucrt:output.obj
 0001:001548dc       ??$extract_argument_from_va_list@F_J@?$positional_parameter_base@DV?$string_output_adapter@D@__crt_stdio_output@@@__crt_stdio_output@@IEAA_NAEA_J@Z 00000001801558dc f i libucrt:output.obj
 0001:00154998       ??$extract_argument_from_va_list@F_J@?$positional_parameter_base@_WV?$stream_output_adapter@_W@__crt_stdio_output@@@__crt_stdio_output@@IEAA_NAEA_J@Z 0000000180155998 f i libucrt:output.obj
 0001:00154a58       ??$extract_argument_from_va_list@F_J@?$positional_parameter_base@_WV?$string_output_adapter@_W@__crt_stdio_output@@@__crt_stdio_output@@IEAA_NAEA_J@Z 0000000180155a58 f i libucrt:output.obj
 0001:00154b18       ??$extract_argument_from_va_list@F_J@?$standard_base@DV?$stream_output_adapter@D@__crt_stdio_output@@@__crt_stdio_output@@IEAA_NAEA_J@Z 0000000180155b18 f i libucrt:output.obj
 0001:00154b2c       ??$extract_argument_from_va_list@F_J@?$standard_base@DV?$string_output_adapter@D@__crt_stdio_output@@@__crt_stdio_output@@IEAA_NAEA_J@Z 0000000180155b2c f i libucrt:output.obj
 0001:00154b40       ??$extract_argument_from_va_list@F_J@?$standard_base@_WV?$stream_output_adapter@_W@__crt_stdio_output@@@__crt_stdio_output@@IEAA_NAEA_J@Z 0000000180155b40 f i libucrt:output.obj
 0001:00154b54       ??$extract_argument_from_va_list@F_J@?$standard_base@_WV?$string_output_adapter@_W@__crt_stdio_output@@@__crt_stdio_output@@IEAA_NAEA_J@Z 0000000180155b54 f i libucrt:output.obj
 0001:00154b68       ??$extract_argument_from_va_list@GD@?$positional_parameter_base@DV?$stream_output_adapter@D@__crt_stdio_output@@@__crt_stdio_output@@IEAA_NAEAD@Z 0000000180155b68 f i libucrt:output.obj
 0001:00154c20       ??$extract_argument_from_va_list@GD@?$positional_parameter_base@DV?$string_output_adapter@D@__crt_stdio_output@@@__crt_stdio_output@@IEAA_NAEAD@Z 0000000180155c20 f i libucrt:output.obj
 0001:00154cd8       ??$extract_argument_from_va_list@GD@?$standard_base@DV?$stream_output_adapter@D@__crt_stdio_output@@@__crt_stdio_output@@IEAA_NAEAD@Z 0000000180155cd8 f i libucrt:output.obj
 0001:00154cec       ??$extract_argument_from_va_list@GD@?$standard_base@DV?$string_output_adapter@D@__crt_stdio_output@@@__crt_stdio_output@@IEAA_NAEAD@Z 0000000180155cec f i libucrt:output.obj
 0001:00154d00       ??$extract_argument_from_va_list@G_J@?$positional_parameter_base@DV?$stream_output_adapter@D@__crt_stdio_output@@@__crt_stdio_output@@IEAA_NAEA_J@Z 0000000180155d00 f i libucrt:output.obj
 0001:00154dbc       ??$extract_argument_from_va_list@G_J@?$positional_parameter_base@DV?$string_output_adapter@D@__crt_stdio_output@@@__crt_stdio_output@@IEAA_NAEA_J@Z 0000000180155dbc f i libucrt:output.obj
 0001:00154e78       ??$extract_argument_from_va_list@G_J@?$positional_parameter_base@_WV?$stream_output_adapter@_W@__crt_stdio_output@@@__crt_stdio_output@@IEAA_NAEA_J@Z 0000000180155e78 f i libucrt:output.obj
 0001:00154f38       ??$extract_argument_from_va_list@G_J@?$positional_parameter_base@_WV?$string_output_adapter@_W@__crt_stdio_output@@@__crt_stdio_output@@IEAA_NAEA_J@Z 0000000180155f38 f i libucrt:output.obj
 0001:00154ff8       ??$extract_argument_from_va_list@G_J@?$standard_base@DV?$stream_output_adapter@D@__crt_stdio_output@@@__crt_stdio_output@@IEAA_NAEA_J@Z 0000000180155ff8 f i libucrt:output.obj
 0001:0015500c       ??$extract_argument_from_va_list@G_J@?$standard_base@DV?$string_output_adapter@D@__crt_stdio_output@@@__crt_stdio_output@@IEAA_NAEA_J@Z 000000018015600c f i libucrt:output.obj
 0001:00155020       ??$extract_argument_from_va_list@G_J@?$standard_base@_WV?$stream_output_adapter@_W@__crt_stdio_output@@@__crt_stdio_output@@IEAA_NAEA_J@Z 0000000180156020 f i libucrt:output.obj
 0001:00155034       ??$extract_argument_from_va_list@G_J@?$standard_base@_WV?$string_output_adapter@_W@__crt_stdio_output@@@__crt_stdio_output@@IEAA_NAEA_J@Z 0000000180156034 f i libucrt:output.obj
 0001:00155048       ??$extract_argument_from_va_list@H_J@?$positional_parameter_base@DV?$stream_output_adapter@D@__crt_stdio_output@@@__crt_stdio_output@@IEAA_NAEA_J@Z 0000000180156048 f i libucrt:output.obj
 0001:00155104       ??$extract_argument_from_va_list@H_J@?$positional_parameter_base@DV?$string_output_adapter@D@__crt_stdio_output@@@__crt_stdio_output@@IEAA_NAEA_J@Z 0000000180156104 f i libucrt:output.obj
 0001:001551c0       ??$extract_argument_from_va_list@H_J@?$positional_parameter_base@_WV?$stream_output_adapter@_W@__crt_stdio_output@@@__crt_stdio_output@@IEAA_NAEA_J@Z 00000001801561c0 f i libucrt:output.obj
 0001:0015527c       ??$extract_argument_from_va_list@H_J@?$positional_parameter_base@_WV?$string_output_adapter@_W@__crt_stdio_output@@@__crt_stdio_output@@IEAA_NAEA_J@Z 000000018015627c f i libucrt:output.obj
 0001:00155338       ??$extract_argument_from_va_list@H_J@?$standard_base@DV?$stream_output_adapter@D@__crt_stdio_output@@@__crt_stdio_output@@IEAA_NAEA_J@Z 0000000180156338 f i libucrt:output.obj
 0001:0015534c       ??$extract_argument_from_va_list@H_J@?$standard_base@DV?$string_output_adapter@D@__crt_stdio_output@@@__crt_stdio_output@@IEAA_NAEA_J@Z 000000018015634c f i libucrt:output.obj
 0001:00155360       ??$extract_argument_from_va_list@H_J@?$standard_base@_WV?$stream_output_adapter@_W@__crt_stdio_output@@@__crt_stdio_output@@IEAA_NAEA_J@Z 0000000180156360 f i libucrt:output.obj
 0001:00155374       ??$extract_argument_from_va_list@H_J@?$standard_base@_WV?$string_output_adapter@_W@__crt_stdio_output@@@__crt_stdio_output@@IEAA_NAEA_J@Z 0000000180156374 f i libucrt:output.obj
 0001:00155388       ??$extract_argument_from_va_list@I_J@?$positional_parameter_base@DV?$stream_output_adapter@D@__crt_stdio_output@@@__crt_stdio_output@@IEAA_NAEA_J@Z 0000000180156388 f i libucrt:output.obj
 0001:00155444       ??$extract_argument_from_va_list@I_J@?$positional_parameter_base@DV?$string_output_adapter@D@__crt_stdio_output@@@__crt_stdio_output@@IEAA_NAEA_J@Z 0000000180156444 f i libucrt:output.obj
 0001:00155500       ??$extract_argument_from_va_list@I_J@?$positional_parameter_base@_WV?$stream_output_adapter@_W@__crt_stdio_output@@@__crt_stdio_output@@IEAA_NAEA_J@Z 0000000180156500 f i libucrt:output.obj
 0001:001555bc       ??$extract_argument_from_va_list@I_J@?$positional_parameter_base@_WV?$string_output_adapter@_W@__crt_stdio_output@@@__crt_stdio_output@@IEAA_NAEA_J@Z 00000001801565bc f i libucrt:output.obj
 0001:00155678       ??$extract_argument_from_va_list@I_J@?$standard_base@DV?$stream_output_adapter@D@__crt_stdio_output@@@__crt_stdio_output@@IEAA_NAEA_J@Z 0000000180156678 f i libucrt:output.obj
 0001:0015568c       ??$extract_argument_from_va_list@I_J@?$standard_base@DV?$string_output_adapter@D@__crt_stdio_output@@@__crt_stdio_output@@IEAA_NAEA_J@Z 000000018015668c f i libucrt:output.obj
 0001:001556a0       ??$extract_argument_from_va_list@I_J@?$standard_base@_WV?$stream_output_adapter@_W@__crt_stdio_output@@@__crt_stdio_output@@IEAA_NAEA_J@Z 00000001801566a0 f i libucrt:output.obj
 0001:001556b4       ??$extract_argument_from_va_list@I_J@?$standard_base@_WV?$string_output_adapter@_W@__crt_stdio_output@@@__crt_stdio_output@@IEAA_NAEA_J@Z 00000001801566b4 f i libucrt:output.obj
 0001:001556c8       ??$extract_argument_from_va_list@PEADPEAD@?$positional_parameter_base@DV?$stream_output_adapter@D@__crt_stdio_output@@@__crt_stdio_output@@IEAA_NAEAPEAD@Z 00000001801566c8 f i libucrt:output.obj
 0001:00155784       ??$extract_argument_from_va_list@PEADPEAD@?$positional_parameter_base@DV?$string_output_adapter@D@__crt_stdio_output@@@__crt_stdio_output@@IEAA_NAEAPEAD@Z 0000000180156784 f i libucrt:output.obj
 0001:00155840       ??$extract_argument_from_va_list@PEADPEAD@?$positional_parameter_base@_WV?$stream_output_adapter@_W@__crt_stdio_output@@@__crt_stdio_output@@IEAA_NAEAPEAD@Z 0000000180156840 f i libucrt:output.obj
 0001:001558fc       ??$extract_argument_from_va_list@PEADPEAD@?$positional_parameter_base@_WV?$string_output_adapter@_W@__crt_stdio_output@@@__crt_stdio_output@@IEAA_NAEAPEAD@Z 00000001801568fc f i libucrt:output.obj
 0001:001559b8       ??$extract_argument_from_va_list@PEADPEAD@?$standard_base@DV?$stream_output_adapter@D@__crt_stdio_output@@@__crt_stdio_output@@IEAA_NAEAPEAD@Z 00000001801569b8 f i libucrt:output.obj
 0001:001559cc       ??$extract_argument_from_va_list@PEADPEAD@?$standard_base@DV?$string_output_adapter@D@__crt_stdio_output@@@__crt_stdio_output@@IEAA_NAEAPEAD@Z 00000001801569cc f i libucrt:output.obj
 0001:001559e0       ??$extract_argument_from_va_list@PEADPEAD@?$standard_base@_WV?$stream_output_adapter@_W@__crt_stdio_output@@@__crt_stdio_output@@IEAA_NAEAPEAD@Z 00000001801569e0 f i libucrt:output.obj
 0001:001559f4       ??$extract_argument_from_va_list@PEADPEAD@?$standard_base@_WV?$string_output_adapter@_W@__crt_stdio_output@@@__crt_stdio_output@@IEAA_NAEAPEAD@Z 00000001801569f4 f i libucrt:output.obj
 0001:00155a08       ??$extract_argument_from_va_list@PEAUansi_string@?1??type_case_Z@?$output_processor@DV?$stream_output_adapter@D@__crt_stdio_output@@V?$format_validation_base@DV?$stream_output_adapter@D@__crt_stdio_output@@@2@@__crt_stdio_output@@AEAA_NXZ@PEAU1?1??234@AEAA_NXZ@@?$standard_base@DV?$stream_output_adapter@D@__crt_stdio_output@@@__crt_stdio_output@@IEAA_NAEAPEAUansi_string@?1??type_case_Z@?$output_processor@DV?$stream_output_adapter@D@__crt_stdio_output@@V?$format_validation_base@DV?$stream_output_adapter@D@__crt_stdio_output@@@2@@1@AEAA_NXZ@@Z 0000000180156a08 f i libucrt:output.obj
 0001:00155a1c       ??$extract_argument_from_va_list@PEAUansi_string@?1??type_case_Z@?$output_processor@DV?$stream_output_adapter@D@__crt_stdio_output@@V?$positional_parameter_base@DV?$stream_output_adapter@D@__crt_stdio_output@@@2@@__crt_stdio_output@@AEAA_NXZ@PEAU1?1??234@AEAA_NXZ@@?$positional_parameter_base@DV?$stream_output_adapter@D@__crt_stdio_output@@@__crt_stdio_output@@IEAA_NAEAPEAUansi_string@?1??type_case_Z@?$output_processor@DV?$stream_output_adapter@D@__crt_stdio_output@@V?$positional_parameter_base@DV?$stream_output_adapter@D@__crt_stdio_output@@@2@@1@AEAA_NXZ@@Z 0000000180156a1c f i libucrt:output.obj
 0001:00155ad8       ??$extract_argument_from_va_list@PEAUansi_string@?1??type_case_Z@?$output_processor@DV?$stream_output_adapter@D@__crt_stdio_output@@V?$positional_parameter_base@DV?$stream_output_adapter@D@__crt_stdio_output@@@2@@__crt_stdio_output@@AEAA_NXZ@PEAU1?1??234@AEAA_NXZ@@?$standard_base@DV?$stream_output_adapter@D@__crt_stdio_output@@@__crt_stdio_output@@IEAA_NAEAPEAUansi_string@?1??type_case_Z@?$output_processor@DV?$stream_output_adapter@D@__crt_stdio_output@@V?$positional_parameter_base@DV?$stream_output_adapter@D@__crt_stdio_output@@@2@@1@AEAA_NXZ@@Z 0000000180156ad8 f i libucrt:output.obj
 0001:00155aec       ??$extract_argument_from_va_list@PEAUansi_string@?1??type_case_Z@?$output_processor@DV?$stream_output_adapter@D@__crt_stdio_output@@V?$standard_base@DV?$stream_output_adapter@D@__crt_stdio_output@@@2@@__crt_stdio_output@@AEAA_NXZ@PEAU1?1??234@AEAA_NXZ@@?$standard_base@DV?$stream_output_adapter@D@__crt_stdio_output@@@__crt_stdio_output@@IEAA_NAEAPEAUansi_string@?1??type_case_Z@?$output_processor@DV?$stream_output_adapter@D@__crt_stdio_output@@V?$standard_base@DV?$stream_output_adapter@D@__crt_stdio_output@@@2@@1@AEAA_NXZ@@Z 0000000180156aec f i libucrt:output.obj
 0001:00155b00       ??$extract_argument_from_va_list@PEAUansi_string@?1??type_case_Z@?$output_processor@DV?$string_output_adapter@D@__crt_stdio_output@@V?$format_validation_base@DV?$string_output_adapter@D@__crt_stdio_output@@@2@@__crt_stdio_output@@AEAA_NXZ@PEAU1?1??234@AEAA_NXZ@@?$standard_base@DV?$string_output_adapter@D@__crt_stdio_output@@@__crt_stdio_output@@IEAA_NAEAPEAUansi_string@?1??type_case_Z@?$output_processor@DV?$string_output_adapter@D@__crt_stdio_output@@V?$format_validation_base@DV?$string_output_adapter@D@__crt_stdio_output@@@2@@1@AEAA_NXZ@@Z 0000000180156b00 f i libucrt:output.obj
 0001:00155b14       ??$extract_argument_from_va_list@PEAUansi_string@?1??type_case_Z@?$output_processor@DV?$string_output_adapter@D@__crt_stdio_output@@V?$positional_parameter_base@DV?$string_output_adapter@D@__crt_stdio_output@@@2@@__crt_stdio_output@@AEAA_NXZ@PEAU1?1??234@AEAA_NXZ@@?$positional_parameter_base@DV?$string_output_adapter@D@__crt_stdio_output@@@__crt_stdio_output@@IEAA_NAEAPEAUansi_string@?1??type_case_Z@?$output_processor@DV?$string_output_adapter@D@__crt_stdio_output@@V?$positional_parameter_base@DV?$string_output_adapter@D@__crt_stdio_output@@@2@@1@AEAA_NXZ@@Z 0000000180156b14 f i libucrt:output.obj
 0001:00155bd0       ??$extract_argument_from_va_list@PEAUansi_string@?1??type_case_Z@?$output_processor@DV?$string_output_adapter@D@__crt_stdio_output@@V?$positional_parameter_base@DV?$string_output_adapter@D@__crt_stdio_output@@@2@@__crt_stdio_output@@AEAA_NXZ@PEAU1?1??234@AEAA_NXZ@@?$standard_base@DV?$string_output_adapter@D@__crt_stdio_output@@@__crt_stdio_output@@IEAA_NAEAPEAUansi_string@?1??type_case_Z@?$output_processor@DV?$string_output_adapter@D@__crt_stdio_output@@V?$positional_parameter_base@DV?$string_output_adapter@D@__crt_stdio_output@@@2@@1@AEAA_NXZ@@Z 0000000180156bd0 f i libucrt:output.obj
 0001:00155be4       ??$extract_argument_from_va_list@PEAUansi_string@?1??type_case_Z@?$output_processor@DV?$string_output_adapter@D@__crt_stdio_output@@V?$standard_base@DV?$string_output_adapter@D@__crt_stdio_output@@@2@@__crt_stdio_output@@AEAA_NXZ@PEAU1?1??234@AEAA_NXZ@@?$standard_base@DV?$string_output_adapter@D@__crt_stdio_output@@@__crt_stdio_output@@IEAA_NAEAPEAUansi_string@?1??type_case_Z@?$output_processor@DV?$string_output_adapter@D@__crt_stdio_output@@V?$standard_base@DV?$string_output_adapter@D@__crt_stdio_output@@@2@@1@AEAA_NXZ@@Z 0000000180156be4 f i libucrt:output.obj
 0001:00155bf8       ??$extract_argument_from_va_list@PEAUansi_string@?1??type_case_Z@?$output_processor@_WV?$stream_output_adapter@_W@__crt_stdio_output@@V?$format_validation_base@_WV?$stream_output_adapter@_W@__crt_stdio_output@@@2@@__crt_stdio_output@@AEAA_NXZ@PEAU1?1??234@AEAA_NXZ@@?$standard_base@_WV?$stream_output_adapter@_W@__crt_stdio_output@@@__crt_stdio_output@@IEAA_NAEAPEAUansi_string@?1??type_case_Z@?$output_processor@_WV?$stream_output_adapter@_W@__crt_stdio_output@@V?$format_validation_base@_WV?$stream_output_adapter@_W@__crt_stdio_output@@@2@@1@AEAA_NXZ@@Z 0000000180156bf8 f i libucrt:output.obj
 0001:00155c0c       ??$extract_argument_from_va_list@PEAUansi_string@?1??type_case_Z@?$output_processor@_WV?$stream_output_adapter@_W@__crt_stdio_output@@V?$positional_parameter_base@_WV?$stream_output_adapter@_W@__crt_stdio_output@@@2@@__crt_stdio_output@@AEAA_NXZ@PEAU1?1??234@AEAA_NXZ@@?$positional_parameter_base@_WV?$stream_output_adapter@_W@__crt_stdio_output@@@__crt_stdio_output@@IEAA_NAEAPEAUansi_string@?1??type_case_Z@?$output_processor@_WV?$stream_output_adapter@_W@__crt_stdio_output@@V?$positional_parameter_base@_WV?$stream_output_adapter@_W@__crt_stdio_output@@@2@@1@AEAA_NXZ@@Z 0000000180156c0c f i libucrt:output.obj
 0001:00155cc8       ??$extract_argument_from_va_list@PEAUansi_string@?1??type_case_Z@?$output_processor@_WV?$stream_output_adapter@_W@__crt_stdio_output@@V?$positional_parameter_base@_WV?$stream_output_adapter@_W@__crt_stdio_output@@@2@@__crt_stdio_output@@AEAA_NXZ@PEAU1?1??234@AEAA_NXZ@@?$standard_base@_WV?$stream_output_adapter@_W@__crt_stdio_output@@@__crt_stdio_output@@IEAA_NAEAPEAUansi_string@?1??type_case_Z@?$output_processor@_WV?$stream_output_adapter@_W@__crt_stdio_output@@V?$positional_parameter_base@_WV?$stream_output_adapter@_W@__crt_stdio_output@@@2@@1@AEAA_NXZ@@Z 0000000180156cc8 f i libucrt:output.obj
 0001:00155cdc       ??$extract_argument_from_va_list@PEAUansi_string@?1??type_case_Z@?$output_processor@_WV?$stream_output_adapter@_W@__crt_stdio_output@@V?$standard_base@_WV?$stream_output_adapter@_W@__crt_stdio_output@@@2@@__crt_stdio_output@@AEAA_NXZ@PEAU1?1??234@AEAA_NXZ@@?$standard_base@_WV?$stream_output_adapter@_W@__crt_stdio_output@@@__crt_stdio_output@@IEAA_NAEAPEAUansi_string@?1??type_case_Z@?$output_processor@_WV?$stream_output_adapter@_W@__crt_stdio_output@@V?$standard_base@_WV?$stream_output_adapter@_W@__crt_stdio_output@@@2@@1@AEAA_NXZ@@Z 0000000180156cdc f i libucrt:output.obj
 0001:00155cf0       ??$extract_argument_from_va_list@PEAUansi_string@?1??type_case_Z@?$output_processor@_WV?$string_output_adapter@_W@__crt_stdio_output@@V?$format_validation_base@_WV?$string_output_adapter@_W@__crt_stdio_output@@@2@@__crt_stdio_output@@AEAA_NXZ@PEAU1?1??234@AEAA_NXZ@@?$standard_base@_WV?$string_output_adapter@_W@__crt_stdio_output@@@__crt_stdio_output@@IEAA_NAEAPEAUansi_string@?1??type_case_Z@?$output_processor@_WV?$string_output_adapter@_W@__crt_stdio_output@@V?$format_validation_base@_WV?$string_output_adapter@_W@__crt_stdio_output@@@2@@1@AEAA_NXZ@@Z 0000000180156cf0 f i libucrt:output.obj
 0001:00155d04       ??$extract_argument_from_va_list@PEAUansi_string@?1??type_case_Z@?$output_processor@_WV?$string_output_adapter@_W@__crt_stdio_output@@V?$positional_parameter_base@_WV?$string_output_adapter@_W@__crt_stdio_output@@@2@@__crt_stdio_output@@AEAA_NXZ@PEAU1?1??234@AEAA_NXZ@@?$positional_parameter_base@_WV?$string_output_adapter@_W@__crt_stdio_output@@@__crt_stdio_output@@IEAA_NAEAPEAUansi_string@?1??type_case_Z@?$output_processor@_WV?$string_output_adapter@_W@__crt_stdio_output@@V?$positional_parameter_base@_WV?$string_output_adapter@_W@__crt_stdio_output@@@2@@1@AEAA_NXZ@@Z 0000000180156d04 f i libucrt:output.obj
 0001:00155dc0       ??$extract_argument_from_va_list@PEAUansi_string@?1??type_case_Z@?$output_processor@_WV?$string_output_adapter@_W@__crt_stdio_output@@V?$positional_parameter_base@_WV?$string_output_adapter@_W@__crt_stdio_output@@@2@@__crt_stdio_output@@AEAA_NXZ@PEAU1?1??234@AEAA_NXZ@@?$standard_base@_WV?$string_output_adapter@_W@__crt_stdio_output@@@__crt_stdio_output@@IEAA_NAEAPEAUansi_string@?1??type_case_Z@?$output_processor@_WV?$string_output_adapter@_W@__crt_stdio_output@@V?$positional_parameter_base@_WV?$string_output_adapter@_W@__crt_stdio_output@@@2@@1@AEAA_NXZ@@Z 0000000180156dc0 f i libucrt:output.obj
 0001:00155dd4       ??$extract_argument_from_va_list@PEAUansi_string@?1??type_case_Z@?$output_processor@_WV?$string_output_adapter@_W@__crt_stdio_output@@V?$standard_base@_WV?$string_output_adapter@_W@__crt_stdio_output@@@2@@__crt_stdio_output@@AEAA_NXZ@PEAU1?1??234@AEAA_NXZ@@?$standard_base@_WV?$string_output_adapter@_W@__crt_stdio_output@@@__crt_stdio_output@@IEAA_NAEAPEAUansi_string@?1??type_case_Z@?$output_processor@_WV?$string_output_adapter@_W@__crt_stdio_output@@V?$standard_base@_WV?$string_output_adapter@_W@__crt_stdio_output@@@2@@1@AEAA_NXZ@@Z 0000000180156dd4 f i libucrt:output.obj
 0001:00155de8       ??$extract_argument_from_va_list@PEAXPEAX@?$positional_parameter_base@DV?$stream_output_adapter@D@__crt_stdio_output@@@__crt_stdio_output@@IEAA_NAEAPEAX@Z 0000000180156de8 f i libucrt:output.obj
 0001:00155ea4       ??$extract_argument_from_va_list@PEAXPEAX@?$positional_parameter_base@DV?$string_output_adapter@D@__crt_stdio_output@@@__crt_stdio_output@@IEAA_NAEAPEAX@Z 0000000180156ea4 f i libucrt:output.obj
 0001:00155f60       ??$extract_argument_from_va_list@PEAXPEAX@?$positional_parameter_base@_WV?$stream_output_adapter@_W@__crt_stdio_output@@@__crt_stdio_output@@IEAA_NAEAPEAX@Z 0000000180156f60 f i libucrt:output.obj
 0001:0015601c       ??$extract_argument_from_va_list@PEAXPEAX@?$positional_parameter_base@_WV?$string_output_adapter@_W@__crt_stdio_output@@@__crt_stdio_output@@IEAA_NAEAPEAX@Z 000000018015701c f i libucrt:output.obj
 0001:001560d8       ??$extract_argument_from_va_list@PEAXPEAX@?$standard_base@DV?$stream_output_adapter@D@__crt_stdio_output@@@__crt_stdio_output@@IEAA_NAEAPEAX@Z 00000001801570d8 f i libucrt:output.obj
 0001:001560ec       ??$extract_argument_from_va_list@PEAXPEAX@?$standard_base@DV?$string_output_adapter@D@__crt_stdio_output@@@__crt_stdio_output@@IEAA_NAEAPEAX@Z 00000001801570ec f i libucrt:output.obj
 0001:00156100       ??$extract_argument_from_va_list@PEAXPEAX@?$standard_base@_WV?$stream_output_adapter@_W@__crt_stdio_output@@@__crt_stdio_output@@IEAA_NAEAPEAX@Z 0000000180157100 f i libucrt:output.obj
 0001:00156114       ??$extract_argument_from_va_list@PEAXPEAX@?$standard_base@_WV?$string_output_adapter@_W@__crt_stdio_output@@@__crt_stdio_output@@IEAA_NAEAPEAX@Z 0000000180157114 f i libucrt:output.obj
 0001:00156128       ??$extract_argument_from_va_list@U_CRT_DOUBLE@@U1@@?$positional_parameter_base@DV?$stream_output_adapter@D@__crt_stdio_output@@@__crt_stdio_output@@IEAA_NAEAU_CRT_DOUBLE@@@Z 0000000180157128 f i libucrt:output.obj
 0001:001561e4       ??$extract_argument_from_va_list@U_CRT_DOUBLE@@U1@@?$positional_parameter_base@DV?$string_output_adapter@D@__crt_stdio_output@@@__crt_stdio_output@@IEAA_NAEAU_CRT_DOUBLE@@@Z 00000001801571e4 f i libucrt:output.obj
 0001:001562a0       ??$extract_argument_from_va_list@U_CRT_DOUBLE@@U1@@?$positional_parameter_base@_WV?$stream_output_adapter@_W@__crt_stdio_output@@@__crt_stdio_output@@IEAA_NAEAU_CRT_DOUBLE@@@Z 00000001801572a0 f i libucrt:output.obj
 0001:0015635c       ??$extract_argument_from_va_list@U_CRT_DOUBLE@@U1@@?$positional_parameter_base@_WV?$string_output_adapter@_W@__crt_stdio_output@@@__crt_stdio_output@@IEAA_NAEAU_CRT_DOUBLE@@@Z 000000018015735c f i libucrt:output.obj
 0001:00156418       ??$extract_argument_from_va_list@U_CRT_DOUBLE@@U1@@?$standard_base@DV?$stream_output_adapter@D@__crt_stdio_output@@@__crt_stdio_output@@IEAA_NAEAU_CRT_DOUBLE@@@Z 0000000180157418 f i libucrt:output.obj
 0001:00156430       ??$extract_argument_from_va_list@U_CRT_DOUBLE@@U1@@?$standard_base@DV?$string_output_adapter@D@__crt_stdio_output@@@__crt_stdio_output@@IEAA_NAEAU_CRT_DOUBLE@@@Z 0000000180157430 f i libucrt:output.obj
 0001:00156448       ??$extract_argument_from_va_list@U_CRT_DOUBLE@@U1@@?$standard_base@_WV?$stream_output_adapter@_W@__crt_stdio_output@@@__crt_stdio_output@@IEAA_NAEAU_CRT_DOUBLE@@@Z 0000000180157448 f i libucrt:output.obj
 0001:00156460       ??$extract_argument_from_va_list@U_CRT_DOUBLE@@U1@@?$standard_base@_WV?$string_output_adapter@_W@__crt_stdio_output@@@__crt_stdio_output@@IEAA_NAEAU_CRT_DOUBLE@@@Z 0000000180157460 f i libucrt:output.obj
 0001:00156478       ??$extract_argument_from_va_list@_J_J@?$positional_parameter_base@DV?$stream_output_adapter@D@__crt_stdio_output@@@__crt_stdio_output@@IEAA_NAEA_J@Z 0000000180157478 f i libucrt:output.obj
 0001:00156534       ??$extract_argument_from_va_list@_J_J@?$positional_parameter_base@DV?$string_output_adapter@D@__crt_stdio_output@@@__crt_stdio_output@@IEAA_NAEA_J@Z 0000000180157534 f i libucrt:output.obj
 0001:001565f0       ??$extract_argument_from_va_list@_J_J@?$positional_parameter_base@_WV?$stream_output_adapter@_W@__crt_stdio_output@@@__crt_stdio_output@@IEAA_NAEA_J@Z 00000001801575f0 f i libucrt:output.obj
 0001:001566ac       ??$extract_argument_from_va_list@_J_J@?$positional_parameter_base@_WV?$string_output_adapter@_W@__crt_stdio_output@@@__crt_stdio_output@@IEAA_NAEA_J@Z 00000001801576ac f i libucrt:output.obj
 0001:00156768       ??$extract_argument_from_va_list@_J_J@?$standard_base@DV?$stream_output_adapter@D@__crt_stdio_output@@@__crt_stdio_output@@IEAA_NAEA_J@Z 0000000180157768 f i libucrt:output.obj
 0001:0015677c       ??$extract_argument_from_va_list@_J_J@?$standard_base@DV?$string_output_adapter@D@__crt_stdio_output@@@__crt_stdio_output@@IEAA_NAEA_J@Z 000000018015777c f i libucrt:output.obj
 0001:00156790       ??$extract_argument_from_va_list@_J_J@?$standard_base@_WV?$stream_output_adapter@_W@__crt_stdio_output@@@__crt_stdio_output@@IEAA_NAEA_J@Z 0000000180157790 f i libucrt:output.obj
 0001:001567a4       ??$extract_argument_from_va_list@_J_J@?$standard_base@_WV?$string_output_adapter@_W@__crt_stdio_output@@@__crt_stdio_output@@IEAA_NAEA_J@Z 00000001801577a4 f i libucrt:output.obj
 0001:001567b8       ??$extract_argument_from_va_list@_K_J@?$positional_parameter_base@DV?$stream_output_adapter@D@__crt_stdio_output@@@__crt_stdio_output@@IEAA_NAEA_J@Z 00000001801577b8 f i libucrt:output.obj
 0001:00156874       ??$extract_argument_from_va_list@_K_J@?$positional_parameter_base@DV?$string_output_adapter@D@__crt_stdio_output@@@__crt_stdio_output@@IEAA_NAEA_J@Z 0000000180157874 f i libucrt:output.obj
 0001:00156930       ??$extract_argument_from_va_list@_K_J@?$positional_parameter_base@_WV?$stream_output_adapter@_W@__crt_stdio_output@@@__crt_stdio_output@@IEAA_NAEA_J@Z 0000000180157930 f i libucrt:output.obj
 0001:001569ec       ??$extract_argument_from_va_list@_K_J@?$positional_parameter_base@_WV?$string_output_adapter@_W@__crt_stdio_output@@@__crt_stdio_output@@IEAA_NAEA_J@Z 00000001801579ec f i libucrt:output.obj
 0001:00156aa8       ??$extract_argument_from_va_list@_K_J@?$standard_base@DV?$stream_output_adapter@D@__crt_stdio_output@@@__crt_stdio_output@@IEAA_NAEA_J@Z 0000000180157aa8 f i libucrt:output.obj
 0001:00156abc       ??$extract_argument_from_va_list@_K_J@?$standard_base@DV?$string_output_adapter@D@__crt_stdio_output@@@__crt_stdio_output@@IEAA_NAEA_J@Z 0000000180157abc f i libucrt:output.obj
 0001:00156ad0       ??$extract_argument_from_va_list@_K_J@?$standard_base@_WV?$stream_output_adapter@_W@__crt_stdio_output@@@__crt_stdio_output@@IEAA_NAEA_J@Z 0000000180157ad0 f i libucrt:output.obj
 0001:00156ae4       ??$extract_argument_from_va_list@_K_J@?$standard_base@_WV?$string_output_adapter@_W@__crt_stdio_output@@@__crt_stdio_output@@IEAA_NAEA_J@Z 0000000180157ae4 f i libucrt:output.obj
 0001:00156af8       ??$extract_argument_from_va_list@_W_W@?$positional_parameter_base@DV?$stream_output_adapter@D@__crt_stdio_output@@@__crt_stdio_output@@IEAA_NAEA_W@Z 0000000180157af8 f i libucrt:output.obj
 0001:00156bb4       ??$extract_argument_from_va_list@_W_W@?$positional_parameter_base@DV?$string_output_adapter@D@__crt_stdio_output@@@__crt_stdio_output@@IEAA_NAEA_W@Z 0000000180157bb4 f i libucrt:output.obj
 0001:00156c70       ??$extract_argument_from_va_list@_W_W@?$positional_parameter_base@_WV?$stream_output_adapter@_W@__crt_stdio_output@@@__crt_stdio_output@@IEAA_NAEA_W@Z 0000000180157c70 f i libucrt:output.obj
 0001:00156d30       ??$extract_argument_from_va_list@_W_W@?$positional_parameter_base@_WV?$string_output_adapter@_W@__crt_stdio_output@@@__crt_stdio_output@@IEAA_NAEA_W@Z 0000000180157d30 f i libucrt:output.obj
 0001:00156df0       ??$extract_argument_from_va_list@_W_W@?$standard_base@DV?$stream_output_adapter@D@__crt_stdio_output@@@__crt_stdio_output@@IEAA_NAEA_W@Z 0000000180157df0 f i libucrt:output.obj
 0001:00156e04       ??$extract_argument_from_va_list@_W_W@?$standard_base@DV?$string_output_adapter@D@__crt_stdio_output@@@__crt_stdio_output@@IEAA_NAEA_W@Z 0000000180157e04 f i libucrt:output.obj
 0001:00156e18       ??$extract_argument_from_va_list@_W_W@?$standard_base@_WV?$stream_output_adapter@_W@__crt_stdio_output@@@__crt_stdio_output@@IEAA_NAEA_W@Z 0000000180157e18 f i libucrt:output.obj
 0001:00156e2c       ??$extract_argument_from_va_list@_W_W@?$standard_base@_WV?$string_output_adapter@_W@__crt_stdio_output@@@__crt_stdio_output@@IEAA_NAEA_W@Z 0000000180157e2c f i libucrt:output.obj
 0001:00156e40       ??$get_parameter_type@D@?$positional_parameter_base@DV?$stream_output_adapter@D@__crt_stdio_output@@@__crt_stdio_output@@CA?AW4parameter_type@01@PEAD@Z 0000000180157e40 f i libucrt:output.obj
 0001:00156e48       ??$get_parameter_type@D@?$positional_parameter_base@DV?$string_output_adapter@D@__crt_stdio_output@@@__crt_stdio_output@@CA?AW4parameter_type@01@PEAD@Z 0000000180157e48 f i libucrt:output.obj
 0001:00156e50       ??$get_parameter_type@D@?$positional_parameter_base@_WV?$stream_output_adapter@_W@__crt_stdio_output@@@__crt_stdio_output@@CA?AW4parameter_type@01@PEAD@Z 0000000180157e50 f i libucrt:output.obj
 0001:00156e58       ??$get_parameter_type@D@?$positional_parameter_base@_WV?$string_output_adapter@_W@__crt_stdio_output@@@__crt_stdio_output@@CA?AW4parameter_type@01@PEAD@Z 0000000180157e58 f i libucrt:output.obj
 0001:00156e60       ??$get_parameter_type@Uansi_string@?1??type_case_Z@?$output_processor@DV?$stream_output_adapter@D@__crt_stdio_output@@V?$positional_parameter_base@DV?$stream_output_adapter@D@__crt_stdio_output@@@2@@__crt_stdio_output@@AEAA_NXZ@@?$positional_parameter_base@DV?$stream_output_adapter@D@__crt_stdio_output@@@__crt_stdio_output@@CA?AW4parameter_type@01@PEAUansi_string@?1??type_case_Z@?$output_processor@DV?$stream_output_adapter@D@__crt_stdio_output@@V?$positional_parameter_base@DV?$stream_output_adapter@D@__crt_stdio_output@@@2@@1@AEAA_NXZ@@Z 0000000180157e60 f i libucrt:output.obj
 0001:00156e68       ??$get_parameter_type@Uansi_string@?1??type_case_Z@?$output_processor@DV?$string_output_adapter@D@__crt_stdio_output@@V?$positional_parameter_base@DV?$string_output_adapter@D@__crt_stdio_output@@@2@@__crt_stdio_output@@AEAA_NXZ@@?$positional_parameter_base@DV?$string_output_adapter@D@__crt_stdio_output@@@__crt_stdio_output@@CA?AW4parameter_type@01@PEAUansi_string@?1??type_case_Z@?$output_processor@DV?$string_output_adapter@D@__crt_stdio_output@@V?$positional_parameter_base@DV?$string_output_adapter@D@__crt_stdio_output@@@2@@1@AEAA_NXZ@@Z 0000000180157e68 f i libucrt:output.obj
 0001:00156e70       ??$get_parameter_type@Uansi_string@?1??type_case_Z@?$output_processor@_WV?$stream_output_adapter@_W@__crt_stdio_output@@V?$positional_parameter_base@_WV?$stream_output_adapter@_W@__crt_stdio_output@@@2@@__crt_stdio_output@@AEAA_NXZ@@?$positional_parameter_base@_WV?$stream_output_adapter@_W@__crt_stdio_output@@@__crt_stdio_output@@CA?AW4parameter_type@01@PEAUansi_string@?1??type_case_Z@?$output_processor@_WV?$stream_output_adapter@_W@__crt_stdio_output@@V?$positional_parameter_base@_WV?$stream_output_adapter@_W@__crt_stdio_output@@@2@@1@AEAA_NXZ@@Z 0000000180157e70 f i libucrt:output.obj
 0001:00156e78       ??$get_parameter_type@Uansi_string@?1??type_case_Z@?$output_processor@_WV?$string_output_adapter@_W@__crt_stdio_output@@V?$positional_parameter_base@_WV?$string_output_adapter@_W@__crt_stdio_output@@@2@@__crt_stdio_output@@AEAA_NXZ@@?$positional_parameter_base@_WV?$string_output_adapter@_W@__crt_stdio_output@@@__crt_stdio_output@@CA?AW4parameter_type@01@PEAUansi_string@?1??type_case_Z@?$output_processor@_WV?$string_output_adapter@_W@__crt_stdio_output@@V?$positional_parameter_base@_WV?$string_output_adapter@_W@__crt_stdio_output@@@2@@1@AEAA_NXZ@@Z 0000000180157e78 f i libucrt:output.obj
 0001:00156e80       ??$get_parameter_type@X@?$positional_parameter_base@DV?$stream_output_adapter@D@__crt_stdio_output@@@__crt_stdio_output@@CA?AW4parameter_type@01@PEAX@Z 0000000180157e80 f i libucrt:output.obj
 0001:00156e88       ??$get_parameter_type@X@?$positional_parameter_base@DV?$string_output_adapter@D@__crt_stdio_output@@@__crt_stdio_output@@CA?AW4parameter_type@01@PEAX@Z 0000000180157e88 f i libucrt:output.obj
 0001:00156e90       ??$get_parameter_type@X@?$positional_parameter_base@_WV?$stream_output_adapter@_W@__crt_stdio_output@@@__crt_stdio_output@@CA?AW4parameter_type@01@PEAX@Z 0000000180157e90 f i libucrt:output.obj
 0001:00156e98       ??$get_parameter_type@X@?$positional_parameter_base@_WV?$string_output_adapter@_W@__crt_stdio_output@@@__crt_stdio_output@@CA?AW4parameter_type@01@PEAX@Z 0000000180157e98 f i libucrt:output.obj
 0001:00156ea0       ??$is_character_specifier@D@?$positional_parameter_base@DV?$stream_output_adapter@D@__crt_stdio_output@@@__crt_stdio_output@@CA_ND@Z 0000000180157ea0 f i libucrt:output.obj
 0001:00156eac       ??$is_character_specifier@D@?$positional_parameter_base@DV?$string_output_adapter@D@__crt_stdio_output@@@__crt_stdio_output@@CA_ND@Z 0000000180157eac f i libucrt:output.obj
 0001:00156eb8       ??$is_character_specifier@_W@?$positional_parameter_base@_WV?$stream_output_adapter@_W@__crt_stdio_output@@@__crt_stdio_output@@CA_N_W@Z 0000000180157eb8 f i libucrt:output.obj
 0001:00156ec8       ??$is_character_specifier@_W@?$positional_parameter_base@_WV?$string_output_adapter@_W@__crt_stdio_output@@@__crt_stdio_output@@CA_N_W@Z 0000000180157ec8 f i libucrt:output.obj
 0001:00156ed8       ??$is_integral_specifier@D@?$positional_parameter_base@DV?$stream_output_adapter@D@__crt_stdio_output@@@__crt_stdio_output@@CA_ND@Z 0000000180157ed8 f i libucrt:output.obj
 0001:00156efc       ??$is_integral_specifier@D@?$positional_parameter_base@DV?$string_output_adapter@D@__crt_stdio_output@@@__crt_stdio_output@@CA_ND@Z 0000000180157efc f i libucrt:output.obj
 0001:00156f20       ??$is_integral_specifier@_W@?$positional_parameter_base@_WV?$stream_output_adapter@_W@__crt_stdio_output@@@__crt_stdio_output@@CA_N_W@Z 0000000180157f20 f i libucrt:output.obj
 0001:00156f48       ??$is_integral_specifier@_W@?$positional_parameter_base@_WV?$string_output_adapter@_W@__crt_stdio_output@@@__crt_stdio_output@@CA_N_W@Z 0000000180157f48 f i libucrt:output.obj
 0001:00156f70       ??$is_pointer_specifier@D@?$positional_parameter_base@DV?$stream_output_adapter@D@__crt_stdio_output@@@__crt_stdio_output@@CA_ND@Z 0000000180157f70 f i libucrt:output.obj
 0001:00156f78       ??$is_pointer_specifier@D@?$positional_parameter_base@DV?$string_output_adapter@D@__crt_stdio_output@@@__crt_stdio_output@@CA_ND@Z 0000000180157f78 f i libucrt:output.obj
 0001:00156f80       ??$is_pointer_specifier@_W@?$positional_parameter_base@_WV?$stream_output_adapter@_W@__crt_stdio_output@@@__crt_stdio_output@@CA_N_W@Z 0000000180157f80 f i libucrt:output.obj
 0001:00156f88       ??$is_pointer_specifier@_W@?$positional_parameter_base@_WV?$string_output_adapter@_W@__crt_stdio_output@@@__crt_stdio_output@@CA_N_W@Z 0000000180157f88 f i libucrt:output.obj
 0001:00156f90       ??$is_string_specifier@D@?$positional_parameter_base@DV?$stream_output_adapter@D@__crt_stdio_output@@@__crt_stdio_output@@CA_ND@Z 0000000180157f90 f i libucrt:output.obj
 0001:00156f9c       ??$is_string_specifier@D@?$positional_parameter_base@DV?$string_output_adapter@D@__crt_stdio_output@@@__crt_stdio_output@@CA_ND@Z 0000000180157f9c f i libucrt:output.obj
 0001:00156fa8       ??$is_string_specifier@_W@?$positional_parameter_base@_WV?$stream_output_adapter@_W@__crt_stdio_output@@@__crt_stdio_output@@CA_N_W@Z 0000000180157fa8 f i libucrt:output.obj
 0001:00156fb8       ??$is_string_specifier@_W@?$positional_parameter_base@_WV?$string_output_adapter@_W@__crt_stdio_output@@@__crt_stdio_output@@CA_N_W@Z 0000000180157fb8 f i libucrt:output.obj
 0001:00156fc8       ??$is_wide_character_specifier@D@__crt_stdio_output@@YA_N_KDW4length_modifier@0@@Z 0000000180157fc8 f i libucrt:output.obj
 0001:00156ff0       ??$is_wide_character_specifier@_W@__crt_stdio_output@@YA_N_K_WW4length_modifier@0@@Z 0000000180157ff0 f i libucrt:output.obj
 0001:00157030       ??$peek_va_arg@C@__crt_stdio_output@@YACPEAD@Z 0000000180158030 f i libucrt:output.obj
 0001:00157034       ??$peek_va_arg@E@__crt_stdio_output@@YAEPEAD@Z 0000000180158034 f i libucrt:output.obj
 0001:00157038       ??$peek_va_arg@F@__crt_stdio_output@@YAFPEAD@Z 0000000180158038 f i libucrt:output.obj
 0001:0015703c       ??$peek_va_arg@G@__crt_stdio_output@@YAGPEAD@Z 000000018015803c f i libucrt:output.obj
 0001:00157040       ??$peek_va_arg@H@__crt_stdio_output@@YAHPEAD@Z 0000000180158040 f i libucrt:output.obj
 0001:00157044       ??$peek_va_arg@I@__crt_stdio_output@@YAIPEAD@Z 0000000180158044 f i libucrt:output.obj
 0001:00157048       ??$peek_va_arg@PEAD@__crt_stdio_output@@YAPEADPEAD@Z 0000000180158048 f i libucrt:output.obj
 0001:0015704c       ??$peek_va_arg@PEAUansi_string@?1??type_case_Z@?$output_processor@DV?$stream_output_adapter@D@__crt_stdio_output@@V?$positional_parameter_base@DV?$stream_output_adapter@D@__crt_stdio_output@@@2@@__crt_stdio_output@@AEAA_NXZ@@__crt_stdio_output@@YAPEAUansi_string@?1??type_case_Z@?$output_processor@DV?$stream_output_adapter@D@__crt_stdio_output@@V?$positional_parameter_base@DV?$stream_output_adapter@D@__crt_stdio_output@@@2@@0@AEAA_NXZ@PEAD@Z 000000018015804c f i libucrt:output.obj
 0001:00157050       ??$peek_va_arg@PEAUansi_string@?1??type_case_Z@?$output_processor@DV?$string_output_adapter@D@__crt_stdio_output@@V?$positional_parameter_base@DV?$string_output_adapter@D@__crt_stdio_output@@@2@@__crt_stdio_output@@AEAA_NXZ@@__crt_stdio_output@@YAPEAUansi_string@?1??type_case_Z@?$output_processor@DV?$string_output_adapter@D@__crt_stdio_output@@V?$positional_parameter_base@DV?$string_output_adapter@D@__crt_stdio_output@@@2@@0@AEAA_NXZ@PEAD@Z 0000000180158050 f i libucrt:output.obj
 0001:00157054       ??$peek_va_arg@PEAUansi_string@?1??type_case_Z@?$output_processor@_WV?$stream_output_adapter@_W@__crt_stdio_output@@V?$positional_parameter_base@_WV?$stream_output_adapter@_W@__crt_stdio_output@@@2@@__crt_stdio_output@@AEAA_NXZ@@__crt_stdio_output@@YAPEAUansi_string@?1??type_case_Z@?$output_processor@_WV?$stream_output_adapter@_W@__crt_stdio_output@@V?$positional_parameter_base@_WV?$stream_output_adapter@_W@__crt_stdio_output@@@2@@0@AEAA_NXZ@PEAD@Z 0000000180158054 f i libucrt:output.obj
 0001:00157058       ??$peek_va_arg@PEAUansi_string@?1??type_case_Z@?$output_processor@_WV?$string_output_adapter@_W@__crt_stdio_output@@V?$positional_parameter_base@_WV?$string_output_adapter@_W@__crt_stdio_output@@@2@@__crt_stdio_output@@AEAA_NXZ@@__crt_stdio_output@@YAPEAUansi_string@?1??type_case_Z@?$output_processor@_WV?$string_output_adapter@_W@__crt_stdio_output@@V?$positional_parameter_base@_WV?$string_output_adapter@_W@__crt_stdio_output@@@2@@0@AEAA_NXZ@PEAD@Z 0000000180158058 f i libucrt:output.obj
 0001:0015705c       ??$peek_va_arg@PEAX@__crt_stdio_output@@YAPEAXPEAD@Z 000000018015805c f i libucrt:output.obj
 0001:00157060       ??$peek_va_arg@U_CRT_DOUBLE@@@__crt_stdio_output@@YA?AU_CRT_DOUBLE@@PEAD@Z 0000000180158060 f i libucrt:output.obj
 0001:00157064       ??$peek_va_arg@_J@__crt_stdio_output@@YA_JPEAD@Z 0000000180158064 f i libucrt:output.obj
 0001:00157068       ??$peek_va_arg@_K@__crt_stdio_output@@YA_KPEAD@Z 0000000180158068 f i libucrt:output.obj
 0001:0015706c       ??$peek_va_arg@_W@__crt_stdio_output@@YA_WPEAD@Z 000000018015806c f i libucrt:output.obj
 0001:00157070       ??$puttc_nolock@AEBDPEAU_iobuf@@@?$__crt_char_traits@D@@SAHAEBD$$QEAPEAU_iobuf@@@Z 0000000180158070 f i libucrt:output.obj
 0001:0015707c       ??$puttc_nolock@AEB_WPEAU_iobuf@@@?$__crt_char_traits@_W@@SAGAEB_W$$QEAPEAU_iobuf@@@Z 000000018015807c f i libucrt:output.obj
 0001:00157088       ??$read_va_arg@C@__crt_stdio_output@@YACAEAPEAD@Z 0000000180158088 f i libucrt:output.obj
 0001:00157094       ??$read_va_arg@E@__crt_stdio_output@@YAEAEAPEAD@Z 0000000180158094 f i libucrt:output.obj
 0001:001570a0       ??$read_va_arg@F@__crt_stdio_output@@YAFAEAPEAD@Z 00000001801580a0 f i libucrt:output.obj
 0001:001570ac       ??$read_va_arg@G@__crt_stdio_output@@YAGAEAPEAD@Z 00000001801580ac f i libucrt:output.obj
 0001:001570b8       ??$read_va_arg@H@__crt_stdio_output@@YAHAEAPEAD@Z 00000001801580b8 f i libucrt:output.obj
 0001:001570c4       ??$read_va_arg@I@__crt_stdio_output@@YAIAEAPEAD@Z 00000001801580c4 f i libucrt:output.obj
 0001:001570d0       ??$read_va_arg@PEAD@__crt_stdio_output@@YAPEADAEAPEAD@Z 00000001801580d0 f i libucrt:output.obj
 0001:001570dc       ??$read_va_arg@PEAUansi_string@?1??type_case_Z@?$output_processor@DV?$stream_output_adapter@D@__crt_stdio_output@@V?$format_validation_base@DV?$stream_output_adapter@D@__crt_stdio_output@@@2@@__crt_stdio_output@@AEAA_NXZ@@__crt_stdio_output@@YAPEAUansi_string@?1??type_case_Z@?$output_processor@DV?$stream_output_adapter@D@__crt_stdio_output@@V?$format_validation_base@DV?$stream_output_adapter@D@__crt_stdio_output@@@2@@0@AEAA_NXZ@AEAPEAD@Z 00000001801580dc f i libucrt:output.obj
 0001:001570e8       ??$read_va_arg@PEAUansi_string@?1??type_case_Z@?$output_processor@DV?$stream_output_adapter@D@__crt_stdio_output@@V?$positional_parameter_base@DV?$stream_output_adapter@D@__crt_stdio_output@@@2@@__crt_stdio_output@@AEAA_NXZ@@__crt_stdio_output@@YAPEAUansi_string@?1??type_case_Z@?$output_processor@DV?$stream_output_adapter@D@__crt_stdio_output@@V?$positional_parameter_base@DV?$stream_output_adapter@D@__crt_stdio_output@@@2@@0@AEAA_NXZ@AEAPEAD@Z 00000001801580e8 f i libucrt:output.obj
 0001:001570f4       ??$read_va_arg@PEAUansi_string@?1??type_case_Z@?$output_processor@DV?$stream_output_adapter@D@__crt_stdio_output@@V?$standard_base@DV?$stream_output_adapter@D@__crt_stdio_output@@@2@@__crt_stdio_output@@AEAA_NXZ@@__crt_stdio_output@@YAPEAUansi_string@?1??type_case_Z@?$output_processor@DV?$stream_output_adapter@D@__crt_stdio_output@@V?$standard_base@DV?$stream_output_adapter@D@__crt_stdio_output@@@2@@0@AEAA_NXZ@AEAPEAD@Z 00000001801580f4 f i libucrt:output.obj
 0001:00157100       ??$read_va_arg@PEAUansi_string@?1??type_case_Z@?$output_processor@DV?$string_output_adapter@D@__crt_stdio_output@@V?$format_validation_base@DV?$string_output_adapter@D@__crt_stdio_output@@@2@@__crt_stdio_output@@AEAA_NXZ@@__crt_stdio_output@@YAPEAUansi_string@?1??type_case_Z@?$output_processor@DV?$string_output_adapter@D@__crt_stdio_output@@V?$format_validation_base@DV?$string_output_adapter@D@__crt_stdio_output@@@2@@0@AEAA_NXZ@AEAPEAD@Z 0000000180158100 f i libucrt:output.obj
 0001:0015710c       ??$read_va_arg@PEAUansi_string@?1??type_case_Z@?$output_processor@DV?$string_output_adapter@D@__crt_stdio_output@@V?$positional_parameter_base@DV?$string_output_adapter@D@__crt_stdio_output@@@2@@__crt_stdio_output@@AEAA_NXZ@@__crt_stdio_output@@YAPEAUansi_string@?1??type_case_Z@?$output_processor@DV?$string_output_adapter@D@__crt_stdio_output@@V?$positional_parameter_base@DV?$string_output_adapter@D@__crt_stdio_output@@@2@@0@AEAA_NXZ@AEAPEAD@Z 000000018015810c f i libucrt:output.obj
 0001:00157118       ??$read_va_arg@PEAUansi_string@?1??type_case_Z@?$output_processor@DV?$string_output_adapter@D@__crt_stdio_output@@V?$standard_base@DV?$string_output_adapter@D@__crt_stdio_output@@@2@@__crt_stdio_output@@AEAA_NXZ@@__crt_stdio_output@@YAPEAUansi_string@?1??type_case_Z@?$output_processor@DV?$string_output_adapter@D@__crt_stdio_output@@V?$standard_base@DV?$string_output_adapter@D@__crt_stdio_output@@@2@@0@AEAA_NXZ@AEAPEAD@Z 0000000180158118 f i libucrt:output.obj
 0001:00157124       ??$read_va_arg@PEAUansi_string@?1??type_case_Z@?$output_processor@_WV?$stream_output_adapter@_W@__crt_stdio_output@@V?$format_validation_base@_WV?$stream_output_adapter@_W@__crt_stdio_output@@@2@@__crt_stdio_output@@AEAA_NXZ@@__crt_stdio_output@@YAPEAUansi_string@?1??type_case_Z@?$output_processor@_WV?$stream_output_adapter@_W@__crt_stdio_output@@V?$format_validation_base@_WV?$stream_output_adapter@_W@__crt_stdio_output@@@2@@0@AEAA_NXZ@AEAPEAD@Z 0000000180158124 f i libucrt:output.obj
 0001:00157130       ??$read_va_arg@PEAUansi_string@?1??type_case_Z@?$output_processor@_WV?$stream_output_adapter@_W@__crt_stdio_output@@V?$positional_parameter_base@_WV?$stream_output_adapter@_W@__crt_stdio_output@@@2@@__crt_stdio_output@@AEAA_NXZ@@__crt_stdio_output@@YAPEAUansi_string@?1??type_case_Z@?$output_processor@_WV?$stream_output_adapter@_W@__crt_stdio_output@@V?$positional_parameter_base@_WV?$stream_output_adapter@_W@__crt_stdio_output@@@2@@0@AEAA_NXZ@AEAPEAD@Z 0000000180158130 f i libucrt:output.obj
 0001:0015713c       ??$read_va_arg@PEAUansi_string@?1??type_case_Z@?$output_processor@_WV?$stream_output_adapter@_W@__crt_stdio_output@@V?$standard_base@_WV?$stream_output_adapter@_W@__crt_stdio_output@@@2@@__crt_stdio_output@@AEAA_NXZ@@__crt_stdio_output@@YAPEAUansi_string@?1??type_case_Z@?$output_processor@_WV?$stream_output_adapter@_W@__crt_stdio_output@@V?$standard_base@_WV?$stream_output_adapter@_W@__crt_stdio_output@@@2@@0@AEAA_NXZ@AEAPEAD@Z 000000018015813c f i libucrt:output.obj
 0001:00157148       ??$read_va_arg@PEAUansi_string@?1??type_case_Z@?$output_processor@_WV?$string_output_adapter@_W@__crt_stdio_output@@V?$format_validation_base@_WV?$string_output_adapter@_W@__crt_stdio_output@@@2@@__crt_stdio_output@@AEAA_NXZ@@__crt_stdio_output@@YAPEAUansi_string@?1??type_case_Z@?$output_processor@_WV?$string_output_adapter@_W@__crt_stdio_output@@V?$format_validation_base@_WV?$string_output_adapter@_W@__crt_stdio_output@@@2@@0@AEAA_NXZ@AEAPEAD@Z 0000000180158148 f i libucrt:output.obj
 0001:00157154       ??$read_va_arg@PEAUansi_string@?1??type_case_Z@?$output_processor@_WV?$string_output_adapter@_W@__crt_stdio_output@@V?$positional_parameter_base@_WV?$string_output_adapter@_W@__crt_stdio_output@@@2@@__crt_stdio_output@@AEAA_NXZ@@__crt_stdio_output@@YAPEAUansi_string@?1??type_case_Z@?$output_processor@_WV?$string_output_adapter@_W@__crt_stdio_output@@V?$positional_parameter_base@_WV?$string_output_adapter@_W@__crt_stdio_output@@@2@@0@AEAA_NXZ@AEAPEAD@Z 0000000180158154 f i libucrt:output.obj
 0001:00157160       ??$read_va_arg@PEAUansi_string@?1??type_case_Z@?$output_processor@_WV?$string_output_adapter@_W@__crt_stdio_output@@V?$standard_base@_WV?$string_output_adapter@_W@__crt_stdio_output@@@2@@__crt_stdio_output@@AEAA_NXZ@@__crt_stdio_output@@YAPEAUansi_string@?1??type_case_Z@?$output_processor@_WV?$string_output_adapter@_W@__crt_stdio_output@@V?$standard_base@_WV?$string_output_adapter@_W@__crt_stdio_output@@@2@@0@AEAA_NXZ@AEAPEAD@Z 0000000180158160 f i libucrt:output.obj
 0001:0015716c       ??$read_va_arg@PEAX@__crt_stdio_output@@YAPEAXAEAPEAD@Z 000000018015816c f i libucrt:output.obj
 0001:00157178       ??$read_va_arg@U_CRT_DOUBLE@@@__crt_stdio_output@@YA?AU_CRT_DOUBLE@@AEAPEAD@Z 0000000180158178 f i libucrt:output.obj
 0001:00157184       ??$read_va_arg@_J@__crt_stdio_output@@YA_JAEAPEAD@Z 0000000180158184 f i libucrt:output.obj
 0001:00157190       ??$read_va_arg@_K@__crt_stdio_output@@YA_KAEAPEAD@Z 0000000180158190 f i libucrt:output.obj
 0001:0015719c       ??$read_va_arg@_W@__crt_stdio_output@@YA_WAEAPEAD@Z 000000018015819c f i libucrt:output.obj
 0001:001571a8       ??$scratch_count@D@formatting_buffer@__crt_stdio_output@@QEBA_KXZ 00000001801581a8 f i libucrt:output.obj
 0001:001571c4       ??$scratch_data@D@formatting_buffer@__crt_stdio_output@@QEAAPEADXZ 00000001801581c4 f i libucrt:output.obj
 0001:001571e8       ??$tcstol@AEAPEBDPEAPEADH@?$__crt_char_traits@D@@SAJAEAPEBD$$QEAPEAPEAD$$QEAH@Z 00000001801581e8 f i libucrt:output.obj
 0001:001571f8       ??$tcstol@AEAPEB_WPEAPEA_WH@?$__crt_char_traits@_W@@SAJAEAPEB_W$$QEAPEAPEA_W$$QEAH@Z 00000001801581f8 f i libucrt:output.obj
 0001:00157208       ??$tcstol@PEBDPEAPEADH@?$__crt_char_traits@D@@SAJ$$QEAPEBD$$QEAPEAPEAD$$QEAH@Z 0000000180158208 f i libucrt:output.obj
 0001:00157218       ??$tcstol@PEB_WPEAPEA_WH@?$__crt_char_traits@_W@@SAJ$$QEAPEB_W$$QEAPEAPEA_W$$QEAH@Z 0000000180158218 f i libucrt:output.obj
 0001:00157228       ??$type_case_integer_parse_into_buffer@I@?$output_processor@DV?$stream_output_adapter@D@__crt_stdio_output@@V?$format_validation_base@DV?$stream_output_adapter@D@__crt_stdio_output@@@2@@__crt_stdio_output@@AEAAXII_N@Z 0000000180158228 f i libucrt:output.obj
 0001:001572b0       ??$type_case_integer_parse_into_buffer@I@?$output_processor@DV?$stream_output_adapter@D@__crt_stdio_output@@V?$positional_parameter_base@DV?$stream_output_adapter@D@__crt_stdio_output@@@2@@__crt_stdio_output@@AEAAXII_N@Z 00000001801582b0 f i libucrt:output.obj
 0001:00157338       ??$type_case_integer_parse_into_buffer@I@?$output_processor@DV?$stream_output_adapter@D@__crt_stdio_output@@V?$standard_base@DV?$stream_output_adapter@D@__crt_stdio_output@@@2@@__crt_stdio_output@@AEAAXII_N@Z 0000000180158338 f i libucrt:output.obj
 0001:001573c0       ??$type_case_integer_parse_into_buffer@I@?$output_processor@DV?$string_output_adapter@D@__crt_stdio_output@@V?$format_validation_base@DV?$string_output_adapter@D@__crt_stdio_output@@@2@@__crt_stdio_output@@AEAAXII_N@Z 00000001801583c0 f i libucrt:output.obj
 0001:00157448       ??$type_case_integer_parse_into_buffer@I@?$output_processor@DV?$string_output_adapter@D@__crt_stdio_output@@V?$positional_parameter_base@DV?$string_output_adapter@D@__crt_stdio_output@@@2@@__crt_stdio_output@@AEAAXII_N@Z 0000000180158448 f i libucrt:output.obj
 0001:001574d0       ??$type_case_integer_parse_into_buffer@I@?$output_processor@DV?$string_output_adapter@D@__crt_stdio_output@@V?$standard_base@DV?$string_output_adapter@D@__crt_stdio_output@@@2@@__crt_stdio_output@@AEAAXII_N@Z 00000001801584d0 f i libucrt:output.obj
 0001:00157558       ??$type_case_integer_parse_into_buffer@I@?$output_processor@_WV?$stream_output_adapter@_W@__crt_stdio_output@@V?$format_validation_base@_WV?$stream_output_adapter@_W@__crt_stdio_output@@@2@@__crt_stdio_output@@AEAAXII_N@Z 0000000180158558 f i libucrt:output.obj
 0001:001575fc       ??$type_case_integer_parse_into_buffer@I@?$output_processor@_WV?$stream_output_adapter@_W@__crt_stdio_output@@V?$positional_parameter_base@_WV?$stream_output_adapter@_W@__crt_stdio_output@@@2@@__crt_stdio_output@@AEAAXII_N@Z 00000001801585fc f i libucrt:output.obj
 0001:001576a0       ??$type_case_integer_parse_into_buffer@I@?$output_processor@_WV?$stream_output_adapter@_W@__crt_stdio_output@@V?$standard_base@_WV?$stream_output_adapter@_W@__crt_stdio_output@@@2@@__crt_stdio_output@@AEAAXII_N@Z 00000001801586a0 f i libucrt:output.obj
 0001:00157744       ??$type_case_integer_parse_into_buffer@I@?$output_processor@_WV?$string_output_adapter@_W@__crt_stdio_output@@V?$format_validation_base@_WV?$string_output_adapter@_W@__crt_stdio_output@@@2@@__crt_stdio_output@@AEAAXII_N@Z 0000000180158744 f i libucrt:output.obj
 0001:001577e8       ??$type_case_integer_parse_into_buffer@I@?$output_processor@_WV?$string_output_adapter@_W@__crt_stdio_output@@V?$positional_parameter_base@_WV?$string_output_adapter@_W@__crt_stdio_output@@@2@@__crt_stdio_output@@AEAAXII_N@Z 00000001801587e8 f i libucrt:output.obj
 0001:0015788c       ??$type_case_integer_parse_into_buffer@I@?$output_processor@_WV?$string_output_adapter@_W@__crt_stdio_output@@V?$standard_base@_WV?$string_output_adapter@_W@__crt_stdio_output@@@2@@__crt_stdio_output@@AEAAXII_N@Z 000000018015888c f i libucrt:output.obj
 0001:00157930       ??$type_case_integer_parse_into_buffer@_K@?$output_processor@DV?$stream_output_adapter@D@__crt_stdio_output@@V?$format_validation_base@DV?$stream_output_adapter@D@__crt_stdio_output@@@2@@__crt_stdio_output@@AEAAX_KI_N@Z 0000000180158930 f i libucrt:output.obj
 0001:001579c0       ??$type_case_integer_parse_into_buffer@_K@?$output_processor@DV?$stream_output_adapter@D@__crt_stdio_output@@V?$positional_parameter_base@DV?$stream_output_adapter@D@__crt_stdio_output@@@2@@__crt_stdio_output@@AEAAX_KI_N@Z 00000001801589c0 f i libucrt:output.obj
 0001:00157a50       ??$type_case_integer_parse_into_buffer@_K@?$output_processor@DV?$stream_output_adapter@D@__crt_stdio_output@@V?$standard_base@DV?$stream_output_adapter@D@__crt_stdio_output@@@2@@__crt_stdio_output@@AEAAX_KI_N@Z 0000000180158a50 f i libucrt:output.obj
 0001:00157ae0       ??$type_case_integer_parse_into_buffer@_K@?$output_processor@DV?$string_output_adapter@D@__crt_stdio_output@@V?$format_validation_base@DV?$string_output_adapter@D@__crt_stdio_output@@@2@@__crt_stdio_output@@AEAAX_KI_N@Z 0000000180158ae0 f i libucrt:output.obj
 0001:00157b70       ??$type_case_integer_parse_into_buffer@_K@?$output_processor@DV?$string_output_adapter@D@__crt_stdio_output@@V?$positional_parameter_base@DV?$string_output_adapter@D@__crt_stdio_output@@@2@@__crt_stdio_output@@AEAAX_KI_N@Z 0000000180158b70 f i libucrt:output.obj
 0001:00157c00       ??$type_case_integer_parse_into_buffer@_K@?$output_processor@DV?$string_output_adapter@D@__crt_stdio_output@@V?$standard_base@DV?$string_output_adapter@D@__crt_stdio_output@@@2@@__crt_stdio_output@@AEAAX_KI_N@Z 0000000180158c00 f i libucrt:output.obj
 0001:00157c90       ??$type_case_integer_parse_into_buffer@_K@?$output_processor@_WV?$stream_output_adapter@_W@__crt_stdio_output@@V?$format_validation_base@_WV?$stream_output_adapter@_W@__crt_stdio_output@@@2@@__crt_stdio_output@@AEAAX_KI_N@Z 0000000180158c90 f i libucrt:output.obj
 0001:00157d34       ??$type_case_integer_parse_into_buffer@_K@?$output_processor@_WV?$stream_output_adapter@_W@__crt_stdio_output@@V?$positional_parameter_base@_WV?$stream_output_adapter@_W@__crt_stdio_output@@@2@@__crt_stdio_output@@AEAAX_KI_N@Z 0000000180158d34 f i libucrt:output.obj
 0001:00157dd8       ??$type_case_integer_parse_into_buffer@_K@?$output_processor@_WV?$stream_output_adapter@_W@__crt_stdio_output@@V?$standard_base@_WV?$stream_output_adapter@_W@__crt_stdio_output@@@2@@__crt_stdio_output@@AEAAX_KI_N@Z 0000000180158dd8 f i libucrt:output.obj
 0001:00157e7c       ??$type_case_integer_parse_into_buffer@_K@?$output_processor@_WV?$string_output_adapter@_W@__crt_stdio_output@@V?$format_validation_base@_WV?$string_output_adapter@_W@__crt_stdio_output@@@2@@__crt_stdio_output@@AEAAX_KI_N@Z 0000000180158e7c f i libucrt:output.obj
 0001:00157f20       ??$type_case_integer_parse_into_buffer@_K@?$output_processor@_WV?$string_output_adapter@_W@__crt_stdio_output@@V?$positional_parameter_base@_WV?$string_output_adapter@_W@__crt_stdio_output@@@2@@__crt_stdio_output@@AEAAX_KI_N@Z 0000000180158f20 f i libucrt:output.obj
 0001:00157fc4       ??$type_case_integer_parse_into_buffer@_K@?$output_processor@_WV?$string_output_adapter@_W@__crt_stdio_output@@V?$standard_base@_WV?$string_output_adapter@_W@__crt_stdio_output@@@2@@__crt_stdio_output@@AEAAX_KI_N@Z 0000000180158fc4 f i libucrt:output.obj
 0001:00158068       ??$write_multiple_characters@V?$stream_output_adapter@D@__crt_stdio_output@@D@__crt_stdio_output@@YAXAEBV?$stream_output_adapter@D@0@DHQEAH@Z 0000000180159068 f i libucrt:output.obj
 0001:001580f4       ??$write_multiple_characters@V?$stream_output_adapter@_W@__crt_stdio_output@@D@__crt_stdio_output@@YAXAEBV?$stream_output_adapter@_W@0@DHQEAH@Z 00000001801590f4 f i libucrt:output.obj
 0001:00158188       ??$write_multiple_characters@V?$string_output_adapter@D@__crt_stdio_output@@D@__crt_stdio_output@@YAXAEBV?$string_output_adapter@D@0@DHQEAH@Z 0000000180159188 f i libucrt:output.obj
 0001:00158200       ??$write_multiple_characters@V?$string_output_adapter@_W@__crt_stdio_output@@D@__crt_stdio_output@@YAXAEBV?$string_output_adapter@_W@0@DHQEAH@Z 0000000180159200 f i libucrt:output.obj
 0001:001583e0       ??0?$common_data@D@__crt_stdio_output@@IEAA@XZ 00000001801593e0 f i libucrt:output.obj
 0001:0015841c       ??0?$common_data@_W@__crt_stdio_output@@IEAA@XZ 000000018015941c f i libucrt:output.obj
 0001:0015845c       ??0?$output_adapter_data@DV?$stream_output_adapter@D@__crt_stdio_output@@@__crt_stdio_output@@IEAA@AEBV?$stream_output_adapter@D@1@_KQEBDQEAU__crt_locale_pointers@@QEAD@Z 000000018015945c f i libucrt:output.obj
 0001:001584bc       ??0?$output_adapter_data@DV?$string_output_adapter@D@__crt_stdio_output@@@__crt_stdio_output@@IEAA@AEBV?$string_output_adapter@D@1@_KQEBDQEAU__crt_locale_pointers@@QEAD@Z 00000001801594bc f i libucrt:output.obj
 0001:0015851c       ??0?$output_adapter_data@_WV?$stream_output_adapter@_W@__crt_stdio_output@@@__crt_stdio_output@@IEAA@AEBV?$stream_output_adapter@_W@1@_KQEB_WQEAU__crt_locale_pointers@@QEAD@Z 000000018015951c f i libucrt:output.obj
 0001:00158580       ??0?$output_adapter_data@_WV?$string_output_adapter@_W@__crt_stdio_output@@@__crt_stdio_output@@IEAA@AEBV?$string_output_adapter@_W@1@_KQEB_WQEAU__crt_locale_pointers@@QEAD@Z 0000000180159580 f i libucrt:output.obj
 0001:001585e4       ??0?$output_processor@DV?$stream_output_adapter@D@__crt_stdio_output@@V?$format_validation_base@DV?$stream_output_adapter@D@__crt_stdio_output@@@2@@__crt_stdio_output@@QEAA@AEBV?$stream_output_adapter@D@1@_KQEBDQEAU__crt_locale_pointers@@QEAD@Z 00000001801595e4 f i libucrt:output.obj
 0001:00158650       ??0?$output_processor@DV?$stream_output_adapter@D@__crt_stdio_output@@V?$positional_parameter_base@DV?$stream_output_adapter@D@__crt_stdio_output@@@2@@__crt_stdio_output@@QEAA@AEBV?$stream_output_adapter@D@1@_KQEBDQEAU__crt_locale_pointers@@QEAD@Z 0000000180159650 f i libucrt:output.obj
 0001:001586d8       ??0?$output_processor@DV?$stream_output_adapter@D@__crt_stdio_output@@V?$standard_base@DV?$stream_output_adapter@D@__crt_stdio_output@@@2@@__crt_stdio_output@@QEAA@AEBV?$stream_output_adapter@D@1@_KQEBDQEAU__crt_locale_pointers@@QEAD@Z 00000001801596d8 f i libucrt:output.obj
 0001:00158744       ??0?$output_processor@DV?$string_output_adapter@D@__crt_stdio_output@@V?$format_validation_base@DV?$string_output_adapter@D@__crt_stdio_output@@@2@@__crt_stdio_output@@QEAA@AEBV?$string_output_adapter@D@1@_KQEBDQEAU__crt_locale_pointers@@QEAD@Z 0000000180159744 f i libucrt:output.obj
 0001:001587b0       ??0?$output_processor@DV?$string_output_adapter@D@__crt_stdio_output@@V?$positional_parameter_base@DV?$string_output_adapter@D@__crt_stdio_output@@@2@@__crt_stdio_output@@QEAA@AEBV?$string_output_adapter@D@1@_KQEBDQEAU__crt_locale_pointers@@QEAD@Z 00000001801597b0 f i libucrt:output.obj
 0001:00158838       ??0?$output_processor@DV?$string_output_adapter@D@__crt_stdio_output@@V?$standard_base@DV?$string_output_adapter@D@__crt_stdio_output@@@2@@__crt_stdio_output@@QEAA@AEBV?$string_output_adapter@D@1@_KQEBDQEAU__crt_locale_pointers@@QEAD@Z 0000000180159838 f i libucrt:output.obj
 0001:001588a4       ??0?$output_processor@_WV?$stream_output_adapter@_W@__crt_stdio_output@@V?$format_validation_base@_WV?$stream_output_adapter@_W@__crt_stdio_output@@@2@@__crt_stdio_output@@QEAA@AEBV?$stream_output_adapter@_W@1@_KQEB_WQEAU__crt_locale_pointers@@QEAD@Z 00000001801598a4 f i libucrt:output.obj
 0001:00158914       ??0?$output_processor@_WV?$stream_output_adapter@_W@__crt_stdio_output@@V?$positional_parameter_base@_WV?$stream_output_adapter@_W@__crt_stdio_output@@@2@@__crt_stdio_output@@QEAA@AEBV?$stream_output_adapter@_W@1@_KQEB_WQEAU__crt_locale_pointers@@QEAD@Z 0000000180159914 f i libucrt:output.obj
 0001:001589a0       ??0?$output_processor@_WV?$stream_output_adapter@_W@__crt_stdio_output@@V?$standard_base@_WV?$stream_output_adapter@_W@__crt_stdio_output@@@2@@__crt_stdio_output@@QEAA@AEBV?$stream_output_adapter@_W@1@_KQEB_WQEAU__crt_locale_pointers@@QEAD@Z 00000001801599a0 f i libucrt:output.obj
 0001:00158a10       ??0?$output_processor@_WV?$string_output_adapter@_W@__crt_stdio_output@@V?$format_validation_base@_WV?$string_output_adapter@_W@__crt_stdio_output@@@2@@__crt_stdio_output@@QEAA@AEBV?$string_output_adapter@_W@1@_KQEB_WQEAU__crt_locale_pointers@@QEAD@Z 0000000180159a10 f i libucrt:output.obj
 0001:00158a80       ??0?$output_processor@_WV?$string_output_adapter@_W@__crt_stdio_output@@V?$positional_parameter_base@_WV?$string_output_adapter@_W@__crt_stdio_output@@@2@@__crt_stdio_output@@QEAA@AEBV?$string_output_adapter@_W@1@_KQEB_WQEAU__crt_locale_pointers@@QEAD@Z 0000000180159a80 f i libucrt:output.obj
 0001:00158b0c       ??0?$output_processor@_WV?$string_output_adapter@_W@__crt_stdio_output@@V?$standard_base@_WV?$string_output_adapter@_W@__crt_stdio_output@@@2@@__crt_stdio_output@@QEAA@AEBV?$string_output_adapter@_W@1@_KQEB_WQEAU__crt_locale_pointers@@QEAD@Z 0000000180159b0c f i libucrt:output.obj
 0001:00158b7c       ??0?$stream_output_adapter@D@__crt_stdio_output@@QEAA@QEAU_iobuf@@@Z 0000000180159b7c f i libucrt:output.obj
 0001:00158b84       ??0?$stream_output_adapter@_W@__crt_stdio_output@@QEAA@QEAU_iobuf@@@Z 0000000180159b84 f i libucrt:output.obj
 0001:00158b8c       ??0?$string_output_adapter@D@__crt_stdio_output@@QEAA@QEAU?$string_output_adapter_context@D@1@@Z 0000000180159b8c f i libucrt:output.obj
 0001:00158b94       ??0?$string_output_adapter@_W@__crt_stdio_output@@QEAA@QEAU?$string_output_adapter_context@_W@1@@Z 0000000180159b94 f i libucrt:output.obj
 0001:00158b9c       ??0_LocaleUpdate@@QEAA@QEAU__crt_locale_pointers@@@Z 0000000180159b9c f i libucrt:output.obj
 0001:00158c38       ??0__acrt_stdio_temporary_buffering_guard@@QEAA@QEAU_iobuf@@@Z 0000000180159c38 f i libucrt:output.obj
 0001:00158c58       ??0__crt_deferred_errno_cache@@QEAA@XZ 0000000180159c58 f i libucrt:output.obj
 0001:00158c60       ??0__crt_errno_guard@@QEAA@QEAH@Z 0000000180159c60 f i libucrt:output.obj
 0001:00158c70       ??0__crt_stdio_stream@@QEAA@QEAU_iobuf@@@Z 0000000180159c70 f i libucrt:output.obj
 0001:00158c80       ??0formatting_buffer@__crt_stdio_output@@QEAA@XZ 0000000180159c80 f i libucrt:output.obj
 0001:00158c94       ??1?$common_data@D@__crt_stdio_output@@QEAA@XZ 0000000180159c94 f i libucrt:output.obj
 0001:00158cb8       ??1?$common_data@_W@__crt_stdio_output@@QEAA@XZ 0000000180159cb8 f i libucrt:output.obj
 0001:00158cdc       ??1?$format_validation_base@DV?$stream_output_adapter@D@__crt_stdio_output@@@__crt_stdio_output@@QEAA@XZ 0000000180159cdc f i libucrt:output.obj
 0001:00158d00       ??1?$format_validation_base@DV?$string_output_adapter@D@__crt_stdio_output@@@__crt_stdio_output@@QEAA@XZ 0000000180159d00 f i libucrt:output.obj
 0001:00158d24       ??1?$format_validation_base@_WV?$stream_output_adapter@_W@__crt_stdio_output@@@__crt_stdio_output@@QEAA@XZ 0000000180159d24 f i libucrt:output.obj
 0001:00158d48       ??1?$format_validation_base@_WV?$string_output_adapter@_W@__crt_stdio_output@@@__crt_stdio_output@@QEAA@XZ 0000000180159d48 f i libucrt:output.obj
 0001:00158d6c       ??1?$output_adapter_data@DV?$stream_output_adapter@D@__crt_stdio_output@@@__crt_stdio_output@@QEAA@XZ 0000000180159d6c f i libucrt:output.obj
 0001:00158d90       ??1?$output_adapter_data@DV?$string_output_adapter@D@__crt_stdio_output@@@__crt_stdio_output@@QEAA@XZ 0000000180159d90 f i libucrt:output.obj
 0001:00158db4       ??1?$output_adapter_data@_WV?$stream_output_adapter@_W@__crt_stdio_output@@@__crt_stdio_output@@QEAA@XZ 0000000180159db4 f i libucrt:output.obj
 0001:00158dd8       ??1?$output_adapter_data@_WV?$string_output_adapter@_W@__crt_stdio_output@@@__crt_stdio_output@@QEAA@XZ 0000000180159dd8 f i libucrt:output.obj
 0001:00158dfc       ??1?$output_processor@DV?$stream_output_adapter@D@__crt_stdio_output@@V?$format_validation_base@DV?$stream_output_adapter@D@__crt_stdio_output@@@2@@__crt_stdio_output@@QEAA@XZ 0000000180159dfc f i libucrt:output.obj
 0001:00158e20       ??1?$output_processor@DV?$stream_output_adapter@D@__crt_stdio_output@@V?$positional_parameter_base@DV?$stream_output_adapter@D@__crt_stdio_output@@@2@@__crt_stdio_output@@QEAA@XZ 0000000180159e20 f i libucrt:output.obj
 0001:00158e44       ??1?$output_processor@DV?$stream_output_adapter@D@__crt_stdio_output@@V?$standard_base@DV?$stream_output_adapter@D@__crt_stdio_output@@@2@@__crt_stdio_output@@QEAA@XZ 0000000180159e44 f i libucrt:output.obj
 0001:00158e68       ??1?$output_processor@DV?$string_output_adapter@D@__crt_stdio_output@@V?$format_validation_base@DV?$string_output_adapter@D@__crt_stdio_output@@@2@@__crt_stdio_output@@QEAA@XZ 0000000180159e68 f i libucrt:output.obj
 0001:00158e8c       ??1?$output_processor@DV?$string_output_adapter@D@__crt_stdio_output@@V?$positional_parameter_base@DV?$string_output_adapter@D@__crt_stdio_output@@@2@@__crt_stdio_output@@QEAA@XZ 0000000180159e8c f i libucrt:output.obj
 0001:00158eb0       ??1?$output_processor@DV?$string_output_adapter@D@__crt_stdio_output@@V?$standard_base@DV?$string_output_adapter@D@__crt_stdio_output@@@2@@__crt_stdio_output@@QEAA@XZ 0000000180159eb0 f i libucrt:output.obj
 0001:00158ed4       ??1?$output_processor@_WV?$stream_output_adapter@_W@__crt_stdio_output@@V?$format_validation_base@_WV?$stream_output_adapter@_W@__crt_stdio_output@@@2@@__crt_stdio_output@@QEAA@XZ 0000000180159ed4 f i libucrt:output.obj
 0001:00158ef8       ??1?$output_processor@_WV?$stream_output_adapter@_W@__crt_stdio_output@@V?$positional_parameter_base@_WV?$stream_output_adapter@_W@__crt_stdio_output@@@2@@__crt_stdio_output@@QEAA@XZ 0000000180159ef8 f i libucrt:output.obj
 0001:00158f1c       ??1?$output_processor@_WV?$stream_output_adapter@_W@__crt_stdio_output@@V?$standard_base@_WV?$stream_output_adapter@_W@__crt_stdio_output@@@2@@__crt_stdio_output@@QEAA@XZ 0000000180159f1c f i libucrt:output.obj
 0001:00158f40       ??1?$output_processor@_WV?$string_output_adapter@_W@__crt_stdio_output@@V?$format_validation_base@_WV?$string_output_adapter@_W@__crt_stdio_output@@@2@@__crt_stdio_output@@QEAA@XZ 0000000180159f40 f i libucrt:output.obj
 0001:00158f64       ??1?$output_processor@_WV?$string_output_adapter@_W@__crt_stdio_output@@V?$positional_parameter_base@_WV?$string_output_adapter@_W@__crt_stdio_output@@@2@@__crt_stdio_output@@QEAA@XZ 0000000180159f64 f i libucrt:output.obj
 0001:00158f88       ??1?$output_processor@_WV?$string_output_adapter@_W@__crt_stdio_output@@V?$standard_base@_WV?$string_output_adapter@_W@__crt_stdio_output@@@2@@__crt_stdio_output@@QEAA@XZ 0000000180159f88 f i libucrt:output.obj
 0001:00158fac       ??1?$positional_parameter_base@DV?$stream_output_adapter@D@__crt_stdio_output@@@__crt_stdio_output@@QEAA@XZ 0000000180159fac f i libucrt:output.obj
 0001:00158fd0       ??1?$positional_parameter_base@DV?$string_output_adapter@D@__crt_stdio_output@@@__crt_stdio_output@@QEAA@XZ 0000000180159fd0 f i libucrt:output.obj
 0001:00158ff4       ??1?$positional_parameter_base@_WV?$stream_output_adapter@_W@__crt_stdio_output@@@__crt_stdio_output@@QEAA@XZ 0000000180159ff4 f i libucrt:output.obj
 0001:00159018       ??1?$positional_parameter_base@_WV?$string_output_adapter@_W@__crt_stdio_output@@@__crt_stdio_output@@QEAA@XZ 000000018015a018 f i libucrt:output.obj
 0001:0015903c       ??1?$standard_base@DV?$stream_output_adapter@D@__crt_stdio_output@@@__crt_stdio_output@@QEAA@XZ 000000018015a03c f i libucrt:output.obj
 0001:00159060       ??1?$standard_base@DV?$string_output_adapter@D@__crt_stdio_output@@@__crt_stdio_output@@QEAA@XZ 000000018015a060 f i libucrt:output.obj
 0001:00159084       ??1?$standard_base@_WV?$stream_output_adapter@_W@__crt_stdio_output@@@__crt_stdio_output@@QEAA@XZ 000000018015a084 f i libucrt:output.obj
 0001:001590a8       ??1?$standard_base@_WV?$string_output_adapter@_W@__crt_stdio_output@@@__crt_stdio_output@@QEAA@XZ 000000018015a0a8 f i libucrt:output.obj
 0001:001590cc       ??1_LocaleUpdate@@QEAA@XZ  000000018015a0cc f i libucrt:output.obj
 0001:001590e0       ??1__acrt_stdio_temporary_buffering_guard@@QEAA@XZ 000000018015a0e0 f i libucrt:output.obj
 0001:001590ec       ??1__crt_errno_guard@@QEAA@XZ 000000018015a0ec f i libucrt:output.obj
 0001:00159100       ??1formatting_buffer@__crt_stdio_output@@QEAA@XZ 000000018015a100 f i libucrt:output.obj
 0001:00159124       ??4?$__crt_unique_heap_ptr@DU__crt_internal_free_policy@@@@QEAAAEAV0@$$QEAV0@@Z 000000018015a124 f i libucrt:output.obj
 0001:00159158       ??A?$spectre_mitigated_lookup_table@Ustate_transition_pair@__crt_stdio_output@@$0IA@@__crt_stdio_output@@QEBAAEBUstate_transition_pair@1@_K@Z 000000018015a158 f i libucrt:output.obj
 0001:00159160       ??C__crt_stdio_stream@@QEBAPEAU__crt_stdio_stream_data@@XZ 000000018015a160 f i libucrt:output.obj
 0001:00159928       ?GetLocaleT@_LocaleUpdate@@QEAAPEAU__crt_locale_pointers@@XZ 000000018015a928 f i libucrt:output.obj
 0001:00159930       ?adjust_hexit@?$output_processor@DV?$stream_output_adapter@D@__crt_stdio_output@@V?$format_validation_base@DV?$stream_output_adapter@D@__crt_stdio_output@@@2@@__crt_stdio_output@@CADH_N@Z 000000018015a930 f i libucrt:output.obj
 0001:0015993c       ?adjust_hexit@?$output_processor@DV?$stream_output_adapter@D@__crt_stdio_output@@V?$positional_parameter_base@DV?$stream_output_adapter@D@__crt_stdio_output@@@2@@__crt_stdio_output@@CADH_N@Z 000000018015a93c f i libucrt:output.obj
 0001:00159948       ?adjust_hexit@?$output_processor@DV?$stream_output_adapter@D@__crt_stdio_output@@V?$standard_base@DV?$stream_output_adapter@D@__crt_stdio_output@@@2@@__crt_stdio_output@@CADH_N@Z 000000018015a948 f i libucrt:output.obj
 0001:00159954       ?adjust_hexit@?$output_processor@DV?$string_output_adapter@D@__crt_stdio_output@@V?$format_validation_base@DV?$string_output_adapter@D@__crt_stdio_output@@@2@@__crt_stdio_output@@CADH_N@Z 000000018015a954 f i libucrt:output.obj
 0001:00159960       ?adjust_hexit@?$output_processor@DV?$string_output_adapter@D@__crt_stdio_output@@V?$positional_parameter_base@DV?$string_output_adapter@D@__crt_stdio_output@@@2@@__crt_stdio_output@@CADH_N@Z 000000018015a960 f i libucrt:output.obj
 0001:0015996c       ?adjust_hexit@?$output_processor@DV?$string_output_adapter@D@__crt_stdio_output@@V?$standard_base@DV?$string_output_adapter@D@__crt_stdio_output@@@2@@__crt_stdio_output@@CADH_N@Z 000000018015a96c f i libucrt:output.obj
 0001:00159978       ?adjust_hexit@?$output_processor@_WV?$stream_output_adapter@_W@__crt_stdio_output@@V?$format_validation_base@_WV?$stream_output_adapter@_W@__crt_stdio_output@@@2@@__crt_stdio_output@@CADH_N@Z 000000018015a978 f i libucrt:output.obj
 0001:00159984       ?adjust_hexit@?$output_processor@_WV?$stream_output_adapter@_W@__crt_stdio_output@@V?$positional_parameter_base@_WV?$stream_output_adapter@_W@__crt_stdio_output@@@2@@__crt_stdio_output@@CADH_N@Z 000000018015a984 f i libucrt:output.obj
 0001:00159990       ?adjust_hexit@?$output_processor@_WV?$stream_output_adapter@_W@__crt_stdio_output@@V?$standard_base@_WV?$stream_output_adapter@_W@__crt_stdio_output@@@2@@__crt_stdio_output@@CADH_N@Z 000000018015a990 f i libucrt:output.obj
 0001:0015999c       ?adjust_hexit@?$output_processor@_WV?$string_output_adapter@_W@__crt_stdio_output@@V?$format_validation_base@_WV?$string_output_adapter@_W@__crt_stdio_output@@@2@@__crt_stdio_output@@CADH_N@Z 000000018015a99c f i libucrt:output.obj
 0001:001599a8       ?adjust_hexit@?$output_processor@_WV?$string_output_adapter@_W@__crt_stdio_output@@V?$positional_parameter_base@_WV?$string_output_adapter@_W@__crt_stdio_output@@@2@@__crt_stdio_output@@CADH_N@Z 000000018015a9a8 f i libucrt:output.obj
 0001:001599b4       ?adjust_hexit@?$output_processor@_WV?$string_output_adapter@_W@__crt_stdio_output@@V?$standard_base@_WV?$string_output_adapter@_W@__crt_stdio_output@@@2@@__crt_stdio_output@@CADH_N@Z 000000018015a9b4 f i libucrt:output.obj
 0001:001599c0       ?advance_to_next_pass@?$positional_parameter_base@DV?$stream_output_adapter@D@__crt_stdio_output@@@__crt_stdio_output@@IEAA_NXZ 000000018015a9c0 f i libucrt:output.obj
 0001:00159a10       ?advance_to_next_pass@?$positional_parameter_base@DV?$string_output_adapter@D@__crt_stdio_output@@@__crt_stdio_output@@IEAA_NXZ 000000018015aa10 f i libucrt:output.obj
 0001:00159a60       ?advance_to_next_pass@?$positional_parameter_base@_WV?$stream_output_adapter@_W@__crt_stdio_output@@@__crt_stdio_output@@IEAA_NXZ 000000018015aa60 f i libucrt:output.obj
 0001:00159ab0       ?advance_to_next_pass@?$positional_parameter_base@_WV?$string_output_adapter@_W@__crt_stdio_output@@@__crt_stdio_output@@IEAA_NXZ 000000018015aab0 f i libucrt:output.obj
 0001:00159b00       ?advance_to_next_pass@?$standard_base@DV?$stream_output_adapter@D@__crt_stdio_output@@@__crt_stdio_output@@IEAA_NXZ 000000018015ab00 f i libucrt:output.obj
 0001:00159b14       ?advance_to_next_pass@?$standard_base@DV?$string_output_adapter@D@__crt_stdio_output@@@__crt_stdio_output@@IEAA_NXZ 000000018015ab14 f i libucrt:output.obj
 0001:00159b28       ?advance_to_next_pass@?$standard_base@_WV?$stream_output_adapter@_W@__crt_stdio_output@@@__crt_stdio_output@@IEAA_NXZ 000000018015ab28 f i libucrt:output.obj
 0001:00159b3c       ?advance_to_next_pass@?$standard_base@_WV?$string_output_adapter@_W@__crt_stdio_output@@@__crt_stdio_output@@IEAA_NXZ 000000018015ab3c f i libucrt:output.obj
 0001:00159b50       ?crop_zeroes@__crt_stdio_output@@YAXPEADQEAU__crt_locale_pointers@@@Z 000000018015ab50 f i libucrt:output.obj
 0001:00159be4       ?find_next_state@?$output_processor@DV?$stream_output_adapter@D@__crt_stdio_output@@V?$format_validation_base@DV?$stream_output_adapter@D@__crt_stdio_output@@@2@@__crt_stdio_output@@AEBA?AW4state@2@DW432@@Z 000000018015abe4 f i libucrt:output.obj
 0001:00159c14       ?find_next_state@?$output_processor@DV?$stream_output_adapter@D@__crt_stdio_output@@V?$positional_parameter_base@DV?$stream_output_adapter@D@__crt_stdio_output@@@2@@__crt_stdio_output@@AEBA?AW4state@2@DW432@@Z 000000018015ac14 f i libucrt:output.obj
 0001:00159c44       ?find_next_state@?$output_processor@DV?$stream_output_adapter@D@__crt_stdio_output@@V?$standard_base@DV?$stream_output_adapter@D@__crt_stdio_output@@@2@@__crt_stdio_output@@AEBA?AW4state@2@DW432@@Z 000000018015ac44 f i libucrt:output.obj
 0001:00159c74       ?find_next_state@?$output_processor@DV?$string_output_adapter@D@__crt_stdio_output@@V?$format_validation_base@DV?$string_output_adapter@D@__crt_stdio_output@@@2@@__crt_stdio_output@@AEBA?AW4state@2@DW432@@Z 000000018015ac74 f i libucrt:output.obj
 0001:00159ca4       ?find_next_state@?$output_processor@DV?$string_output_adapter@D@__crt_stdio_output@@V?$positional_parameter_base@DV?$string_output_adapter@D@__crt_stdio_output@@@2@@__crt_stdio_output@@AEBA?AW4state@2@DW432@@Z 000000018015aca4 f i libucrt:output.obj
 0001:00159cd4       ?find_next_state@?$output_processor@DV?$string_output_adapter@D@__crt_stdio_output@@V?$standard_base@DV?$string_output_adapter@D@__crt_stdio_output@@@2@@__crt_stdio_output@@AEBA?AW4state@2@DW432@@Z 000000018015acd4 f i libucrt:output.obj
 0001:00159d04       ?find_next_state@?$output_processor@_WV?$stream_output_adapter@_W@__crt_stdio_output@@V?$format_validation_base@_WV?$stream_output_adapter@_W@__crt_stdio_output@@@2@@__crt_stdio_output@@AEBA?AW4state@2@_WW432@@Z 000000018015ad04 f i libucrt:output.obj
 0001:00159d3c       ?find_next_state@?$output_processor@_WV?$stream_output_adapter@_W@__crt_stdio_output@@V?$positional_parameter_base@_WV?$stream_output_adapter@_W@__crt_stdio_output@@@2@@__crt_stdio_output@@AEBA?AW4state@2@_WW432@@Z 000000018015ad3c f i libucrt:output.obj
 0001:00159d74       ?find_next_state@?$output_processor@_WV?$stream_output_adapter@_W@__crt_stdio_output@@V?$standard_base@_WV?$stream_output_adapter@_W@__crt_stdio_output@@@2@@__crt_stdio_output@@AEBA?AW4state@2@_WW432@@Z 000000018015ad74 f i libucrt:output.obj
 0001:00159dac       ?find_next_state@?$output_processor@_WV?$string_output_adapter@_W@__crt_stdio_output@@V?$format_validation_base@_WV?$string_output_adapter@_W@__crt_stdio_output@@@2@@__crt_stdio_output@@AEBA?AW4state@2@_WW432@@Z 000000018015adac f i libucrt:output.obj
 0001:00159de4       ?find_next_state@?$output_processor@_WV?$string_output_adapter@_W@__crt_stdio_output@@V?$positional_parameter_base@_WV?$string_output_adapter@_W@__crt_stdio_output@@@2@@__crt_stdio_output@@AEBA?AW4state@2@_WW432@@Z 000000018015ade4 f i libucrt:output.obj
 0001:00159e1c       ?find_next_state@?$output_processor@_WV?$string_output_adapter@_W@__crt_stdio_output@@V?$standard_base@_WV?$string_output_adapter@_W@__crt_stdio_output@@@2@@__crt_stdio_output@@AEBA?AW4state@2@_WW432@@Z 000000018015ae1c f i libucrt:output.obj
 0001:00159e60       ?force_decimal_point@__crt_stdio_output@@YAXPEADQEAU__crt_locale_pointers@@@Z 000000018015ae60 f i libucrt:output.obj
 0001:00159ed8       ?get@__crt_deferred_errno_cache@@QEAAAEAHXZ 000000018015aed8 f i libucrt:output.obj
 0001:00159ef8       ?get_flags@__crt_stdio_stream@@QEBAJXZ 000000018015aef8 f i libucrt:output.obj
 0001:00159f00       ?get_parameter_type@?$positional_parameter_base@DV?$stream_output_adapter@D@__crt_stdio_output@@@__crt_stdio_output@@CA?AW4parameter_type@12@F@Z 000000018015af00 f i libucrt:output.obj
 0001:00159f08       ?get_parameter_type@?$positional_parameter_base@DV?$stream_output_adapter@D@__crt_stdio_output@@@__crt_stdio_output@@CA?AW4parameter_type@12@G@Z 000000018015af08 f i libucrt:output.obj
 0001:00159f10       ?get_parameter_type@?$positional_parameter_base@DV?$stream_output_adapter@D@__crt_stdio_output@@@__crt_stdio_output@@CA?AW4parameter_type@12@H@Z 000000018015af10 f i libucrt:output.obj
 0001:00159f18       ?get_parameter_type@?$positional_parameter_base@DV?$stream_output_adapter@D@__crt_stdio_output@@@__crt_stdio_output@@CA?AW4parameter_type@12@I@Z 000000018015af18 f i libucrt:output.obj
 0001:00159f20       ?get_parameter_type@?$positional_parameter_base@DV?$stream_output_adapter@D@__crt_stdio_output@@@__crt_stdio_output@@CA?AW4parameter_type@12@U_CRT_DOUBLE@@@Z 000000018015af20 f i libucrt:output.obj
 0001:00159f28       ?get_parameter_type@?$positional_parameter_base@DV?$stream_output_adapter@D@__crt_stdio_output@@@__crt_stdio_output@@CA?AW4parameter_type@12@_J@Z 000000018015af28 f i libucrt:output.obj
 0001:00159f30       ?get_parameter_type@?$positional_parameter_base@DV?$stream_output_adapter@D@__crt_stdio_output@@@__crt_stdio_output@@CA?AW4parameter_type@12@_K@Z 000000018015af30 f i libucrt:output.obj
 0001:00159f38       ?get_parameter_type@?$positional_parameter_base@DV?$stream_output_adapter@D@__crt_stdio_output@@@__crt_stdio_output@@CA?AW4parameter_type@12@_W@Z 000000018015af38 f i libucrt:output.obj
 0001:00159f40       ?get_parameter_type@?$positional_parameter_base@DV?$string_output_adapter@D@__crt_stdio_output@@@__crt_stdio_output@@CA?AW4parameter_type@12@F@Z 000000018015af40 f i libucrt:output.obj
 0001:00159f48       ?get_parameter_type@?$positional_parameter_base@DV?$string_output_adapter@D@__crt_stdio_output@@@__crt_stdio_output@@CA?AW4parameter_type@12@G@Z 000000018015af48 f i libucrt:output.obj
 0001:00159f50       ?get_parameter_type@?$positional_parameter_base@DV?$string_output_adapter@D@__crt_stdio_output@@@__crt_stdio_output@@CA?AW4parameter_type@12@H@Z 000000018015af50 f i libucrt:output.obj
 0001:00159f58       ?get_parameter_type@?$positional_parameter_base@DV?$string_output_adapter@D@__crt_stdio_output@@@__crt_stdio_output@@CA?AW4parameter_type@12@I@Z 000000018015af58 f i libucrt:output.obj
 0001:00159f60       ?get_parameter_type@?$positional_parameter_base@DV?$string_output_adapter@D@__crt_stdio_output@@@__crt_stdio_output@@CA?AW4parameter_type@12@U_CRT_DOUBLE@@@Z 000000018015af60 f i libucrt:output.obj
 0001:00159f68       ?get_parameter_type@?$positional_parameter_base@DV?$string_output_adapter@D@__crt_stdio_output@@@__crt_stdio_output@@CA?AW4parameter_type@12@_J@Z 000000018015af68 f i libucrt:output.obj
 0001:00159f70       ?get_parameter_type@?$positional_parameter_base@DV?$string_output_adapter@D@__crt_stdio_output@@@__crt_stdio_output@@CA?AW4parameter_type@12@_K@Z 000000018015af70 f i libucrt:output.obj
 0001:00159f78       ?get_parameter_type@?$positional_parameter_base@DV?$string_output_adapter@D@__crt_stdio_output@@@__crt_stdio_output@@CA?AW4parameter_type@12@_W@Z 000000018015af78 f i libucrt:output.obj
 0001:00159f80       ?get_parameter_type@?$positional_parameter_base@_WV?$stream_output_adapter@_W@__crt_stdio_output@@@__crt_stdio_output@@CA?AW4parameter_type@12@F@Z 000000018015af80 f i libucrt:output.obj
 0001:00159f88       ?get_parameter_type@?$positional_parameter_base@_WV?$stream_output_adapter@_W@__crt_stdio_output@@@__crt_stdio_output@@CA?AW4parameter_type@12@G@Z 000000018015af88 f i libucrt:output.obj
 0001:00159f90       ?get_parameter_type@?$positional_parameter_base@_WV?$stream_output_adapter@_W@__crt_stdio_output@@@__crt_stdio_output@@CA?AW4parameter_type@12@H@Z 000000018015af90 f i libucrt:output.obj
 0001:00159f98       ?get_parameter_type@?$positional_parameter_base@_WV?$stream_output_adapter@_W@__crt_stdio_output@@@__crt_stdio_output@@CA?AW4parameter_type@12@I@Z 000000018015af98 f i libucrt:output.obj
 0001:00159fa0       ?get_parameter_type@?$positional_parameter_base@_WV?$stream_output_adapter@_W@__crt_stdio_output@@@__crt_stdio_output@@CA?AW4parameter_type@12@U_CRT_DOUBLE@@@Z 000000018015afa0 f i libucrt:output.obj
 0001:00159fa8       ?get_parameter_type@?$positional_parameter_base@_WV?$stream_output_adapter@_W@__crt_stdio_output@@@__crt_stdio_output@@CA?AW4parameter_type@12@_J@Z 000000018015afa8 f i libucrt:output.obj
 0001:00159fb0       ?get_parameter_type@?$positional_parameter_base@_WV?$stream_output_adapter@_W@__crt_stdio_output@@@__crt_stdio_output@@CA?AW4parameter_type@12@_K@Z 000000018015afb0 f i libucrt:output.obj
 0001:00159fb8       ?get_parameter_type@?$positional_parameter_base@_WV?$stream_output_adapter@_W@__crt_stdio_output@@@__crt_stdio_output@@CA?AW4parameter_type@12@_W@Z 000000018015afb8 f i libucrt:output.obj
 0001:00159fc0       ?get_parameter_type@?$positional_parameter_base@_WV?$string_output_adapter@_W@__crt_stdio_output@@@__crt_stdio_output@@CA?AW4parameter_type@12@F@Z 000000018015afc0 f i libucrt:output.obj
 0001:00159fc8       ?get_parameter_type@?$positional_parameter_base@_WV?$string_output_adapter@_W@__crt_stdio_output@@@__crt_stdio_output@@CA?AW4parameter_type@12@G@Z 000000018015afc8 f i libucrt:output.obj
 0001:00159fd0       ?get_parameter_type@?$positional_parameter_base@_WV?$string_output_adapter@_W@__crt_stdio_output@@@__crt_stdio_output@@CA?AW4parameter_type@12@H@Z 000000018015afd0 f i libucrt:output.obj
 0001:00159fd8       ?get_parameter_type@?$positional_parameter_base@_WV?$string_output_adapter@_W@__crt_stdio_output@@@__crt_stdio_output@@CA?AW4parameter_type@12@I@Z 000000018015afd8 f i libucrt:output.obj
 0001:00159fe0       ?get_parameter_type@?$positional_parameter_base@_WV?$string_output_adapter@_W@__crt_stdio_output@@@__crt_stdio_output@@CA?AW4parameter_type@12@U_CRT_DOUBLE@@@Z 000000018015afe0 f i libucrt:output.obj
 0001:00159fe8       ?get_parameter_type@?$positional_parameter_base@_WV?$string_output_adapter@_W@__crt_stdio_output@@@__crt_stdio_output@@CA?AW4parameter_type@12@_J@Z 000000018015afe8 f i libucrt:output.obj
 0001:00159ff0       ?get_parameter_type@?$positional_parameter_base@_WV?$string_output_adapter@_W@__crt_stdio_output@@@__crt_stdio_output@@CA?AW4parameter_type@12@_K@Z 000000018015aff0 f i libucrt:output.obj
 0001:00159ff8       ?get_parameter_type@?$positional_parameter_base@_WV?$string_output_adapter@_W@__crt_stdio_output@@@__crt_stdio_output@@CA?AW4parameter_type@12@_W@Z 000000018015aff8 f i libucrt:output.obj
 0001:0015a000       ?has_flag@?$output_processor@DV?$stream_output_adapter@D@__crt_stdio_output@@V?$format_validation_base@DV?$stream_output_adapter@D@__crt_stdio_output@@@2@@__crt_stdio_output@@AEBA_NI@Z 000000018015b000 f i libucrt:output.obj
 0001:0015a008       ?has_flag@?$output_processor@DV?$stream_output_adapter@D@__crt_stdio_output@@V?$positional_parameter_base@DV?$stream_output_adapter@D@__crt_stdio_output@@@2@@__crt_stdio_output@@AEBA_NI@Z 000000018015b008 f i libucrt:output.obj
 0001:0015a010       ?has_flag@?$output_processor@DV?$stream_output_adapter@D@__crt_stdio_output@@V?$standard_base@DV?$stream_output_adapter@D@__crt_stdio_output@@@2@@__crt_stdio_output@@AEBA_NI@Z 000000018015b010 f i libucrt:output.obj
 0001:0015a018       ?has_flag@?$output_processor@DV?$string_output_adapter@D@__crt_stdio_output@@V?$format_validation_base@DV?$string_output_adapter@D@__crt_stdio_output@@@2@@__crt_stdio_output@@AEBA_NI@Z 000000018015b018 f i libucrt:output.obj
 0001:0015a020       ?has_flag@?$output_processor@DV?$string_output_adapter@D@__crt_stdio_output@@V?$positional_parameter_base@DV?$string_output_adapter@D@__crt_stdio_output@@@2@@__crt_stdio_output@@AEBA_NI@Z 000000018015b020 f i libucrt:output.obj
 0001:0015a028       ?has_flag@?$output_processor@DV?$string_output_adapter@D@__crt_stdio_output@@V?$standard_base@DV?$string_output_adapter@D@__crt_stdio_output@@@2@@__crt_stdio_output@@AEBA_NI@Z 000000018015b028 f i libucrt:output.obj
 0001:0015a030       ?has_flag@?$output_processor@_WV?$stream_output_adapter@_W@__crt_stdio_output@@V?$format_validation_base@_WV?$stream_output_adapter@_W@__crt_stdio_output@@@2@@__crt_stdio_output@@AEBA_NI@Z 000000018015b030 f i libucrt:output.obj
 0001:0015a038       ?has_flag@?$output_processor@_WV?$stream_output_adapter@_W@__crt_stdio_output@@V?$positional_parameter_base@_WV?$stream_output_adapter@_W@__crt_stdio_output@@@2@@__crt_stdio_output@@AEBA_NI@Z 000000018015b038 f i libucrt:output.obj
 0001:0015a040       ?has_flag@?$output_processor@_WV?$stream_output_adapter@_W@__crt_stdio_output@@V?$standard_base@_WV?$stream_output_adapter@_W@__crt_stdio_output@@@2@@__crt_stdio_output@@AEBA_NI@Z 000000018015b040 f i libucrt:output.obj
 0001:0015a048       ?has_flag@?$output_processor@_WV?$string_output_adapter@_W@__crt_stdio_output@@V?$format_validation_base@_WV?$string_output_adapter@_W@__crt_stdio_output@@@2@@__crt_stdio_output@@AEBA_NI@Z 000000018015b048 f i libucrt:output.obj
 0001:0015a050       ?has_flag@?$output_processor@_WV?$string_output_adapter@_W@__crt_stdio_output@@V?$positional_parameter_base@_WV?$string_output_adapter@_W@__crt_stdio_output@@@2@@__crt_stdio_output@@AEBA_NI@Z 000000018015b050 f i libucrt:output.obj
 0001:0015a058       ?has_flag@?$output_processor@_WV?$string_output_adapter@_W@__crt_stdio_output@@V?$standard_base@_WV?$string_output_adapter@_W@__crt_stdio_output@@@2@@__crt_stdio_output@@AEBA_NI@Z 000000018015b058 f i libucrt:output.obj
 0001:0015a060       ?is_positional_parameter_reappearance_consistent@?$positional_parameter_base@DV?$stream_output_adapter@D@__crt_stdio_output@@@__crt_stdio_output@@AEAA_NAEBUparameter_data@12@W4parameter_type@12@DW4length_modifier@2@@Z 000000018015b060 f i libucrt:output.obj
 0001:0015a200       ?is_positional_parameter_reappearance_consistent@?$positional_parameter_base@DV?$string_output_adapter@D@__crt_stdio_output@@@__crt_stdio_output@@AEAA_NAEBUparameter_data@12@W4parameter_type@12@DW4length_modifier@2@@Z 000000018015b200 f i libucrt:output.obj
 0001:0015a3a0       ?is_positional_parameter_reappearance_consistent@?$positional_parameter_base@_WV?$stream_output_adapter@_W@__crt_stdio_output@@@__crt_stdio_output@@AEAA_NAEBUparameter_data@12@W4parameter_type@12@_WW4length_modifier@2@@Z 000000018015b3a0 f i libucrt:output.obj
 0001:0015a50c       ?is_positional_parameter_reappearance_consistent@?$positional_parameter_base@_WV?$string_output_adapter@_W@__crt_stdio_output@@@__crt_stdio_output@@AEAA_NAEBUparameter_data@12@W4parameter_type@12@_WW4length_modifier@2@@Z 000000018015b50c f i libucrt:output.obj
 0001:0015a678       ?is_string_backed@__crt_stdio_stream@@QEBA_NXZ 000000018015b678 f i libucrt:output.obj
 0001:0015a684       ?narrow_null_string@?$output_processor@DV?$stream_output_adapter@D@__crt_stdio_output@@V?$format_validation_base@DV?$stream_output_adapter@D@__crt_stdio_output@@@2@@__crt_stdio_output@@CAPEADXZ 000000018015b684 f i libucrt:output.obj
 0001:0015a68c       ?narrow_null_string@?$output_processor@DV?$stream_output_adapter@D@__crt_stdio_output@@V?$positional_parameter_base@DV?$stream_output_adapter@D@__crt_stdio_output@@@2@@__crt_stdio_output@@CAPEADXZ 000000018015b68c f i libucrt:output.obj
 0001:0015a694       ?narrow_null_string@?$output_processor@DV?$stream_output_adapter@D@__crt_stdio_output@@V?$standard_base@DV?$stream_output_adapter@D@__crt_stdio_output@@@2@@__crt_stdio_output@@CAPEADXZ 000000018015b694 f i libucrt:output.obj
 0001:0015a69c       ?narrow_null_string@?$output_processor@DV?$string_output_adapter@D@__crt_stdio_output@@V?$format_validation_base@DV?$string_output_adapter@D@__crt_stdio_output@@@2@@__crt_stdio_output@@CAPEADXZ 000000018015b69c f i libucrt:output.obj
 0001:0015a6a4       ?narrow_null_string@?$output_processor@DV?$string_output_adapter@D@__crt_stdio_output@@V?$positional_parameter_base@DV?$string_output_adapter@D@__crt_stdio_output@@@2@@__crt_stdio_output@@CAPEADXZ 000000018015b6a4 f i libucrt:output.obj
 0001:0015a6ac       ?narrow_null_string@?$output_processor@DV?$string_output_adapter@D@__crt_stdio_output@@V?$standard_base@DV?$string_output_adapter@D@__crt_stdio_output@@@2@@__crt_stdio_output@@CAPEADXZ 000000018015b6ac f i libucrt:output.obj
 0001:0015a6b4       ?narrow_null_string@?$output_processor@_WV?$stream_output_adapter@_W@__crt_stdio_output@@V?$format_validation_base@_WV?$stream_output_adapter@_W@__crt_stdio_output@@@2@@__crt_stdio_output@@CAPEADXZ 000000018015b6b4 f i libucrt:output.obj
 0001:0015a6bc       ?narrow_null_string@?$output_processor@_WV?$stream_output_adapter@_W@__crt_stdio_output@@V?$positional_parameter_base@_WV?$stream_output_adapter@_W@__crt_stdio_output@@@2@@__crt_stdio_output@@CAPEADXZ 000000018015b6bc f i libucrt:output.obj
 0001:0015a6c4       ?narrow_null_string@?$output_processor@_WV?$stream_output_adapter@_W@__crt_stdio_output@@V?$standard_base@_WV?$stream_output_adapter@_W@__crt_stdio_output@@@2@@__crt_stdio_output@@CAPEADXZ 000000018015b6c4 f i libucrt:output.obj
 0001:0015a6cc       ?narrow_null_string@?$output_processor@_WV?$string_output_adapter@_W@__crt_stdio_output@@V?$format_validation_base@_WV?$string_output_adapter@_W@__crt_stdio_output@@@2@@__crt_stdio_output@@CAPEADXZ 000000018015b6cc f i libucrt:output.obj
 0001:0015a6d4       ?narrow_null_string@?$output_processor@_WV?$string_output_adapter@_W@__crt_stdio_output@@V?$positional_parameter_base@_WV?$string_output_adapter@_W@__crt_stdio_output@@@2@@__crt_stdio_output@@CAPEADXZ 000000018015b6d4 f i libucrt:output.obj
 0001:0015a6dc       ?narrow_null_string@?$output_processor@_WV?$string_output_adapter@_W@__crt_stdio_output@@V?$standard_base@_WV?$string_output_adapter@_W@__crt_stdio_output@@@2@@__crt_stdio_output@@CAPEADXZ 000000018015b6dc f i libucrt:output.obj
 0001:0015a6e4       ?parse_int_from_format_string@?$output_processor@DV?$stream_output_adapter@D@__crt_stdio_output@@V?$format_validation_base@DV?$stream_output_adapter@D@__crt_stdio_output@@@2@@__crt_stdio_output@@AEAA_NQEAH@Z 000000018015b6e4 f i libucrt:output.obj
 0001:0015a788       ?parse_int_from_format_string@?$output_processor@DV?$stream_output_adapter@D@__crt_stdio_output@@V?$positional_parameter_base@DV?$stream_output_adapter@D@__crt_stdio_output@@@2@@__crt_stdio_output@@AEAA_NQEAH@Z 000000018015b788 f i libucrt:output.obj
 0001:0015a82c       ?parse_int_from_format_string@?$output_processor@DV?$stream_output_adapter@D@__crt_stdio_output@@V?$standard_base@DV?$stream_output_adapter@D@__crt_stdio_output@@@2@@__crt_stdio_output@@AEAA_NQEAH@Z 000000018015b82c f i libucrt:output.obj
 0001:0015a8d0       ?parse_int_from_format_string@?$output_processor@DV?$string_output_adapter@D@__crt_stdio_output@@V?$format_validation_base@DV?$string_output_adapter@D@__crt_stdio_output@@@2@@__crt_stdio_output@@AEAA_NQEAH@Z 000000018015b8d0 f i libucrt:output.obj
 0001:0015a974       ?parse_int_from_format_string@?$output_processor@DV?$string_output_adapter@D@__crt_stdio_output@@V?$positional_parameter_base@DV?$string_output_adapter@D@__crt_stdio_output@@@2@@__crt_stdio_output@@AEAA_NQEAH@Z 000000018015b974 f i libucrt:output.obj
 0001:0015aa18       ?parse_int_from_format_string@?$output_processor@DV?$string_output_adapter@D@__crt_stdio_output@@V?$standard_base@DV?$string_output_adapter@D@__crt_stdio_output@@@2@@__crt_stdio_output@@AEAA_NQEAH@Z 000000018015ba18 f i libucrt:output.obj
 0001:0015aabc       ?parse_int_from_format_string@?$output_processor@_WV?$stream_output_adapter@_W@__crt_stdio_output@@V?$format_validation_base@_WV?$stream_output_adapter@_W@__crt_stdio_output@@@2@@__crt_stdio_output@@AEAA_NQEAH@Z 000000018015babc f i libucrt:output.obj
 0001:0015ab60       ?parse_int_from_format_string@?$output_processor@_WV?$stream_output_adapter@_W@__crt_stdio_output@@V?$positional_parameter_base@_WV?$stream_output_adapter@_W@__crt_stdio_output@@@2@@__crt_stdio_output@@AEAA_NQEAH@Z 000000018015bb60 f i libucrt:output.obj
 0001:0015ac04       ?parse_int_from_format_string@?$output_processor@_WV?$stream_output_adapter@_W@__crt_stdio_output@@V?$standard_base@_WV?$stream_output_adapter@_W@__crt_stdio_output@@@2@@__crt_stdio_output@@AEAA_NQEAH@Z 000000018015bc04 f i libucrt:output.obj
 0001:0015aca8       ?parse_int_from_format_string@?$output_processor@_WV?$string_output_adapter@_W@__crt_stdio_output@@V?$format_validation_base@_WV?$string_output_adapter@_W@__crt_stdio_output@@@2@@__crt_stdio_output@@AEAA_NQEAH@Z 000000018015bca8 f i libucrt:output.obj
 0001:0015ad4c       ?parse_int_from_format_string@?$output_processor@_WV?$string_output_adapter@_W@__crt_stdio_output@@V?$positional_parameter_base@_WV?$string_output_adapter@_W@__crt_stdio_output@@@2@@__crt_stdio_output@@AEAA_NQEAH@Z 000000018015bd4c f i libucrt:output.obj
 0001:0015adf0       ?parse_int_from_format_string@?$output_processor@_WV?$string_output_adapter@_W@__crt_stdio_output@@V?$standard_base@_WV?$string_output_adapter@_W@__crt_stdio_output@@@2@@__crt_stdio_output@@AEAA_NQEAH@Z 000000018015bdf0 f i libucrt:output.obj
 0001:0015ae94       ?process@?$output_processor@DV?$stream_output_adapter@D@__crt_stdio_output@@V?$format_validation_base@DV?$stream_output_adapter@D@__crt_stdio_output@@@2@@__crt_stdio_output@@QEAAHXZ 000000018015be94 f i libucrt:output.obj
 0001:0015b0b8       ?process@?$output_processor@DV?$stream_output_adapter@D@__crt_stdio_output@@V?$positional_parameter_base@DV?$stream_output_adapter@D@__crt_stdio_output@@@2@@__crt_stdio_output@@QEAAHXZ 000000018015c0b8 f i libucrt:output.obj
 0001:0015b35c       ?process@?$output_processor@DV?$stream_output_adapter@D@__crt_stdio_output@@V?$standard_base@DV?$stream_output_adapter@D@__crt_stdio_output@@@2@@__crt_stdio_output@@QEAAHXZ 000000018015c35c f i libucrt:output.obj
 0001:0015b570       ?process@?$output_processor@DV?$string_output_adapter@D@__crt_stdio_output@@V?$format_validation_base@DV?$string_output_adapter@D@__crt_stdio_output@@@2@@__crt_stdio_output@@QEAAHXZ 000000018015c570 f i libucrt:output.obj
 0001:0015b784       ?process@?$output_processor@DV?$string_output_adapter@D@__crt_stdio_output@@V?$positional_parameter_base@DV?$string_output_adapter@D@__crt_stdio_output@@@2@@__crt_stdio_output@@QEAAHXZ 000000018015c784 f i libucrt:output.obj
 0001:0015ba18       ?process@?$output_processor@DV?$string_output_adapter@D@__crt_stdio_output@@V?$standard_base@DV?$string_output_adapter@D@__crt_stdio_output@@@2@@__crt_stdio_output@@QEAAHXZ 000000018015ca18 f i libucrt:output.obj
 0001:0015bc20       ?process@?$output_processor@_WV?$stream_output_adapter@_W@__crt_stdio_output@@V?$format_validation_base@_WV?$stream_output_adapter@_W@__crt_stdio_output@@@2@@__crt_stdio_output@@QEAAHXZ 000000018015cc20 f i libucrt:output.obj
 0001:0015bea4       ?process@?$output_processor@_WV?$stream_output_adapter@_W@__crt_stdio_output@@V?$positional_parameter_base@_WV?$stream_output_adapter@_W@__crt_stdio_output@@@2@@__crt_stdio_output@@QEAAHXZ 000000018015cea4 f i libucrt:output.obj
 0001:0015c160       ?process@?$output_processor@_WV?$stream_output_adapter@_W@__crt_stdio_output@@V?$standard_base@_WV?$stream_output_adapter@_W@__crt_stdio_output@@@2@@__crt_stdio_output@@QEAAHXZ 000000018015d160 f i libucrt:output.obj
 0001:0015c3d8       ?process@?$output_processor@_WV?$string_output_adapter@_W@__crt_stdio_output@@V?$format_validation_base@_WV?$string_output_adapter@_W@__crt_stdio_output@@@2@@__crt_stdio_output@@QEAAHXZ 000000018015d3d8 f i libucrt:output.obj
 0001:0015c650       ?process@?$output_processor@_WV?$string_output_adapter@_W@__crt_stdio_output@@V?$positional_parameter_base@_WV?$string_output_adapter@_W@__crt_stdio_output@@@2@@__crt_stdio_output@@QEAAHXZ 000000018015d650 f i libucrt:output.obj
 0001:0015c90c       ?process@?$output_processor@_WV?$string_output_adapter@_W@__crt_stdio_output@@V?$standard_base@_WV?$string_output_adapter@_W@__crt_stdio_output@@@2@@__crt_stdio_output@@QEAAHXZ 000000018015d90c f i libucrt:output.obj
 0001:0015cb78       ?public_stream@__crt_stdio_stream@@QEBAPEAU_iobuf@@XZ 000000018015db78 f i libucrt:output.obj
 0001:0015cb7c       ?set_flag@?$output_processor@DV?$stream_output_adapter@D@__crt_stdio_output@@V?$format_validation_base@DV?$stream_output_adapter@D@__crt_stdio_output@@@2@@__crt_stdio_output@@AEAAXI@Z 000000018015db7c f i libucrt:output.obj
 0001:0015cb80       ?set_flag@?$output_processor@DV?$stream_output_adapter@D@__crt_stdio_output@@V?$positional_parameter_base@DV?$stream_output_adapter@D@__crt_stdio_output@@@2@@__crt_stdio_output@@AEAAXI@Z 000000018015db80 f i libucrt:output.obj
 0001:0015cb84       ?set_flag@?$output_processor@DV?$stream_output_adapter@D@__crt_stdio_output@@V?$standard_base@DV?$stream_output_adapter@D@__crt_stdio_output@@@2@@__crt_stdio_output@@AEAAXI@Z 000000018015db84 f i libucrt:output.obj
 0001:0015cb88       ?set_flag@?$output_processor@DV?$string_output_adapter@D@__crt_stdio_output@@V?$format_validation_base@DV?$string_output_adapter@D@__crt_stdio_output@@@2@@__crt_stdio_output@@AEAAXI@Z 000000018015db88 f i libucrt:output.obj
 0001:0015cb8c       ?set_flag@?$output_processor@DV?$string_output_adapter@D@__crt_stdio_output@@V?$positional_parameter_base@DV?$string_output_adapter@D@__crt_stdio_output@@@2@@__crt_stdio_output@@AEAAXI@Z 000000018015db8c f i libucrt:output.obj
 0001:0015cb90       ?set_flag@?$output_processor@DV?$string_output_adapter@D@__crt_stdio_output@@V?$standard_base@DV?$string_output_adapter@D@__crt_stdio_output@@@2@@__crt_stdio_output@@AEAAXI@Z 000000018015db90 f i libucrt:output.obj
 0001:0015cb94       ?set_flag@?$output_processor@_WV?$stream_output_adapter@_W@__crt_stdio_output@@V?$format_validation_base@_WV?$stream_output_adapter@_W@__crt_stdio_output@@@2@@__crt_stdio_output@@AEAAXI@Z 000000018015db94 f i libucrt:output.obj
 0001:0015cb98       ?set_flag@?$output_processor@_WV?$stream_output_adapter@_W@__crt_stdio_output@@V?$positional_parameter_base@_WV?$stream_output_adapter@_W@__crt_stdio_output@@@2@@__crt_stdio_output@@AEAAXI@Z 000000018015db98 f i libucrt:output.obj
 0001:0015cb9c       ?set_flag@?$output_processor@_WV?$stream_output_adapter@_W@__crt_stdio_output@@V?$standard_base@_WV?$stream_output_adapter@_W@__crt_stdio_output@@@2@@__crt_stdio_output@@AEAAXI@Z 000000018015db9c f i libucrt:output.obj
 0001:0015cba0       ?set_flag@?$output_processor@_WV?$string_output_adapter@_W@__crt_stdio_output@@V?$format_validation_base@_WV?$string_output_adapter@_W@__crt_stdio_output@@@2@@__crt_stdio_output@@AEAAXI@Z 000000018015dba0 f i libucrt:output.obj
 0001:0015cba4       ?set_flag@?$output_processor@_WV?$string_output_adapter@_W@__crt_stdio_output@@V?$positional_parameter_base@_WV?$string_output_adapter@_W@__crt_stdio_output@@@2@@__crt_stdio_output@@AEAAXI@Z 000000018015dba4 f i libucrt:output.obj
 0001:0015cba8       ?set_flag@?$output_processor@_WV?$string_output_adapter@_W@__crt_stdio_output@@V?$standard_base@_WV?$string_output_adapter@_W@__crt_stdio_output@@@2@@__crt_stdio_output@@AEAAXI@Z 000000018015dba8 f i libucrt:output.obj
 0001:0015cbac       ?should_format@?$positional_parameter_base@DV?$stream_output_adapter@D@__crt_stdio_output@@@__crt_stdio_output@@IEAA_NXZ 000000018015dbac f i libucrt:output.obj
 0001:0015cbc4       ?should_format@?$positional_parameter_base@DV?$string_output_adapter@D@__crt_stdio_output@@@__crt_stdio_output@@IEAA_NXZ 000000018015dbc4 f i libucrt:output.obj
 0001:0015cbdc       ?should_format@?$positional_parameter_base@_WV?$stream_output_adapter@_W@__crt_stdio_output@@@__crt_stdio_output@@IEAA_NXZ 000000018015dbdc f i libucrt:output.obj
 0001:0015cbf4       ?should_format@?$positional_parameter_base@_WV?$string_output_adapter@_W@__crt_stdio_output@@@__crt_stdio_output@@IEAA_NXZ 000000018015dbf4 f i libucrt:output.obj
 0001:0015cc0c       ?should_format@?$standard_base@DV?$stream_output_adapter@D@__crt_stdio_output@@@__crt_stdio_output@@IEAA_NXZ 000000018015dc0c f i libucrt:output.obj
 0001:0015cc10       ?should_format@?$standard_base@DV?$string_output_adapter@D@__crt_stdio_output@@@__crt_stdio_output@@IEAA_NXZ 000000018015dc10 f i libucrt:output.obj
 0001:0015cc14       ?should_format@?$standard_base@_WV?$stream_output_adapter@_W@__crt_stdio_output@@@__crt_stdio_output@@IEAA_NXZ 000000018015dc14 f i libucrt:output.obj
 0001:0015cc18       ?should_format@?$standard_base@_WV?$string_output_adapter@_W@__crt_stdio_output@@@__crt_stdio_output@@IEAA_NXZ 000000018015dc18 f i libucrt:output.obj
 0001:0015cc1c       ?should_skip_normal_state_processing@?$positional_parameter_base@DV?$stream_output_adapter@D@__crt_stdio_output@@@__crt_stdio_output@@IEAA_NXZ 000000018015dc1c f i libucrt:output.obj
 0001:0015cc44       ?should_skip_normal_state_processing@?$positional_parameter_base@DV?$string_output_adapter@D@__crt_stdio_output@@@__crt_stdio_output@@IEAA_NXZ 000000018015dc44 f i libucrt:output.obj
 0001:0015cc6c       ?should_skip_normal_state_processing@?$positional_parameter_base@_WV?$stream_output_adapter@_W@__crt_stdio_output@@@__crt_stdio_output@@IEAA_NXZ 000000018015dc6c f i libucrt:output.obj
 0001:0015cc94       ?should_skip_normal_state_processing@?$positional_parameter_base@_WV?$string_output_adapter@_W@__crt_stdio_output@@@__crt_stdio_output@@IEAA_NXZ 000000018015dc94 f i libucrt:output.obj
 0001:0015ccbc       ?should_skip_normal_state_processing@?$standard_base@DV?$stream_output_adapter@D@__crt_stdio_output@@@__crt_stdio_output@@IEAA_NXZ 000000018015dcbc f i libucrt:output.obj
 0001:0015ccc0       ?should_skip_normal_state_processing@?$standard_base@DV?$string_output_adapter@D@__crt_stdio_output@@@__crt_stdio_output@@IEAA_NXZ 000000018015dcc0 f i libucrt:output.obj
 0001:0015ccc4       ?should_skip_normal_state_processing@?$standard_base@_WV?$stream_output_adapter@_W@__crt_stdio_output@@@__crt_stdio_output@@IEAA_NXZ 000000018015dcc4 f i libucrt:output.obj
 0001:0015ccc8       ?should_skip_normal_state_processing@?$standard_base@_WV?$string_output_adapter@_W@__crt_stdio_output@@@__crt_stdio_output@@IEAA_NXZ 000000018015dcc8 f i libucrt:output.obj
 0001:0015cccc       ?should_skip_type_state_output@?$positional_parameter_base@DV?$stream_output_adapter@D@__crt_stdio_output@@@__crt_stdio_output@@IEBA_NXZ 000000018015dccc f i libucrt:output.obj
 0001:0015cce8       ?should_skip_type_state_output@?$positional_parameter_base@DV?$string_output_adapter@D@__crt_stdio_output@@@__crt_stdio_output@@IEBA_NXZ 000000018015dce8 f i libucrt:output.obj
 0001:0015cd04       ?should_skip_type_state_output@?$positional_parameter_base@_WV?$stream_output_adapter@_W@__crt_stdio_output@@@__crt_stdio_output@@IEBA_NXZ 000000018015dd04 f i libucrt:output.obj
 0001:0015cd20       ?should_skip_type_state_output@?$positional_parameter_base@_WV?$string_output_adapter@_W@__crt_stdio_output@@@__crt_stdio_output@@IEBA_NXZ 000000018015dd20 f i libucrt:output.obj
 0001:0015cd3c       ?should_skip_type_state_output@?$standard_base@DV?$stream_output_adapter@D@__crt_stdio_output@@@__crt_stdio_output@@IEBA_NXZ 000000018015dd3c f i libucrt:output.obj
 0001:0015cd40       ?should_skip_type_state_output@?$standard_base@DV?$string_output_adapter@D@__crt_stdio_output@@@__crt_stdio_output@@IEBA_NXZ 000000018015dd40 f i libucrt:output.obj
 0001:0015cd44       ?should_skip_type_state_output@?$standard_base@_WV?$stream_output_adapter@_W@__crt_stdio_output@@@__crt_stdio_output@@IEBA_NXZ 000000018015dd44 f i libucrt:output.obj
 0001:0015cd48       ?should_skip_type_state_output@?$standard_base@_WV?$string_output_adapter@_W@__crt_stdio_output@@@__crt_stdio_output@@IEBA_NXZ 000000018015dd48 f i libucrt:output.obj
 0001:0015cd4c       ?state_case_dot@?$output_processor@DV?$stream_output_adapter@D@__crt_stdio_output@@V?$format_validation_base@DV?$stream_output_adapter@D@__crt_stdio_output@@@2@@__crt_stdio_output@@AEAA_NXZ 000000018015dd4c f i libucrt:output.obj
 0001:0015cd54       ?state_case_dot@?$output_processor@DV?$stream_output_adapter@D@__crt_stdio_output@@V?$positional_parameter_base@DV?$stream_output_adapter@D@__crt_stdio_output@@@2@@__crt_stdio_output@@AEAA_NXZ 000000018015dd54 f i libucrt:output.obj
 0001:0015cd5c       ?state_case_dot@?$output_processor@DV?$stream_output_adapter@D@__crt_stdio_output@@V?$standard_base@DV?$stream_output_adapter@D@__crt_stdio_output@@@2@@__crt_stdio_output@@AEAA_NXZ 000000018015dd5c f i libucrt:output.obj
 0001:0015cd64       ?state_case_dot@?$output_processor@DV?$string_output_adapter@D@__crt_stdio_output@@V?$format_validation_base@DV?$string_output_adapter@D@__crt_stdio_output@@@2@@__crt_stdio_output@@AEAA_NXZ 000000018015dd64 f i libucrt:output.obj
 0001:0015cd6c       ?state_case_dot@?$output_processor@DV?$string_output_adapter@D@__crt_stdio_output@@V?$positional_parameter_base@DV?$string_output_adapter@D@__crt_stdio_output@@@2@@__crt_stdio_output@@AEAA_NXZ 000000018015dd6c f i libucrt:output.obj
 0001:0015cd74       ?state_case_dot@?$output_processor@DV?$string_output_adapter@D@__crt_stdio_output@@V?$standard_base@DV?$string_output_adapter@D@__crt_stdio_output@@@2@@__crt_stdio_output@@AEAA_NXZ 000000018015dd74 f i libucrt:output.obj
 0001:0015cd7c       ?state_case_dot@?$output_processor@_WV?$stream_output_adapter@_W@__crt_stdio_output@@V?$format_validation_base@_WV?$stream_output_adapter@_W@__crt_stdio_output@@@2@@__crt_stdio_output@@AEAA_NXZ 000000018015dd7c f i libucrt:output.obj
 0001:0015cd84       ?state_case_dot@?$output_processor@_WV?$stream_output_adapter@_W@__crt_stdio_output@@V?$positional_parameter_base@_WV?$stream_output_adapter@_W@__crt_stdio_output@@@2@@__crt_stdio_output@@AEAA_NXZ 000000018015dd84 f i libucrt:output.obj
 0001:0015cd8c       ?state_case_dot@?$output_processor@_WV?$stream_output_adapter@_W@__crt_stdio_output@@V?$standard_base@_WV?$stream_output_adapter@_W@__crt_stdio_output@@@2@@__crt_stdio_output@@AEAA_NXZ 000000018015dd8c f i libucrt:output.obj
 0001:0015cd94       ?state_case_dot@?$output_processor@_WV?$string_output_adapter@_W@__crt_stdio_output@@V?$format_validation_base@_WV?$string_output_adapter@_W@__crt_stdio_output@@@2@@__crt_stdio_output@@AEAA_NXZ 000000018015dd94 f i libucrt:output.obj
 0001:0015cd9c       ?state_case_dot@?$output_processor@_WV?$string_output_adapter@_W@__crt_stdio_output@@V?$positional_parameter_base@_WV?$string_output_adapter@_W@__crt_stdio_output@@@2@@__crt_stdio_output@@AEAA_NXZ 000000018015dd9c f i libucrt:output.obj
 0001:0015cda4       ?state_case_dot@?$output_processor@_WV?$string_output_adapter@_W@__crt_stdio_output@@V?$standard_base@_WV?$string_output_adapter@_W@__crt_stdio_output@@@2@@__crt_stdio_output@@AEAA_NXZ 000000018015dda4 f i libucrt:output.obj
 0001:0015cdac       ?state_case_flag@?$output_processor@DV?$stream_output_adapter@D@__crt_stdio_output@@V?$format_validation_base@DV?$stream_output_adapter@D@__crt_stdio_output@@@2@@__crt_stdio_output@@AEAA_NXZ 000000018015ddac f i libucrt:output.obj
 0001:0015cde4       ?state_case_flag@?$output_processor@DV?$stream_output_adapter@D@__crt_stdio_output@@V?$positional_parameter_base@DV?$stream_output_adapter@D@__crt_stdio_output@@@2@@__crt_stdio_output@@AEAA_NXZ 000000018015dde4 f i libucrt:output.obj
 0001:0015ce1c       ?state_case_flag@?$output_processor@DV?$stream_output_adapter@D@__crt_stdio_output@@V?$standard_base@DV?$stream_output_adapter@D@__crt_stdio_output@@@2@@__crt_stdio_output@@AEAA_NXZ 000000018015de1c f i libucrt:output.obj
 0001:0015ce54       ?state_case_flag@?$output_processor@DV?$string_output_adapter@D@__crt_stdio_output@@V?$format_validation_base@DV?$string_output_adapter@D@__crt_stdio_output@@@2@@__crt_stdio_output@@AEAA_NXZ 000000018015de54 f i libucrt:output.obj
 0001:0015ce8c       ?state_case_flag@?$output_processor@DV?$string_output_adapter@D@__crt_stdio_output@@V?$positional_parameter_base@DV?$string_output_adapter@D@__crt_stdio_output@@@2@@__crt_stdio_output@@AEAA_NXZ 000000018015de8c f i libucrt:output.obj
 0001:0015cec4       ?state_case_flag@?$output_processor@DV?$string_output_adapter@D@__crt_stdio_output@@V?$standard_base@DV?$string_output_adapter@D@__crt_stdio_output@@@2@@__crt_stdio_output@@AEAA_NXZ 000000018015dec4 f i libucrt:output.obj
 0001:0015cefc       ?state_case_flag@?$output_processor@_WV?$stream_output_adapter@_W@__crt_stdio_output@@V?$format_validation_base@_WV?$stream_output_adapter@_W@__crt_stdio_output@@@2@@__crt_stdio_output@@AEAA_NXZ 000000018015defc f i libucrt:output.obj
 0001:0015cf40       ?state_case_flag@?$output_processor@_WV?$stream_output_adapter@_W@__crt_stdio_output@@V?$positional_parameter_base@_WV?$stream_output_adapter@_W@__crt_stdio_output@@@2@@__crt_stdio_output@@AEAA_NXZ 000000018015df40 f i libucrt:output.obj
 0001:0015cf84       ?state_case_flag@?$output_processor@_WV?$stream_output_adapter@_W@__crt_stdio_output@@V?$standard_base@_WV?$stream_output_adapter@_W@__crt_stdio_output@@@2@@__crt_stdio_output@@AEAA_NXZ 000000018015df84 f i libucrt:output.obj
 0001:0015cfc8       ?state_case_flag@?$output_processor@_WV?$string_output_adapter@_W@__crt_stdio_output@@V?$format_validation_base@_WV?$string_output_adapter@_W@__crt_stdio_output@@@2@@__crt_stdio_output@@AEAA_NXZ 000000018015dfc8 f i libucrt:output.obj
 0001:0015d00c       ?state_case_flag@?$output_processor@_WV?$string_output_adapter@_W@__crt_stdio_output@@V?$positional_parameter_base@_WV?$string_output_adapter@_W@__crt_stdio_output@@@2@@__crt_stdio_output@@AEAA_NXZ 000000018015e00c f i libucrt:output.obj
 0001:0015d050       ?state_case_flag@?$output_processor@_WV?$string_output_adapter@_W@__crt_stdio_output@@V?$standard_base@_WV?$string_output_adapter@_W@__crt_stdio_output@@@2@@__crt_stdio_output@@AEAA_NXZ 000000018015e050 f i libucrt:output.obj
 0001:0015d094       ?state_case_normal@?$output_processor@DV?$stream_output_adapter@D@__crt_stdio_output@@V?$format_validation_base@DV?$stream_output_adapter@D@__crt_stdio_output@@@2@@__crt_stdio_output@@AEAA_NXZ 000000018015e094 f i libucrt:output.obj
 0001:0015d104       ?state_case_normal@?$output_processor@DV?$stream_output_adapter@D@__crt_stdio_output@@V?$positional_parameter_base@DV?$stream_output_adapter@D@__crt_stdio_output@@@2@@__crt_stdio_output@@AEAA_NXZ 000000018015e104 f i libucrt:output.obj
 0001:0015d198       ?state_case_normal@?$output_processor@DV?$stream_output_adapter@D@__crt_stdio_output@@V?$standard_base@DV?$stream_output_adapter@D@__crt_stdio_output@@@2@@__crt_stdio_output@@AEAA_NXZ 000000018015e198 f i libucrt:output.obj
 0001:0015d208       ?state_case_normal@?$output_processor@DV?$string_output_adapter@D@__crt_stdio_output@@V?$format_validation_base@DV?$string_output_adapter@D@__crt_stdio_output@@@2@@__crt_stdio_output@@AEAA_NXZ 000000018015e208 f i libucrt:output.obj
 0001:0015d27c       ?state_case_normal@?$output_processor@DV?$string_output_adapter@D@__crt_stdio_output@@V?$positional_parameter_base@DV?$string_output_adapter@D@__crt_stdio_output@@@2@@__crt_stdio_output@@AEAA_NXZ 000000018015e27c f i libucrt:output.obj
 0001:0015d314       ?state_case_normal@?$output_processor@DV?$string_output_adapter@D@__crt_stdio_output@@V?$standard_base@DV?$string_output_adapter@D@__crt_stdio_output@@@2@@__crt_stdio_output@@AEAA_NXZ 000000018015e314 f i libucrt:output.obj
 0001:0015d388       ?state_case_normal@?$output_processor@_WV?$stream_output_adapter@_W@__crt_stdio_output@@V?$format_validation_base@_WV?$stream_output_adapter@_W@__crt_stdio_output@@@2@@__crt_stdio_output@@AEAA_NXZ 000000018015e388 f i libucrt:output.obj
 0001:0015d3e0       ?state_case_normal@?$output_processor@_WV?$stream_output_adapter@_W@__crt_stdio_output@@V?$positional_parameter_base@_WV?$stream_output_adapter@_W@__crt_stdio_output@@@2@@__crt_stdio_output@@AEAA_NXZ 000000018015e3e0 f i libucrt:output.obj
 0001:0015d45c       ?state_case_normal@?$output_processor@_WV?$stream_output_adapter@_W@__crt_stdio_output@@V?$standard_base@_WV?$stream_output_adapter@_W@__crt_stdio_output@@@2@@__crt_stdio_output@@AEAA_NXZ 000000018015e45c f i libucrt:output.obj
 0001:0015d4b4       ?state_case_normal@?$output_processor@_WV?$string_output_adapter@_W@__crt_stdio_output@@V?$format_validation_base@_WV?$string_output_adapter@_W@__crt_stdio_output@@@2@@__crt_stdio_output@@AEAA_NXZ 000000018015e4b4 f i libucrt:output.obj
 0001:0015d508       ?state_case_normal@?$output_processor@_WV?$string_output_adapter@_W@__crt_stdio_output@@V?$positional_parameter_base@_WV?$string_output_adapter@_W@__crt_stdio_output@@@2@@__crt_stdio_output@@AEAA_NXZ 000000018015e508 f i libucrt:output.obj
 0001:0015d580       ?state_case_normal@?$output_processor@_WV?$string_output_adapter@_W@__crt_stdio_output@@V?$standard_base@_WV?$string_output_adapter@_W@__crt_stdio_output@@@2@@__crt_stdio_output@@AEAA_NXZ 000000018015e580 f i libucrt:output.obj
 0001:0015d5d4       ?state_case_normal_common@?$output_processor@DV?$stream_output_adapter@D@__crt_stdio_output@@V?$format_validation_base@DV?$stream_output_adapter@D@__crt_stdio_output@@@2@@__crt_stdio_output@@AEAA_NXZ 000000018015e5d4 f i libucrt:output.obj
 0001:0015d630       ?state_case_normal_common@?$output_processor@DV?$stream_output_adapter@D@__crt_stdio_output@@V?$positional_parameter_base@DV?$stream_output_adapter@D@__crt_stdio_output@@@2@@__crt_stdio_output@@AEAA_NXZ 000000018015e630 f i libucrt:output.obj
 0001:0015d68c       ?state_case_normal_common@?$output_processor@DV?$stream_output_adapter@D@__crt_stdio_output@@V?$standard_base@DV?$stream_output_adapter@D@__crt_stdio_output@@@2@@__crt_stdio_output@@AEAA_NXZ 000000018015e68c f i libucrt:output.obj
 0001:0015d6e8       ?state_case_normal_common@?$output_processor@DV?$string_output_adapter@D@__crt_stdio_output@@V?$format_validation_base@DV?$string_output_adapter@D@__crt_stdio_output@@@2@@__crt_stdio_output@@AEAA_NXZ 000000018015e6e8 f i libucrt:output.obj
 0001:0015d748       ?state_case_normal_common@?$output_processor@DV?$string_output_adapter@D@__crt_stdio_output@@V?$positional_parameter_base@DV?$string_output_adapter@D@__crt_stdio_output@@@2@@__crt_stdio_output@@AEAA_NXZ 000000018015e748 f i libucrt:output.obj
 0001:0015d7a8       ?state_case_normal_common@?$output_processor@DV?$string_output_adapter@D@__crt_stdio_output@@V?$standard_base@DV?$string_output_adapter@D@__crt_stdio_output@@@2@@__crt_stdio_output@@AEAA_NXZ 000000018015e7a8 f i libucrt:output.obj
 0001:0015d808       ?state_case_normal_common@?$output_processor@_WV?$stream_output_adapter@_W@__crt_stdio_output@@V?$format_validation_base@_WV?$stream_output_adapter@_W@__crt_stdio_output@@@2@@__crt_stdio_output@@AEAA_NXZ 000000018015e808 f i libucrt:output.obj
 0001:0015d860       ?state_case_normal_common@?$output_processor@_WV?$stream_output_adapter@_W@__crt_stdio_output@@V?$positional_parameter_base@_WV?$stream_output_adapter@_W@__crt_stdio_output@@@2@@__crt_stdio_output@@AEAA_NXZ 000000018015e860 f i libucrt:output.obj
 0001:0015d8b8       ?state_case_normal_common@?$output_processor@_WV?$stream_output_adapter@_W@__crt_stdio_output@@V?$standard_base@_WV?$stream_output_adapter@_W@__crt_stdio_output@@@2@@__crt_stdio_output@@AEAA_NXZ 000000018015e8b8 f i libucrt:output.obj
 0001:0015d910       ?state_case_normal_common@?$output_processor@_WV?$string_output_adapter@_W@__crt_stdio_output@@V?$format_validation_base@_WV?$string_output_adapter@_W@__crt_stdio_output@@@2@@__crt_stdio_output@@AEAA_NXZ 000000018015e910 f i libucrt:output.obj
 0001:0015d964       ?state_case_normal_common@?$output_processor@_WV?$string_output_adapter@_W@__crt_stdio_output@@V?$positional_parameter_base@_WV?$string_output_adapter@_W@__crt_stdio_output@@@2@@__crt_stdio_output@@AEAA_NXZ 000000018015e964 f i libucrt:output.obj
 0001:0015d9b8       ?state_case_normal_common@?$output_processor@_WV?$string_output_adapter@_W@__crt_stdio_output@@V?$standard_base@_WV?$string_output_adapter@_W@__crt_stdio_output@@@2@@__crt_stdio_output@@AEAA_NXZ 000000018015e9b8 f i libucrt:output.obj
 0001:0015da0c       ?state_case_normal_tchar@?$output_processor@DV?$stream_output_adapter@D@__crt_stdio_output@@V?$format_validation_base@DV?$stream_output_adapter@D@__crt_stdio_output@@@2@@__crt_stdio_output@@AEAA_ND@Z 000000018015ea0c f i libucrt:output.obj
 0001:0015dab0       ?state_case_normal_tchar@?$output_processor@DV?$stream_output_adapter@D@__crt_stdio_output@@V?$positional_parameter_base@DV?$stream_output_adapter@D@__crt_stdio_output@@@2@@__crt_stdio_output@@AEAA_ND@Z 000000018015eab0 f i libucrt:output.obj
 0001:0015db54       ?state_case_normal_tchar@?$output_processor@DV?$stream_output_adapter@D@__crt_stdio_output@@V?$standard_base@DV?$stream_output_adapter@D@__crt_stdio_output@@@2@@__crt_stdio_output@@AEAA_ND@Z 000000018015eb54 f i libucrt:output.obj
 0001:0015dbf8       ?state_case_normal_tchar@?$output_processor@DV?$string_output_adapter@D@__crt_stdio_output@@V?$format_validation_base@DV?$string_output_adapter@D@__crt_stdio_output@@@2@@__crt_stdio_output@@AEAA_ND@Z 000000018015ebf8 f i libucrt:output.obj
 0001:0015dca0       ?state_case_normal_tchar@?$output_processor@DV?$string_output_adapter@D@__crt_stdio_output@@V?$positional_parameter_base@DV?$string_output_adapter@D@__crt_stdio_output@@@2@@__crt_stdio_output@@AEAA_ND@Z 000000018015eca0 f i libucrt:output.obj
 0001:0015dd48       ?state_case_normal_tchar@?$output_processor@DV?$string_output_adapter@D@__crt_stdio_output@@V?$standard_base@DV?$string_output_adapter@D@__crt_stdio_output@@@2@@__crt_stdio_output@@AEAA_ND@Z 000000018015ed48 f i libucrt:output.obj
 0001:0015ddf0       ?state_case_normal_tchar@?$output_processor@_WV?$stream_output_adapter@_W@__crt_stdio_output@@V?$format_validation_base@_WV?$stream_output_adapter@_W@__crt_stdio_output@@@2@@__crt_stdio_output@@AEAA_N_W@Z 000000018015edf0 f i libucrt:output.obj
 0001:0015ddf8       ?state_case_normal_tchar@?$output_processor@_WV?$stream_output_adapter@_W@__crt_stdio_output@@V?$positional_parameter_base@_WV?$stream_output_adapter@_W@__crt_stdio_output@@@2@@__crt_stdio_output@@AEAA_N_W@Z 000000018015edf8 f i libucrt:output.obj
 0001:0015de00       ?state_case_normal_tchar@?$output_processor@_WV?$stream_output_adapter@_W@__crt_stdio_output@@V?$standard_base@_WV?$stream_output_adapter@_W@__crt_stdio_output@@@2@@__crt_stdio_output@@AEAA_N_W@Z 000000018015ee00 f i libucrt:output.obj
 0001:0015de08       ?state_case_normal_tchar@?$output_processor@_WV?$string_output_adapter@_W@__crt_stdio_output@@V?$format_validation_base@_WV?$string_output_adapter@_W@__crt_stdio_output@@@2@@__crt_stdio_output@@AEAA_N_W@Z 000000018015ee08 f i libucrt:output.obj
 0001:0015de10       ?state_case_normal_tchar@?$output_processor@_WV?$string_output_adapter@_W@__crt_stdio_output@@V?$positional_parameter_base@_WV?$string_output_adapter@_W@__crt_stdio_output@@@2@@__crt_stdio_output@@AEAA_N_W@Z 000000018015ee10 f i libucrt:output.obj
 0001:0015de18       ?state_case_normal_tchar@?$output_processor@_WV?$string_output_adapter@_W@__crt_stdio_output@@V?$standard_base@_WV?$string_output_adapter@_W@__crt_stdio_output@@@2@@__crt_stdio_output@@AEAA_N_W@Z 000000018015ee18 f i libucrt:output.obj
 0001:0015de20       ?state_case_percent@?$output_processor@DV?$stream_output_adapter@D@__crt_stdio_output@@V?$format_validation_base@DV?$stream_output_adapter@D@__crt_stdio_output@@@2@@__crt_stdio_output@@AEAA_NXZ 000000018015ee20 f i libucrt:output.obj
 0001:0015de38       ?state_case_percent@?$output_processor@DV?$stream_output_adapter@D@__crt_stdio_output@@V?$positional_parameter_base@DV?$stream_output_adapter@D@__crt_stdio_output@@@2@@__crt_stdio_output@@AEAA_NXZ 000000018015ee38 f i libucrt:output.obj
 0001:0015de50       ?state_case_percent@?$output_processor@DV?$stream_output_adapter@D@__crt_stdio_output@@V?$standard_base@DV?$stream_output_adapter@D@__crt_stdio_output@@@2@@__crt_stdio_output@@AEAA_NXZ 000000018015ee50 f i libucrt:output.obj
 0001:0015de68       ?state_case_percent@?$output_processor@DV?$string_output_adapter@D@__crt_stdio_output@@V?$format_validation_base@DV?$string_output_adapter@D@__crt_stdio_output@@@2@@__crt_stdio_output@@AEAA_NXZ 000000018015ee68 f i libucrt:output.obj
 0001:0015de80       ?state_case_percent@?$output_processor@DV?$string_output_adapter@D@__crt_stdio_output@@V?$positional_parameter_base@DV?$string_output_adapter@D@__crt_stdio_output@@@2@@__crt_stdio_output@@AEAA_NXZ 000000018015ee80 f i libucrt:output.obj
 0001:0015de98       ?state_case_percent@?$output_processor@DV?$string_output_adapter@D@__crt_stdio_output@@V?$standard_base@DV?$string_output_adapter@D@__crt_stdio_output@@@2@@__crt_stdio_output@@AEAA_NXZ 000000018015ee98 f i libucrt:output.obj
 0001:0015deb0       ?state_case_percent@?$output_processor@_WV?$stream_output_adapter@_W@__crt_stdio_output@@V?$format_validation_base@_WV?$stream_output_adapter@_W@__crt_stdio_output@@@2@@__crt_stdio_output@@AEAA_NXZ 000000018015eeb0 f i libucrt:output.obj
 0001:0015dec8       ?state_case_percent@?$output_processor@_WV?$stream_output_adapter@_W@__crt_stdio_output@@V?$positional_parameter_base@_WV?$stream_output_adapter@_W@__crt_stdio_output@@@2@@__crt_stdio_output@@AEAA_NXZ 000000018015eec8 f i libucrt:output.obj
 0001:0015dee0       ?state_case_percent@?$output_processor@_WV?$stream_output_adapter@_W@__crt_stdio_output@@V?$standard_base@_WV?$stream_output_adapter@_W@__crt_stdio_output@@@2@@__crt_stdio_output@@AEAA_NXZ 000000018015eee0 f i libucrt:output.obj
 0001:0015def8       ?state_case_percent@?$output_processor@_WV?$string_output_adapter@_W@__crt_stdio_output@@V?$format_validation_base@_WV?$string_output_adapter@_W@__crt_stdio_output@@@2@@__crt_stdio_output@@AEAA_NXZ 000000018015eef8 f i libucrt:output.obj
 0001:0015df10       ?state_case_percent@?$output_processor@_WV?$string_output_adapter@_W@__crt_stdio_output@@V?$positional_parameter_base@_WV?$string_output_adapter@_W@__crt_stdio_output@@@2@@__crt_stdio_output@@AEAA_NXZ 000000018015ef10 f i libucrt:output.obj
 0001:0015df28       ?state_case_percent@?$output_processor@_WV?$string_output_adapter@_W@__crt_stdio_output@@V?$standard_base@_WV?$string_output_adapter@_W@__crt_stdio_output@@@2@@__crt_stdio_output@@AEAA_NXZ 000000018015ef28 f i libucrt:output.obj
 0001:0015df40       ?state_case_precision@?$output_processor@DV?$stream_output_adapter@D@__crt_stdio_output@@V?$format_validation_base@DV?$stream_output_adapter@D@__crt_stdio_output@@@2@@__crt_stdio_output@@AEAA_NXZ 000000018015ef40 f i libucrt:output.obj
 0001:0015df68       ?state_case_precision@?$output_processor@DV?$stream_output_adapter@D@__crt_stdio_output@@V?$positional_parameter_base@DV?$stream_output_adapter@D@__crt_stdio_output@@@2@@__crt_stdio_output@@AEAA_NXZ 000000018015ef68 f i libucrt:output.obj
 0001:0015dfb4       ?state_case_precision@?$output_processor@DV?$stream_output_adapter@D@__crt_stdio_output@@V?$standard_base@DV?$stream_output_adapter@D@__crt_stdio_output@@@2@@__crt_stdio_output@@AEAA_NXZ 000000018015efb4 f i libucrt:output.obj
 0001:0015dfdc       ?state_case_precision@?$output_processor@DV?$string_output_adapter@D@__crt_stdio_output@@V?$format_validation_base@DV?$string_output_adapter@D@__crt_stdio_output@@@2@@__crt_stdio_output@@AEAA_NXZ 000000018015efdc f i libucrt:output.obj
 0001:0015e004       ?state_case_precision@?$output_processor@DV?$string_output_adapter@D@__crt_stdio_output@@V?$positional_parameter_base@DV?$string_output_adapter@D@__crt_stdio_output@@@2@@__crt_stdio_output@@AEAA_NXZ 000000018015f004 f i libucrt:output.obj
 0001:0015e050       ?state_case_precision@?$output_processor@DV?$string_output_adapter@D@__crt_stdio_output@@V?$standard_base@DV?$string_output_adapter@D@__crt_stdio_output@@@2@@__crt_stdio_output@@AEAA_NXZ 000000018015f050 f i libucrt:output.obj
 0001:0015e078       ?state_case_precision@?$output_processor@_WV?$stream_output_adapter@_W@__crt_stdio_output@@V?$format_validation_base@_WV?$stream_output_adapter@_W@__crt_stdio_output@@@2@@__crt_stdio_output@@AEAA_NXZ 000000018015f078 f i libucrt:output.obj
 0001:0015e0a0       ?state_case_precision@?$output_processor@_WV?$stream_output_adapter@_W@__crt_stdio_output@@V?$positional_parameter_base@_WV?$stream_output_adapter@_W@__crt_stdio_output@@@2@@__crt_stdio_output@@AEAA_NXZ 000000018015f0a0 f i libucrt:output.obj
 0001:0015e0ec       ?state_case_precision@?$output_processor@_WV?$stream_output_adapter@_W@__crt_stdio_output@@V?$standard_base@_WV?$stream_output_adapter@_W@__crt_stdio_output@@@2@@__crt_stdio_output@@AEAA_NXZ 000000018015f0ec f i libucrt:output.obj
 0001:0015e114       ?state_case_precision@?$output_processor@_WV?$string_output_adapter@_W@__crt_stdio_output@@V?$format_validation_base@_WV?$string_output_adapter@_W@__crt_stdio_output@@@2@@__crt_stdio_output@@AEAA_NXZ 000000018015f114 f i libucrt:output.obj
 0001:0015e13c       ?state_case_precision@?$output_processor@_WV?$string_output_adapter@_W@__crt_stdio_output@@V?$positional_parameter_base@_WV?$string_output_adapter@_W@__crt_stdio_output@@@2@@__crt_stdio_output@@AEAA_NXZ 000000018015f13c f i libucrt:output.obj
 0001:0015e188       ?state_case_precision@?$output_processor@_WV?$string_output_adapter@_W@__crt_stdio_output@@V?$standard_base@_WV?$string_output_adapter@_W@__crt_stdio_output@@@2@@__crt_stdio_output@@AEAA_NXZ 000000018015f188 f i libucrt:output.obj
 0001:0015e1b0       ?state_case_size@?$output_processor@DV?$stream_output_adapter@D@__crt_stdio_output@@V?$format_validation_base@DV?$stream_output_adapter@D@__crt_stdio_output@@@2@@__crt_stdio_output@@AEAA_NXZ 000000018015f1b0 f i libucrt:output.obj
 0001:0015e320       ?state_case_size@?$output_processor@DV?$stream_output_adapter@D@__crt_stdio_output@@V?$positional_parameter_base@DV?$stream_output_adapter@D@__crt_stdio_output@@@2@@__crt_stdio_output@@AEAA_NXZ 000000018015f320 f i libucrt:output.obj
 0001:0015e490       ?state_case_size@?$output_processor@DV?$stream_output_adapter@D@__crt_stdio_output@@V?$standard_base@DV?$stream_output_adapter@D@__crt_stdio_output@@@2@@__crt_stdio_output@@AEAA_NXZ 000000018015f490 f i libucrt:output.obj
 0001:0015e600       ?state_case_size@?$output_processor@DV?$string_output_adapter@D@__crt_stdio_output@@V?$format_validation_base@DV?$string_output_adapter@D@__crt_stdio_output@@@2@@__crt_stdio_output@@AEAA_NXZ 000000018015f600 f i libucrt:output.obj
 0001:0015e770       ?state_case_size@?$output_processor@DV?$string_output_adapter@D@__crt_stdio_output@@V?$positional_parameter_base@DV?$string_output_adapter@D@__crt_stdio_output@@@2@@__crt_stdio_output@@AEAA_NXZ 000000018015f770 f i libucrt:output.obj
 0001:0015e8e0       ?state_case_size@?$output_processor@DV?$string_output_adapter@D@__crt_stdio_output@@V?$standard_base@DV?$string_output_adapter@D@__crt_stdio_output@@@2@@__crt_stdio_output@@AEAA_NXZ 000000018015f8e0 f i libucrt:output.obj
 0001:0015ea50       ?state_case_size@?$output_processor@_WV?$stream_output_adapter@_W@__crt_stdio_output@@V?$format_validation_base@_WV?$stream_output_adapter@_W@__crt_stdio_output@@@2@@__crt_stdio_output@@AEAA_NXZ 000000018015fa50 f i libucrt:output.obj
 0001:0015ebe4       ?state_case_size@?$output_processor@_WV?$stream_output_adapter@_W@__crt_stdio_output@@V?$positional_parameter_base@_WV?$stream_output_adapter@_W@__crt_stdio_output@@@2@@__crt_stdio_output@@AEAA_NXZ 000000018015fbe4 f i libucrt:output.obj
 0001:0015ed78       ?state_case_size@?$output_processor@_WV?$stream_output_adapter@_W@__crt_stdio_output@@V?$standard_base@_WV?$stream_output_adapter@_W@__crt_stdio_output@@@2@@__crt_stdio_output@@AEAA_NXZ 000000018015fd78 f i libucrt:output.obj
 0001:0015ef0c       ?state_case_size@?$output_processor@_WV?$string_output_adapter@_W@__crt_stdio_output@@V?$format_validation_base@_WV?$string_output_adapter@_W@__crt_stdio_output@@@2@@__crt_stdio_output@@AEAA_NXZ 000000018015ff0c f i libucrt:output.obj
 0001:0015f0a0       ?state_case_size@?$output_processor@_WV?$string_output_adapter@_W@__crt_stdio_output@@V?$positional_parameter_base@_WV?$string_output_adapter@_W@__crt_stdio_output@@@2@@__crt_stdio_output@@AEAA_NXZ 00000001801600a0 f i libucrt:output.obj
 0001:0015f234       ?state_case_size@?$output_processor@_WV?$string_output_adapter@_W@__crt_stdio_output@@V?$standard_base@_WV?$string_output_adapter@_W@__crt_stdio_output@@@2@@__crt_stdio_output@@AEAA_NXZ 0000000180160234 f i libucrt:output.obj
 0001:0015f3c8       ?state_case_type@?$output_processor@DV?$stream_output_adapter@D@__crt_stdio_output@@V?$format_validation_base@DV?$stream_output_adapter@D@__crt_stdio_output@@@2@@__crt_stdio_output@@AEAA_NXZ 00000001801603c8 f i libucrt:output.obj
 0001:0015f64c       ?state_case_type@?$output_processor@DV?$stream_output_adapter@D@__crt_stdio_output@@V?$positional_parameter_base@DV?$stream_output_adapter@D@__crt_stdio_output@@@2@@__crt_stdio_output@@AEAA_NXZ 000000018016064c f i libucrt:output.obj
 0001:0015f8e8       ?state_case_type@?$output_processor@DV?$stream_output_adapter@D@__crt_stdio_output@@V?$standard_base@DV?$stream_output_adapter@D@__crt_stdio_output@@@2@@__crt_stdio_output@@AEAA_NXZ 00000001801608e8 f i libucrt:output.obj
 0001:0015fb6c       ?state_case_type@?$output_processor@DV?$string_output_adapter@D@__crt_stdio_output@@V?$format_validation_base@DV?$string_output_adapter@D@__crt_stdio_output@@@2@@__crt_stdio_output@@AEAA_NXZ 0000000180160b6c f i libucrt:output.obj
 0001:0015fdd4       ?state_case_type@?$output_processor@DV?$string_output_adapter@D@__crt_stdio_output@@V?$positional_parameter_base@DV?$string_output_adapter@D@__crt_stdio_output@@@2@@__crt_stdio_output@@AEAA_NXZ 0000000180160dd4 f i libucrt:output.obj
 0001:00160050       ?state_case_type@?$output_processor@DV?$string_output_adapter@D@__crt_stdio_output@@V?$standard_base@DV?$string_output_adapter@D@__crt_stdio_output@@@2@@__crt_stdio_output@@AEAA_NXZ 0000000180161050 f i libucrt:output.obj
 0001:001602b8       ?state_case_type@?$output_processor@_WV?$stream_output_adapter@_W@__crt_stdio_output@@V?$format_validation_base@_WV?$stream_output_adapter@_W@__crt_stdio_output@@@2@@__crt_stdio_output@@AEAA_NXZ 00000001801612b8 f i libucrt:output.obj
 0001:00160598       ?state_case_type@?$output_processor@_WV?$stream_output_adapter@_W@__crt_stdio_output@@V?$positional_parameter_base@_WV?$stream_output_adapter@_W@__crt_stdio_output@@@2@@__crt_stdio_output@@AEAA_NXZ 0000000180161598 f i libucrt:output.obj
 0001:0016088c       ?state_case_type@?$output_processor@_WV?$stream_output_adapter@_W@__crt_stdio_output@@V?$standard_base@_WV?$stream_output_adapter@_W@__crt_stdio_output@@@2@@__crt_stdio_output@@AEAA_NXZ 000000018016188c f i libucrt:output.obj
 0001:00160b6c       ?state_case_type@?$output_processor@_WV?$string_output_adapter@_W@__crt_stdio_output@@V?$format_validation_base@_WV?$string_output_adapter@_W@__crt_stdio_output@@@2@@__crt_stdio_output@@AEAA_NXZ 0000000180161b6c f i libucrt:output.obj
 0001:00160e38       ?state_case_type@?$output_processor@_WV?$string_output_adapter@_W@__crt_stdio_output@@V?$positional_parameter_base@_WV?$string_output_adapter@_W@__crt_stdio_output@@@2@@__crt_stdio_output@@AEAA_NXZ 0000000180161e38 f i libucrt:output.obj
 0001:00161118       ?state_case_type@?$output_processor@_WV?$string_output_adapter@_W@__crt_stdio_output@@V?$standard_base@_WV?$string_output_adapter@_W@__crt_stdio_output@@@2@@__crt_stdio_output@@AEAA_NXZ 0000000180162118 f i libucrt:output.obj
 0001:001613e4       ?state_case_width@?$output_processor@DV?$stream_output_adapter@D@__crt_stdio_output@@V?$format_validation_base@DV?$stream_output_adapter@D@__crt_stdio_output@@@2@@__crt_stdio_output@@AEAA_NXZ 00000001801623e4 f i libucrt:output.obj
 0001:00161418       ?state_case_width@?$output_processor@DV?$stream_output_adapter@D@__crt_stdio_output@@V?$positional_parameter_base@DV?$stream_output_adapter@D@__crt_stdio_output@@@2@@__crt_stdio_output@@AEAA_NXZ 0000000180162418 f i libucrt:output.obj
 0001:00161468       ?state_case_width@?$output_processor@DV?$stream_output_adapter@D@__crt_stdio_output@@V?$standard_base@DV?$stream_output_adapter@D@__crt_stdio_output@@@2@@__crt_stdio_output@@AEAA_NXZ 0000000180162468 f i libucrt:output.obj
 0001:0016149c       ?state_case_width@?$output_processor@DV?$string_output_adapter@D@__crt_stdio_output@@V?$format_validation_base@DV?$string_output_adapter@D@__crt_stdio_output@@@2@@__crt_stdio_output@@AEAA_NXZ 000000018016249c f i libucrt:output.obj
 0001:001614d0       ?state_case_width@?$output_processor@DV?$string_output_adapter@D@__crt_stdio_output@@V?$positional_parameter_base@DV?$string_output_adapter@D@__crt_stdio_output@@@2@@__crt_stdio_output@@AEAA_NXZ 00000001801624d0 f i libucrt:output.obj
 0001:00161520       ?state_case_width@?$output_processor@DV?$string_output_adapter@D@__crt_stdio_output@@V?$standard_base@DV?$string_output_adapter@D@__crt_stdio_output@@@2@@__crt_stdio_output@@AEAA_NXZ 0000000180162520 f i libucrt:output.obj
 0001:00161554       ?state_case_width@?$output_processor@_WV?$stream_output_adapter@_W@__crt_stdio_output@@V?$format_validation_base@_WV?$stream_output_adapter@_W@__crt_stdio_output@@@2@@__crt_stdio_output@@AEAA_NXZ 0000000180162554 f i libucrt:output.obj
 0001:00161588       ?state_case_width@?$output_processor@_WV?$stream_output_adapter@_W@__crt_stdio_output@@V?$positional_parameter_base@_WV?$stream_output_adapter@_W@__crt_stdio_output@@@2@@__crt_stdio_output@@AEAA_NXZ 0000000180162588 f i libucrt:output.obj
 0001:001615dc       ?state_case_width@?$output_processor@_WV?$stream_output_adapter@_W@__crt_stdio_output@@V?$standard_base@_WV?$stream_output_adapter@_W@__crt_stdio_output@@@2@@__crt_stdio_output@@AEAA_NXZ 00000001801625dc f i libucrt:output.obj
 0001:00161610       ?state_case_width@?$output_processor@_WV?$string_output_adapter@_W@__crt_stdio_output@@V?$format_validation_base@_WV?$string_output_adapter@_W@__crt_stdio_output@@@2@@__crt_stdio_output@@AEAA_NXZ 0000000180162610 f i libucrt:output.obj
 0001:00161644       ?state_case_width@?$output_processor@_WV?$string_output_adapter@_W@__crt_stdio_output@@V?$positional_parameter_base@_WV?$string_output_adapter@_W@__crt_stdio_output@@@2@@__crt_stdio_output@@AEAA_NXZ 0000000180162644 f i libucrt:output.obj
 0001:00161698       ?state_case_width@?$output_processor@_WV?$string_output_adapter@_W@__crt_stdio_output@@V?$standard_base@_WV?$string_output_adapter@_W@__crt_stdio_output@@@2@@__crt_stdio_output@@AEAA_NXZ 0000000180162698 f i libucrt:output.obj
 0001:001616cc       ?state_count@?$format_validation_base@DV?$stream_output_adapter@D@__crt_stdio_output@@@__crt_stdio_output@@KAIXZ 00000001801626cc f i libucrt:output.obj
 0001:001616d4       ?state_count@?$format_validation_base@DV?$string_output_adapter@D@__crt_stdio_output@@@__crt_stdio_output@@KAIXZ 00000001801626d4 f i libucrt:output.obj
 0001:001616dc       ?state_count@?$format_validation_base@_WV?$stream_output_adapter@_W@__crt_stdio_output@@@__crt_stdio_output@@KAIXZ 00000001801626dc f i libucrt:output.obj
 0001:001616e4       ?state_count@?$format_validation_base@_WV?$string_output_adapter@_W@__crt_stdio_output@@@__crt_stdio_output@@KAIXZ 00000001801626e4 f i libucrt:output.obj
 0001:001616ec       ?state_count@?$standard_base@DV?$stream_output_adapter@D@__crt_stdio_output@@@__crt_stdio_output@@KAIXZ 00000001801626ec f i libucrt:output.obj
 0001:001616f4       ?state_count@?$standard_base@DV?$string_output_adapter@D@__crt_stdio_output@@@__crt_stdio_output@@KAIXZ 00000001801626f4 f i libucrt:output.obj
 0001:001616fc       ?state_count@?$standard_base@_WV?$stream_output_adapter@_W@__crt_stdio_output@@@__crt_stdio_output@@KAIXZ 00000001801626fc f i libucrt:output.obj
 0001:00161704       ?state_count@?$standard_base@_WV?$string_output_adapter@_W@__crt_stdio_output@@@__crt_stdio_output@@KAIXZ 0000000180162704 f i libucrt:output.obj
 0001:0016170c       ?state_transition_table@?$format_validation_base@DV?$stream_output_adapter@D@__crt_stdio_output@@@__crt_stdio_output@@KAAEBV?$spectre_mitigated_lookup_table@Ustate_transition_pair@__crt_stdio_output@@$0IA@@2@XZ 000000018016270c f i libucrt:output.obj
 0001:00161714       ?state_transition_table@?$format_validation_base@DV?$string_output_adapter@D@__crt_stdio_output@@@__crt_stdio_output@@KAAEBV?$spectre_mitigated_lookup_table@Ustate_transition_pair@__crt_stdio_output@@$0IA@@2@XZ 0000000180162714 f i libucrt:output.obj
 0001:0016171c       ?state_transition_table@?$format_validation_base@_WV?$stream_output_adapter@_W@__crt_stdio_output@@@__crt_stdio_output@@KAAEBV?$spectre_mitigated_lookup_table@Ustate_transition_pair@__crt_stdio_output@@$0IA@@2@XZ 000000018016271c f i libucrt:output.obj
 0001:00161724       ?state_transition_table@?$format_validation_base@_WV?$string_output_adapter@_W@__crt_stdio_output@@@__crt_stdio_output@@KAAEBV?$spectre_mitigated_lookup_table@Ustate_transition_pair@__crt_stdio_output@@$0IA@@2@XZ 0000000180162724 f i libucrt:output.obj
 0001:0016172c       ?state_transition_table@?$standard_base@DV?$stream_output_adapter@D@__crt_stdio_output@@@__crt_stdio_output@@KAAEBV?$spectre_mitigated_lookup_table@Ustate_transition_pair@__crt_stdio_output@@$0IA@@2@XZ 000000018016272c f i libucrt:output.obj
 0001:00161734       ?state_transition_table@?$standard_base@DV?$string_output_adapter@D@__crt_stdio_output@@@__crt_stdio_output@@KAAEBV?$spectre_mitigated_lookup_table@Ustate_transition_pair@__crt_stdio_output@@$0IA@@2@XZ 0000000180162734 f i libucrt:output.obj
 0001:0016173c       ?state_transition_table@?$standard_base@_WV?$stream_output_adapter@_W@__crt_stdio_output@@@__crt_stdio_output@@KAAEBV?$spectre_mitigated_lookup_table@Ustate_transition_pair@__crt_stdio_output@@$0IA@@2@XZ 000000018016273c f i libucrt:output.obj
 0001:00161744       ?state_transition_table@?$standard_base@_WV?$string_output_adapter@_W@__crt_stdio_output@@@__crt_stdio_output@@KAAEBV?$spectre_mitigated_lookup_table@Ustate_transition_pair@__crt_stdio_output@@$0IA@@2@XZ 0000000180162744 f i libucrt:output.obj
 0001:0016174c       ?tchar_string@?$common_data@D@__crt_stdio_output@@IEAAAEAPEADD@Z 000000018016274c f i libucrt:output.obj
 0001:00161754       ?tchar_string@?$common_data@D@__crt_stdio_output@@IEAAAEAPEADXZ 0000000180162754 f i libucrt:output.obj
 0001:0016175c       ?tchar_string@?$common_data@_W@__crt_stdio_output@@IEAAAEAPEA_WXZ 000000018016275c f i libucrt:output.obj
 0001:00161764       ?tchar_string@?$common_data@_W@__crt_stdio_output@@IEAAAEAPEA_W_W@Z 0000000180162764 f i libucrt:output.obj
 0001:00161770       ?to_integer_size@__crt_stdio_output@@YA_KW4length_modifier@1@@Z 0000000180162770 f i libucrt:output.obj
 0001:001617d8       ?type_case_X@?$output_processor@DV?$stream_output_adapter@D@__crt_stdio_output@@V?$format_validation_base@DV?$stream_output_adapter@D@__crt_stdio_output@@@2@@__crt_stdio_output@@AEAA_NXZ 00000001801627d8 f i libucrt:output.obj
 0001:001617e8       ?type_case_X@?$output_processor@DV?$stream_output_adapter@D@__crt_stdio_output@@V?$positional_parameter_base@DV?$stream_output_adapter@D@__crt_stdio_output@@@2@@__crt_stdio_output@@AEAA_NXZ 00000001801627e8 f i libucrt:output.obj
 0001:001617f8       ?type_case_X@?$output_processor@DV?$stream_output_adapter@D@__crt_stdio_output@@V?$standard_base@DV?$stream_output_adapter@D@__crt_stdio_output@@@2@@__crt_stdio_output@@AEAA_NXZ 00000001801627f8 f i libucrt:output.obj
 0001:00161808       ?type_case_X@?$output_processor@DV?$string_output_adapter@D@__crt_stdio_output@@V?$format_validation_base@DV?$string_output_adapter@D@__crt_stdio_output@@@2@@__crt_stdio_output@@AEAA_NXZ 0000000180162808 f i libucrt:output.obj
 0001:00161818       ?type_case_X@?$output_processor@DV?$string_output_adapter@D@__crt_stdio_output@@V?$positional_parameter_base@DV?$string_output_adapter@D@__crt_stdio_output@@@2@@__crt_stdio_output@@AEAA_NXZ 0000000180162818 f i libucrt:output.obj
 0001:00161828       ?type_case_X@?$output_processor@DV?$string_output_adapter@D@__crt_stdio_output@@V?$standard_base@DV?$string_output_adapter@D@__crt_stdio_output@@@2@@__crt_stdio_output@@AEAA_NXZ 0000000180162828 f i libucrt:output.obj
 0001:00161838       ?type_case_X@?$output_processor@_WV?$stream_output_adapter@_W@__crt_stdio_output@@V?$format_validation_base@_WV?$stream_output_adapter@_W@__crt_stdio_output@@@2@@__crt_stdio_output@@AEAA_NXZ 0000000180162838 f i libucrt:output.obj
 0001:00161848       ?type_case_X@?$output_processor@_WV?$stream_output_adapter@_W@__crt_stdio_output@@V?$positional_parameter_base@_WV?$stream_output_adapter@_W@__crt_stdio_output@@@2@@__crt_stdio_output@@AEAA_NXZ 0000000180162848 f i libucrt:output.obj
 0001:00161858       ?type_case_X@?$output_processor@_WV?$stream_output_adapter@_W@__crt_stdio_output@@V?$standard_base@_WV?$stream_output_adapter@_W@__crt_stdio_output@@@2@@__crt_stdio_output@@AEAA_NXZ 0000000180162858 f i libucrt:output.obj
 0001:00161868       ?type_case_X@?$output_processor@_WV?$string_output_adapter@_W@__crt_stdio_output@@V?$format_validation_base@_WV?$string_output_adapter@_W@__crt_stdio_output@@@2@@__crt_stdio_output@@AEAA_NXZ 0000000180162868 f i libucrt:output.obj
 0001:00161878       ?type_case_X@?$output_processor@_WV?$string_output_adapter@_W@__crt_stdio_output@@V?$positional_parameter_base@_WV?$string_output_adapter@_W@__crt_stdio_output@@@2@@__crt_stdio_output@@AEAA_NXZ 0000000180162878 f i libucrt:output.obj
 0001:00161888       ?type_case_X@?$output_processor@_WV?$string_output_adapter@_W@__crt_stdio_output@@V?$standard_base@_WV?$string_output_adapter@_W@__crt_stdio_output@@@2@@__crt_stdio_output@@AEAA_NXZ 0000000180162888 f i libucrt:output.obj
 0001:00161898       ?type_case_Z@?$output_processor@DV?$stream_output_adapter@D@__crt_stdio_output@@V?$format_validation_base@DV?$stream_output_adapter@D@__crt_stdio_output@@@2@@__crt_stdio_output@@AEAA_NXZ 0000000180162898 f i libucrt:output.obj
 0001:0016190c       ?type_case_Z@?$output_processor@DV?$stream_output_adapter@D@__crt_stdio_output@@V?$positional_parameter_base@DV?$stream_output_adapter@D@__crt_stdio_output@@@2@@__crt_stdio_output@@AEAA_NXZ 000000018016290c f i libucrt:output.obj
 0001:001619ac       ?type_case_Z@?$output_processor@DV?$stream_output_adapter@D@__crt_stdio_output@@V?$standard_base@DV?$stream_output_adapter@D@__crt_stdio_output@@@2@@__crt_stdio_output@@AEAA_NXZ 00000001801629ac f i libucrt:output.obj
 0001:00161a20       ?type_case_Z@?$output_processor@DV?$string_output_adapter@D@__crt_stdio_output@@V?$format_validation_base@DV?$string_output_adapter@D@__crt_stdio_output@@@2@@__crt_stdio_output@@AEAA_NXZ 0000000180162a20 f i libucrt:output.obj
 0001:00161a94       ?type_case_Z@?$output_processor@DV?$string_output_adapter@D@__crt_stdio_output@@V?$positional_parameter_base@DV?$string_output_adapter@D@__crt_stdio_output@@@2@@__crt_stdio_output@@AEAA_NXZ 0000000180162a94 f i libucrt:output.obj
 0001:00161b34       ?type_case_Z@?$output_processor@DV?$string_output_adapter@D@__crt_stdio_output@@V?$standard_base@DV?$string_output_adapter@D@__crt_stdio_output@@@2@@__crt_stdio_output@@AEAA_NXZ 0000000180162b34 f i libucrt:output.obj
 0001:00161ba8       ?type_case_Z@?$output_processor@_WV?$stream_output_adapter@_W@__crt_stdio_output@@V?$format_validation_base@_WV?$stream_output_adapter@_W@__crt_stdio_output@@@2@@__crt_stdio_output@@AEAA_NXZ 0000000180162ba8 f i libucrt:output.obj
 0001:00161c24       ?type_case_Z@?$output_processor@_WV?$stream_output_adapter@_W@__crt_stdio_output@@V?$positional_parameter_base@_WV?$stream_output_adapter@_W@__crt_stdio_output@@@2@@__crt_stdio_output@@AEAA_NXZ 0000000180162c24 f i libucrt:output.obj
 0001:00161cbc       ?type_case_Z@?$output_processor@_WV?$stream_output_adapter@_W@__crt_stdio_output@@V?$standard_base@_WV?$stream_output_adapter@_W@__crt_stdio_output@@@2@@__crt_stdio_output@@AEAA_NXZ 0000000180162cbc f i libucrt:output.obj
 0001:00161d38       ?type_case_Z@?$output_processor@_WV?$string_output_adapter@_W@__crt_stdio_output@@V?$format_validation_base@_WV?$string_output_adapter@_W@__crt_stdio_output@@@2@@__crt_stdio_output@@AEAA_NXZ 0000000180162d38 f i libucrt:output.obj
 0001:00161db4       ?type_case_Z@?$output_processor@_WV?$string_output_adapter@_W@__crt_stdio_output@@V?$positional_parameter_base@_WV?$string_output_adapter@_W@__crt_stdio_output@@@2@@__crt_stdio_output@@AEAA_NXZ 0000000180162db4 f i libucrt:output.obj
 0001:00161e4c       ?type_case_Z@?$output_processor@_WV?$string_output_adapter@_W@__crt_stdio_output@@V?$standard_base@_WV?$string_output_adapter@_W@__crt_stdio_output@@@2@@__crt_stdio_output@@AEAA_NXZ 0000000180162e4c f i libucrt:output.obj
 0001:00161ec8       ?type_case_a@?$output_processor@DV?$stream_output_adapter@D@__crt_stdio_output@@V?$format_validation_base@DV?$stream_output_adapter@D@__crt_stdio_output@@@2@@__crt_stdio_output@@AEAA_NXZ 0000000180162ec8 f i libucrt:output.obj
 0001:00162084       ?type_case_a@?$output_processor@DV?$stream_output_adapter@D@__crt_stdio_output@@V?$positional_parameter_base@DV?$stream_output_adapter@D@__crt_stdio_output@@@2@@__crt_stdio_output@@AEAA_NXZ 0000000180163084 f i libucrt:output.obj
 0001:0016227c       ?type_case_a@?$output_processor@DV?$stream_output_adapter@D@__crt_stdio_output@@V?$standard_base@DV?$stream_output_adapter@D@__crt_stdio_output@@@2@@__crt_stdio_output@@AEAA_NXZ 000000018016327c f i libucrt:output.obj
 0001:00162438       ?type_case_a@?$output_processor@DV?$string_output_adapter@D@__crt_stdio_output@@V?$format_validation_base@DV?$string_output_adapter@D@__crt_stdio_output@@@2@@__crt_stdio_output@@AEAA_NXZ 0000000180163438 f i libucrt:output.obj
 0001:001625f4       ?type_case_a@?$output_processor@DV?$string_output_adapter@D@__crt_stdio_output@@V?$positional_parameter_base@DV?$string_output_adapter@D@__crt_stdio_output@@@2@@__crt_stdio_output@@AEAA_NXZ 00000001801635f4 f i libucrt:output.obj
 0001:001627ec       ?type_case_a@?$output_processor@DV?$string_output_adapter@D@__crt_stdio_output@@V?$standard_base@DV?$string_output_adapter@D@__crt_stdio_output@@@2@@__crt_stdio_output@@AEAA_NXZ 00000001801637ec f i libucrt:output.obj
 0001:001629a8       ?type_case_a@?$output_processor@_WV?$stream_output_adapter@_W@__crt_stdio_output@@V?$format_validation_base@_WV?$stream_output_adapter@_W@__crt_stdio_output@@@2@@__crt_stdio_output@@AEAA_NXZ 00000001801639a8 f i libucrt:output.obj
 0001:00162b88       ?type_case_a@?$output_processor@_WV?$stream_output_adapter@_W@__crt_stdio_output@@V?$positional_parameter_base@_WV?$stream_output_adapter@_W@__crt_stdio_output@@@2@@__crt_stdio_output@@AEAA_NXZ 0000000180163b88 f i libucrt:output.obj
 0001:00162da4       ?type_case_a@?$output_processor@_WV?$stream_output_adapter@_W@__crt_stdio_output@@V?$standard_base@_WV?$stream_output_adapter@_W@__crt_stdio_output@@@2@@__crt_stdio_output@@AEAA_NXZ 0000000180163da4 f i libucrt:output.obj
 0001:00162f84       ?type_case_a@?$output_processor@_WV?$string_output_adapter@_W@__crt_stdio_output@@V?$format_validation_base@_WV?$string_output_adapter@_W@__crt_stdio_output@@@2@@__crt_stdio_output@@AEAA_NXZ 0000000180163f84 f i libucrt:output.obj
 0001:00163164       ?type_case_a@?$output_processor@_WV?$string_output_adapter@_W@__crt_stdio_output@@V?$positional_parameter_base@_WV?$string_output_adapter@_W@__crt_stdio_output@@@2@@__crt_stdio_output@@AEAA_NXZ 0000000180164164 f i libucrt:output.obj
 0001:00163380       ?type_case_a@?$output_processor@_WV?$string_output_adapter@_W@__crt_stdio_output@@V?$standard_base@_WV?$string_output_adapter@_W@__crt_stdio_output@@@2@@__crt_stdio_output@@AEAA_NXZ 0000000180164380 f i libucrt:output.obj
 0001:00163560       ?type_case_c@?$output_processor@DV?$stream_output_adapter@D@__crt_stdio_output@@V?$format_validation_base@DV?$stream_output_adapter@D@__crt_stdio_output@@@2@@__crt_stdio_output@@AEAA_NXZ 0000000180164560 f i libucrt:output.obj
 0001:00163568       ?type_case_c@?$output_processor@DV?$stream_output_adapter@D@__crt_stdio_output@@V?$positional_parameter_base@DV?$stream_output_adapter@D@__crt_stdio_output@@@2@@__crt_stdio_output@@AEAA_NXZ 0000000180164568 f i libucrt:output.obj
 0001:00163570       ?type_case_c@?$output_processor@DV?$stream_output_adapter@D@__crt_stdio_output@@V?$standard_base@DV?$stream_output_adapter@D@__crt_stdio_output@@@2@@__crt_stdio_output@@AEAA_NXZ 0000000180164570 f i libucrt:output.obj
 0001:00163578       ?type_case_c@?$output_processor@DV?$string_output_adapter@D@__crt_stdio_output@@V?$format_validation_base@DV?$string_output_adapter@D@__crt_stdio_output@@@2@@__crt_stdio_output@@AEAA_NXZ 0000000180164578 f i libucrt:output.obj
 0001:00163580       ?type_case_c@?$output_processor@DV?$string_output_adapter@D@__crt_stdio_output@@V?$positional_parameter_base@DV?$string_output_adapter@D@__crt_stdio_output@@@2@@__crt_stdio_output@@AEAA_NXZ 0000000180164580 f i libucrt:output.obj
 0001:00163588       ?type_case_c@?$output_processor@DV?$string_output_adapter@D@__crt_stdio_output@@V?$standard_base@DV?$string_output_adapter@D@__crt_stdio_output@@@2@@__crt_stdio_output@@AEAA_NXZ 0000000180164588 f i libucrt:output.obj
 0001:00163590       ?type_case_c@?$output_processor@_WV?$stream_output_adapter@_W@__crt_stdio_output@@V?$format_validation_base@_WV?$stream_output_adapter@_W@__crt_stdio_output@@@2@@__crt_stdio_output@@AEAA_NXZ 0000000180164590 f i libucrt:output.obj
 0001:00163598       ?type_case_c@?$output_processor@_WV?$stream_output_adapter@_W@__crt_stdio_output@@V?$positional_parameter_base@_WV?$stream_output_adapter@_W@__crt_stdio_output@@@2@@__crt_stdio_output@@AEAA_NXZ 0000000180164598 f i libucrt:output.obj
 0001:001635a0       ?type_case_c@?$output_processor@_WV?$stream_output_adapter@_W@__crt_stdio_output@@V?$standard_base@_WV?$stream_output_adapter@_W@__crt_stdio_output@@@2@@__crt_stdio_output@@AEAA_NXZ 00000001801645a0 f i libucrt:output.obj
 0001:001635a8       ?type_case_c@?$output_processor@_WV?$string_output_adapter@_W@__crt_stdio_output@@V?$format_validation_base@_WV?$string_output_adapter@_W@__crt_stdio_output@@@2@@__crt_stdio_output@@AEAA_NXZ 00000001801645a8 f i libucrt:output.obj
 0001:001635b0       ?type_case_c@?$output_processor@_WV?$string_output_adapter@_W@__crt_stdio_output@@V?$positional_parameter_base@_WV?$string_output_adapter@_W@__crt_stdio_output@@@2@@__crt_stdio_output@@AEAA_NXZ 00000001801645b0 f i libucrt:output.obj
 0001:001635b8       ?type_case_c@?$output_processor@_WV?$string_output_adapter@_W@__crt_stdio_output@@V?$standard_base@_WV?$string_output_adapter@_W@__crt_stdio_output@@@2@@__crt_stdio_output@@AEAA_NXZ 00000001801645b8 f i libucrt:output.obj
 0001:001635c0       ?type_case_c_tchar@?$output_processor@DV?$stream_output_adapter@D@__crt_stdio_output@@V?$format_validation_base@DV?$stream_output_adapter@D@__crt_stdio_output@@@2@@__crt_stdio_output@@AEAA_ND@Z 00000001801645c0 f i libucrt:output.obj
 0001:00163688       ?type_case_c_tchar@?$output_processor@DV?$stream_output_adapter@D@__crt_stdio_output@@V?$positional_parameter_base@DV?$stream_output_adapter@D@__crt_stdio_output@@@2@@__crt_stdio_output@@AEAA_ND@Z 0000000180164688 f i libucrt:output.obj
 0001:00163794       ?type_case_c_tchar@?$output_processor@DV?$stream_output_adapter@D@__crt_stdio_output@@V?$standard_base@DV?$stream_output_adapter@D@__crt_stdio_output@@@2@@__crt_stdio_output@@AEAA_ND@Z 0000000180164794 f i libucrt:output.obj
 0001:0016385c       ?type_case_c_tchar@?$output_processor@DV?$string_output_adapter@D@__crt_stdio_output@@V?$format_validation_base@DV?$string_output_adapter@D@__crt_stdio_output@@@2@@__crt_stdio_output@@AEAA_ND@Z 000000018016485c f i libucrt:output.obj
 0001:00163924       ?type_case_c_tchar@?$output_processor@DV?$string_output_adapter@D@__crt_stdio_output@@V?$positional_parameter_base@DV?$string_output_adapter@D@__crt_stdio_output@@@2@@__crt_stdio_output@@AEAA_ND@Z 0000000180164924 f i libucrt:output.obj
 0001:00163a30       ?type_case_c_tchar@?$output_processor@DV?$string_output_adapter@D@__crt_stdio_output@@V?$standard_base@DV?$string_output_adapter@D@__crt_stdio_output@@@2@@__crt_stdio_output@@AEAA_ND@Z 0000000180164a30 f i libucrt:output.obj
 0001:00163af8       ?type_case_c_tchar@?$output_processor@_WV?$stream_output_adapter@_W@__crt_stdio_output@@V?$format_validation_base@_WV?$stream_output_adapter@_W@__crt_stdio_output@@@2@@__crt_stdio_output@@AEAA_N_W@Z 0000000180164af8 f i libucrt:output.obj
 0001:00163ba0       ?type_case_c_tchar@?$output_processor@_WV?$stream_output_adapter@_W@__crt_stdio_output@@V?$positional_parameter_base@_WV?$stream_output_adapter@_W@__crt_stdio_output@@@2@@__crt_stdio_output@@AEAA_N_W@Z 0000000180164ba0 f i libucrt:output.obj
 0001:00163c6c       ?type_case_c_tchar@?$output_processor@_WV?$stream_output_adapter@_W@__crt_stdio_output@@V?$standard_base@_WV?$stream_output_adapter@_W@__crt_stdio_output@@@2@@__crt_stdio_output@@AEAA_N_W@Z 0000000180164c6c f i libucrt:output.obj
 0001:00163d14       ?type_case_c_tchar@?$output_processor@_WV?$string_output_adapter@_W@__crt_stdio_output@@V?$format_validation_base@_WV?$string_output_adapter@_W@__crt_stdio_output@@@2@@__crt_stdio_output@@AEAA_N_W@Z 0000000180164d14 f i libucrt:output.obj
 0001:00163dbc       ?type_case_c_tchar@?$output_processor@_WV?$string_output_adapter@_W@__crt_stdio_output@@V?$positional_parameter_base@_WV?$string_output_adapter@_W@__crt_stdio_output@@@2@@__crt_stdio_output@@AEAA_N_W@Z 0000000180164dbc f i libucrt:output.obj
 0001:00163e88       ?type_case_c_tchar@?$output_processor@_WV?$string_output_adapter@_W@__crt_stdio_output@@V?$standard_base@_WV?$string_output_adapter@_W@__crt_stdio_output@@@2@@__crt_stdio_output@@AEAA_N_W@Z 0000000180164e88 f i libucrt:output.obj
 0001:00163f30       ?type_case_d@?$output_processor@DV?$stream_output_adapter@D@__crt_stdio_output@@V?$format_validation_base@DV?$stream_output_adapter@D@__crt_stdio_output@@@2@@__crt_stdio_output@@AEAA_NXZ 0000000180164f30 f i libucrt:output.obj
 0001:00163f40       ?type_case_d@?$output_processor@DV?$stream_output_adapter@D@__crt_stdio_output@@V?$positional_parameter_base@DV?$stream_output_adapter@D@__crt_stdio_output@@@2@@__crt_stdio_output@@AEAA_NXZ 0000000180164f40 f i libucrt:output.obj
 0001:00163f50       ?type_case_d@?$output_processor@DV?$stream_output_adapter@D@__crt_stdio_output@@V?$standard_base@DV?$stream_output_adapter@D@__crt_stdio_output@@@2@@__crt_stdio_output@@AEAA_NXZ 0000000180164f50 f i libucrt:output.obj
 0001:00163f60       ?type_case_d@?$output_processor@DV?$string_output_adapter@D@__crt_stdio_output@@V?$format_validation_base@DV?$string_output_adapter@D@__crt_stdio_output@@@2@@__crt_stdio_output@@AEAA_NXZ 0000000180164f60 f i libucrt:output.obj
 0001:00163f70       ?type_case_d@?$output_processor@DV?$string_output_adapter@D@__crt_stdio_output@@V?$positional_parameter_base@DV?$string_output_adapter@D@__crt_stdio_output@@@2@@__crt_stdio_output@@AEAA_NXZ 0000000180164f70 f i libucrt:output.obj
 0001:00163f80       ?type_case_d@?$output_processor@DV?$string_output_adapter@D@__crt_stdio_output@@V?$standard_base@DV?$string_output_adapter@D@__crt_stdio_output@@@2@@__crt_stdio_output@@AEAA_NXZ 0000000180164f80 f i libucrt:output.obj
 0001:00163f90       ?type_case_d@?$output_processor@_WV?$stream_output_adapter@_W@__crt_stdio_output@@V?$format_validation_base@_WV?$stream_output_adapter@_W@__crt_stdio_output@@@2@@__crt_stdio_output@@AEAA_NXZ 0000000180164f90 f i libucrt:output.obj
 0001:00163fa0       ?type_case_d@?$output_processor@_WV?$stream_output_adapter@_W@__crt_stdio_output@@V?$positional_parameter_base@_WV?$stream_output_adapter@_W@__crt_stdio_output@@@2@@__crt_stdio_output@@AEAA_NXZ 0000000180164fa0 f i libucrt:output.obj
 0001:00163fb0       ?type_case_d@?$output_processor@_WV?$stream_output_adapter@_W@__crt_stdio_output@@V?$standard_base@_WV?$stream_output_adapter@_W@__crt_stdio_output@@@2@@__crt_stdio_output@@AEAA_NXZ 0000000180164fb0 f i libucrt:output.obj
 0001:00163fc0       ?type_case_d@?$output_processor@_WV?$string_output_adapter@_W@__crt_stdio_output@@V?$format_validation_base@_WV?$string_output_adapter@_W@__crt_stdio_output@@@2@@__crt_stdio_output@@AEAA_NXZ 0000000180164fc0 f i libucrt:output.obj
 0001:00163fd0       ?type_case_d@?$output_processor@_WV?$string_output_adapter@_W@__crt_stdio_output@@V?$positional_parameter_base@_WV?$string_output_adapter@_W@__crt_stdio_output@@@2@@__crt_stdio_output@@AEAA_NXZ 0000000180164fd0 f i libucrt:output.obj
 0001:00163fe0       ?type_case_d@?$output_processor@_WV?$string_output_adapter@_W@__crt_stdio_output@@V?$standard_base@_WV?$string_output_adapter@_W@__crt_stdio_output@@@2@@__crt_stdio_output@@AEAA_NXZ 0000000180164fe0 f i libucrt:output.obj
 0001:00163ff0       ?type_case_integer@?$output_processor@DV?$stream_output_adapter@D@__crt_stdio_output@@V?$format_validation_base@DV?$stream_output_adapter@D@__crt_stdio_output@@@2@@__crt_stdio_output@@AEAA_NI_N@Z 0000000180164ff0 f i libucrt:output.obj
 0001:00164170       ?type_case_integer@?$output_processor@DV?$stream_output_adapter@D@__crt_stdio_output@@V?$positional_parameter_base@DV?$stream_output_adapter@D@__crt_stdio_output@@@2@@__crt_stdio_output@@AEAA_NI_N@Z 0000000180165170 f i libucrt:output.obj
 0001:00164318       ?type_case_integer@?$output_processor@DV?$stream_output_adapter@D@__crt_stdio_output@@V?$standard_base@DV?$stream_output_adapter@D@__crt_stdio_output@@@2@@__crt_stdio_output@@AEAA_NI_N@Z 0000000180165318 f i libucrt:output.obj
 0001:00164498       ?type_case_integer@?$output_processor@DV?$string_output_adapter@D@__crt_stdio_output@@V?$format_validation_base@DV?$string_output_adapter@D@__crt_stdio_output@@@2@@__crt_stdio_output@@AEAA_NI_N@Z 0000000180165498 f i libucrt:output.obj
 0001:00164618       ?type_case_integer@?$output_processor@DV?$string_output_adapter@D@__crt_stdio_output@@V?$positional_parameter_base@DV?$string_output_adapter@D@__crt_stdio_output@@@2@@__crt_stdio_output@@AEAA_NI_N@Z 0000000180165618 f i libucrt:output.obj
 0001:001647c0       ?type_case_integer@?$output_processor@DV?$string_output_adapter@D@__crt_stdio_output@@V?$standard_base@DV?$string_output_adapter@D@__crt_stdio_output@@@2@@__crt_stdio_output@@AEAA_NI_N@Z 00000001801657c0 f i libucrt:output.obj
 0001:00164940       ?type_case_integer@?$output_processor@_WV?$stream_output_adapter@_W@__crt_stdio_output@@V?$format_validation_base@_WV?$stream_output_adapter@_W@__crt_stdio_output@@@2@@__crt_stdio_output@@AEAA_NI_N@Z 0000000180165940 f i libucrt:output.obj
 0001:00164ac8       ?type_case_integer@?$output_processor@_WV?$stream_output_adapter@_W@__crt_stdio_output@@V?$positional_parameter_base@_WV?$stream_output_adapter@_W@__crt_stdio_output@@@2@@__crt_stdio_output@@AEAA_NI_N@Z 0000000180165ac8 f i libucrt:output.obj
 0001:00164c78       ?type_case_integer@?$output_processor@_WV?$stream_output_adapter@_W@__crt_stdio_output@@V?$standard_base@_WV?$stream_output_adapter@_W@__crt_stdio_output@@@2@@__crt_stdio_output@@AEAA_NI_N@Z 0000000180165c78 f i libucrt:output.obj
 0001:00164e00       ?type_case_integer@?$output_processor@_WV?$string_output_adapter@_W@__crt_stdio_output@@V?$format_validation_base@_WV?$string_output_adapter@_W@__crt_stdio_output@@@2@@__crt_stdio_output@@AEAA_NI_N@Z 0000000180165e00 f i libucrt:output.obj
 0001:00164f88       ?type_case_integer@?$output_processor@_WV?$string_output_adapter@_W@__crt_stdio_output@@V?$positional_parameter_base@_WV?$string_output_adapter@_W@__crt_stdio_output@@@2@@__crt_stdio_output@@AEAA_NI_N@Z 0000000180165f88 f i libucrt:output.obj
 0001:00165138       ?type_case_integer@?$output_processor@_WV?$string_output_adapter@_W@__crt_stdio_output@@V?$standard_base@_WV?$string_output_adapter@_W@__crt_stdio_output@@@2@@__crt_stdio_output@@AEAA_NI_N@Z 0000000180166138 f i libucrt:output.obj
 0001:001652c0       ?type_case_n@?$output_processor@DV?$stream_output_adapter@D@__crt_stdio_output@@V?$format_validation_base@DV?$stream_output_adapter@D@__crt_stdio_output@@@2@@__crt_stdio_output@@AEAA_NXZ 00000001801662c0 f i libucrt:output.obj
 0001:00165348       ?type_case_n@?$output_processor@DV?$stream_output_adapter@D@__crt_stdio_output@@V?$positional_parameter_base@DV?$stream_output_adapter@D@__crt_stdio_output@@@2@@__crt_stdio_output@@AEAA_NXZ 0000000180166348 f i libucrt:output.obj
 0001:001653f8       ?type_case_n@?$output_processor@DV?$stream_output_adapter@D@__crt_stdio_output@@V?$standard_base@DV?$stream_output_adapter@D@__crt_stdio_output@@@2@@__crt_stdio_output@@AEAA_NXZ 00000001801663f8 f i libucrt:output.obj
 0001:00165480       ?type_case_n@?$output_processor@DV?$string_output_adapter@D@__crt_stdio_output@@V?$format_validation_base@DV?$string_output_adapter@D@__crt_stdio_output@@@2@@__crt_stdio_output@@AEAA_NXZ 0000000180166480 f i libucrt:output.obj
 0001:00165508       ?type_case_n@?$output_processor@DV?$string_output_adapter@D@__crt_stdio_output@@V?$positional_parameter_base@DV?$string_output_adapter@D@__crt_stdio_output@@@2@@__crt_stdio_output@@AEAA_NXZ 0000000180166508 f i libucrt:output.obj
 0001:001655b8       ?type_case_n@?$output_processor@DV?$string_output_adapter@D@__crt_stdio_output@@V?$standard_base@DV?$string_output_adapter@D@__crt_stdio_output@@@2@@__crt_stdio_output@@AEAA_NXZ 00000001801665b8 f i libucrt:output.obj
 0001:00165640       ?type_case_n@?$output_processor@_WV?$stream_output_adapter@_W@__crt_stdio_output@@V?$format_validation_base@_WV?$stream_output_adapter@_W@__crt_stdio_output@@@2@@__crt_stdio_output@@AEAA_NXZ 0000000180166640 f i libucrt:output.obj
 0001:001656c8       ?type_case_n@?$output_processor@_WV?$stream_output_adapter@_W@__crt_stdio_output@@V?$positional_parameter_base@_WV?$stream_output_adapter@_W@__crt_stdio_output@@@2@@__crt_stdio_output@@AEAA_NXZ 00000001801666c8 f i libucrt:output.obj
 0001:00165778       ?type_case_n@?$output_processor@_WV?$stream_output_adapter@_W@__crt_stdio_output@@V?$standard_base@_WV?$stream_output_adapter@_W@__crt_stdio_output@@@2@@__crt_stdio_output@@AEAA_NXZ 0000000180166778 f i libucrt:output.obj
 0001:00165800       ?type_case_n@?$output_processor@_WV?$string_output_adapter@_W@__crt_stdio_output@@V?$format_validation_base@_WV?$string_output_adapter@_W@__crt_stdio_output@@@2@@__crt_stdio_output@@AEAA_NXZ 0000000180166800 f i libucrt:output.obj
 0001:00165888       ?type_case_n@?$output_processor@_WV?$string_output_adapter@_W@__crt_stdio_output@@V?$positional_parameter_base@_WV?$string_output_adapter@_W@__crt_stdio_output@@@2@@__crt_stdio_output@@AEAA_NXZ 0000000180166888 f i libucrt:output.obj
 0001:00165938       ?type_case_n@?$output_processor@_WV?$string_output_adapter@_W@__crt_stdio_output@@V?$standard_base@_WV?$string_output_adapter@_W@__crt_stdio_output@@@2@@__crt_stdio_output@@AEAA_NXZ 0000000180166938 f i libucrt:output.obj
 0001:001659c0       ?type_case_o@?$output_processor@DV?$stream_output_adapter@D@__crt_stdio_output@@V?$format_validation_base@DV?$stream_output_adapter@D@__crt_stdio_output@@@2@@__crt_stdio_output@@AEAA_NXZ 00000001801669c0 f i libucrt:output.obj
 0001:001659e0       ?type_case_o@?$output_processor@DV?$stream_output_adapter@D@__crt_stdio_output@@V?$positional_parameter_base@DV?$stream_output_adapter@D@__crt_stdio_output@@@2@@__crt_stdio_output@@AEAA_NXZ 00000001801669e0 f i libucrt:output.obj
 0001:00165a00       ?type_case_o@?$output_processor@DV?$stream_output_adapter@D@__crt_stdio_output@@V?$standard_base@DV?$stream_output_adapter@D@__crt_stdio_output@@@2@@__crt_stdio_output@@AEAA_NXZ 0000000180166a00 f i libucrt:output.obj
 0001:00165a20       ?type_case_o@?$output_processor@DV?$string_output_adapter@D@__crt_stdio_output@@V?$format_validation_base@DV?$string_output_adapter@D@__crt_stdio_output@@@2@@__crt_stdio_output@@AEAA_NXZ 0000000180166a20 f i libucrt:output.obj
 0001:00165a40       ?type_case_o@?$output_processor@DV?$string_output_adapter@D@__crt_stdio_output@@V?$positional_parameter_base@DV?$string_output_adapter@D@__crt_stdio_output@@@2@@__crt_stdio_output@@AEAA_NXZ 0000000180166a40 f i libucrt:output.obj
 0001:00165a60       ?type_case_o@?$output_processor@DV?$string_output_adapter@D@__crt_stdio_output@@V?$standard_base@DV?$string_output_adapter@D@__crt_stdio_output@@@2@@__crt_stdio_output@@AEAA_NXZ 0000000180166a60 f i libucrt:output.obj
 0001:00165a80       ?type_case_o@?$output_processor@_WV?$stream_output_adapter@_W@__crt_stdio_output@@V?$format_validation_base@_WV?$stream_output_adapter@_W@__crt_stdio_output@@@2@@__crt_stdio_output@@AEAA_NXZ 0000000180166a80 f i libucrt:output.obj
 0001:00165aa0       ?type_case_o@?$output_processor@_WV?$stream_output_adapter@_W@__crt_stdio_output@@V?$positional_parameter_base@_WV?$stream_output_adapter@_W@__crt_stdio_output@@@2@@__crt_stdio_output@@AEAA_NXZ 0000000180166aa0 f i libucrt:output.obj
 0001:00165ac0       ?type_case_o@?$output_processor@_WV?$stream_output_adapter@_W@__crt_stdio_output@@V?$standard_base@_WV?$stream_output_adapter@_W@__crt_stdio_output@@@2@@__crt_stdio_output@@AEAA_NXZ 0000000180166ac0 f i libucrt:output.obj
 0001:00165ae0       ?type_case_o@?$output_processor@_WV?$string_output_adapter@_W@__crt_stdio_output@@V?$format_validation_base@_WV?$string_output_adapter@_W@__crt_stdio_output@@@2@@__crt_stdio_output@@AEAA_NXZ 0000000180166ae0 f i libucrt:output.obj
 0001:00165b00       ?type_case_o@?$output_processor@_WV?$string_output_adapter@_W@__crt_stdio_output@@V?$positional_parameter_base@_WV?$string_output_adapter@_W@__crt_stdio_output@@@2@@__crt_stdio_output@@AEAA_NXZ 0000000180166b00 f i libucrt:output.obj
 0001:00165b20       ?type_case_o@?$output_processor@_WV?$string_output_adapter@_W@__crt_stdio_output@@V?$standard_base@_WV?$string_output_adapter@_W@__crt_stdio_output@@@2@@__crt_stdio_output@@AEAA_NXZ 0000000180166b20 f i libucrt:output.obj
 0001:00165b40       ?type_case_p@?$output_processor@DV?$stream_output_adapter@D@__crt_stdio_output@@V?$format_validation_base@DV?$stream_output_adapter@D@__crt_stdio_output@@@2@@__crt_stdio_output@@AEAA_NXZ 0000000180166b40 f i libucrt:output.obj
 0001:00165b58       ?type_case_p@?$output_processor@DV?$stream_output_adapter@D@__crt_stdio_output@@V?$positional_parameter_base@DV?$stream_output_adapter@D@__crt_stdio_output@@@2@@__crt_stdio_output@@AEAA_NXZ 0000000180166b58 f i libucrt:output.obj
 0001:00165b70       ?type_case_p@?$output_processor@DV?$stream_output_adapter@D@__crt_stdio_output@@V?$standard_base@DV?$stream_output_adapter@D@__crt_stdio_output@@@2@@__crt_stdio_output@@AEAA_NXZ 0000000180166b70 f i libucrt:output.obj
 0001:00165b88       ?type_case_p@?$output_processor@DV?$string_output_adapter@D@__crt_stdio_output@@V?$format_validation_base@DV?$string_output_adapter@D@__crt_stdio_output@@@2@@__crt_stdio_output@@AEAA_NXZ 0000000180166b88 f i libucrt:output.obj
 0001:00165ba0       ?type_case_p@?$output_processor@DV?$string_output_adapter@D@__crt_stdio_output@@V?$positional_parameter_base@DV?$string_output_adapter@D@__crt_stdio_output@@@2@@__crt_stdio_output@@AEAA_NXZ 0000000180166ba0 f i libucrt:output.obj
 0001:00165bb8       ?type_case_p@?$output_processor@DV?$string_output_adapter@D@__crt_stdio_output@@V?$standard_base@DV?$string_output_adapter@D@__crt_stdio_output@@@2@@__crt_stdio_output@@AEAA_NXZ 0000000180166bb8 f i libucrt:output.obj
 0001:00165bd0       ?type_case_p@?$output_processor@_WV?$stream_output_adapter@_W@__crt_stdio_output@@V?$format_validation_base@_WV?$stream_output_adapter@_W@__crt_stdio_output@@@2@@__crt_stdio_output@@AEAA_NXZ 0000000180166bd0 f i libucrt:output.obj
 0001:00165be8       ?type_case_p@?$output_processor@_WV?$stream_output_adapter@_W@__crt_stdio_output@@V?$positional_parameter_base@_WV?$stream_output_adapter@_W@__crt_stdio_output@@@2@@__crt_stdio_output@@AEAA_NXZ 0000000180166be8 f i libucrt:output.obj
 0001:00165c00       ?type_case_p@?$output_processor@_WV?$stream_output_adapter@_W@__crt_stdio_output@@V?$standard_base@_WV?$stream_output_adapter@_W@__crt_stdio_output@@@2@@__crt_stdio_output@@AEAA_NXZ 0000000180166c00 f i libucrt:output.obj
 0001:00165c18       ?type_case_p@?$output_processor@_WV?$string_output_adapter@_W@__crt_stdio_output@@V?$format_validation_base@_WV?$string_output_adapter@_W@__crt_stdio_output@@@2@@__crt_stdio_output@@AEAA_NXZ 0000000180166c18 f i libucrt:output.obj
 0001:00165c30       ?type_case_p@?$output_processor@_WV?$string_output_adapter@_W@__crt_stdio_output@@V?$positional_parameter_base@_WV?$string_output_adapter@_W@__crt_stdio_output@@@2@@__crt_stdio_output@@AEAA_NXZ 0000000180166c30 f i libucrt:output.obj
 0001:00165c48       ?type_case_p@?$output_processor@_WV?$string_output_adapter@_W@__crt_stdio_output@@V?$standard_base@_WV?$string_output_adapter@_W@__crt_stdio_output@@@2@@__crt_stdio_output@@AEAA_NXZ 0000000180166c48 f i libucrt:output.obj
 0001:00165c60       ?type_case_s@?$output_processor@DV?$stream_output_adapter@D@__crt_stdio_output@@V?$format_validation_base@DV?$stream_output_adapter@D@__crt_stdio_output@@@2@@__crt_stdio_output@@AEAA_NXZ 0000000180166c60 f i libucrt:output.obj
 0001:00165cf8       ?type_case_s@?$output_processor@DV?$stream_output_adapter@D@__crt_stdio_output@@V?$positional_parameter_base@DV?$stream_output_adapter@D@__crt_stdio_output@@@2@@__crt_stdio_output@@AEAA_NXZ 0000000180166cf8 f i libucrt:output.obj
 0001:00165db0       ?type_case_s@?$output_processor@DV?$stream_output_adapter@D@__crt_stdio_output@@V?$standard_base@DV?$stream_output_adapter@D@__crt_stdio_output@@@2@@__crt_stdio_output@@AEAA_NXZ 0000000180166db0 f i libucrt:output.obj
 0001:00165e48       ?type_case_s@?$output_processor@DV?$string_output_adapter@D@__crt_stdio_output@@V?$format_validation_base@DV?$string_output_adapter@D@__crt_stdio_output@@@2@@__crt_stdio_output@@AEAA_NXZ 0000000180166e48 f i libucrt:output.obj
 0001:00165ee0       ?type_case_s@?$output_processor@DV?$string_output_adapter@D@__crt_stdio_output@@V?$positional_parameter_base@DV?$string_output_adapter@D@__crt_stdio_output@@@2@@__crt_stdio_output@@AEAA_NXZ 0000000180166ee0 f i libucrt:output.obj
 0001:00165f98       ?type_case_s@?$output_processor@DV?$string_output_adapter@D@__crt_stdio_output@@V?$standard_base@DV?$string_output_adapter@D@__crt_stdio_output@@@2@@__crt_stdio_output@@AEAA_NXZ 0000000180166f98 f i libucrt:output.obj
 0001:00166030       ?type_case_s@?$output_processor@_WV?$stream_output_adapter@_W@__crt_stdio_output@@V?$format_validation_base@_WV?$stream_output_adapter@_W@__crt_stdio_output@@@2@@__crt_stdio_output@@AEAA_NXZ 0000000180167030 f i libucrt:output.obj
 0001:001660f8       ?type_case_s@?$output_processor@_WV?$stream_output_adapter@_W@__crt_stdio_output@@V?$positional_parameter_base@_WV?$stream_output_adapter@_W@__crt_stdio_output@@@2@@__crt_stdio_output@@AEAA_NXZ 00000001801670f8 f i libucrt:output.obj
 0001:001661e4       ?type_case_s@?$output_processor@_WV?$stream_output_adapter@_W@__crt_stdio_output@@V?$standard_base@_WV?$stream_output_adapter@_W@__crt_stdio_output@@@2@@__crt_stdio_output@@AEAA_NXZ 00000001801671e4 f i libucrt:output.obj
 0001:001662ac       ?type_case_s@?$output_processor@_WV?$string_output_adapter@_W@__crt_stdio_output@@V?$format_validation_base@_WV?$string_output_adapter@_W@__crt_stdio_output@@@2@@__crt_stdio_output@@AEAA_NXZ 00000001801672ac f i libucrt:output.obj
 0001:00166374       ?type_case_s@?$output_processor@_WV?$string_output_adapter@_W@__crt_stdio_output@@V?$positional_parameter_base@_WV?$string_output_adapter@_W@__crt_stdio_output@@@2@@__crt_stdio_output@@AEAA_NXZ 0000000180167374 f i libucrt:output.obj
 0001:00166460       ?type_case_s@?$output_processor@_WV?$string_output_adapter@_W@__crt_stdio_output@@V?$standard_base@_WV?$string_output_adapter@_W@__crt_stdio_output@@@2@@__crt_stdio_output@@AEAA_NXZ 0000000180167460 f i libucrt:output.obj
 0001:00166528       ?type_case_s_compute_narrow_string_length@?$output_processor@DV?$stream_output_adapter@D@__crt_stdio_output@@V?$format_validation_base@DV?$stream_output_adapter@D@__crt_stdio_output@@@2@@__crt_stdio_output@@AEBAHHD@Z 0000000180167528 f i libucrt:output.obj
 0001:00166534       ?type_case_s_compute_narrow_string_length@?$output_processor@DV?$stream_output_adapter@D@__crt_stdio_output@@V?$positional_parameter_base@DV?$stream_output_adapter@D@__crt_stdio_output@@@2@@__crt_stdio_output@@AEBAHHD@Z 0000000180167534 f i libucrt:output.obj
 0001:00166540       ?type_case_s_compute_narrow_string_length@?$output_processor@DV?$stream_output_adapter@D@__crt_stdio_output@@V?$standard_base@DV?$stream_output_adapter@D@__crt_stdio_output@@@2@@__crt_stdio_output@@AEBAHHD@Z 0000000180167540 f i libucrt:output.obj
 0001:0016654c       ?type_case_s_compute_narrow_string_length@?$output_processor@DV?$string_output_adapter@D@__crt_stdio_output@@V?$format_validation_base@DV?$string_output_adapter@D@__crt_stdio_output@@@2@@__crt_stdio_output@@AEBAHHD@Z 000000018016754c f i libucrt:output.obj
 0001:00166558       ?type_case_s_compute_narrow_string_length@?$output_processor@DV?$string_output_adapter@D@__crt_stdio_output@@V?$positional_parameter_base@DV?$string_output_adapter@D@__crt_stdio_output@@@2@@__crt_stdio_output@@AEBAHHD@Z 0000000180167558 f i libucrt:output.obj
 0001:00166564       ?type_case_s_compute_narrow_string_length@?$output_processor@DV?$string_output_adapter@D@__crt_stdio_output@@V?$standard_base@DV?$string_output_adapter@D@__crt_stdio_output@@@2@@__crt_stdio_output@@AEBAHHD@Z 0000000180167564 f i libucrt:output.obj
 0001:00166570       ?type_case_s_compute_narrow_string_length@?$output_processor@_WV?$stream_output_adapter@_W@__crt_stdio_output@@V?$format_validation_base@_WV?$stream_output_adapter@_W@__crt_stdio_output@@@2@@__crt_stdio_output@@AEBAHH_W@Z 0000000180167570 f i libucrt:output.obj
 0001:001665c4       ?type_case_s_compute_narrow_string_length@?$output_processor@_WV?$stream_output_adapter@_W@__crt_stdio_output@@V?$positional_parameter_base@_WV?$stream_output_adapter@_W@__crt_stdio_output@@@2@@__crt_stdio_output@@AEBAHH_W@Z 00000001801675c4 f i libucrt:output.obj
 0001:00166618       ?type_case_s_compute_narrow_string_length@?$output_processor@_WV?$stream_output_adapter@_W@__crt_stdio_output@@V?$standard_base@_WV?$stream_output_adapter@_W@__crt_stdio_output@@@2@@__crt_stdio_output@@AEBAHH_W@Z 0000000180167618 f i libucrt:output.obj
 0001:0016666c       ?type_case_s_compute_narrow_string_length@?$output_processor@_WV?$string_output_adapter@_W@__crt_stdio_output@@V?$format_validation_base@_WV?$string_output_adapter@_W@__crt_stdio_output@@@2@@__crt_stdio_output@@AEBAHH_W@Z 000000018016766c f i libucrt:output.obj
 0001:001666c0       ?type_case_s_compute_narrow_string_length@?$output_processor@_WV?$string_output_adapter@_W@__crt_stdio_output@@V?$positional_parameter_base@_WV?$string_output_adapter@_W@__crt_stdio_output@@@2@@__crt_stdio_output@@AEBAHH_W@Z 00000001801676c0 f i libucrt:output.obj
 0001:00166714       ?type_case_s_compute_narrow_string_length@?$output_processor@_WV?$string_output_adapter@_W@__crt_stdio_output@@V?$standard_base@_WV?$string_output_adapter@_W@__crt_stdio_output@@@2@@__crt_stdio_output@@AEBAHH_W@Z 0000000180167714 f i libucrt:output.obj
 0001:00166768       ?type_case_u@?$output_processor@DV?$stream_output_adapter@D@__crt_stdio_output@@V?$format_validation_base@DV?$stream_output_adapter@D@__crt_stdio_output@@@2@@__crt_stdio_output@@AEAA_NXZ 0000000180167768 f i libucrt:output.obj
 0001:00166774       ?type_case_u@?$output_processor@DV?$stream_output_adapter@D@__crt_stdio_output@@V?$positional_parameter_base@DV?$stream_output_adapter@D@__crt_stdio_output@@@2@@__crt_stdio_output@@AEAA_NXZ 0000000180167774 f i libucrt:output.obj
 0001:00166780       ?type_case_u@?$output_processor@DV?$stream_output_adapter@D@__crt_stdio_output@@V?$standard_base@DV?$stream_output_adapter@D@__crt_stdio_output@@@2@@__crt_stdio_output@@AEAA_NXZ 0000000180167780 f i libucrt:output.obj
 0001:0016678c       ?type_case_u@?$output_processor@DV?$string_output_adapter@D@__crt_stdio_output@@V?$format_validation_base@DV?$string_output_adapter@D@__crt_stdio_output@@@2@@__crt_stdio_output@@AEAA_NXZ 000000018016778c f i libucrt:output.obj
 0001:00166798       ?type_case_u@?$output_processor@DV?$string_output_adapter@D@__crt_stdio_output@@V?$positional_parameter_base@DV?$string_output_adapter@D@__crt_stdio_output@@@2@@__crt_stdio_output@@AEAA_NXZ 0000000180167798 f i libucrt:output.obj
 0001:001667a4       ?type_case_u@?$output_processor@DV?$string_output_adapter@D@__crt_stdio_output@@V?$standard_base@DV?$string_output_adapter@D@__crt_stdio_output@@@2@@__crt_stdio_output@@AEAA_NXZ 00000001801677a4 f i libucrt:output.obj
 0001:001667b0       ?type_case_u@?$output_processor@_WV?$stream_output_adapter@_W@__crt_stdio_output@@V?$format_validation_base@_WV?$stream_output_adapter@_W@__crt_stdio_output@@@2@@__crt_stdio_output@@AEAA_NXZ 00000001801677b0 f i libucrt:output.obj
 0001:001667bc       ?type_case_u@?$output_processor@_WV?$stream_output_adapter@_W@__crt_stdio_output@@V?$positional_parameter_base@_WV?$stream_output_adapter@_W@__crt_stdio_output@@@2@@__crt_stdio_output@@AEAA_NXZ 00000001801677bc f i libucrt:output.obj
 0001:001667c8       ?type_case_u@?$output_processor@_WV?$stream_output_adapter@_W@__crt_stdio_output@@V?$standard_base@_WV?$stream_output_adapter@_W@__crt_stdio_output@@@2@@__crt_stdio_output@@AEAA_NXZ 00000001801677c8 f i libucrt:output.obj
 0001:001667d4       ?type_case_u@?$output_processor@_WV?$string_output_adapter@_W@__crt_stdio_output@@V?$format_validation_base@_WV?$string_output_adapter@_W@__crt_stdio_output@@@2@@__crt_stdio_output@@AEAA_NXZ 00000001801677d4 f i libucrt:output.obj
 0001:001667e0       ?type_case_u@?$output_processor@_WV?$string_output_adapter@_W@__crt_stdio_output@@V?$positional_parameter_base@_WV?$string_output_adapter@_W@__crt_stdio_output@@@2@@__crt_stdio_output@@AEAA_NXZ 00000001801677e0 f i libucrt:output.obj
 0001:001667ec       ?type_case_u@?$output_processor@_WV?$string_output_adapter@_W@__crt_stdio_output@@V?$standard_base@_WV?$string_output_adapter@_W@__crt_stdio_output@@@2@@__crt_stdio_output@@AEAA_NXZ 00000001801677ec f i libucrt:output.obj
 0001:001667f8       ?type_case_x@?$output_processor@DV?$stream_output_adapter@D@__crt_stdio_output@@V?$format_validation_base@DV?$stream_output_adapter@D@__crt_stdio_output@@@2@@__crt_stdio_output@@AEAA_NXZ 00000001801677f8 f i libucrt:output.obj
 0001:00166804       ?type_case_x@?$output_processor@DV?$stream_output_adapter@D@__crt_stdio_output@@V?$positional_parameter_base@DV?$stream_output_adapter@D@__crt_stdio_output@@@2@@__crt_stdio_output@@AEAA_NXZ 0000000180167804 f i libucrt:output.obj
 0001:00166810       ?type_case_x@?$output_processor@DV?$stream_output_adapter@D@__crt_stdio_output@@V?$standard_base@DV?$stream_output_adapter@D@__crt_stdio_output@@@2@@__crt_stdio_output@@AEAA_NXZ 0000000180167810 f i libucrt:output.obj
 0001:0016681c       ?type_case_x@?$output_processor@DV?$string_output_adapter@D@__crt_stdio_output@@V?$format_validation_base@DV?$string_output_adapter@D@__crt_stdio_output@@@2@@__crt_stdio_output@@AEAA_NXZ 000000018016781c f i libucrt:output.obj
 0001:00166828       ?type_case_x@?$output_processor@DV?$string_output_adapter@D@__crt_stdio_output@@V?$positional_parameter_base@DV?$string_output_adapter@D@__crt_stdio_output@@@2@@__crt_stdio_output@@AEAA_NXZ 0000000180167828 f i libucrt:output.obj
 0001:00166834       ?type_case_x@?$output_processor@DV?$string_output_adapter@D@__crt_stdio_output@@V?$standard_base@DV?$string_output_adapter@D@__crt_stdio_output@@@2@@__crt_stdio_output@@AEAA_NXZ 0000000180167834 f i libucrt:output.obj
 0001:00166840       ?type_case_x@?$output_processor@_WV?$stream_output_adapter@_W@__crt_stdio_output@@V?$format_validation_base@_WV?$stream_output_adapter@_W@__crt_stdio_output@@@2@@__crt_stdio_output@@AEAA_NXZ 0000000180167840 f i libucrt:output.obj
 0001:0016684c       ?type_case_x@?$output_processor@_WV?$stream_output_adapter@_W@__crt_stdio_output@@V?$positional_parameter_base@_WV?$stream_output_adapter@_W@__crt_stdio_output@@@2@@__crt_stdio_output@@AEAA_NXZ 000000018016784c f i libucrt:output.obj
 0001:00166858       ?type_case_x@?$output_processor@_WV?$stream_output_adapter@_W@__crt_stdio_output@@V?$standard_base@_WV?$stream_output_adapter@_W@__crt_stdio_output@@@2@@__crt_stdio_output@@AEAA_NXZ 0000000180167858 f i libucrt:output.obj
 0001:00166864       ?type_case_x@?$output_processor@_WV?$string_output_adapter@_W@__crt_stdio_output@@V?$format_validation_base@_WV?$string_output_adapter@_W@__crt_stdio_output@@@2@@__crt_stdio_output@@AEAA_NXZ 0000000180167864 f i libucrt:output.obj
 0001:00166870       ?type_case_x@?$output_processor@_WV?$string_output_adapter@_W@__crt_stdio_output@@V?$positional_parameter_base@_WV?$string_output_adapter@_W@__crt_stdio_output@@@2@@__crt_stdio_output@@AEAA_NXZ 0000000180167870 f i libucrt:output.obj
 0001:0016687c       ?type_case_x@?$output_processor@_WV?$string_output_adapter@_W@__crt_stdio_output@@V?$standard_base@_WV?$string_output_adapter@_W@__crt_stdio_output@@@2@@__crt_stdio_output@@AEAA_NXZ 000000018016787c f i libucrt:output.obj
 0001:00166888       ?unset_flag@?$output_processor@DV?$stream_output_adapter@D@__crt_stdio_output@@V?$format_validation_base@DV?$stream_output_adapter@D@__crt_stdio_output@@@2@@__crt_stdio_output@@AEAAXI@Z 0000000180167888 f i libucrt:output.obj
 0001:00166890       ?unset_flag@?$output_processor@DV?$stream_output_adapter@D@__crt_stdio_output@@V?$positional_parameter_base@DV?$stream_output_adapter@D@__crt_stdio_output@@@2@@__crt_stdio_output@@AEAAXI@Z 0000000180167890 f i libucrt:output.obj
 0001:00166898       ?unset_flag@?$output_processor@DV?$stream_output_adapter@D@__crt_stdio_output@@V?$standard_base@DV?$stream_output_adapter@D@__crt_stdio_output@@@2@@__crt_stdio_output@@AEAAXI@Z 0000000180167898 f i libucrt:output.obj
 0001:001668a0       ?unset_flag@?$output_processor@DV?$string_output_adapter@D@__crt_stdio_output@@V?$format_validation_base@DV?$string_output_adapter@D@__crt_stdio_output@@@2@@__crt_stdio_output@@AEAAXI@Z 00000001801678a0 f i libucrt:output.obj
 0001:001668a8       ?unset_flag@?$output_processor@DV?$string_output_adapter@D@__crt_stdio_output@@V?$positional_parameter_base@DV?$string_output_adapter@D@__crt_stdio_output@@@2@@__crt_stdio_output@@AEAAXI@Z 00000001801678a8 f i libucrt:output.obj
 0001:001668b0       ?unset_flag@?$output_processor@DV?$string_output_adapter@D@__crt_stdio_output@@V?$standard_base@DV?$string_output_adapter@D@__crt_stdio_output@@@2@@__crt_stdio_output@@AEAAXI@Z 00000001801678b0 f i libucrt:output.obj
 0001:001668b8       ?unset_flag@?$output_processor@_WV?$stream_output_adapter@_W@__crt_stdio_output@@V?$format_validation_base@_WV?$stream_output_adapter@_W@__crt_stdio_output@@@2@@__crt_stdio_output@@AEAAXI@Z 00000001801678b8 f i libucrt:output.obj
 0001:001668c0       ?unset_flag@?$output_processor@_WV?$stream_output_adapter@_W@__crt_stdio_output@@V?$positional_parameter_base@_WV?$stream_output_adapter@_W@__crt_stdio_output@@@2@@__crt_stdio_output@@AEAAXI@Z 00000001801678c0 f i libucrt:output.obj
 0001:001668c8       ?unset_flag@?$output_processor@_WV?$stream_output_adapter@_W@__crt_stdio_output@@V?$standard_base@_WV?$stream_output_adapter@_W@__crt_stdio_output@@@2@@__crt_stdio_output@@AEAAXI@Z 00000001801678c8 f i libucrt:output.obj
 0001:001668d0       ?unset_flag@?$output_processor@_WV?$string_output_adapter@_W@__crt_stdio_output@@V?$format_validation_base@_WV?$string_output_adapter@_W@__crt_stdio_output@@@2@@__crt_stdio_output@@AEAAXI@Z 00000001801678d0 f i libucrt:output.obj
 0001:001668d8       ?unset_flag@?$output_processor@_WV?$string_output_adapter@_W@__crt_stdio_output@@V?$positional_parameter_base@_WV?$string_output_adapter@_W@__crt_stdio_output@@@2@@__crt_stdio_output@@AEAAXI@Z 00000001801678d8 f i libucrt:output.obj
 0001:001668e0       ?unset_flag@?$output_processor@_WV?$string_output_adapter@_W@__crt_stdio_output@@V?$standard_base@_WV?$string_output_adapter@_W@__crt_stdio_output@@@2@@__crt_stdio_output@@AEAAXI@Z 00000001801678e0 f i libucrt:output.obj
 0001:001668e8       ?update_field_width@?$positional_parameter_base@DV?$stream_output_adapter@D@__crt_stdio_output@@@__crt_stdio_output@@IEAA_NXZ 00000001801678e8 f i libucrt:output.obj
 0001:00166a00       ?update_field_width@?$positional_parameter_base@DV?$string_output_adapter@D@__crt_stdio_output@@@__crt_stdio_output@@IEAA_NXZ 0000000180167a00 f i libucrt:output.obj
 0001:00166b18       ?update_field_width@?$positional_parameter_base@_WV?$stream_output_adapter@_W@__crt_stdio_output@@@__crt_stdio_output@@IEAA_NXZ 0000000180167b18 f i libucrt:output.obj
 0001:00166c30       ?update_field_width@?$positional_parameter_base@_WV?$string_output_adapter@_W@__crt_stdio_output@@@__crt_stdio_output@@IEAA_NXZ 0000000180167c30 f i libucrt:output.obj
 0001:00166d48       ?update_field_width@?$standard_base@DV?$stream_output_adapter@D@__crt_stdio_output@@@__crt_stdio_output@@IEAA_NXZ 0000000180167d48 f i libucrt:output.obj
 0001:00166d5c       ?update_field_width@?$standard_base@DV?$string_output_adapter@D@__crt_stdio_output@@@__crt_stdio_output@@IEAA_NXZ 0000000180167d5c f i libucrt:output.obj
 0001:00166d70       ?update_field_width@?$standard_base@_WV?$stream_output_adapter@_W@__crt_stdio_output@@@__crt_stdio_output@@IEAA_NXZ 0000000180167d70 f i libucrt:output.obj
 0001:00166d84       ?update_field_width@?$standard_base@_WV?$string_output_adapter@_W@__crt_stdio_output@@@__crt_stdio_output@@IEAA_NXZ 0000000180167d84 f i libucrt:output.obj
 0001:00166d98       ?update_precision@?$positional_parameter_base@DV?$stream_output_adapter@D@__crt_stdio_output@@@__crt_stdio_output@@IEAA_NXZ 0000000180167d98 f i libucrt:output.obj
 0001:00166eb0       ?update_precision@?$positional_parameter_base@DV?$string_output_adapter@D@__crt_stdio_output@@@__crt_stdio_output@@IEAA_NXZ 0000000180167eb0 f i libucrt:output.obj
 0001:00166fc8       ?update_precision@?$positional_parameter_base@_WV?$stream_output_adapter@_W@__crt_stdio_output@@@__crt_stdio_output@@IEAA_NXZ 0000000180167fc8 f i libucrt:output.obj
 0001:001670e0       ?update_precision@?$positional_parameter_base@_WV?$string_output_adapter@_W@__crt_stdio_output@@@__crt_stdio_output@@IEAA_NXZ 00000001801680e0 f i libucrt:output.obj
 0001:001671f8       ?update_precision@?$standard_base@DV?$stream_output_adapter@D@__crt_stdio_output@@@__crt_stdio_output@@IEAA_NXZ 00000001801681f8 f i libucrt:output.obj
 0001:0016720c       ?update_precision@?$standard_base@DV?$string_output_adapter@D@__crt_stdio_output@@@__crt_stdio_output@@IEAA_NXZ 000000018016820c f i libucrt:output.obj
 0001:00167220       ?update_precision@?$standard_base@_WV?$stream_output_adapter@_W@__crt_stdio_output@@@__crt_stdio_output@@IEAA_NXZ 0000000180168220 f i libucrt:output.obj
 0001:00167234       ?update_precision@?$standard_base@_WV?$string_output_adapter@_W@__crt_stdio_output@@@__crt_stdio_output@@IEAA_NXZ 0000000180168234 f i libucrt:output.obj
 0001:00167248       ?valid@__crt_stdio_stream@@QEBA_NXZ 0000000180168248 f i libucrt:output.obj
 0001:00167250       ?validate@?$stream_output_adapter@D@__crt_stdio_output@@QEBA_NXZ 0000000180168250 f i libucrt:output.obj
 0001:0016727c       ?validate@?$stream_output_adapter@_W@__crt_stdio_output@@QEBA_NXZ 000000018016827c f i libucrt:output.obj
 0001:001672a4       ?validate@?$string_output_adapter@D@__crt_stdio_output@@QEBA_NXZ 00000001801682a4 f i libucrt:output.obj
 0001:001672cc       ?validate@?$string_output_adapter@_W@__crt_stdio_output@@QEBA_NXZ 00000001801682cc f i libucrt:output.obj
 0001:001672f4       ?validate_and_store_parameter_data@?$positional_parameter_base@DV?$stream_output_adapter@D@__crt_stdio_output@@@__crt_stdio_output@@AEAA_NAEAUparameter_data@12@W4parameter_type@12@DW4length_modifier@2@@Z 00000001801682f4 f i libucrt:output.obj
 0001:00167334       ?validate_and_store_parameter_data@?$positional_parameter_base@DV?$string_output_adapter@D@__crt_stdio_output@@@__crt_stdio_output@@AEAA_NAEAUparameter_data@12@W4parameter_type@12@DW4length_modifier@2@@Z 0000000180168334 f i libucrt:output.obj
 0001:00167374       ?validate_and_store_parameter_data@?$positional_parameter_base@_WV?$stream_output_adapter@_W@__crt_stdio_output@@@__crt_stdio_output@@AEAA_NAEAUparameter_data@12@W4parameter_type@12@_WW4length_modifier@2@@Z 0000000180168374 f i libucrt:output.obj
 0001:001673b4       ?validate_and_store_parameter_data@?$positional_parameter_base@_WV?$string_output_adapter@_W@__crt_stdio_output@@@__crt_stdio_output@@AEAA_NAEAUparameter_data@12@W4parameter_type@12@_WW4length_modifier@2@@Z 00000001801683b4 f i libucrt:output.obj
 0001:001673f4       ?validate_and_update_state_at_beginning_of_format_character@?$positional_parameter_base@DV?$stream_output_adapter@D@__crt_stdio_output@@@__crt_stdio_output@@IEAA_NXZ 00000001801683f4 f i libucrt:output.obj
 0001:00167500       ?validate_and_update_state_at_beginning_of_format_character@?$positional_parameter_base@DV?$string_output_adapter@D@__crt_stdio_output@@@__crt_stdio_output@@IEAA_NXZ 0000000180168500 f i libucrt:output.obj
 0001:0016760c       ?validate_and_update_state_at_beginning_of_format_character@?$positional_parameter_base@_WV?$stream_output_adapter@_W@__crt_stdio_output@@@__crt_stdio_output@@IEAA_NXZ 000000018016860c f i libucrt:output.obj
 0001:00167720       ?validate_and_update_state_at_beginning_of_format_character@?$positional_parameter_base@_WV?$string_output_adapter@_W@__crt_stdio_output@@@__crt_stdio_output@@IEAA_NXZ 0000000180168720 f i libucrt:output.obj
 0001:00167834       ?validate_and_update_state_at_beginning_of_format_character@?$standard_base@DV?$stream_output_adapter@D@__crt_stdio_output@@@__crt_stdio_output@@IEAA_NXZ 0000000180168834 f i libucrt:output.obj
 0001:00167838       ?validate_and_update_state_at_beginning_of_format_character@?$standard_base@DV?$string_output_adapter@D@__crt_stdio_output@@@__crt_stdio_output@@IEAA_NXZ 0000000180168838 f i libucrt:output.obj
 0001:0016783c       ?validate_and_update_state_at_beginning_of_format_character@?$standard_base@_WV?$stream_output_adapter@_W@__crt_stdio_output@@@__crt_stdio_output@@IEAA_NXZ 000000018016883c f i libucrt:output.obj
 0001:00167840       ?validate_and_update_state_at_beginning_of_format_character@?$standard_base@_WV?$string_output_adapter@_W@__crt_stdio_output@@@__crt_stdio_output@@IEAA_NXZ 0000000180168840 f i libucrt:output.obj
 0001:00167844       ?validate_and_update_state_at_end_of_format_string@?$format_validation_base@DV?$stream_output_adapter@D@__crt_stdio_output@@@__crt_stdio_output@@IEBA_NXZ 0000000180168844 f i libucrt:output.obj
 0001:00167870       ?validate_and_update_state_at_end_of_format_string@?$format_validation_base@DV?$string_output_adapter@D@__crt_stdio_output@@@__crt_stdio_output@@IEBA_NXZ 0000000180168870 f i libucrt:output.obj
 0001:0016789c       ?validate_and_update_state_at_end_of_format_string@?$format_validation_base@_WV?$stream_output_adapter@_W@__crt_stdio_output@@@__crt_stdio_output@@IEBA_NXZ 000000018016889c f i libucrt:output.obj
 0001:001678c8       ?validate_and_update_state_at_end_of_format_string@?$format_validation_base@_WV?$string_output_adapter@_W@__crt_stdio_output@@@__crt_stdio_output@@IEBA_NXZ 00000001801688c8 f i libucrt:output.obj
 0001:001678f4       ?validate_and_update_state_at_end_of_format_string@?$positional_parameter_base@DV?$stream_output_adapter@D@__crt_stdio_output@@@__crt_stdio_output@@IEAA_NXZ 00000001801688f4 f i libucrt:output.obj
 0001:00167990       ?validate_and_update_state_at_end_of_format_string@?$positional_parameter_base@DV?$string_output_adapter@D@__crt_stdio_output@@@__crt_stdio_output@@IEAA_NXZ 0000000180168990 f i libucrt:output.obj
 0001:00167a2c       ?validate_and_update_state_at_end_of_format_string@?$positional_parameter_base@_WV?$stream_output_adapter@_W@__crt_stdio_output@@@__crt_stdio_output@@IEAA_NXZ 0000000180168a2c f i libucrt:output.obj
 0001:00167ac8       ?validate_and_update_state_at_end_of_format_string@?$positional_parameter_base@_WV?$string_output_adapter@_W@__crt_stdio_output@@@__crt_stdio_output@@IEAA_NXZ 0000000180168ac8 f i libucrt:output.obj
 0001:00167b64       ?validate_and_update_state_at_end_of_format_string@?$standard_base@DV?$stream_output_adapter@D@__crt_stdio_output@@@__crt_stdio_output@@IEBA_NXZ 0000000180168b64 f i libucrt:output.obj
 0001:00167b68       ?validate_and_update_state_at_end_of_format_string@?$standard_base@DV?$string_output_adapter@D@__crt_stdio_output@@@__crt_stdio_output@@IEBA_NXZ 0000000180168b68 f i libucrt:output.obj
 0001:00167b6c       ?validate_and_update_state_at_end_of_format_string@?$standard_base@_WV?$stream_output_adapter@_W@__crt_stdio_output@@@__crt_stdio_output@@IEBA_NXZ 0000000180168b6c f i libucrt:output.obj
 0001:00167b70       ?validate_and_update_state_at_end_of_format_string@?$standard_base@_WV?$string_output_adapter@_W@__crt_stdio_output@@@__crt_stdio_output@@IEBA_NXZ 0000000180168b70 f i libucrt:output.obj
 0001:00167b74       ?validate_state_for_type_case_a@?$positional_parameter_base@DV?$stream_output_adapter@D@__crt_stdio_output@@@__crt_stdio_output@@IEAA_NXZ 0000000180168b74 f i libucrt:output.obj
 0001:00167c10       ?validate_state_for_type_case_a@?$positional_parameter_base@DV?$string_output_adapter@D@__crt_stdio_output@@@__crt_stdio_output@@IEAA_NXZ 0000000180168c10 f i libucrt:output.obj
 0001:00167cac       ?validate_state_for_type_case_a@?$positional_parameter_base@_WV?$stream_output_adapter@_W@__crt_stdio_output@@@__crt_stdio_output@@IEAA_NXZ 0000000180168cac f i libucrt:output.obj
 0001:00167d4c       ?validate_state_for_type_case_a@?$positional_parameter_base@_WV?$string_output_adapter@_W@__crt_stdio_output@@@__crt_stdio_output@@IEAA_NXZ 0000000180168d4c f i libucrt:output.obj
 0001:00167dec       ?validate_state_for_type_case_a@?$standard_base@DV?$stream_output_adapter@D@__crt_stdio_output@@@__crt_stdio_output@@IEBA_NXZ 0000000180168dec f i libucrt:output.obj
 0001:00167df0       ?validate_state_for_type_case_a@?$standard_base@DV?$string_output_adapter@D@__crt_stdio_output@@@__crt_stdio_output@@IEBA_NXZ 0000000180168df0 f i libucrt:output.obj
 0001:00167df4       ?validate_state_for_type_case_a@?$standard_base@_WV?$stream_output_adapter@_W@__crt_stdio_output@@@__crt_stdio_output@@IEBA_NXZ 0000000180168df4 f i libucrt:output.obj
 0001:00167df8       ?validate_state_for_type_case_a@?$standard_base@_WV?$string_output_adapter@_W@__crt_stdio_output@@@__crt_stdio_output@@IEBA_NXZ 0000000180168df8 f i libucrt:output.obj
 0001:00167dfc       ?validate_stream_is_ansi_if_required@?$__acrt_stdio_char_traits@D@@SA_NQEAU_iobuf@@@Z 0000000180168dfc f i libucrt:output.obj
 0001:00167e98       ?validate_stream_is_ansi_if_required@?$__acrt_stdio_char_traits@_W@@SA_NQEAU_iobuf@@@Z 0000000180168e98 f i libucrt:output.obj
 0001:00167e9c       ?wide_null_string@?$output_processor@DV?$stream_output_adapter@D@__crt_stdio_output@@V?$format_validation_base@DV?$stream_output_adapter@D@__crt_stdio_output@@@2@@__crt_stdio_output@@CAPEA_WXZ 0000000180168e9c f i libucrt:output.obj
 0001:00167ea4       ?wide_null_string@?$output_processor@DV?$stream_output_adapter@D@__crt_stdio_output@@V?$positional_parameter_base@DV?$stream_output_adapter@D@__crt_stdio_output@@@2@@__crt_stdio_output@@CAPEA_WXZ 0000000180168ea4 f i libucrt:output.obj
 0001:00167eac       ?wide_null_string@?$output_processor@DV?$stream_output_adapter@D@__crt_stdio_output@@V?$standard_base@DV?$stream_output_adapter@D@__crt_stdio_output@@@2@@__crt_stdio_output@@CAPEA_WXZ 0000000180168eac f i libucrt:output.obj
 0001:00167eb4       ?wide_null_string@?$output_processor@DV?$string_output_adapter@D@__crt_stdio_output@@V?$format_validation_base@DV?$string_output_adapter@D@__crt_stdio_output@@@2@@__crt_stdio_output@@CAPEA_WXZ 0000000180168eb4 f i libucrt:output.obj
 0001:00167ebc       ?wide_null_string@?$output_processor@DV?$string_output_adapter@D@__crt_stdio_output@@V?$positional_parameter_base@DV?$string_output_adapter@D@__crt_stdio_output@@@2@@__crt_stdio_output@@CAPEA_WXZ 0000000180168ebc f i libucrt:output.obj
 0001:00167ec4       ?wide_null_string@?$output_processor@DV?$string_output_adapter@D@__crt_stdio_output@@V?$standard_base@DV?$string_output_adapter@D@__crt_stdio_output@@@2@@__crt_stdio_output@@CAPEA_WXZ 0000000180168ec4 f i libucrt:output.obj
 0001:00167ecc       ?wide_null_string@?$output_processor@_WV?$stream_output_adapter@_W@__crt_stdio_output@@V?$format_validation_base@_WV?$stream_output_adapter@_W@__crt_stdio_output@@@2@@__crt_stdio_output@@CAPEA_WXZ 0000000180168ecc f i libucrt:output.obj
 0001:00167ed4       ?wide_null_string@?$output_processor@_WV?$stream_output_adapter@_W@__crt_stdio_output@@V?$positional_parameter_base@_WV?$stream_output_adapter@_W@__crt_stdio_output@@@2@@__crt_stdio_output@@CAPEA_WXZ 0000000180168ed4 f i libucrt:output.obj
 0001:00167edc       ?wide_null_string@?$output_processor@_WV?$stream_output_adapter@_W@__crt_stdio_output@@V?$standard_base@_WV?$stream_output_adapter@_W@__crt_stdio_output@@@2@@__crt_stdio_output@@CAPEA_WXZ 0000000180168edc f i libucrt:output.obj
 0001:00167ee4       ?wide_null_string@?$output_processor@_WV?$string_output_adapter@_W@__crt_stdio_output@@V?$format_validation_base@_WV?$string_output_adapter@_W@__crt_stdio_output@@@2@@__crt_stdio_output@@CAPEA_WXZ 0000000180168ee4 f i libucrt:output.obj
 0001:00167eec       ?wide_null_string@?$output_processor@_WV?$string_output_adapter@_W@__crt_stdio_output@@V?$positional_parameter_base@_WV?$string_output_adapter@_W@__crt_stdio_output@@@2@@__crt_stdio_output@@CAPEA_WXZ 0000000180168eec f i libucrt:output.obj
 0001:00167ef4       ?wide_null_string@?$output_processor@_WV?$string_output_adapter@_W@__crt_stdio_output@@V?$standard_base@_WV?$string_output_adapter@_W@__crt_stdio_output@@@2@@__crt_stdio_output@@CAPEA_WXZ 0000000180168ef4 f i libucrt:output.obj
 0001:00167efc       ?write_character@?$output_adapter_common@DV?$stream_output_adapter@D@__crt_stdio_output@@@__crt_stdio_output@@QEBAXDQEAH@Z 0000000180168efc f i libucrt:output.obj
 0001:00167f44       ?write_character@?$output_adapter_common@_WV?$stream_output_adapter@_W@__crt_stdio_output@@@__crt_stdio_output@@QEBAX_WQEAH@Z 0000000180168f44 f i libucrt:output.obj
 0001:00167f90       ?write_character@?$string_output_adapter@D@__crt_stdio_output@@QEBA_NDQEAH@Z 0000000180168f90 f i libucrt:output.obj
 0001:00167fd8       ?write_character@?$string_output_adapter@_W@__crt_stdio_output@@QEBA_N_WQEAH@Z 0000000180168fd8 f i libucrt:output.obj
 0001:00168020       ?write_character_without_count_update@?$stream_output_adapter@D@__crt_stdio_output@@QEBA_ND@Z 0000000180169020 f i libucrt:output.obj
 0001:00168060       ?write_character_without_count_update@?$stream_output_adapter@_W@__crt_stdio_output@@QEBA_N_W@Z 0000000180169060 f i libucrt:output.obj
 0001:001680a0       ?write_stored_string_tchar@?$output_processor@DV?$stream_output_adapter@D@__crt_stdio_output@@V?$format_validation_base@DV?$stream_output_adapter@D@__crt_stdio_output@@@2@@__crt_stdio_output@@AEAA_ND@Z 00000001801690a0 f i libucrt:output.obj
 0001:001681c4       ?write_stored_string_tchar@?$output_processor@DV?$stream_output_adapter@D@__crt_stdio_output@@V?$positional_parameter_base@DV?$stream_output_adapter@D@__crt_stdio_output@@@2@@__crt_stdio_output@@AEAA_ND@Z 00000001801691c4 f i libucrt:output.obj
 0001:001682e8       ?write_stored_string_tchar@?$output_processor@DV?$stream_output_adapter@D@__crt_stdio_output@@V?$standard_base@DV?$stream_output_adapter@D@__crt_stdio_output@@@2@@__crt_stdio_output@@AEAA_ND@Z 00000001801692e8 f i libucrt:output.obj
 0001:0016840c       ?write_stored_string_tchar@?$output_processor@DV?$string_output_adapter@D@__crt_stdio_output@@V?$format_validation_base@DV?$string_output_adapter@D@__crt_stdio_output@@@2@@__crt_stdio_output@@AEAA_ND@Z 000000018016940c f i libucrt:output.obj
 0001:001684e8       ?write_stored_string_tchar@?$output_processor@DV?$string_output_adapter@D@__crt_stdio_output@@V?$positional_parameter_base@DV?$string_output_adapter@D@__crt_stdio_output@@@2@@__crt_stdio_output@@AEAA_ND@Z 00000001801694e8 f i libucrt:output.obj
 0001:001685c4       ?write_stored_string_tchar@?$output_processor@DV?$string_output_adapter@D@__crt_stdio_output@@V?$standard_base@DV?$string_output_adapter@D@__crt_stdio_output@@@2@@__crt_stdio_output@@AEAA_ND@Z 00000001801695c4 f i libucrt:output.obj
 0001:001686a0       ?write_stored_string_tchar@?$output_processor@_WV?$stream_output_adapter@_W@__crt_stdio_output@@V?$format_validation_base@_WV?$stream_output_adapter@_W@__crt_stdio_output@@@2@@__crt_stdio_output@@AEAA_N_W@Z 00000001801696a0 f i libucrt:output.obj
 0001:001687a4       ?write_stored_string_tchar@?$output_processor@_WV?$stream_output_adapter@_W@__crt_stdio_output@@V?$positional_parameter_base@_WV?$stream_output_adapter@_W@__crt_stdio_output@@@2@@__crt_stdio_output@@AEAA_N_W@Z 00000001801697a4 f i libucrt:output.obj
 0001:001688a8       ?write_stored_string_tchar@?$output_processor@_WV?$stream_output_adapter@_W@__crt_stdio_output@@V?$standard_base@_WV?$stream_output_adapter@_W@__crt_stdio_output@@@2@@__crt_stdio_output@@AEAA_N_W@Z 00000001801698a8 f i libucrt:output.obj
 0001:001689ac       ?write_stored_string_tchar@?$output_processor@_WV?$string_output_adapter@_W@__crt_stdio_output@@V?$format_validation_base@_WV?$string_output_adapter@_W@__crt_stdio_output@@@2@@__crt_stdio_output@@AEAA_N_W@Z 00000001801699ac f i libucrt:output.obj
 0001:00168a94       ?write_stored_string_tchar@?$output_processor@_WV?$string_output_adapter@_W@__crt_stdio_output@@V?$positional_parameter_base@_WV?$string_output_adapter@_W@__crt_stdio_output@@@2@@__crt_stdio_output@@AEAA_N_W@Z 0000000180169a94 f i libucrt:output.obj
 0001:00168b7c       ?write_stored_string_tchar@?$output_processor@_WV?$string_output_adapter@_W@__crt_stdio_output@@V?$standard_base@_WV?$string_output_adapter@_W@__crt_stdio_output@@@2@@__crt_stdio_output@@AEAA_N_W@Z 0000000180169b7c f i libucrt:output.obj
 0001:00168c64       ?write_string@?$stream_output_adapter@D@__crt_stdio_output@@QEBAXQEBDHQEAHAEAV__crt_deferred_errno_cache@@@Z 0000000180169c64 f i libucrt:output.obj
 0001:00168c88       ?write_string@?$stream_output_adapter@_W@__crt_stdio_output@@QEBAXQEB_WHQEAHAEAV__crt_deferred_errno_cache@@@Z 0000000180169c88 f i libucrt:output.obj
 0001:00168cac       ?write_string@?$string_output_adapter@D@__crt_stdio_output@@QEBAXQEBDHQEAHAEAV__crt_deferred_errno_cache@@@Z 0000000180169cac f i libucrt:output.obj
 0001:00168d50       ?write_string@?$string_output_adapter@_W@__crt_stdio_output@@QEBAXQEB_WHQEAHAEAV__crt_deferred_errno_cache@@@Z 0000000180169d50 f i libucrt:output.obj
 0001:00168df8       ?write_string_impl@?$output_adapter_common@DV?$stream_output_adapter@D@__crt_stdio_output@@@__crt_stdio_output@@IEBAXQEBDHQEAHAEAV__crt_deferred_errno_cache@@@Z 0000000180169df8 f i libucrt:output.obj
 0001:00168ef0       ?write_string_impl@?$output_adapter_common@_WV?$stream_output_adapter@_W@__crt_stdio_output@@@__crt_stdio_output@@IEBAXQEB_WHQEAHAEAV__crt_deferred_errno_cache@@@Z 0000000180169ef0 f i libucrt:output.obj
 0001:00168ff0       __acrt_disable_global_locale_sync 0000000180169ff0 f i libucrt:output.obj
 0001:00168ff8       __acrt_enable_global_locale_sync 0000000180169ff8 f i libucrt:output.obj
 0001:00169004       __acrt_isleadbyte_l_noupdate 000000018016a004 f i libucrt:output.obj
 0001:00169028       __acrt_locale_changed      000000018016a028 f i libucrt:output.obj
 0001:00169034       __acrt_locale_get_ctype_array_value 000000018016a034 f i libucrt:output.obj
 0001:0016904c       __stdio_common_vfprintf    000000018016a04c f   libucrt:output.obj
 0001:001690d8       __stdio_common_vfprintf_p  000000018016a0d8 f   libucrt:output.obj
 0001:00169164       __stdio_common_vfprintf_s  000000018016a164 f   libucrt:output.obj
 0001:001691f0       __stdio_common_vfwprintf   000000018016a1f0 f   libucrt:output.obj
 0001:0016927c       __stdio_common_vfwprintf_p 000000018016a27c f   libucrt:output.obj
 0001:00169308       __stdio_common_vfwprintf_s 000000018016a308 f   libucrt:output.obj
 0001:00169394       __stdio_common_vsnprintf_s 000000018016a394 f   libucrt:output.obj
 0001:001694e0       __stdio_common_vsnwprintf_s 000000018016a4e0 f   libucrt:output.obj
 0001:0016963c       __stdio_common_vsprintf    000000018016a63c f   libucrt:output.obj
 0001:00169644       __stdio_common_vsprintf_p  000000018016a644 f   libucrt:output.obj
